gplink-0.13.7 beta
Copyright (c) 1998-2005 gputils project
Listing File Generated: 7-31-2011  19:51:45
 
 
Address  Value    Disassembly              Source
-------  -----    -----------              ------
                                           ;--------------------------------------------------------
                                           ; File Created by SDCC : free open source ANSI-C Compiler
                                           ; Version 2.9.0 #5416 (Aug  9 2009) (UNIX)
                                           ; This file was generated Sun Jul 31 19:51:45 2011
                                           ;--------------------------------------------------------
                                           ; PIC16 port for the Microchip 16-bit core micros
                                           ;--------------------------------------------------------
                                           	list	p=18f2550
                                           
                                           	radix dec
                                           
                                           ;--------------------------------------------------------
                                           ; public variables in this module
                                           ;--------------------------------------------------------
                                           	global _OneWireReset
                                           	global _OneWireReadBit
                                           	global _OneWireWriteBit
                                           	global _DS18B20Read
                                           	global _DS18B20Configure
                                           	global _DS18B20MatchRom
                                           	global _DS18B20ReadRom
                                           	global _DS18B20Find
                                           	global _DS18B20GetFirst
                                           	global _DS18B20GetNext
                                           	global _DS18B20_crc
                                           	global _DS18B20Rom
                                           	global _ROM
                                           	global _lastDiscrep
                                           	global _doneFlag
                                           	global _numROMs
                                           	global _dowcrc
                                           	global _TXBuffer
                                           	global _RXbuffer
                                           	global _usbrx
                                           	global _usbwp
                                           	global _usbrp
                                           	global _ep2_num_bytes_to_send
                                           	global _ep2_source_data
                                           	global _Delayms
                                           	global _Delayus
                                           	global _digitalwrite
                                           	global _digitalread
                                           	global _pinmode
                                           	global _toggle
                                           	global _OneWireRead
                                           	global _OneWireWrite
                                           	global _usbavailable
                                           	global _epapin_init
                                           	global _prepare_ep2_in
                                           	global _usbsend
                                           	global _epap_in
                                           	global _usbread
                                           	global _epap_out
                                           	global _epapout_init
                                           	global _setup
                                           	global _loop
                                           	global _pinguino_main
                                           	global _high_priority_isr
                                           	global _low_priority_isr
                                           	global _mask
                                           	global _port
                                           	global _dscrc_table
                                           
                                           ;--------------------------------------------------------
                                           ; extern variables in this module
                                           ;--------------------------------------------------------
                                           	extern __gptrput1
                                           	extern __gptrput2
                                           	extern __gptrget2
                                           	extern _SPPDATAbits
                                           	extern _SPPCFGbits
                                           	extern _SPPEPSbits
                                           	extern _SPPCONbits
                                           	extern _UFRMLbits
                                           	extern _UFRMHbits
                                           	extern _UIRbits
                                           	extern _UIEbits
                                           	extern _UEIRbits
                                           	extern _UEIEbits
                                           	extern _USTATbits
                                           	extern _UCONbits
                                           	extern _UADDRbits
                                           	extern _UCFGbits
                                           	extern _UEP0bits
                                           	extern _UEP1bits
                                           	extern _UEP2bits
                                           	extern _UEP3bits
                                           	extern _UEP4bits
                                           	extern _UEP5bits
                                           	extern _UEP6bits
                                           	extern _UEP7bits
                                           	extern _UEP8bits
                                           	extern _UEP9bits
                                           	extern _UEP10bits
                                           	extern _UEP11bits
                                           	extern _UEP12bits
                                           	extern _UEP13bits
                                           	extern _UEP14bits
                                           	extern _UEP15bits
                                           	extern _PORTAbits
                                           	extern _PORTBbits
                                           	extern _PORTCbits
                                           	extern _PORTDbits
                                           	extern _PORTEbits
                                           	extern _LATAbits
                                           	extern _LATBbits
                                           	extern _LATCbits
                                           	extern _LATDbits
                                           	extern _LATEbits
                                           	extern _TRISAbits
                                           	extern _TRISBbits
                                           	extern _TRISCbits
                                           	extern _TRISDbits
                                           	extern _TRISEbits
                                           	extern _OSCTUNEbits
                                           	extern _PIE1bits
                                           	extern _PIR1bits
                                           	extern _IPR1bits
                                           	extern _PIE2bits
                                           	extern _PIR2bits
                                           	extern _IPR2bits
                                           	extern _EECON1bits
                                           	extern _RCSTAbits
                                           	extern _TXSTAbits
                                           	extern _T3CONbits
                                           	extern _CMCONbits
                                           	extern _CVRCONbits
                                           	extern _ECCP1ASbits
                                           	extern _ECCP1DELbits
                                           	extern _BAUDCONbits
                                           	extern _CCP2CONbits
                                           	extern _CCP1CONbits
                                           	extern _ADCON2bits
                                           	extern _ADCON1bits
                                           	extern _ADCON0bits
                                           	extern _SSPCON2bits
                                           	extern _SSPCON1bits
                                           	extern _SSPSTATbits
                                           	extern _T2CONbits
                                           	extern _T1CONbits
                                           	extern _RCONbits
                                           	extern _WDTCONbits
                                           	extern _HLVDCONbits
                                           	extern _OSCCONbits
                                           	extern _T0CONbits
                                           	extern _STATUSbits
                                           	extern _FSR2Hbits
                                           	extern _BSRbits
                                           	extern _FSR1Hbits
                                           	extern _FSR0Hbits
                                           	extern _INTCON3bits
                                           	extern _INTCON2bits
                                           	extern _INTCONbits
                                           	extern _TBLPTRUbits
                                           	extern _PCLATHbits
                                           	extern _PCLATUbits
                                           	extern _STKPTRbits
                                           	extern _TOSUbits
                                           	extern _usb_device_state
                                           	extern _usb_active_cfg
                                           	extern _usb_active_alt_setting
                                           	extern _ep_bdt
                                           	extern _SPPDATA
                                           	extern _SPPCFG
                                           	extern _SPPEPS
                                           	extern _SPPCON
                                           	extern _UFRML
                                           	extern _UFRMH
                                           	extern _UIR
                                           	extern _UIE
                                           	extern _UEIR
                                           	extern _UEIE
                                           	extern _USTAT
                                           	extern _UCON
                                           	extern _UADDR
                                           	extern _UCFG
                                           	extern _UEP0
                                           	extern _UEP1
                                           	extern _UEP2
                                           	extern _UEP3
                                           	extern _UEP4
                                           	extern _UEP5
                                           	extern _UEP6
                                           	extern _UEP7
                                           	extern _UEP8
                                           	extern _UEP9
                                           	extern _UEP10
                                           	extern _UEP11
                                           	extern _UEP12
                                           	extern _UEP13
                                           	extern _UEP14
                                           	extern _UEP15
                                           	extern _PORTA
                                           	extern _PORTB
                                           	extern _PORTC
                                           	extern _PORTD
                                           	extern _PORTE
                                           	extern _LATA
                                           	extern _LATB
                                           	extern _LATC
                                           	extern _LATD
                                           	extern _LATE
                                           	extern _TRISA
                                           	extern _TRISB
                                           	extern _TRISC
                                           	extern _TRISD
                                           	extern _TRISE
                                           	extern _OSCTUNE
                                           	extern _PIE1
                                           	extern _PIR1
                                           	extern _IPR1
                                           	extern _PIE2
                                           	extern _PIR2
                                           	extern _IPR2
                                           	extern _EECON1
                                           	extern _EECON2
                                           	extern _EEDATA
                                           	extern _EEADR
                                           	extern _RCSTA
                                           	extern _TXSTA
                                           	extern _TXREG
                                           	extern _RCREG
                                           	extern _SPBRG
                                           	extern _SPBRGH
                                           	extern _T3CON
                                           	extern _TMR3L
                                           	extern _TMR3H
                                           	extern _CMCON
                                           	extern _CVRCON
                                           	extern _ECCP1AS
                                           	extern _ECCP1DEL
                                           	extern _BAUDCON
                                           	extern _CCP2CON
                                           	extern _CCPR2L
                                           	extern _CCPR2H
                                           	extern _CCP1CON
                                           	extern _CCPR1L
                                           	extern _CCPR1H
                                           	extern _ADCON2
                                           	extern _ADCON1
                                           	extern _ADCON0
                                           	extern _ADRESL
                                           	extern _ADRESH
                                           	extern _SSPCON2
                                           	extern _SSPCON1
                                           	extern _SSPSTAT
                                           	extern _SSPADD
                                           	extern _SSPBUF
                                           	extern _T2CON
                                           	extern _PR2
                                           	extern _TMR2
                                           	extern _T1CON
                                           	extern _TMR1L
                                           	extern _TMR1H
                                           	extern _RCON
                                           	extern _WDTCON
                                           	extern _HLVDCON
                                           	extern _OSCCON
                                           	extern _T0CON
                                           	extern _TMR0L
                                           	extern _TMR0H
                                           	extern _STATUS
                                           	extern _FSR2L
                                           	extern _FSR2H
                                           	extern _PLUSW2
                                           	extern _PREINC2
                                           	extern _POSTDEC2
                                           	extern _POSTINC2
                                           	extern _INDF2
                                           	extern _BSR
                                           	extern _FSR1L
                                           	extern _FSR1H
                                           	extern _PLUSW1
                                           	extern _PREINC1
                                           	extern _POSTDEC1
                                           	extern _POSTINC1
                                           	extern _INDF1
                                           	extern _WREG
                                           	extern _FSR0L
                                           	extern _FSR0H
                                           	extern _PLUSW0
                                           	extern _PREINC0
                                           	extern _POSTDEC0
                                           	extern _POSTINC0
                                           	extern _INDF0
                                           	extern _INTCON3
                                           	extern _INTCON2
                                           	extern _INTCON
                                           	extern _PRODL
                                           	extern _PRODH
                                           	extern _TABLAT
                                           	extern _TBLPTRL
                                           	extern _TBLPTRH
                                           	extern _TBLPTRU
                                           	extern _PCL
                                           	extern _PCLATH
                                           	extern _PCLATU
                                           	extern _STKPTR
                                           	extern _TOSL
                                           	extern _TOSH
                                           	extern _TOSU
                                           	extern _dispatch_usb_event
                                           	extern _fill_in_buffer
                                           	extern _delay10ktcy
                                           	extern __mulint
                                           	extern __divuint
                                           ;--------------------------------------------------------
                                           ;	Equates to used internal registers
                                           ;--------------------------------------------------------
                                           STATUS	equ	0xfd8
                                           PCL	equ	0xff9
                                           PCLATH	equ	0xffa
                                           PCLATU	equ	0xffb
                                           WREG	equ	0xfe8
                                           BSR	equ	0xfe0
                                           TBLPTRL	equ	0xff6
                                           TBLPTRH	equ	0xff7
                                           TBLPTRU	equ	0xff8
                                           TABLAT	equ	0xff5
                                           FSR0L	equ	0xfe9
                                           FSR0H	equ	0xfea
                                           FSR1L	equ	0xfe1
                                           FSR2L	equ	0xfd9
                                           INDF0	equ	0xfef
                                           POSTDEC1	equ	0xfe5
                                           PREINC1	equ	0xfe4
                                           PLUSW2	equ	0xfdb
                                           PRODL	equ	0xff3
                                           PRODH	equ	0xff4
                                           
                                           
                                           	idata
                                           _lastDiscrep	db	0x00
                                           _doneFlag	db	0x00
                                           
                                           
                                           ; Internal registers
                                           .registers	udata_ovr	0x0000
                                           r0x00	res	1
                                           r0x01	res	1
                                           r0x02	res	1
                                           r0x03	res	1
                                           r0x04	res	1
                                           r0x05	res	1
                                           r0x06	res	1
                                           r0x07	res	1
                                           r0x08	res	1
                                           r0x09	res	1
                                           r0x0a	res	1
                                           r0x0b	res	1
                                           
                                           
                                           usb_buf	udata
                                           _TXBuffer	res	64
                                           _RXbuffer	res	64
                                           
                                           udata_main_0	udata
                                           _last_send_was_null	res	1
                                           
                                           udata_main_1	udata
                                           _DS18B20Rom	res	48
                                           
                                           udata_main_2	udata
                                           _numROMs	res	1
                                           
                                           udata_main_3	udata
                                           _ROM	res	8
                                           
                                           udata_main_4	udata
                                           _dowcrc	res	1
                                           
                                           udata_main_5	udata
                                           _usbwp	res	1
                                           
                                           udata_main_6	udata
                                           _usbrp	res	1
                                           
                                           udata_main_7	udata
                                           _ep2_num_bytes_to_send	res	2
                                           
                                           udata_main_8	udata
                                           _ep2_source_data	res	3
                                           
                                           udata_main_9	udata
                                           _usbrx	res	64
                                           
                                           udata_main_10	udata
                                           _loop_t_1_1	res	4
                                           
                                           udata_main_11	udata
                                           _loop_temp_1_1	res	4
                                           
                                           ;--------------------------------------------------------
                                           ; global & static initialisations
                                           ;--------------------------------------------------------
                                           ; ; Starting pCode block
                                           S_main__high_priority_isr	code	0X002020
                                           _high_priority_isr:
                                           ;	.line	129; /home/mandon/pinguino32X2/trunk/x.2/source/main.c	void high_priority_isr(void) interrupt
002020   cfe8     movff	0xfe8, 0xfe5       	MOVFF	WREG, POSTDEC1
002022   ffe5
002024   cfd8     movff	0xfd8, 0xfe5       	MOVFF	STATUS, POSTDEC1
002026   ffe5
002028   cfe0     movff	0xfe0, 0xfe5       	MOVFF	BSR, POSTDEC1
00202a   ffe5
00202c   cff3     movff	0xff3, 0xfe5       	MOVFF	PRODL, POSTDEC1
00202e   ffe5
002030   cff4     movff	0xff4, 0xfe5       	MOVFF	PRODH, POSTDEC1
002032   ffe5
002034   cfe9     movff	0xfe9, 0xfe5       	MOVFF	FSR0L, POSTDEC1
002036   ffe5
002038   cfea     movff	0xfea, 0xfe5       	MOVFF	FSR0H, POSTDEC1
00203a   ffe5
00203c   cffa     movff	0xffa, 0xfe5       	MOVFF	PCLATH, POSTDEC1
00203e   ffe5
002040   cffb     movff	0xffb, 0xfe5       	MOVFF	PCLATU, POSTDEC1
002042   ffe5
                                           ;	.line	154; /home/mandon/pinguino32X2/trunk/x.2/source/main.c	if(PIR2bits.USBIF)
002044   aaa1     btfss	0xa1, 0x5, 0       	BTFSS	_PIR2bits, 5
002046   d006     bra	0x2054               	BRA	_00620_DS_
                                           ;	.line	156; /home/mandon/pinguino32X2/trunk/x.2/source/main.c	dispatch_usb_event();
002048   ec0f     call	0x1e, 0             	CALL	_dispatch_usb_event
00204a   f000
                                           ;	.line	157; /home/mandon/pinguino32X2/trunk/x.2/source/main.c	UIRbits.SOFIF = 0;
00204c   9c68     bcf	0x68, 0x6, 0         	BCF	_UIRbits, 6
                                           ;	.line	158; /home/mandon/pinguino32X2/trunk/x.2/source/main.c	UIRbits.URSTIF = 0;
00204e   9068     bcf	0x68, 0, 0           	BCF	_UIRbits, 0
                                           ;	.line	159; /home/mandon/pinguino32X2/trunk/x.2/source/main.c	PIR2bits.USBIF = 0;
002050   9aa1     bcf	0xa1, 0x5, 0         	BCF	_PIR2bits, 5
                                           ;	.line	160; /home/mandon/pinguino32X2/trunk/x.2/source/main.c	UEIR = 0;
002052   6a6a     clrf	0x6a, 0             	CLRF	_UEIR
                                           _00620_DS_:
002054   cfe4     movff	0xfe4, 0xffb       	MOVFF	PREINC1, PCLATU
002056   fffb
002058   cfe4     movff	0xfe4, 0xffa       	MOVFF	PREINC1, PCLATH
00205a   fffa
00205c   cfe4     movff	0xfe4, 0xfea       	MOVFF	PREINC1, FSR0H
00205e   ffea
002060   cfe4     movff	0xfe4, 0xfe9       	MOVFF	PREINC1, FSR0L
002062   ffe9
002064   cfe4     movff	0xfe4, 0xff4       	MOVFF	PREINC1, PRODH
002066   fff4
002068   cfe4     movff	0xfe4, 0xff3       	MOVFF	PREINC1, PRODL
00206a   fff3
00206c   cfe4     movff	0xfe4, 0xfe0       	MOVFF	PREINC1, BSR
00206e   ffe0
002070   cfe4     movff	0xfe4, 0xfd8       	MOVFF	PREINC1, STATUS
002072   ffd8
002074   cfe4     movff	0xfe4, 0xfe8       	MOVFF	PREINC1, WREG
002076   ffe8
002078   0010     retfie	0                 	RETFIE	
                                           
                                           ; ; Starting pCode block
                                           S_main__low_priority_isr	code	0X004000
                                           _low_priority_isr:
                                           ;	.line	193; /home/mandon/pinguino32X2/trunk/x.2/source/main.c	void low_priority_isr(void) interrupt
004000   cfe8     movff	0xfe8, 0xfe5       	MOVFF	WREG, POSTDEC1
004002   ffe5
004004   cfd8     movff	0xfd8, 0xfe5       	MOVFF	STATUS, POSTDEC1
004006   ffe5
004008   cfe0     movff	0xfe0, 0xfe5       	MOVFF	BSR, POSTDEC1
00400a   ffe5
00400c   cff3     movff	0xff3, 0xfe5       	MOVFF	PRODL, POSTDEC1
00400e   ffe5
004010   cff4     movff	0xff4, 0xfe5       	MOVFF	PRODH, POSTDEC1
004012   ffe5
004014   cfe9     movff	0xfe9, 0xfe5       	MOVFF	FSR0L, POSTDEC1
004016   ffe5
004018   cfea     movff	0xfea, 0xfe5       	MOVFF	FSR0H, POSTDEC1
00401a   ffe5
00401c   cffa     movff	0xffa, 0xfe5       	MOVFF	PCLATH, POSTDEC1
00401e   ffe5
004020   cffb     movff	0xffb, 0xfe5       	MOVFF	PCLATU, POSTDEC1
004022   ffe5
                                           ;	.line	198; /home/mandon/pinguino32X2/trunk/x.2/source/main.c	}
004024   cfe4     movff	0xfe4, 0xffb       	MOVFF	PREINC1, PCLATU
004026   fffb
004028   cfe4     movff	0xfe4, 0xffa       	MOVFF	PREINC1, PCLATH
00402a   fffa
00402c   cfe4     movff	0xfe4, 0xfea       	MOVFF	PREINC1, FSR0H
00402e   ffea
004030   cfe4     movff	0xfe4, 0xfe9       	MOVFF	PREINC1, FSR0L
004032   ffe9
004034   cfe4     movff	0xfe4, 0xff4       	MOVFF	PREINC1, PRODH
004036   fff4
004038   cfe4     movff	0xfe4, 0xff3       	MOVFF	PREINC1, PRODL
00403a   fff3
00403c   cfe4     movff	0xfe4, 0xfe0       	MOVFF	PREINC1, BSR
00403e   ffe0
004040   cfe4     movff	0xfe4, 0xfd8       	MOVFF	PREINC1, STATUS
004042   ffd8
004044   cfe4     movff	0xfe4, 0xfe8       	MOVFF	PREINC1, WREG
004046   ffe8
004048   0010     retfie	0                 	RETFIE	
                                           
                                           ; I code from now on!
                                           ; ; Starting pCode block
                                           S_main__pinguino_main	code
                                           _pinguino_main:
                                           ;	.line	57; /home/mandon/pinguino32X2/trunk/x.2/source/main.c	PIE1 = 0;
003a84   6a9d     clrf	0x9d, 0             	CLRF	_PIE1
                                           ;	.line	58; /home/mandon/pinguino32X2/trunk/x.2/source/main.c	PIE2 = 0;
003a86   6aa0     clrf	0xa0, 0             	CLRF	_PIE2
                                           ;	.line	59; /home/mandon/pinguino32X2/trunk/x.2/source/main.c	ADCON1 = 0b00001111;				// AN0 to AN12 Digital I/O
003a88   0e0f     movlw	0xf                	MOVLW	0x0f
003a8a   6ec1     movwf	0xc1, 0            	MOVWF	_ADCON1
                                           ;	.line	66; /home/mandon/pinguino32X2/trunk/x.2/source/main.c	PIE2bits.USBIE  = 1;
003a8c   8aa0     bsf	0xa0, 0x5, 0         	BSF	_PIE2bits, 5
                                           ;	.line	67; /home/mandon/pinguino32X2/trunk/x.2/source/main.c	INTCONbits.PEIE = 1;
003a8e   8cf2     bsf	0xf2, 0x6, 0         	BSF	_INTCONbits, 6
                                           ;	.line	68; /home/mandon/pinguino32X2/trunk/x.2/source/main.c	INTCONbits.GIE  = 1;
003a90   8ef2     bsf	0xf2, 0x7, 0         	BSF	_INTCONbits, 7
                                           ;	.line	71; /home/mandon/pinguino32X2/trunk/x.2/source/main.c	setup();
003a92   ec6a     call	0x3ad4, 0           	CALL	_setup
003a94   f01d
                                           _00611_DS_:
                                           ;	.line	123; /home/mandon/pinguino32X2/trunk/x.2/source/main.c	loop();
003a96   ec5f     call	0x34be, 0           	CALL	_loop
003a98   f01a
003a9a   d7fd     bra	0x3a96               	BRA	_00611_DS_
003a9c   0012     return	0                 	RETURN	
                                           
                                           ; ; Starting pCode block
                                           S_main__loop	code
                                           _loop:
                                           ;	.line	29; /home/mandon/pinguino32X2/trunk/x.2/source/user.c	void loop()
0034be   c000     movff	0, 0xfe5           	MOVFF	r0x00, POSTDEC1
0034c0   ffe5
                                           ;	.line	36; /home/mandon/pinguino32X2/trunk/x.2/source/user.c	if (DS18B20Read(ONEWIREBUS, SKIPROM, RES12BIT, &t))
0034c2   0e80     movlw	0x80               	MOVLW	0x80
                                           ; #	MOVWF	r0x02
                                           ; #	MOVF	r0x02, W
0034c4   6ee5     movwf	0xe5, 0            	MOVWF	POSTDEC1
0034c6   0e02     movlw	0x2                	MOVLW	HIGH(_loop_t_1_1)
0034c8   6ee5     movwf	0xe5, 0            	MOVWF	POSTDEC1
0034ca   0e78     movlw	0x78               	MOVLW	LOW(_loop_t_1_1)
0034cc   6ee5     movwf	0xe5, 0            	MOVWF	POSTDEC1
0034ce   0e01     movlw	0x1                	MOVLW	0x01
0034d0   6ee5     movwf	0xe5, 0            	MOVWF	POSTDEC1
0034d2   0ecc     movlw	0xcc               	MOVLW	0xcc
0034d4   6ee5     movwf	0xe5, 0            	MOVWF	POSTDEC1
0034d6   0e00     movlw	0                  	MOVLW	0x00
0034d8   6ae5     clrf	0xe5, 0             	CLRF	POSTDEC1
0034da   ec5d     call	0x24ba, 0           	CALL	_DS18B20Read
0034dc   f012
0034de   6e00     movwf	0, 0               	MOVWF	r0x00
0034e0   0e06     movlw	0x6                	MOVLW	0x06
0034e2   26e1     addwf	0xe1, 0x1, 0       	ADDWF	FSR1L, F
0034e4   5000     movf	0, 0, 0             	MOVF	r0x00, W
0034e6   e027     bz	0x3536                	BZ	_00605_DS_
0034e8   0102     movlb	0x2                	BANKSEL	_loop_t_1_1
                                           ;	.line	39; /home/mandon/pinguino32X2/trunk/x.2/source/user.c	temp[0] = t.sign;			
0034ea   5178     movf	0x78, 0, 0x1        	MOVF	_loop_t_1_1, W, B
0034ec   0102     movlb	0x2                	BANKSEL	_loop_temp_1_1
0034ee   6f7c     movwf	0x7c, 0x1          	MOVWF	_loop_temp_1_1, B
0034f0   0102     movlb	0x2                	BANKSEL	(_loop_t_1_1 + 1)
                                           ;	.line	40; /home/mandon/pinguino32X2/trunk/x.2/source/user.c	temp[1] = t.integer;		
0034f2   5179     movf	0x79, 0, 0x1        	MOVF	(_loop_t_1_1 + 1), W, B
0034f4   0102     movlb	0x2                	BANKSEL	(_loop_temp_1_1 + 1)
0034f6   6f7d     movwf	0x7d, 0x1          	MOVWF	(_loop_temp_1_1 + 1), B
0034f8   0102     movlb	0x2                	BANKSEL	(_loop_t_1_1 + 3)
                                           ;	.line	41; /home/mandon/pinguino32X2/trunk/x.2/source/user.c	temp[2] = high8(t.fraction);	
0034fa   517b     movf	0x7b, 0, 0x1        	MOVF	(_loop_t_1_1 + 3), W, B
0034fc   0102     movlb	0x2                	BANKSEL	(_loop_temp_1_1 + 2)
0034fe   6f7e     movwf	0x7e, 0x1          	MOVWF	(_loop_temp_1_1 + 2), B
003500   0102     movlb	0x2                	BANKSEL	(_loop_t_1_1 + 2)
                                           ;	.line	42; /home/mandon/pinguino32X2/trunk/x.2/source/user.c	temp[3] = low8(t.fraction);
003502   517a     movf	0x7a, 0, 0x1        	MOVF	(_loop_t_1_1 + 2), W, B
003504   0102     movlb	0x2                	BANKSEL	(_loop_temp_1_1 + 3)
003506   6f7f     movwf	0x7f, 0x1          	MOVWF	(_loop_temp_1_1 + 3), B
                                           ;	.line	43; /home/mandon/pinguino32X2/trunk/x.2/source/user.c	usbsend(temp, 4);			
003508   6ae5     clrf	0xe5, 0             	CLRF	POSTDEC1
00350a   0e04     movlw	0x4                	MOVLW	0x04
00350c   6ee5     movwf	0xe5, 0            	MOVWF	POSTDEC1
00350e   0e80     movlw	0x80               	MOVLW	0x80
003510   6ee5     movwf	0xe5, 0            	MOVWF	POSTDEC1
003512   0e02     movlw	0x2                	MOVLW	HIGH(_loop_temp_1_1)
003514   6ee5     movwf	0xe5, 0            	MOVWF	POSTDEC1
003516   0e7c     movlw	0x7c               	MOVLW	LOW(_loop_temp_1_1)
003518   6ee5     movwf	0xe5, 0            	MOVWF	POSTDEC1
00351a   ecd7     call	0x39ae, 0           	CALL	_usbsend
00351c   f01c
00351e   0e05     movlw	0x5                	MOVLW	0x05
003520   26e1     addwf	0xe1, 0x1, 0       	ADDWF	FSR1L, F
                                           ;	.line	45; /home/mandon/pinguino32X2/trunk/x.2/source/user.c	Delayms(1000);			
003522   6ae5     clrf	0xe5, 0             	CLRF	POSTDEC1
003524   6ae5     clrf	0xe5, 0             	CLRF	POSTDEC1
003526   0e03     movlw	0x3                	MOVLW	0x03
003528   6ee5     movwf	0xe5, 0            	MOVWF	POSTDEC1
00352a   0ee8     movlw	0xe8               	MOVLW	0xe8
00352c   6ee5     movwf	0xe5, 0            	MOVWF	POSTDEC1
00352e   ecc5     call	0x338a, 0           	CALL	_Delayms
003530   f019
003532   0e04     movlw	0x4                	MOVLW	0x04
003534   26e1     addwf	0xe1, 0x1, 0       	ADDWF	FSR1L, F
                                           _00605_DS_:
003536   cfe4     movff	0xfe4, 0           	MOVFF	PREINC1, r0x00
003538   f000
00353a   0012     return	0                 	RETURN	
                                           
                                           ; ; Starting pCode block
                                           S_main__setup	code
                                           _setup:
                                           ;	.line	27; /home/mandon/pinguino32X2/trunk/x.2/source/user.c	}
003ad4   0012     return	0                 	RETURN	
                                           
                                           ; ; Starting pCode block
                                           S_main__epapout_init	code
                                           _epapout_init:
                                           ;	.line	146; /home/mandon/pinguino32X2/trunk/x.2/p8/share/sdcc/include/pic16/usb.c	EP_OUT_BD(1).Cnt = EP1_BUFFER_SIZE;
003a62   0e40     movlw	0x40               	MOVLW	0x40
003a64   0104     movlb	0x4                	BANKSEL	(_ep_bdt + 9)
003a66   6f09     movwf	0x9, 0x1           	MOVWF	(_ep_bdt + 9), B
                                           ;	.line	147; /home/mandon/pinguino32X2/trunk/x.2/p8/share/sdcc/include/pic16/usb.c	EP_OUT_BD(1).ADR = (uchar __data *)&RXbuffer;
003a68   0e40     movlw	0x40               	MOVLW	LOW(_RXbuffer)
                                           ; removed redundant BANKSEL
003a6a   6f0a     movwf	0xa, 0x1           	MOVWF	(_ep_bdt + 10), B
003a6c   0e06     movlw	0x6                	MOVLW	HIGH(_RXbuffer)
                                           ; removed redundant BANKSEL
003a6e   6f0b     movwf	0xb, 0x1           	MOVWF	(_ep_bdt + 11), B
                                           ;	.line	148; /home/mandon/pinguino32X2/trunk/x.2/p8/share/sdcc/include/pic16/usb.c	EP_OUT_BD(1).Stat.uc = BDS_USIE | BDS_DAT0 | BDS_DTSEN;
003a70   0e88     movlw	0x88               	MOVLW	0x88
                                           ; removed redundant BANKSEL
003a72   6f08     movwf	0x8, 0x1           	MOVWF	(_ep_bdt + 8), B
                                           ;	.line	149; /home/mandon/pinguino32X2/trunk/x.2/p8/share/sdcc/include/pic16/usb.c	UEP1 = EPHSHK_EN | EPOUTEN_EN | EPCONDIS_EN;       	// Init EPAPPLI as an OUT EP
003a74   0e1c     movlw	0x1c               	MOVLW	0x1c
003a76   6e71     movwf	0x71, 0            	MOVWF	_UEP1
                                           ; #	MOVLW	0x01
                                           ; #	MOVWF	_usbwp, B
                                           ; #	MOVLW	0x01
                                           ;	.line	150; /home/mandon/pinguino32X2/trunk/x.2/p8/share/sdcc/include/pic16/usb.c	usbwp=1;						// init pointer for rx buffer pinguino
003a78   0e01     movlw	0x1                	MOVLW	0x01
003a7a   0102     movlb	0x2                	BANKSEL	_usbwp
                                           ;	.line	151; /home/mandon/pinguino32X2/trunk/x.2/p8/share/sdcc/include/pic16/usb.c	usbrp=1;
003a7c   6f8b     movwf	0x8b, 0x1          	MOVWF	_usbwp, B
003a7e   0102     movlb	0x2                	BANKSEL	_usbrp
003a80   6f8c     movwf	0x8c, 0x1          	MOVWF	_usbrp, B
003a82   0012     return	0                 	RETURN	
                                           
                                           ; ; Starting pCode block
                                           S_main__epap_out	code
                                           _epap_out:
                                           ;	.line	110; /home/mandon/pinguino32X2/trunk/x.2/p8/share/sdcc/include/pic16/usb.c	void epap_out(void)
00309e   c000     movff	0, 0xfe5           	MOVFF	r0x00, POSTDEC1
0030a0   ffe5
0030a2   c001     movff	0x1, 0xfe5         	MOVFF	r0x01, POSTDEC1
0030a4   ffe5
0030a6   c002     movff	0x2, 0xfe5         	MOVFF	r0x02, POSTDEC1
0030a8   ffe5
0030aa   c003     movff	0x3, 0xfe5         	MOVFF	r0x03, POSTDEC1
0030ac   ffe5
                                           ;	.line	116; /home/mandon/pinguino32X2/trunk/x.2/p8/share/sdcc/include/pic16/usb.c	if((EP_OUT_BD(1).Cnt >= 1) && ( EP_OUT_BD(1).Cnt<EP1_BUFFER_SIZE))
0030ae   0e01     movlw	0x1                	MOVLW	0x01
0030b0   0104     movlb	0x4                	BANKSEL	(_ep_bdt + 9)
0030b2   5d09     subwf	0x9, 0, 0x1        	SUBWF	(_ep_bdt + 9), W, B
0030b4   a0d8     btfss	0xd8, 0, 0         	BTFSS	STATUS, 0
0030b6   d047     bra	0x3146               	BRA	_00562_DS_
0030b8   0e40     movlw	0x40               	MOVLW	0x40
                                           ; removed redundant BANKSEL
0030ba   5d09     subwf	0x9, 0, 0x1        	SUBWF	(_ep_bdt + 9), W, B
0030bc   b0d8     btfsc	0xd8, 0, 0         	BTFSC	STATUS, 0
0030be   d043     bra	0x3146               	BRA	_00562_DS_
                                           ;	.line	118; /home/mandon/pinguino32X2/trunk/x.2/p8/share/sdcc/include/pic16/usb.c	for (cpt=0;cpt<EP_OUT_BD(1).Cnt;cpt++)
0030c0   6a00     clrf	0, 0                	CLRF	r0x00
                                           _00565_DS_:
0030c2   0104     movlb	0x4                	BANKSEL	(_ep_bdt + 9)
0030c4   5109     movf	0x9, 0, 0x1         	MOVF	(_ep_bdt + 9), W, B
0030c6   5c00     subwf	0, 0, 0            	SUBWF	r0x00, W
0030c8   e232     bc	0x312e                	BC	_00568_DS_
                                           ;	.line	120; /home/mandon/pinguino32X2/trunk/x.2/p8/share/sdcc/include/pic16/usb.c	caractere=RXbuffer[cpt];
0030ca   0e40     movlw	0x40               	MOVLW	LOW(_RXbuffer)
0030cc   2400     addwf	0, 0, 0            	ADDWF	r0x00, W
0030ce   6e01     movwf	0x1, 0             	MOVWF	r0x01
0030d0   6a02     clrf	0x2, 0              	CLRF	r0x02
0030d2   0e06     movlw	0x6                	MOVLW	HIGH(_RXbuffer)
0030d4   2202     addwfc	0x2, 0x1, 0       	ADDWFC	r0x02, F
0030d6   c001     movff	0x1, 0xfe9         	MOVFF	r0x01, FSR0L
0030d8   ffe9
0030da   c002     movff	0x2, 0xfea         	MOVFF	r0x02, FSR0H
0030dc   ffea
0030de   cfef     movff	0xfef, 0x1         	MOVFF	INDF0, r0x01
0030e0   f001
0030e2   0102     movlb	0x2                	BANKSEL	_usbwp
                                           ;	.line	121; /home/mandon/pinguino32X2/trunk/x.2/p8/share/sdcc/include/pic16/usb.c	if (usbwp!=USBRXSIZE-1) newusbwp=usbwp+1;               
0030e4   518b     movf	0x8b, 0, 0x1        	MOVF	_usbwp, W, B
0030e6   0a3f     xorlw	0x3f               	XORLW	0x3f
0030e8   e004     bz	0x30f2                	BZ	_00552_DS_
                                           _00584_DS_:
0030ea   0102     movlb	0x2                	BANKSEL	_usbwp
0030ec   298b     incf	0x8b, 0, 0x1        	INCF	_usbwp, W, B
0030ee   6e02     movwf	0x2, 0             	MOVWF	r0x02
0030f0   d002     bra	0x30f6               	BRA	_00553_DS_
                                           _00552_DS_:
                                           ;	.line	122; /home/mandon/pinguino32X2/trunk/x.2/p8/share/sdcc/include/pic16/usb.c	else newusbwp=1;
0030f2   0e01     movlw	0x1                	MOVLW	0x01
0030f4   6e02     movwf	0x2, 0             	MOVWF	r0x02
                                           _00553_DS_:
0030f6   0102     movlb	0x2                	BANKSEL	_usbrp
                                           ;	.line	123; /home/mandon/pinguino32X2/trunk/x.2/p8/share/sdcc/include/pic16/usb.c	if (usbrp!=newusbwp) usbrx[usbwp++]=caractere;
0030f8   518c     movf	0x8c, 0, 0x1        	MOVF	_usbrp, W, B
0030fa   1802     xorwf	0x2, 0, 0          	XORWF	r0x02, W
0030fc   e00f     bz	0x311c                	BZ	_00555_DS_
0030fe   c28b     movff	0x28b, 0x2         	MOVFF	_usbwp, r0x02
003100   f002
003102   0102     movlb	0x2                	BANKSEL	_usbwp
003104   2b8b     incf	0x8b, 0x1, 0x1      	INCF	_usbwp, F, B
003106   6a03     clrf	0x3, 0              	CLRF	r0x03
003108   0e00     movlw	0                  	MOVLW	LOW(_usbrx)
00310a   2602     addwf	0x2, 0x1, 0        	ADDWF	r0x02, F
00310c   0e02     movlw	0x2                	MOVLW	HIGH(_usbrx)
00310e   2203     addwfc	0x3, 0x1, 0       	ADDWFC	r0x03, F
003110   c002     movff	0x2, 0xfe9         	MOVFF	r0x02, FSR0L
003112   ffe9
003114   c003     movff	0x3, 0xfea         	MOVFF	r0x03, FSR0H
003116   ffea
003118   c001     movff	0x1, 0xfef         	MOVFF	r0x01, INDF0
00311a   ffef
                                           _00555_DS_:
00311c   0102     movlb	0x2                	BANKSEL	_usbwp
                                           ;	.line	124; /home/mandon/pinguino32X2/trunk/x.2/p8/share/sdcc/include/pic16/usb.c	if (usbwp==USBRXSIZE) usbwp=1;
00311e   518b     movf	0x8b, 0, 0x1        	MOVF	_usbwp, W, B
003120   0a40     xorlw	0x40               	XORLW	0x40
003122   e103     bnz	0x312a               	BNZ	_00567_DS_
003124   0e01     movlw	0x1                	MOVLW	0x01
003126   0102     movlb	0x2                	BANKSEL	_usbwp
003128   6f8b     movwf	0x8b, 0x1          	MOVWF	_usbwp, B
                                           _00567_DS_:
                                           ;	.line	118; /home/mandon/pinguino32X2/trunk/x.2/p8/share/sdcc/include/pic16/usb.c	for (cpt=0;cpt<EP_OUT_BD(1).Cnt;cpt++)
00312a   2a00     incf	0, 0x1, 0           	INCF	r0x00, F
00312c   d7ca     bra	0x30c2               	BRA	_00565_DS_
                                           _00568_DS_:
                                           ;	.line	126; /home/mandon/pinguino32X2/trunk/x.2/p8/share/sdcc/include/pic16/usb.c	EP_OUT_BD(1).Cnt = EP1_BUFFER_SIZE;
00312e   0e40     movlw	0x40               	MOVLW	0x40
003130   0104     movlb	0x4                	BANKSEL	(_ep_bdt + 9)
003132   6f09     movwf	0x9, 0x1           	MOVWF	(_ep_bdt + 9), B
                                           ; removed redundant BANKSEL
                                           ;	.line	127; /home/mandon/pinguino32X2/trunk/x.2/p8/share/sdcc/include/pic16/usb.c	if(EP_OUT_BD(1).Stat.DTS == 0)
003134   bd08     btfsc	0x8, 0x6, 0x1      	BTFSC	(_ep_bdt + 8), 6, B
003136   d003     bra	0x313e               	BRA	_00559_DS_
                                           ;	.line	129; /home/mandon/pinguino32X2/trunk/x.2/p8/share/sdcc/include/pic16/usb.c	EP_OUT_BD(1).Stat.uc = BDS_USIE | BDS_DAT1 | BDS_DTSEN;
003138   0ec8     movlw	0xc8               	MOVLW	0xc8
                                           ; removed redundant BANKSEL
00313a   6f08     movwf	0x8, 0x1           	MOVWF	(_ep_bdt + 8), B
00313c   d00d     bra	0x3158               	BRA	_00569_DS_
                                           _00559_DS_:
                                           ;	.line	133; /home/mandon/pinguino32X2/trunk/x.2/p8/share/sdcc/include/pic16/usb.c	EP_OUT_BD(1).Stat.uc = BDS_USIE | BDS_DAT0 | BDS_DTSEN;
00313e   0e88     movlw	0x88               	MOVLW	0x88
003140   0104     movlb	0x4                	BANKSEL	(_ep_bdt + 8)
003142   6f08     movwf	0x8, 0x1           	MOVWF	(_ep_bdt + 8), B
003144   d009     bra	0x3158               	BRA	_00569_DS_
                                           _00562_DS_:
                                           ;	.line	138; /home/mandon/pinguino32X2/trunk/x.2/p8/share/sdcc/include/pic16/usb.c	EP_OUT_BD(1).Cnt = EP1_BUFFER_SIZE;
003146   0e40     movlw	0x40               	MOVLW	0x40
003148   0104     movlb	0x4                	BANKSEL	(_ep_bdt + 9)
00314a   6f09     movwf	0x9, 0x1           	MOVWF	(_ep_bdt + 9), B
                                           ;	.line	139; /home/mandon/pinguino32X2/trunk/x.2/p8/share/sdcc/include/pic16/usb.c	EP_OUT_BD(1).ADR = (uchar __data *)&RXbuffer;
00314c   0e40     movlw	0x40               	MOVLW	LOW(_RXbuffer)
                                           ; removed redundant BANKSEL
00314e   6f0a     movwf	0xa, 0x1           	MOVWF	(_ep_bdt + 10), B
003150   0e06     movlw	0x6                	MOVLW	HIGH(_RXbuffer)
                                           ; removed redundant BANKSEL
003152   6f0b     movwf	0xb, 0x1           	MOVWF	(_ep_bdt + 11), B
                                           ;	.line	140; /home/mandon/pinguino32X2/trunk/x.2/p8/share/sdcc/include/pic16/usb.c	EP_OUT_BD(1).Stat.uc = BDS_USIE | BDS_BSTALL;
003154   0e84     movlw	0x84               	MOVLW	0x84
                                           ; removed redundant BANKSEL
003156   6f08     movwf	0x8, 0x1           	MOVWF	(_ep_bdt + 8), B
                                           _00569_DS_:
003158   cfe4     movff	0xfe4, 0x3         	MOVFF	PREINC1, r0x03
00315a   f003
00315c   cfe4     movff	0xfe4, 0x2         	MOVFF	PREINC1, r0x02
00315e   f002
003160   cfe4     movff	0xfe4, 0x1         	MOVFF	PREINC1, r0x01
003162   f001
003164   cfe4     movff	0xfe4, 0           	MOVFF	PREINC1, r0x00
003166   f000
003168   0012     return	0                 	RETURN	
                                           
                                           ; ; Starting pCode block
                                           S_main__usbread	code
                                           _usbread:
                                           ;	.line	97; /home/mandon/pinguino32X2/trunk/x.2/p8/share/sdcc/include/pic16/usb.c	uchar usbread()
0038c2   c000     movff	0, 0xfe5           	MOVFF	r0x00, POSTDEC1
0038c4   ffe5
0038c6   c001     movff	0x1, 0xfe5         	MOVFF	r0x01, POSTDEC1
0038c8   ffe5
0038ca   c002     movff	0x2, 0xfe5         	MOVFF	r0x02, POSTDEC1
0038cc   ffe5
                                           ;	.line	99; /home/mandon/pinguino32X2/trunk/x.2/p8/share/sdcc/include/pic16/usb.c	uchar caractere=0;
0038ce   6a00     clrf	0, 0                	CLRF	r0x00
                                           ;	.line	101; /home/mandon/pinguino32X2/trunk/x.2/p8/share/sdcc/include/pic16/usb.c	if (usbavailable)
0038d0   503c     movf	0x3c, 0, 0          	MOVF	LOW(_usbavailable), W
0038d2   103a     iorwf	0x3a, 0, 0         	IORWF	HIGH(_usbavailable), W
0038d4   1000     iorwf	0, 0, 0            	IORWF	UPPER(_usbavailable), W
0038d6   e015     bz	0x3902                	BZ	_00540_DS_
                                           ;	.line	103; /home/mandon/pinguino32X2/trunk/x.2/p8/share/sdcc/include/pic16/usb.c	caractere=usbrx[usbrp++];
0038d8   c28c     movff	0x28c, 0x1         	MOVFF	_usbrp, r0x01
0038da   f001
0038dc   0102     movlb	0x2                	BANKSEL	_usbrp
0038de   2b8c     incf	0x8c, 0x1, 0x1      	INCF	_usbrp, F, B
0038e0   6a02     clrf	0x2, 0              	CLRF	r0x02
0038e2   0e00     movlw	0                  	MOVLW	LOW(_usbrx)
0038e4   2601     addwf	0x1, 0x1, 0        	ADDWF	r0x01, F
0038e6   0e02     movlw	0x2                	MOVLW	HIGH(_usbrx)
0038e8   2202     addwfc	0x2, 0x1, 0       	ADDWFC	r0x02, F
0038ea   c001     movff	0x1, 0xfe9         	MOVFF	r0x01, FSR0L
0038ec   ffe9
0038ee   c002     movff	0x2, 0xfea         	MOVFF	r0x02, FSR0H
0038f0   ffea
0038f2   cfef     movff	0xfef, 0           	MOVFF	INDF0, r0x00
0038f4   f000
                                           ; removed redundant BANKSEL
                                           ;	.line	104; /home/mandon/pinguino32X2/trunk/x.2/p8/share/sdcc/include/pic16/usb.c	if (usbrp==USBRXSIZE)
0038f6   518c     movf	0x8c, 0, 0x1        	MOVF	_usbrp, W, B
0038f8   0a40     xorlw	0x40               	XORLW	0x40
0038fa   e103     bnz	0x3902               	BNZ	_00540_DS_
                                           ;	.line	105; /home/mandon/pinguino32X2/trunk/x.2/p8/share/sdcc/include/pic16/usb.c	usbrp=1;
0038fc   0e01     movlw	0x1                	MOVLW	0x01
0038fe   0102     movlb	0x2                	BANKSEL	_usbrp
003900   6f8c     movwf	0x8c, 0x1          	MOVWF	_usbrp, B
                                           _00540_DS_:
                                           ;	.line	107; /home/mandon/pinguino32X2/trunk/x.2/p8/share/sdcc/include/pic16/usb.c	return(caractere);
003902   5000     movf	0, 0, 0             	MOVF	r0x00, W
003904   cfe4     movff	0xfe4, 0x2         	MOVFF	PREINC1, r0x02
003906   f002
003908   cfe4     movff	0xfe4, 0x1         	MOVFF	PREINC1, r0x01
00390a   f001
00390c   cfe4     movff	0xfe4, 0           	MOVFF	PREINC1, r0x00
00390e   f000
003910   0012     return	0                 	RETURN	
                                           
                                           ; ; Starting pCode block
                                           S_main__epap_in	code
                                           _epap_in:
0036f8   0102     movlb	0x2                	BANKSEL	_ep2_num_bytes_to_send
                                           ;	.line	78; /home/mandon/pinguino32X2/trunk/x.2/p8/share/sdcc/include/pic16/usb.c	if((ep2_num_bytes_to_send == 0) && last_send_was_null)
0036fa   5186     movf	0x86, 0, 0x1        	MOVF	_ep2_num_bytes_to_send, W, B
                                           ; removed redundant BANKSEL
0036fc   1187     iorwf	0x87, 0, 0x1       	IORWF	(_ep2_num_bytes_to_send + 1), W, B
0036fe   e103     bnz	0x3706               	BNZ	_00521_DS_
                                           ; #	MOVF	_last_send_was_null, W, B
                                           ; #	BTFSC	STATUS, 2
                                           ; #	GOTO	_00521_DS_
                                           ; #	GOTO	_00526_DS_
                                           ; #	MOVLW	0x00
003700   0102     movlb	0x2                	BANKSEL	_last_send_was_null
                                           ;	.line	80; /home/mandon/pinguino32X2/trunk/x.2/p8/share/sdcc/include/pic16/usb.c	return;
003702   5188     movf	0x88, 0, 0x1        	MOVF	_last_send_was_null, W, B
                                           ;	.line	82; /home/mandon/pinguino32X2/trunk/x.2/p8/share/sdcc/include/pic16/usb.c	last_send_was_null = (ep2_num_bytes_to_send < EP2_BUFFER_SIZE);
003704   e12c     bnz	0x375e               	BNZ	_00526_DS_
                                           _00521_DS_:
003706   0e00     movlw	0                  	MOVLW	0x00
003708   0102     movlb	0x2                	BANKSEL	(_ep2_num_bytes_to_send + 1)
00370a   5d87     subwf	0x87, 0, 0x1       	SUBWF	(_ep2_num_bytes_to_send + 1), W, B
00370c   e102     bnz	0x3712               	BNZ	_00532_DS_
00370e   0e40     movlw	0x40               	MOVLW	0x40
                                           ; removed redundant BANKSEL
003710   5d86     subwf	0x86, 0, 0x1       	SUBWF	_ep2_num_bytes_to_send, W, B
                                           _00532_DS_:
003712   70d8     btg	0xd8, 0, 0           	BTG	STATUS, 0
003714   0102     movlb	0x2                	BANKSEL	_last_send_was_null
003716   6b88     clrf	0x88, 0x1           	CLRF	_last_send_was_null, B
003718   3788     rlcf	0x88, 0x1, 0x1      	RLCF	_last_send_was_null, F, B
                                           ; #	MOVF	_ep2_num_bytes_to_send, W, B
                                           ; #	MOVWF	r0x00
                                           ; #	MOVF	r0x00, W
00371a   0102     movlb	0x2                	BANKSEL	_ep2_num_bytes_to_send
                                           ;	.line	83; /home/mandon/pinguino32X2/trunk/x.2/p8/share/sdcc/include/pic16/usb.c	EP_IN_BD(2).Cnt = ep2_num_bytes_to_send;
00371c   5186     movf	0x86, 0, 0x1        	MOVF	_ep2_num_bytes_to_send, W, B
00371e   0104     movlb	0x4                	BANKSEL	(_ep_bdt + 21)
003720   6f15     movwf	0x15, 0x1          	MOVWF	(_ep_bdt + 21), B
                                           ;	.line	84; /home/mandon/pinguino32X2/trunk/x.2/p8/share/sdcc/include/pic16/usb.c	fill_in_buffer(2, &ep2_source_data, EP2_BUFFER_SIZE, &ep2_num_bytes_to_send);
003722   0e80     movlw	0x80               	MOVLW	0x80
                                           ; #	MOVWF	r0x05
                                           ; #	MOVF	r0x05, W
003724   6ee5     movwf	0xe5, 0            	MOVWF	POSTDEC1
003726   0e02     movlw	0x2                	MOVLW	HIGH(_ep2_num_bytes_to_send)
003728   6ee5     movwf	0xe5, 0            	MOVWF	POSTDEC1
00372a   0e86     movlw	0x86               	MOVLW	LOW(_ep2_num_bytes_to_send)
00372c   6ee5     movwf	0xe5, 0            	MOVWF	POSTDEC1
00372e   6ae5     clrf	0xe5, 0             	CLRF	POSTDEC1
003730   0e40     movlw	0x40               	MOVLW	0x40
003732   6ee5     movwf	0xe5, 0            	MOVWF	POSTDEC1
003734   0e80     movlw	0x80               	MOVLW	0x80
003736   6ee5     movwf	0xe5, 0            	MOVWF	POSTDEC1
003738   0e02     movlw	0x2                	MOVLW	HIGH(_ep2_source_data)
00373a   6ee5     movwf	0xe5, 0            	MOVWF	POSTDEC1
00373c   0e83     movlw	0x83               	MOVLW	LOW(_ep2_source_data)
00373e   6ee5     movwf	0xe5, 0            	MOVWF	POSTDEC1
003740   0e02     movlw	0x2                	MOVLW	0x02
003742   6ee5     movwf	0xe5, 0            	MOVWF	POSTDEC1
003744   ec15     call	0x2a, 0             	CALL	_fill_in_buffer
003746   f000
003748   0e09     movlw	0x9                	MOVLW	0x09
00374a   26e1     addwf	0xe1, 0x1, 0       	ADDWF	FSR1L, F
00374c   0104     movlb	0x4                	BANKSEL	(_ep_bdt + 20)
                                           ;	.line	85; /home/mandon/pinguino32X2/trunk/x.2/p8/share/sdcc/include/pic16/usb.c	if(EP_IN_BD(2).Stat.DTS == 0)
00374e   bd14     btfsc	0x14, 0x6, 0x1     	BTFSC	(_ep_bdt + 20), 6, B
003750   d003     bra	0x3758               	BRA	_00524_DS_
                                           ;	.line	87; /home/mandon/pinguino32X2/trunk/x.2/p8/share/sdcc/include/pic16/usb.c	EP_IN_BD(2).Stat.uc = BDS_USIE | BDS_DAT1 | BDS_DTSEN;
003752   0ec8     movlw	0xc8               	MOVLW	0xc8
                                           ; removed redundant BANKSEL
003754   6f14     movwf	0x14, 0x1          	MOVWF	(_ep_bdt + 20), B
003756   d003     bra	0x375e               	BRA	_00526_DS_
                                           _00524_DS_:
                                           ;	.line	91; /home/mandon/pinguino32X2/trunk/x.2/p8/share/sdcc/include/pic16/usb.c	EP_IN_BD(2).Stat.uc = BDS_USIE | BDS_DAT0 | BDS_DTSEN;
003758   0e88     movlw	0x88               	MOVLW	0x88
00375a   0104     movlb	0x4                	BANKSEL	(_ep_bdt + 20)
00375c   6f14     movwf	0x14, 0x1          	MOVWF	(_ep_bdt + 20), B
                                           _00526_DS_:
00375e   0012     return	0                 	RETURN	
                                           
                                           ; ; Starting pCode block
                                           S_main__usbsend	code
                                           _usbsend:
                                           ;	.line	59; /home/mandon/pinguino32X2/trunk/x.2/p8/share/sdcc/include/pic16/usb.c	void usbsend(uchar *txpointer,uint length)
0039ae   cfd9     movff	0xfd9, 0xfe5       	MOVFF	FSR2L, POSTDEC1
0039b0   ffe5
0039b2   cfe1     movff	0xfe1, 0xfd9       	MOVFF	FSR1L, FSR2L
0039b4   ffd9
0039b6   0e02     movlw	0x2                	MOVLW	0x02
0039b8   cfdb     movff	0xfdb, 0x283       	MOVFF	PLUSW2, _ep2_source_data
0039ba   f283
0039bc   0e03     movlw	0x3                	MOVLW	0x03
0039be   cfdb     movff	0xfdb, 0x284       	MOVFF	PLUSW2, (_ep2_source_data + 1)
0039c0   f284
0039c2   0e04     movlw	0x4                	MOVLW	0x04
0039c4   cfdb     movff	0xfdb, 0x285       	MOVFF	PLUSW2, (_ep2_source_data + 2)
0039c6   f285
0039c8   0e05     movlw	0x5                	MOVLW	0x05
0039ca   cfdb     movff	0xfdb, 0x286       	MOVFF	PLUSW2, _ep2_num_bytes_to_send
0039cc   f286
0039ce   0e06     movlw	0x6                	MOVLW	0x06
0039d0   cfdb     movff	0xfdb, 0x287       	MOVFF	PLUSW2, (_ep2_num_bytes_to_send + 1)
0039d2   f287
                                           ;	.line	63; /home/mandon/pinguino32X2/trunk/x.2/p8/share/sdcc/include/pic16/usb.c	prepare_ep2_in();
0039d4   ecb0     call	0x3760, 0           	CALL	_prepare_ep2_in
0039d6   f01b
0039d8   cfe4     movff	0xfe4, 0xfd9       	MOVFF	PREINC1, FSR2L
0039da   ffd9
0039dc   0012     return	0                 	RETURN	
                                           
                                           ; ; Starting pCode block
                                           S_main__prepare_ep2_in	code
                                           _prepare_ep2_in:
                                           ;	.line	45; /home/mandon/pinguino32X2/trunk/x.2/p8/share/sdcc/include/pic16/usb.c	last_send_was_null = (ep2_num_bytes_to_send < EP2_BUFFER_SIZE);
003760   0e00     movlw	0                  	MOVLW	0x00
003762   0102     movlb	0x2                	BANKSEL	(_ep2_num_bytes_to_send + 1)
003764   5d87     subwf	0x87, 0, 0x1       	SUBWF	(_ep2_num_bytes_to_send + 1), W, B
003766   e102     bnz	0x376c               	BNZ	_00510_DS_
003768   0e40     movlw	0x40               	MOVLW	0x40
                                           ; removed redundant BANKSEL
00376a   5d86     subwf	0x86, 0, 0x1       	SUBWF	_ep2_num_bytes_to_send, W, B
                                           _00510_DS_:
00376c   70d8     btg	0xd8, 0, 0           	BTG	STATUS, 0
00376e   0102     movlb	0x2                	BANKSEL	_last_send_was_null
003770   6b88     clrf	0x88, 0x1           	CLRF	_last_send_was_null, B
003772   3788     rlcf	0x88, 0x1, 0x1      	RLCF	_last_send_was_null, F, B
                                           ; #	MOVF	_ep2_num_bytes_to_send, W, B
                                           ; #	MOVWF	r0x00
                                           ; #	MOVF	r0x00, W
003774   0102     movlb	0x2                	BANKSEL	_ep2_num_bytes_to_send
                                           ;	.line	46; /home/mandon/pinguino32X2/trunk/x.2/p8/share/sdcc/include/pic16/usb.c	EP_IN_BD(2).Cnt = ep2_num_bytes_to_send;
003776   5186     movf	0x86, 0, 0x1        	MOVF	_ep2_num_bytes_to_send, W, B
003778   0104     movlb	0x4                	BANKSEL	(_ep_bdt + 21)
00377a   6f15     movwf	0x15, 0x1          	MOVWF	(_ep_bdt + 21), B
                                           ;	.line	47; /home/mandon/pinguino32X2/trunk/x.2/p8/share/sdcc/include/pic16/usb.c	EP_IN_BD(2).ADR = (uchar __data *)&TXBuffer;
00377c   0e00     movlw	0                  	MOVLW	LOW(_TXBuffer)
                                           ; removed redundant BANKSEL
00377e   6f16     movwf	0x16, 0x1          	MOVWF	(_ep_bdt + 22), B
003780   0e06     movlw	0x6                	MOVLW	HIGH(_TXBuffer)
                                           ; removed redundant BANKSEL
003782   6f17     movwf	0x17, 0x1          	MOVWF	(_ep_bdt + 23), B
                                           ;	.line	48; /home/mandon/pinguino32X2/trunk/x.2/p8/share/sdcc/include/pic16/usb.c	fill_in_buffer(2, &ep2_source_data, EP2_BUFFER_SIZE, &ep2_num_bytes_to_send);
003784   0e80     movlw	0x80               	MOVLW	0x80
                                           ; #	MOVWF	r0x05
                                           ; #	MOVF	r0x05, W
003786   6ee5     movwf	0xe5, 0            	MOVWF	POSTDEC1
003788   0e02     movlw	0x2                	MOVLW	HIGH(_ep2_num_bytes_to_send)
00378a   6ee5     movwf	0xe5, 0            	MOVWF	POSTDEC1
00378c   0e86     movlw	0x86               	MOVLW	LOW(_ep2_num_bytes_to_send)
00378e   6ee5     movwf	0xe5, 0            	MOVWF	POSTDEC1
003790   6ae5     clrf	0xe5, 0             	CLRF	POSTDEC1
003792   0e40     movlw	0x40               	MOVLW	0x40
003794   6ee5     movwf	0xe5, 0            	MOVWF	POSTDEC1
003796   0e80     movlw	0x80               	MOVLW	0x80
003798   6ee5     movwf	0xe5, 0            	MOVWF	POSTDEC1
00379a   0e02     movlw	0x2                	MOVLW	HIGH(_ep2_source_data)
00379c   6ee5     movwf	0xe5, 0            	MOVWF	POSTDEC1
00379e   0e83     movlw	0x83               	MOVLW	LOW(_ep2_source_data)
0037a0   6ee5     movwf	0xe5, 0            	MOVWF	POSTDEC1
0037a2   0e02     movlw	0x2                	MOVLW	0x02
0037a4   6ee5     movwf	0xe5, 0            	MOVWF	POSTDEC1
0037a6   ec15     call	0x2a, 0             	CALL	_fill_in_buffer
0037a8   f000
0037aa   0e09     movlw	0x9                	MOVLW	0x09
0037ac   26e1     addwf	0xe1, 0x1, 0       	ADDWF	FSR1L, F
0037ae   0104     movlb	0x4                	BANKSEL	(_ep_bdt + 20)
                                           ;	.line	49; /home/mandon/pinguino32X2/trunk/x.2/p8/share/sdcc/include/pic16/usb.c	if(EP_IN_BD(2).Stat.DTS == 0)
0037b0   bd14     btfsc	0x14, 0x6, 0x1     	BTFSC	(_ep_bdt + 20), 6, B
0037b2   d003     bra	0x37ba               	BRA	_00504_DS_
                                           ;	.line	51; /home/mandon/pinguino32X2/trunk/x.2/p8/share/sdcc/include/pic16/usb.c	EP_IN_BD(2).Stat.uc = BDS_USIE | BDS_DAT1 | BDS_DTSEN;
0037b4   0ec8     movlw	0xc8               	MOVLW	0xc8
                                           ; removed redundant BANKSEL
0037b6   6f14     movwf	0x14, 0x1          	MOVWF	(_ep_bdt + 20), B
0037b8   d003     bra	0x37c0               	BRA	_00506_DS_
                                           _00504_DS_:
                                           ;	.line	55; /home/mandon/pinguino32X2/trunk/x.2/p8/share/sdcc/include/pic16/usb.c	EP_IN_BD(2).Stat.uc = BDS_USIE | BDS_DAT0 | BDS_DTSEN;
0037ba   0e88     movlw	0x88               	MOVLW	0x88
0037bc   0104     movlb	0x4                	BANKSEL	(_ep_bdt + 20)
0037be   6f14     movwf	0x14, 0x1          	MOVWF	(_ep_bdt + 20), B
                                           _00506_DS_:
0037c0   0012     return	0                 	RETURN	
                                           
                                           ; ; Starting pCode block
                                           S_main__epapin_init	code
                                           _epapin_init:
                                           ;	.line	39; /home/mandon/pinguino32X2/trunk/x.2/p8/share/sdcc/include/pic16/usb.c	EP_IN_BD(2).Stat.uc = BDS_UCPU | BDS_DAT1 | BDS_DTSEN;
003ac4   0e48     movlw	0x48               	MOVLW	0x48
003ac6   0104     movlb	0x4                	BANKSEL	(_ep_bdt + 20)
003ac8   6f14     movwf	0x14, 0x1          	MOVWF	(_ep_bdt + 20), B
                                           ;	.line	40; /home/mandon/pinguino32X2/trunk/x.2/p8/share/sdcc/include/pic16/usb.c	UEP2 = EPHSHK_EN | EPINEN_EN |  EPCONDIS_EN;
003aca   0e1a     movlw	0x1a               	MOVLW	0x1a
003acc   6e72     movwf	0x72, 0            	MOVWF	_UEP2
003ace   0012     return	0                 	RETURN	
                                           
                                           ; ; Starting pCode block
                                           S_main__usbavailable	code
                                           _usbavailable:
                                           ;	.line	30; /home/mandon/pinguino32X2/trunk/x.2/p8/share/sdcc/include/pic16/usb.c	uchar usbavailable()
003a3c   c000     movff	0, 0xfe5           	MOVFF	r0x00, POSTDEC1
003a3e   ffe5
                                           ;	.line	32; /home/mandon/pinguino32X2/trunk/x.2/p8/share/sdcc/include/pic16/usb.c	return (usbwp!=usbrp);
003a40   6a00     clrf	0, 0                	CLRF	r0x00
003a42   0102     movlb	0x2                	BANKSEL	_usbwp
003a44   518b     movf	0x8b, 0, 0x1        	MOVF	_usbwp, W, B
003a46   0102     movlb	0x2                	BANKSEL	_usbrp
003a48   198c     xorwf	0x8c, 0, 0x1       	XORWF	_usbrp, W, B
003a4a   e101     bnz	0x3a4e               	BNZ	_00493_DS_
003a4c   2a00     incf	0, 0x1, 0           	INCF	r0x00, F
                                           _00493_DS_:
003a4e   5000     movf	0, 0, 0             	MOVF	r0x00, W
003a50   80d8     bsf	0xd8, 0, 0           	BSF	STATUS, 0
003a52   66e8     tstfsz	0xe8, 0           	TSTFSZ	WREG
003a54   90d8     bcf	0xd8, 0, 0           	BCF	STATUS, 0
003a56   6a00     clrf	0, 0                	CLRF	r0x00
003a58   3600     rlcf	0, 0x1, 0           	RLCF	r0x00, F
003a5a   5000     movf	0, 0, 0             	MOVF	r0x00, W
003a5c   cfe4     movff	0xfe4, 0           	MOVFF	PREINC1, r0x00
003a5e   f000
003a60   0012     return	0                 	RETURN	
                                           
                                           ; ; Starting pCode block
                                           S_main__DS18B20_crc	code
                                           _DS18B20_crc:
                                           ;	.line	420; /home/mandon/pinguino32X2/trunk/x.2/p8/share/sdcc/include/pic16/18b20.c	u8 DS18B20_crc(u8 x)
00381a   cfd9     movff	0xfd9, 0xfe5       	MOVFF	FSR2L, POSTDEC1
00381c   ffe5
00381e   cfe1     movff	0xfe1, 0xfd9       	MOVFF	FSR1L, FSR2L
003820   ffd9
003822   c000     movff	0, 0xfe5           	MOVFF	r0x00, POSTDEC1
003824   ffe5
003826   c001     movff	0x1, 0xfe5         	MOVFF	r0x01, POSTDEC1
003828   ffe5
00382a   c002     movff	0x2, 0xfe5         	MOVFF	r0x02, POSTDEC1
00382c   ffe5
00382e   0e02     movlw	0x2                	MOVLW	0x02
003830   cfdb     movff	0xfdb, 0           	MOVFF	PLUSW2, r0x00
003832   f000
003834   0102     movlb	0x2                	BANKSEL	_dowcrc
                                           ;	.line	431; /home/mandon/pinguino32X2/trunk/x.2/p8/share/sdcc/include/pic16/18b20.c	dowcrc = dscrc_table[dowcrc^x];
003836   518a     movf	0x8a, 0, 0x1        	MOVF	_dowcrc, W, B
003838   1a00     xorwf	0, 0x1, 0          	XORWF	r0x00, F
00383a   6a01     clrf	0x1, 0              	CLRF	r0x01
00383c   6a02     clrf	0x2, 0              	CLRF	r0x02
00383e   0eba     movlw	0xba               	MOVLW	LOW(_dscrc_table)
003840   2600     addwf	0, 0x1, 0          	ADDWF	r0x00, F
003842   0e23     movlw	0x23               	MOVLW	HIGH(_dscrc_table)
003844   2201     addwfc	0x1, 0x1, 0       	ADDWFC	r0x01, F
003846   0e00     movlw	0                  	MOVLW	UPPER(_dscrc_table)
003848   2202     addwfc	0x2, 0x1, 0       	ADDWFC	r0x02, F
00384a   c000     movff	0, 0xff6           	MOVFF	r0x00, TBLPTRL
00384c   fff6
00384e   c001     movff	0x1, 0xff7         	MOVFF	r0x01, TBLPTRH
003850   fff7
003852   c002     movff	0x2, 0xff8         	MOVFF	r0x02, TBLPTRU
003854   fff8
003856   0009     tblrd	*+                 	TBLRD*+	
003858   cff5     movff	0xff5, 0x28a       	MOVFF	TABLAT, _dowcrc
00385a   f28a
                                           ; removed redundant BANKSEL
                                           ;	.line	432; /home/mandon/pinguino32X2/trunk/x.2/p8/share/sdcc/include/pic16/18b20.c	return dowcrc;
00385c   518a     movf	0x8a, 0, 0x1        	MOVF	_dowcrc, W, B
00385e   cfe4     movff	0xfe4, 0x2         	MOVFF	PREINC1, r0x02
003860   f002
003862   cfe4     movff	0xfe4, 0x1         	MOVFF	PREINC1, r0x01
003864   f001
003866   cfe4     movff	0xfe4, 0           	MOVFF	PREINC1, r0x00
003868   f000
00386a   cfe4     movff	0xfe4, 0xfd9       	MOVFF	PREINC1, FSR2L
00386c   ffd9
00386e   0012     return	0                 	RETURN	
                                           
                                           ; ; Starting pCode block
                                           S_main__DS18B20GetNext	code
                                           _DS18B20GetNext:
                                           ;	.line	341; /home/mandon/pinguino32X2/trunk/x.2/p8/share/sdcc/include/pic16/18b20.c	u8 DS18B20GetNext(u8 pin)
002b9a   cfd9     movff	0xfd9, 0xfe5       	MOVFF	FSR2L, POSTDEC1
002b9c   ffe5
002b9e   cfe1     movff	0xfe1, 0xfd9       	MOVFF	FSR1L, FSR2L
002ba0   ffd9
002ba2   c000     movff	0, 0xfe5           	MOVFF	r0x00, POSTDEC1
002ba4   ffe5
002ba6   c001     movff	0x1, 0xfe5         	MOVFF	r0x01, POSTDEC1
002ba8   ffe5
002baa   c002     movff	0x2, 0xfe5         	MOVFF	r0x02, POSTDEC1
002bac   ffe5
002bae   c003     movff	0x3, 0xfe5         	MOVFF	r0x03, POSTDEC1
002bb0   ffe5
002bb2   c004     movff	0x4, 0xfe5         	MOVFF	r0x04, POSTDEC1
002bb4   ffe5
002bb6   c005     movff	0x5, 0xfe5         	MOVFF	r0x05, POSTDEC1
002bb8   ffe5
002bba   c006     movff	0x6, 0xfe5         	MOVFF	r0x06, POSTDEC1
002bbc   ffe5
002bbe   c007     movff	0x7, 0xfe5         	MOVFF	r0x07, POSTDEC1
002bc0   ffe5
002bc2   c008     movff	0x8, 0xfe5         	MOVFF	r0x08, POSTDEC1
002bc4   ffe5
002bc6   c009     movff	0x9, 0xfe5         	MOVFF	r0x09, POSTDEC1
002bc8   ffe5
002bca   0e02     movlw	0x2                	MOVLW	0x02
002bcc   cfdb     movff	0xfdb, 0           	MOVFF	PLUSW2, r0x00
002bce   f000
                                           ;	.line	345; /home/mandon/pinguino32X2/trunk/x.2/p8/share/sdcc/include/pic16/18b20.c	u8 k = 1;					// bit mask
002bd0   0e01     movlw	0x1                	MOVLW	0x01
002bd2   6e01     movwf	0x1, 0             	MOVWF	r0x01
                                           ;	.line	347; /home/mandon/pinguino32X2/trunk/x.2/p8/share/sdcc/include/pic16/18b20.c	u8 discrepMarker = 0;				// discrepancy marker
002bd4   6a02     clrf	0x2, 0              	CLRF	r0x02
                                           ;	.line	352; /home/mandon/pinguino32X2/trunk/x.2/p8/share/sdcc/include/pic16/18b20.c	nxt = FALSE;					// set the next flag to false
002bd6   6a03     clrf	0x3, 0              	CLRF	r0x03
002bd8   0102     movlb	0x2                	BANKSEL	_dowcrc
                                           ;	.line	353; /home/mandon/pinguino32X2/trunk/x.2/p8/share/sdcc/include/pic16/18b20.c	dowcrc = 0;					// reset the dowcrc
002bda   6b8a     clrf	0x8a, 0x1           	CLRF	_dowcrc, B
                                           ;	.line	355; /home/mandon/pinguino32X2/trunk/x.2/p8/share/sdcc/include/pic16/18b20.c	flag = OneWireReset(pin);			// reset the 1-wire
002bdc   5000     movf	0, 0, 0             	MOVF	r0x00, W
002bde   6ee5     movwf	0xe5, 0            	MOVWF	POSTDEC1
002be0   ecd9     call	0x35b2, 0           	CALL	_OneWireReset
002be2   f01a
002be4   2ae1     incf	0xe1, 0x1, 0        	INCF	FSR1L, F
002be6   6a05     clrf	0x5, 0              	CLRF	r0x05
                                           ;	.line	356; /home/mandon/pinguino32X2/trunk/x.2/p8/share/sdcc/include/pic16/18b20.c	if(flag||doneFlag)				// no parts -> return false
002be8   1005     iorwf	0x5, 0, 0          	IORWF	r0x05, W
002bea   e103     bnz	0x2bf2               	BNZ	_00416_DS_
002bec   0102     movlb	0x2                	BANKSEL	_doneFlag
002bee   5182     movf	0x82, 0, 0x1        	MOVF	_doneFlag, W, B
002bf0   e004     bz	0x2bfa                	BZ	_00417_DS_
                                           _00416_DS_:
002bf2   0102     movlb	0x2                	BANKSEL	_lastDiscrep
                                           ;	.line	358; /home/mandon/pinguino32X2/trunk/x.2/p8/share/sdcc/include/pic16/18b20.c	lastDiscrep = 0;			// reset the search
002bf4   6b81     clrf	0x81, 0x1           	CLRF	_lastDiscrep, B
                                           ;	.line	359; /home/mandon/pinguino32X2/trunk/x.2/p8/share/sdcc/include/pic16/18b20.c	return FALSE;
002bf6   6ae8     clrf	0xe8, 0             	CLRF	WREG
002bf8   d0b1     bra	0x2d5c               	BRA	_00446_DS_
                                           _00417_DS_:
                                           ;	.line	362; /home/mandon/pinguino32X2/trunk/x.2/p8/share/sdcc/include/pic16/18b20.c	OneWireWrite(pin, SEARCHROM);
002bfa   0ef0     movlw	0xf0               	MOVLW	0xf0
002bfc   6ee5     movwf	0xe5, 0            	MOVWF	POSTDEC1
002bfe   5000     movf	0, 0, 0             	MOVF	r0x00, W
002c00   6ee5     movwf	0xe5, 0            	MOVWF	POSTDEC1
002c02   ec11     call	0x3622, 0           	CALL	_OneWireWrite
002c04   f01b
002c06   0e02     movlw	0x2                	MOVLW	0x02
002c08   26e1     addwf	0xe1, 0x1, 0       	ADDWF	FSR1L, F
                                           ;	.line	363; /home/mandon/pinguino32X2/trunk/x.2/p8/share/sdcc/include/pic16/18b20.c	do {
002c0a   6a04     clrf	0x4, 0              	CLRF	r0x04
002c0c   0e01     movlw	0x1                	MOVLW	0x01
002c0e   6e05     movwf	0x5, 0             	MOVWF	r0x05
                                           _00439_DS_:
                                           ;	.line	364; /home/mandon/pinguino32X2/trunk/x.2/p8/share/sdcc/include/pic16/18b20.c	x = 0;
002c10   6a06     clrf	0x6, 0              	CLRF	r0x06
                                           ;	.line	365; /home/mandon/pinguino32X2/trunk/x.2/p8/share/sdcc/include/pic16/18b20.c	if(OneWireReadBit(pin) == 1) x = 2;
002c12   5000     movf	0, 0, 0             	MOVF	r0x00, W
002c14   6ee5     movwf	0xe5, 0            	MOVWF	POSTDEC1
002c16   ec89     call	0x3912, 0           	CALL	_OneWireReadBit
002c18   f01c
002c1a   2ae1     incf	0xe1, 0x1, 0        	INCF	FSR1L, F
002c1c   0a01     xorlw	0x1                	XORLW	0x01
002c1e   e102     bnz	0x2c24               	BNZ	_00420_DS_
002c20   0e02     movlw	0x2                	MOVLW	0x02
002c22   6e06     movwf	0x6, 0             	MOVWF	r0x06
                                           _00420_DS_:
                                           ;	.line	367; /home/mandon/pinguino32X2/trunk/x.2/p8/share/sdcc/include/pic16/18b20.c	if(OneWireReadBit(pin) == 1 ) x |= 1;
002c24   5000     movf	0, 0, 0             	MOVF	r0x00, W
002c26   6ee5     movwf	0xe5, 0            	MOVWF	POSTDEC1
002c28   ec89     call	0x3912, 0           	CALL	_OneWireReadBit
002c2a   f01c
002c2c   2ae1     incf	0xe1, 0x1, 0        	INCF	FSR1L, F
002c2e   0a01     xorlw	0x1                	XORLW	0x01
002c30   e101     bnz	0x2c34               	BNZ	_00422_DS_
002c32   8006     bsf	0x6, 0, 0            	BSF	r0x06, 0
                                           _00422_DS_:
                                           ;	.line	368; /home/mandon/pinguino32X2/trunk/x.2/p8/share/sdcc/include/pic16/18b20.c	if(x == 3)
002c34   5006     movf	0x6, 0, 0           	MOVF	r0x06, W
002c36   0a03     xorlw	0x3                	XORLW	0x03
002c38   e101     bnz	0x2c3c               	BNZ	_00469_DS_
002c3a   d07b     bra	0x2d32               	BRA	_00441_DS_
                                           _00469_DS_:
                                           ;	.line	372; /home/mandon/pinguino32X2/trunk/x.2/p8/share/sdcc/include/pic16/18b20.c	if(x > 0)				// all devices coupled have 0 or 1
002c3c   5006     movf	0x6, 0, 0           	MOVF	r0x06, W
002c3e   e004     bz	0x2c48                	BZ	_00429_DS_
                                           ;	.line	373; /home/mandon/pinguino32X2/trunk/x.2/p8/share/sdcc/include/pic16/18b20.c	g = x >> 1;			// bit write value for search
002c40   4006     rrncf	0x6, 0, 0          	RRNCF	r0x06, W
002c42   0b7f     andlw	0x7f               	ANDLW	0x7f
002c44   6e06     movwf	0x6, 0             	MOVWF	r0x06
002c46   d025     bra	0x2c92               	BRA	_00430_DS_
                                           _00429_DS_:
002c48   0102     movlb	0x2                	BANKSEL	_lastDiscrep
                                           ;	.line	379; /home/mandon/pinguino32X2/trunk/x.2/p8/share/sdcc/include/pic16/18b20.c	if(m < lastDiscrep)
002c4a   5181     movf	0x81, 0, 0x1        	MOVF	_lastDiscrep, W, B
002c4c   5c05     subwf	0x5, 0, 0          	SUBWF	r0x05, W
002c4e   e217     bc	0x2c7e                	BC	_00424_DS_
                                           ;	.line	380; /home/mandon/pinguino32X2/trunk/x.2/p8/share/sdcc/include/pic16/18b20.c	g = ( (ROM[n] & k) > 0);
002c50   0e70     movlw	0x70               	MOVLW	LOW(_ROM)
002c52   2404     addwf	0x4, 0, 0          	ADDWF	r0x04, W
002c54   6e07     movwf	0x7, 0             	MOVWF	r0x07
002c56   6a08     clrf	0x8, 0              	CLRF	r0x08
002c58   0e02     movlw	0x2                	MOVLW	HIGH(_ROM)
002c5a   2208     addwfc	0x8, 0x1, 0       	ADDWFC	r0x08, F
002c5c   c007     movff	0x7, 0xfe9         	MOVFF	r0x07, FSR0L
002c5e   ffe9
002c60   c008     movff	0x8, 0xfea         	MOVFF	r0x08, FSR0H
002c62   ffea
002c64   cfef     movff	0xfef, 0x7         	MOVFF	INDF0, r0x07
002c66   f007
002c68   5001     movf	0x1, 0, 0           	MOVF	r0x01, W
002c6a   1607     andwf	0x7, 0x1, 0        	ANDWF	r0x07, F
002c6c   5007     movf	0x7, 0, 0           	MOVF	r0x07, W
002c6e   e003     bz	0x2c76                	BZ	_00448_DS_
002c70   0e01     movlw	0x1                	MOVLW	0x01
002c72   6e07     movwf	0x7, 0             	MOVWF	r0x07
002c74   d001     bra	0x2c78               	BRA	_00449_DS_
                                           _00448_DS_:
002c76   6a07     clrf	0x7, 0              	CLRF	r0x07
                                           _00449_DS_:
002c78   c007     movff	0x7, 0x6           	MOVFF	r0x07, r0x06
002c7a   f006
002c7c   d006     bra	0x2c8a               	BRA	_00425_DS_
                                           _00424_DS_:
                                           ;	.line	382; /home/mandon/pinguino32X2/trunk/x.2/p8/share/sdcc/include/pic16/18b20.c	g = (m == lastDiscrep);	// if not then pick 0
002c7e   6a06     clrf	0x6, 0              	CLRF	r0x06
002c80   5005     movf	0x5, 0, 0           	MOVF	r0x05, W
002c82   0102     movlb	0x2                	BANKSEL	_lastDiscrep
002c84   1981     xorwf	0x81, 0, 0x1       	XORWF	_lastDiscrep, W, B
002c86   e101     bnz	0x2c8a               	BNZ	_00425_DS_
002c88   2a06     incf	0x6, 0x1, 0         	INCF	r0x06, F
                                           _00425_DS_:
                                           ;	.line	384; /home/mandon/pinguino32X2/trunk/x.2/p8/share/sdcc/include/pic16/18b20.c	if (g == 0) discrepMarker = m;
002c8a   5006     movf	0x6, 0, 0           	MOVF	r0x06, W
002c8c   e102     bnz	0x2c92               	BNZ	_00430_DS_
002c8e   c005     movff	0x5, 0x2           	MOVFF	r0x05, r0x02
002c90   f002
                                           _00430_DS_:
                                           ;	.line	386; /home/mandon/pinguino32X2/trunk/x.2/p8/share/sdcc/include/pic16/18b20.c	if (g == 1)	// isolate bit in ROM[n] with mask k
002c92   5006     movf	0x6, 0, 0           	MOVF	r0x06, W
002c94   0a01     xorlw	0x1                	XORLW	0x01
002c96   e115     bnz	0x2cc2               	BNZ	_00432_DS_
                                           ;	.line	387; /home/mandon/pinguino32X2/trunk/x.2/p8/share/sdcc/include/pic16/18b20.c	ROM[n] |= k;
002c98   0e70     movlw	0x70               	MOVLW	LOW(_ROM)
002c9a   2404     addwf	0x4, 0, 0          	ADDWF	r0x04, W
002c9c   6e07     movwf	0x7, 0             	MOVWF	r0x07
002c9e   6a08     clrf	0x8, 0              	CLRF	r0x08
002ca0   0e02     movlw	0x2                	MOVLW	HIGH(_ROM)
002ca2   2208     addwfc	0x8, 0x1, 0       	ADDWFC	r0x08, F
002ca4   c007     movff	0x7, 0xfe9         	MOVFF	r0x07, FSR0L
002ca6   ffe9
002ca8   c008     movff	0x8, 0xfea         	MOVFF	r0x08, FSR0H
002caa   ffea
002cac   cfef     movff	0xfef, 0x9         	MOVFF	INDF0, r0x09
002cae   f009
002cb0   5001     movf	0x1, 0, 0           	MOVF	r0x01, W
002cb2   1209     iorwf	0x9, 0x1, 0        	IORWF	r0x09, F
002cb4   c007     movff	0x7, 0xfe9         	MOVFF	r0x07, FSR0L
002cb6   ffe9
002cb8   c008     movff	0x8, 0xfea         	MOVFF	r0x08, FSR0H
002cba   ffea
002cbc   c009     movff	0x9, 0xfef         	MOVFF	r0x09, INDF0
002cbe   ffef
002cc0   d014     bra	0x2cea               	BRA	_00433_DS_
                                           _00432_DS_:
                                           ;	.line	389; /home/mandon/pinguino32X2/trunk/x.2/p8/share/sdcc/include/pic16/18b20.c	ROM[n] &= ~k;
002cc2   0e70     movlw	0x70               	MOVLW	LOW(_ROM)
002cc4   2404     addwf	0x4, 0, 0          	ADDWF	r0x04, W
002cc6   6e07     movwf	0x7, 0             	MOVWF	r0x07
002cc8   6a08     clrf	0x8, 0              	CLRF	r0x08
002cca   0e02     movlw	0x2                	MOVLW	HIGH(_ROM)
002ccc   2208     addwfc	0x8, 0x1, 0       	ADDWFC	r0x08, F
002cce   c007     movff	0x7, 0xfe9         	MOVFF	r0x07, FSR0L
002cd0   ffe9
002cd2   c008     movff	0x8, 0xfea         	MOVFF	r0x08, FSR0H
002cd4   ffea
002cd6   cfef     movff	0xfef, 0x9         	MOVFF	INDF0, r0x09
002cd8   f009
002cda   1c01     comf	0x1, 0, 0           	COMF	r0x01, W
                                           ; #	MOVWF	r0x0a
                                           ; #	MOVF	r0x0a, W
002cdc   1609     andwf	0x9, 0x1, 0        	ANDWF	r0x09, F
002cde   c007     movff	0x7, 0xfe9         	MOVFF	r0x07, FSR0L
002ce0   ffe9
002ce2   c008     movff	0x8, 0xfea         	MOVFF	r0x08, FSR0H
002ce4   ffea
002ce6   c009     movff	0x9, 0xfef         	MOVFF	r0x09, INDF0
002ce8   ffef
                                           _00433_DS_:
                                           ;	.line	390; /home/mandon/pinguino32X2/trunk/x.2/p8/share/sdcc/include/pic16/18b20.c	OneWireWriteBit(pin, g);		// ROM search write
002cea   5006     movf	0x6, 0, 0           	MOVF	r0x06, W
002cec   6ee5     movwf	0xe5, 0            	MOVWF	POSTDEC1
002cee   5000     movf	0, 0, 0             	MOVF	r0x00, W
002cf0   6ee5     movwf	0xe5, 0            	MOVWF	POSTDEC1
002cf2   ec9e     call	0x353c, 0           	CALL	_OneWireWriteBit
002cf4   f01a
002cf6   0e02     movlw	0x2                	MOVLW	0x02
002cf8   26e1     addwf	0xe1, 0x1, 0       	ADDWF	FSR1L, F
                                           ;	.line	391; /home/mandon/pinguino32X2/trunk/x.2/p8/share/sdcc/include/pic16/18b20.c	m++;								// increment bit counter m
002cfa   2a05     incf	0x5, 0x1, 0         	INCF	r0x05, F
                                           ;	.line	392; /home/mandon/pinguino32X2/trunk/x.2/p8/share/sdcc/include/pic16/18b20.c	k = k << 1;							// and shift the bit mask k
002cfc   90d8     bcf	0xd8, 0, 0           	BCF	STATUS, 0
002cfe   3601     rlcf	0x1, 0x1, 0         	RLCF	r0x01, F
                                           ;	.line	393; /home/mandon/pinguino32X2/trunk/x.2/p8/share/sdcc/include/pic16/18b20.c	if(k == 0)							// if the mask is 0 then go to new ROM
002d00   5001     movf	0x1, 0, 0           	MOVF	r0x01, W
002d02   e113     bnz	0x2d2a               	BNZ	_00440_DS_
                                           ;	.line	395; /home/mandon/pinguino32X2/trunk/x.2/p8/share/sdcc/include/pic16/18b20.c	DS18B20_crc(ROM[n]);			// accumulate the CRC
002d04   0e70     movlw	0x70               	MOVLW	LOW(_ROM)
002d06   2404     addwf	0x4, 0, 0          	ADDWF	r0x04, W
002d08   6e06     movwf	0x6, 0             	MOVWF	r0x06
002d0a   6a07     clrf	0x7, 0              	CLRF	r0x07
002d0c   0e02     movlw	0x2                	MOVLW	HIGH(_ROM)
002d0e   2207     addwfc	0x7, 0x1, 0       	ADDWFC	r0x07, F
002d10   c006     movff	0x6, 0xfe9         	MOVFF	r0x06, FSR0L
002d12   ffe9
002d14   c007     movff	0x7, 0xfea         	MOVFF	r0x07, FSR0H
002d16   ffea
002d18   cfef     movff	0xfef, 0x6         	MOVFF	INDF0, r0x06
002d1a   f006
002d1c   5006     movf	0x6, 0, 0           	MOVF	r0x06, W
002d1e   6ee5     movwf	0xe5, 0            	MOVWF	POSTDEC1
002d20   ec0d     call	0x381a, 0           	CALL	_DS18B20_crc
002d22   f01c
002d24   2ae1     incf	0xe1, 0x1, 0        	INCF	FSR1L, F
                                           ;	.line	396; /home/mandon/pinguino32X2/trunk/x.2/p8/share/sdcc/include/pic16/18b20.c	n++;
002d26   2a04     incf	0x4, 0x1, 0         	INCF	r0x04, F
                                           ;	.line	397; /home/mandon/pinguino32X2/trunk/x.2/p8/share/sdcc/include/pic16/18b20.c	k++;
002d28   2a01     incf	0x1, 0x1, 0         	INCF	r0x01, F
                                           _00440_DS_:
                                           ;	.line	400; /home/mandon/pinguino32X2/trunk/x.2/p8/share/sdcc/include/pic16/18b20.c	} while (n < 8);							// loop until through all ROM bytes 0-7
002d2a   0e08     movlw	0x8                	MOVLW	0x08
002d2c   5c04     subwf	0x4, 0, 0          	SUBWF	r0x04, W
002d2e   a0d8     btfss	0xd8, 0, 0         	BTFSS	STATUS, 0
002d30   d76f     bra	0x2c10               	BRA	_00439_DS_
                                           _00441_DS_:
                                           ;	.line	401; /home/mandon/pinguino32X2/trunk/x.2/p8/share/sdcc/include/pic16/18b20.c	if(m < 65 || dowcrc)						// if search was unsuccessful then
002d32   0e41     movlw	0x41               	MOVLW	0x41
002d34   5c05     subwf	0x5, 0, 0          	SUBWF	r0x05, W
002d36   e303     bnc	0x2d3e               	BNC	_00442_DS_
002d38   0102     movlb	0x2                	BANKSEL	_dowcrc
002d3a   518a     movf	0x8a, 0, 0x1        	MOVF	_dowcrc, W, B
002d3c   e003     bz	0x2d44                	BZ	_00443_DS_
                                           _00442_DS_:
002d3e   0102     movlb	0x2                	BANKSEL	_lastDiscrep
                                           ;	.line	402; /home/mandon/pinguino32X2/trunk/x.2/p8/share/sdcc/include/pic16/18b20.c	lastDiscrep=0;							// reset the last discrepancy to 0
002d40   6b81     clrf	0x81, 0x1           	CLRF	_lastDiscrep, B
002d42   d00b     bra	0x2d5a               	BRA	_00444_DS_
                                           _00443_DS_:
                                           ;	.line	405; /home/mandon/pinguino32X2/trunk/x.2/p8/share/sdcc/include/pic16/18b20.c	lastDiscrep = discrepMarker;
002d44   c002     movff	0x2, 0x281         	MOVFF	r0x02, _lastDiscrep
002d46   f281
002d48   0102     movlb	0x2                	BANKSEL	_doneFlag
                                           ;	.line	406; /home/mandon/pinguino32X2/trunk/x.2/p8/share/sdcc/include/pic16/18b20.c	doneFlag = (lastDiscrep == 0);
002d4a   6b82     clrf	0x82, 0x1           	CLRF	_doneFlag, B
002d4c   0102     movlb	0x2                	BANKSEL	_lastDiscrep
002d4e   5181     movf	0x81, 0, 0x1        	MOVF	_lastDiscrep, W, B
002d50   e102     bnz	0x2d56               	BNZ	_00480_DS_
002d52   0102     movlb	0x2                	BANKSEL	_doneFlag
002d54   2b82     incf	0x82, 0x1, 0x1      	INCF	_doneFlag, F, B
                                           _00480_DS_:
                                           ;	.line	407; /home/mandon/pinguino32X2/trunk/x.2/p8/share/sdcc/include/pic16/18b20.c	nxt = TRUE;								// indicates search is not complete yet, more parts remain
002d56   0e01     movlw	0x1                	MOVLW	0x01
002d58   6e03     movwf	0x3, 0             	MOVWF	r0x03
                                           _00444_DS_:
                                           ;	.line	409; /home/mandon/pinguino32X2/trunk/x.2/p8/share/sdcc/include/pic16/18b20.c	return nxt;
002d5a   5003     movf	0x3, 0, 0           	MOVF	r0x03, W
                                           _00446_DS_:
002d5c   cfe4     movff	0xfe4, 0x9         	MOVFF	PREINC1, r0x09
002d5e   f009
002d60   cfe4     movff	0xfe4, 0x8         	MOVFF	PREINC1, r0x08
002d62   f008
002d64   cfe4     movff	0xfe4, 0x7         	MOVFF	PREINC1, r0x07
002d66   f007
002d68   cfe4     movff	0xfe4, 0x6         	MOVFF	PREINC1, r0x06
002d6a   f006
002d6c   cfe4     movff	0xfe4, 0x5         	MOVFF	PREINC1, r0x05
002d6e   f005
002d70   cfe4     movff	0xfe4, 0x4         	MOVFF	PREINC1, r0x04
002d72   f004
002d74   cfe4     movff	0xfe4, 0x3         	MOVFF	PREINC1, r0x03
002d76   f003
002d78   cfe4     movff	0xfe4, 0x2         	MOVFF	PREINC1, r0x02
002d7a   f002
002d7c   cfe4     movff	0xfe4, 0x1         	MOVFF	PREINC1, r0x01
002d7e   f001
002d80   cfe4     movff	0xfe4, 0           	MOVFF	PREINC1, r0x00
002d82   f000
002d84   cfe4     movff	0xfe4, 0xfd9       	MOVFF	PREINC1, FSR2L
002d86   ffd9
002d88   0012     return	0                 	RETURN	
                                           
                                           ; ; Starting pCode block
                                           S_main__DS18B20GetFirst	code
                                           _DS18B20GetFirst:
                                           ;	.line	326; /home/mandon/pinguino32X2/trunk/x.2/p8/share/sdcc/include/pic16/18b20.c	u8 DS18B20GetFirst(u8 pin)
003a0e   cfd9     movff	0xfd9, 0xfe5       	MOVFF	FSR2L, POSTDEC1
003a10   ffe5
003a12   cfe1     movff	0xfe1, 0xfd9       	MOVFF	FSR1L, FSR2L
003a14   ffd9
003a16   c000     movff	0, 0xfe5           	MOVFF	r0x00, POSTDEC1
003a18   ffe5
003a1a   0e02     movlw	0x2                	MOVLW	0x02
003a1c   cfdb     movff	0xfdb, 0           	MOVFF	PLUSW2, r0x00
003a1e   f000
003a20   0102     movlb	0x2                	BANKSEL	_lastDiscrep
                                           ;	.line	328; /home/mandon/pinguino32X2/trunk/x.2/p8/share/sdcc/include/pic16/18b20.c	lastDiscrep = 0;			// reset the rom search last discrepancy global
003a22   6b81     clrf	0x81, 0x1           	CLRF	_lastDiscrep, B
003a24   0102     movlb	0x2                	BANKSEL	_doneFlag
                                           ;	.line	329; /home/mandon/pinguino32X2/trunk/x.2/p8/share/sdcc/include/pic16/18b20.c	doneFlag = FALSE;
003a26   6b82     clrf	0x82, 0x1           	CLRF	_doneFlag, B
                                           ;	.line	330; /home/mandon/pinguino32X2/trunk/x.2/p8/share/sdcc/include/pic16/18b20.c	return DS18B20GetNext(pin);	// call Next and return its return value
003a28   5000     movf	0, 0, 0             	MOVF	r0x00, W
003a2a   6ee5     movwf	0xe5, 0            	MOVWF	POSTDEC1
003a2c   eccd     call	0x2b9a, 0           	CALL	_DS18B20GetNext
003a2e   f015
003a30   2ae1     incf	0xe1, 0x1, 0        	INCF	FSR1L, F
003a32   cfe4     movff	0xfe4, 0           	MOVFF	PREINC1, r0x00
003a34   f000
003a36   cfe4     movff	0xfe4, 0xfd9       	MOVFF	PREINC1, FSR2L
003a38   ffd9
003a3a   0012     return	0                 	RETURN	
                                           
                                           ; ; Starting pCode block
                                           S_main__DS18B20Find	code
                                           _DS18B20Find:
                                           ;	.line	295; /home/mandon/pinguino32X2/trunk/x.2/p8/share/sdcc/include/pic16/18b20.c	void DS18B20Find(u8 pin)
002fcc   cfd9     movff	0xfd9, 0xfe5       	MOVFF	FSR2L, POSTDEC1
002fce   ffe5
002fd0   cfe1     movff	0xfe1, 0xfd9       	MOVFF	FSR1L, FSR2L
002fd2   ffd9
002fd4   c000     movff	0, 0xfe5           	MOVFF	r0x00, POSTDEC1
002fd6   ffe5
002fd8   c001     movff	0x1, 0xfe5         	MOVFF	r0x01, POSTDEC1
002fda   ffe5
002fdc   c002     movff	0x2, 0xfe5         	MOVFF	r0x02, POSTDEC1
002fde   ffe5
002fe0   c003     movff	0x3, 0xfe5         	MOVFF	r0x03, POSTDEC1
002fe2   ffe5
002fe4   c004     movff	0x4, 0xfe5         	MOVFF	r0x04, POSTDEC1
002fe6   ffe5
002fe8   c005     movff	0x5, 0xfe5         	MOVFF	r0x05, POSTDEC1
002fea   ffe5
002fec   0e02     movlw	0x2                	MOVLW	0x02
002fee   cfdb     movff	0xfdb, 0           	MOVFF	PLUSW2, r0x00
002ff0   f000
                                           ;	.line	299; /home/mandon/pinguino32X2/trunk/x.2/p8/share/sdcc/include/pic16/18b20.c	if (!OneWireReset(pin))	// Detects presence of devices
002ff2   5000     movf	0, 0, 0             	MOVF	r0x00, W
002ff4   6ee5     movwf	0xe5, 0            	MOVWF	POSTDEC1
002ff6   ecd9     call	0x35b2, 0           	CALL	_OneWireReset
002ff8   f01a
002ffa   6e01     movwf	0x1, 0             	MOVWF	r0x01
002ffc   2ae1     incf	0xe1, 0x1, 0        	INCF	FSR1L, F
002ffe   5001     movf	0x1, 0, 0           	MOVF	r0x01, W
003000   a4d8     btfss	0xd8, 0x2, 0       	BTFSS	STATUS, 2
003002   d03e     bra	0x3080               	BRA	_00396_DS_
                                           ;	.line	301; /home/mandon/pinguino32X2/trunk/x.2/p8/share/sdcc/include/pic16/18b20.c	if (DS18B20GetFirst(pin))	// Begins when at least one part is found
003004   5000     movf	0, 0, 0             	MOVF	r0x00, W
003006   6ee5     movwf	0xe5, 0            	MOVWF	POSTDEC1
003008   ec07     call	0x3a0e, 0           	CALL	_DS18B20GetFirst
00300a   f01d
00300c   6e01     movwf	0x1, 0             	MOVWF	r0x01
00300e   2ae1     incf	0xe1, 0x1, 0        	INCF	FSR1L, F
003010   5001     movf	0x1, 0, 0           	MOVF	r0x01, W
003012   e036     bz	0x3080                	BZ	_00396_DS_
003014   0102     movlb	0x2                	BANKSEL	_numROMs
                                           ;	.line	303; /home/mandon/pinguino32X2/trunk/x.2/p8/share/sdcc/include/pic16/18b20.c	numROMs=0;
003016   6b89     clrf	0x89, 0x1           	CLRF	_numROMs, B
                                           _00385_DS_:
003018   0102     movlb	0x2                	BANKSEL	_numROMs
                                           ;	.line	305; /home/mandon/pinguino32X2/trunk/x.2/p8/share/sdcc/include/pic16/18b20.c	numROMs++;
00301a   2b89     incf	0x89, 0x1, 0x1      	INCF	_numROMs, F, B
                                           ;	.line	307; /home/mandon/pinguino32X2/trunk/x.2/p8/share/sdcc/include/pic16/18b20.c	for(m = 0; m < 8; m++)
00301c   6a01     clrf	0x1, 0              	CLRF	r0x01
                                           _00392_DS_:
00301e   0e08     movlw	0x8                	MOVLW	0x08
003020   5c01     subwf	0x1, 0, 0          	SUBWF	r0x01, W
003022   e222     bc	0x3068                	BC	_00386_DS_
                                           ; ;multiply lit val:0x08 by variable _numROMs and store in r0x02
                                           ; ;Unrolled 8 X 8 multiplication
                                           ; ;FIXME: the function does not support result==WREG
003024   0102     movlb	0x2                	BANKSEL	_numROMs
                                           ;	.line	310; /home/mandon/pinguino32X2/trunk/x.2/p8/share/sdcc/include/pic16/18b20.c	DS18B20Rom[numROMs][m] = ROM[m];
003026   5189     movf	0x89, 0, 0x1        	MOVF	_numROMs, W, B
003028   0d08     mullw	0x8                	MULLW	0x08
00302a   cff3     movff	0xff3, 0x2         	MOVFF	PRODL, r0x02
00302c   f002
00302e   6a03     clrf	0x3, 0              	CLRF	r0x03
003030   0e40     movlw	0x40               	MOVLW	LOW(_DS18B20Rom)
003032   2602     addwf	0x2, 0x1, 0        	ADDWF	r0x02, F
003034   0e02     movlw	0x2                	MOVLW	HIGH(_DS18B20Rom)
003036   2203     addwfc	0x3, 0x1, 0       	ADDWFC	r0x03, F
003038   5001     movf	0x1, 0, 0           	MOVF	r0x01, W
00303a   2602     addwf	0x2, 0x1, 0        	ADDWF	r0x02, F
00303c   6ae8     clrf	0xe8, 0             	CLRF	WREG
00303e   2203     addwfc	0x3, 0x1, 0       	ADDWFC	r0x03, F
003040   0e70     movlw	0x70               	MOVLW	LOW(_ROM)
003042   2401     addwf	0x1, 0, 0          	ADDWF	r0x01, W
003044   6e04     movwf	0x4, 0             	MOVWF	r0x04
003046   6a05     clrf	0x5, 0              	CLRF	r0x05
003048   0e02     movlw	0x2                	MOVLW	HIGH(_ROM)
00304a   2205     addwfc	0x5, 0x1, 0       	ADDWFC	r0x05, F
00304c   c004     movff	0x4, 0xfe9         	MOVFF	r0x04, FSR0L
00304e   ffe9
003050   c005     movff	0x5, 0xfea         	MOVFF	r0x05, FSR0H
003052   ffea
003054   cfef     movff	0xfef, 0x4         	MOVFF	INDF0, r0x04
003056   f004
003058   c002     movff	0x2, 0xfe9         	MOVFF	r0x02, FSR0L
00305a   ffe9
00305c   c003     movff	0x3, 0xfea         	MOVFF	r0x03, FSR0H
00305e   ffea
003060   c004     movff	0x4, 0xfef         	MOVFF	r0x04, INDF0
003062   ffef
                                           ;	.line	307; /home/mandon/pinguino32X2/trunk/x.2/p8/share/sdcc/include/pic16/18b20.c	for(m = 0; m < 8; m++)
003064   2a01     incf	0x1, 0x1, 0         	INCF	r0x01, F
003066   d7db     bra	0x301e               	BRA	_00392_DS_
                                           _00386_DS_:
                                           ;	.line	313; /home/mandon/pinguino32X2/trunk/x.2/p8/share/sdcc/include/pic16/18b20.c	} while (DS18B20GetNext(pin)&&(numROMs<10));
003068   5000     movf	0, 0, 0             	MOVF	r0x00, W
00306a   6ee5     movwf	0xe5, 0            	MOVWF	POSTDEC1
00306c   eccd     call	0x2b9a, 0           	CALL	_DS18B20GetNext
00306e   f015
003070   6e01     movwf	0x1, 0             	MOVWF	r0x01
003072   2ae1     incf	0xe1, 0x1, 0        	INCF	FSR1L, F
003074   5001     movf	0x1, 0, 0           	MOVF	r0x01, W
003076   e004     bz	0x3080                	BZ	_00396_DS_
003078   0e0a     movlw	0xa                	MOVLW	0x0a
00307a   0102     movlb	0x2                	BANKSEL	_numROMs
00307c   5d89     subwf	0x89, 0, 0x1       	SUBWF	_numROMs, W, B
00307e   e3cc     bnc	0x3018               	BNC	_00385_DS_
                                           _00396_DS_:
003080   cfe4     movff	0xfe4, 0x5         	MOVFF	PREINC1, r0x05
003082   f005
003084   cfe4     movff	0xfe4, 0x4         	MOVFF	PREINC1, r0x04
003086   f004
003088   cfe4     movff	0xfe4, 0x3         	MOVFF	PREINC1, r0x03
00308a   f003
00308c   cfe4     movff	0xfe4, 0x2         	MOVFF	PREINC1, r0x02
00308e   f002
003090   cfe4     movff	0xfe4, 0x1         	MOVFF	PREINC1, r0x01
003092   f001
003094   cfe4     movff	0xfe4, 0           	MOVFF	PREINC1, r0x00
003096   f000
003098   cfe4     movff	0xfe4, 0xfd9       	MOVFF	PREINC1, FSR2L
00309a   ffd9
00309c   0012     return	0                 	RETURN	
                                           
                                           ; ; Starting pCode block
                                           S_main__DS18B20ReadRom	code
                                           _DS18B20ReadRom:
                                           ;	.line	277; /home/mandon/pinguino32X2/trunk/x.2/p8/share/sdcc/include/pic16/18b20.c	void DS18B20ReadRom(u8 pin, u8 *romcode)
00316a   cfd9     movff	0xfd9, 0xfe5       	MOVFF	FSR2L, POSTDEC1
00316c   ffe5
00316e   cfe1     movff	0xfe1, 0xfd9       	MOVFF	FSR1L, FSR2L
003170   ffd9
003172   c000     movff	0, 0xfe5           	MOVFF	r0x00, POSTDEC1
003174   ffe5
003176   c001     movff	0x1, 0xfe5         	MOVFF	r0x01, POSTDEC1
003178   ffe5
00317a   c002     movff	0x2, 0xfe5         	MOVFF	r0x02, POSTDEC1
00317c   ffe5
00317e   c003     movff	0x3, 0xfe5         	MOVFF	r0x03, POSTDEC1
003180   ffe5
003182   c004     movff	0x4, 0xfe5         	MOVFF	r0x04, POSTDEC1
003184   ffe5
003186   c005     movff	0x5, 0xfe5         	MOVFF	r0x05, POSTDEC1
003188   ffe5
00318a   c006     movff	0x6, 0xfe5         	MOVFF	r0x06, POSTDEC1
00318c   ffe5
00318e   c007     movff	0x7, 0xfe5         	MOVFF	r0x07, POSTDEC1
003190   ffe5
003192   c008     movff	0x8, 0xfe5         	MOVFF	r0x08, POSTDEC1
003194   ffe5
003196   0e02     movlw	0x2                	MOVLW	0x02
003198   cfdb     movff	0xfdb, 0           	MOVFF	PLUSW2, r0x00
00319a   f000
00319c   0e03     movlw	0x3                	MOVLW	0x03
00319e   cfdb     movff	0xfdb, 0x1         	MOVFF	PLUSW2, r0x01
0031a0   f001
0031a2   0e04     movlw	0x4                	MOVLW	0x04
0031a4   cfdb     movff	0xfdb, 0x2         	MOVFF	PLUSW2, r0x02
0031a6   f002
0031a8   0e05     movlw	0x5                	MOVLW	0x05
0031aa   cfdb     movff	0xfdb, 0x3         	MOVFF	PLUSW2, r0x03
0031ac   f003
                                           ;	.line	280; /home/mandon/pinguino32X2/trunk/x.2/p8/share/sdcc/include/pic16/18b20.c	if (!OneWireReset(pin))
0031ae   5000     movf	0, 0, 0             	MOVF	r0x00, W
0031b0   6ee5     movwf	0xe5, 0            	MOVWF	POSTDEC1
0031b2   ecd9     call	0x35b2, 0           	CALL	_OneWireReset
0031b4   f01a
0031b6   6e04     movwf	0x4, 0             	MOVWF	r0x04
0031b8   2ae1     incf	0xe1, 0x1, 0        	INCF	FSR1L, F
0031ba   5004     movf	0x4, 0, 0           	MOVF	r0x04, W
0031bc   e126     bnz	0x320a               	BNZ	_00373_DS_
                                           ;	.line	282; /home/mandon/pinguino32X2/trunk/x.2/p8/share/sdcc/include/pic16/18b20.c	OneWireWrite(pin, READROM);
0031be   0e33     movlw	0x33               	MOVLW	0x33
0031c0   6ee5     movwf	0xe5, 0            	MOVWF	POSTDEC1
0031c2   5000     movf	0, 0, 0             	MOVF	r0x00, W
0031c4   6ee5     movwf	0xe5, 0            	MOVWF	POSTDEC1
0031c6   ec11     call	0x3622, 0           	CALL	_OneWireWrite
0031c8   f01b
0031ca   0e02     movlw	0x2                	MOVLW	0x02
0031cc   26e1     addwf	0xe1, 0x1, 0       	ADDWF	FSR1L, F
                                           ;	.line	283; /home/mandon/pinguino32X2/trunk/x.2/p8/share/sdcc/include/pic16/18b20.c	for (i = 0; i < 8; i++)		// Reads the ROM Code from a device
0031ce   6a04     clrf	0x4, 0              	CLRF	r0x04
                                           _00369_DS_:
0031d0   0e08     movlw	0x8                	MOVLW	0x08
0031d2   5c04     subwf	0x4, 0, 0          	SUBWF	r0x04, W
0031d4   e21a     bc	0x320a                	BC	_00373_DS_
                                           ;	.line	284; /home/mandon/pinguino32X2/trunk/x.2/p8/share/sdcc/include/pic16/18b20.c	romcode[i] = OneWireRead(pin);
0031d6   5004     movf	0x4, 0, 0           	MOVF	r0x04, W
0031d8   2401     addwf	0x1, 0, 0          	ADDWF	r0x01, W
0031da   6e05     movwf	0x5, 0             	MOVWF	r0x05
0031dc   6ae8     clrf	0xe8, 0             	CLRF	WREG
0031de   2002     addwfc	0x2, 0, 0         	ADDWFC	r0x02, W
0031e0   6e06     movwf	0x6, 0             	MOVWF	r0x06
0031e2   6ae8     clrf	0xe8, 0             	CLRF	WREG
0031e4   2003     addwfc	0x3, 0, 0         	ADDWFC	r0x03, W
0031e6   6e07     movwf	0x7, 0             	MOVWF	r0x07
0031e8   5000     movf	0, 0, 0             	MOVF	r0x00, W
0031ea   6ee5     movwf	0xe5, 0            	MOVWF	POSTDEC1
0031ec   ec47     call	0x368e, 0           	CALL	_OneWireRead
0031ee   f01b
0031f0   6e08     movwf	0x8, 0             	MOVWF	r0x08
0031f2   2ae1     incf	0xe1, 0x1, 0        	INCF	FSR1L, F
0031f4   c008     movff	0x8, 0xfe5         	MOVFF	r0x08, POSTDEC1
0031f6   ffe5
0031f8   c005     movff	0x5, 0xfe9         	MOVFF	r0x05, FSR0L
0031fa   ffe9
0031fc   c006     movff	0x6, 0xff3         	MOVFF	r0x06, PRODL
0031fe   fff3
003200   5007     movf	0x7, 0, 0           	MOVF	r0x07, W
003202   ec31     call	0x62, 0             	CALL	__gptrput1
003204   f000
                                           ;	.line	283; /home/mandon/pinguino32X2/trunk/x.2/p8/share/sdcc/include/pic16/18b20.c	for (i = 0; i < 8; i++)		// Reads the ROM Code from a device
003206   2a04     incf	0x4, 0x1, 0         	INCF	r0x04, F
003208   d7e3     bra	0x31d0               	BRA	_00369_DS_
                                           _00373_DS_:
00320a   cfe4     movff	0xfe4, 0x8         	MOVFF	PREINC1, r0x08
00320c   f008
00320e   cfe4     movff	0xfe4, 0x7         	MOVFF	PREINC1, r0x07
003210   f007
003212   cfe4     movff	0xfe4, 0x6         	MOVFF	PREINC1, r0x06
003214   f006
003216   cfe4     movff	0xfe4, 0x5         	MOVFF	PREINC1, r0x05
003218   f005
00321a   cfe4     movff	0xfe4, 0x4         	MOVFF	PREINC1, r0x04
00321c   f004
00321e   cfe4     movff	0xfe4, 0x3         	MOVFF	PREINC1, r0x03
003220   f003
003222   cfe4     movff	0xfe4, 0x2         	MOVFF	PREINC1, r0x02
003224   f002
003226   cfe4     movff	0xfe4, 0x1         	MOVFF	PREINC1, r0x01
003228   f001
00322a   cfe4     movff	0xfe4, 0           	MOVFF	PREINC1, r0x00
00322c   f000
00322e   cfe4     movff	0xfe4, 0xfd9       	MOVFF	PREINC1, FSR2L
003230   ffd9
003232   0012     return	0                 	RETURN	
                                           
                                           ; ; Starting pCode block
                                           S_main__DS18B20MatchRom	code
                                           _DS18B20MatchRom:
                                           ;	.line	254; /home/mandon/pinguino32X2/trunk/x.2/p8/share/sdcc/include/pic16/18b20.c	u8 DS18B20MatchRom(u8 pin, u8 num)
003234   cfd9     movff	0xfd9, 0xfe5       	MOVFF	FSR2L, POSTDEC1
003236   ffe5
003238   cfe1     movff	0xfe1, 0xfd9       	MOVFF	FSR1L, FSR2L
00323a   ffd9
00323c   c000     movff	0, 0xfe5           	MOVFF	r0x00, POSTDEC1
00323e   ffe5
003240   c001     movff	0x1, 0xfe5         	MOVFF	r0x01, POSTDEC1
003242   ffe5
003244   c002     movff	0x2, 0xfe5         	MOVFF	r0x02, POSTDEC1
003246   ffe5
003248   c003     movff	0x3, 0xfe5         	MOVFF	r0x03, POSTDEC1
00324a   ffe5
00324c   c004     movff	0x4, 0xfe5         	MOVFF	r0x04, POSTDEC1
00324e   ffe5
003250   0e02     movlw	0x2                	MOVLW	0x02
003252   cfdb     movff	0xfdb, 0           	MOVFF	PLUSW2, r0x00
003254   f000
003256   0e03     movlw	0x3                	MOVLW	0x03
003258   cfdb     movff	0xfdb, 0x1         	MOVFF	PLUSW2, r0x01
00325a   f001
                                           ;	.line	257; /home/mandon/pinguino32X2/trunk/x.2/p8/share/sdcc/include/pic16/18b20.c	if (OneWireReset(pin)) return FALSE;
00325c   5000     movf	0, 0, 0             	MOVF	r0x00, W
00325e   6ee5     movwf	0xe5, 0            	MOVWF	POSTDEC1
003260   ecd9     call	0x35b2, 0           	CALL	_OneWireReset
003262   f01a
003264   6e02     movwf	0x2, 0             	MOVWF	r0x02
003266   2ae1     incf	0xe1, 0x1, 0        	INCF	FSR1L, F
003268   5002     movf	0x2, 0, 0           	MOVF	r0x02, W
00326a   e002     bz	0x3270                	BZ	_00351_DS_
00326c   6ae8     clrf	0xe8, 0             	CLRF	WREG
00326e   d02b     bra	0x32c6               	BRA	_00356_DS_
                                           _00351_DS_:
                                           ;	.line	258; /home/mandon/pinguino32X2/trunk/x.2/p8/share/sdcc/include/pic16/18b20.c	OneWireWrite(pin, MATCHROM);	// Match Rom
003270   0e55     movlw	0x55               	MOVLW	0x55
003272   6ee5     movwf	0xe5, 0            	MOVWF	POSTDEC1
003274   5000     movf	0, 0, 0             	MOVF	r0x00, W
003276   6ee5     movwf	0xe5, 0            	MOVWF	POSTDEC1
003278   ec11     call	0x3622, 0           	CALL	_OneWireWrite
00327a   f01b
00327c   0e02     movlw	0x2                	MOVLW	0x02
00327e   26e1     addwf	0xe1, 0x1, 0       	ADDWF	FSR1L, F
                                           ; ;multiply lit val:0x08 by variable r0x01 and store in r0x01
                                           ; ;Unrolled 8 X 8 multiplication
                                           ; ;FIXME: the function does not support result==WREG
                                           ;	.line	259; /home/mandon/pinguino32X2/trunk/x.2/p8/share/sdcc/include/pic16/18b20.c	for (i = 0; i < 8; i++)				// Send the Address ROM Code.
003280   5001     movf	0x1, 0, 0           	MOVF	r0x01, W
003282   0d08     mullw	0x8                	MULLW	0x08
003284   cff3     movff	0xff3, 0x1         	MOVFF	PRODL, r0x01
003286   f001
003288   6a02     clrf	0x2, 0              	CLRF	r0x02
                                           _00352_DS_:
00328a   0e08     movlw	0x8                	MOVLW	0x08
00328c   5c02     subwf	0x2, 0, 0          	SUBWF	r0x02, W
00328e   e21a     bc	0x32c4                	BC	_00355_DS_
                                           ;	.line	260; /home/mandon/pinguino32X2/trunk/x.2/p8/share/sdcc/include/pic16/18b20.c	OneWireWrite(pin, DS18B20Rom[num][i]);
003290   0e40     movlw	0x40               	MOVLW	LOW(_DS18B20Rom)
003292   2401     addwf	0x1, 0, 0          	ADDWF	r0x01, W
003294   6e03     movwf	0x3, 0             	MOVWF	r0x03
003296   6a04     clrf	0x4, 0              	CLRF	r0x04
003298   0e02     movlw	0x2                	MOVLW	HIGH(_DS18B20Rom)
00329a   2204     addwfc	0x4, 0x1, 0       	ADDWFC	r0x04, F
00329c   5002     movf	0x2, 0, 0           	MOVF	r0x02, W
00329e   2603     addwf	0x3, 0x1, 0        	ADDWF	r0x03, F
0032a0   6ae8     clrf	0xe8, 0             	CLRF	WREG
0032a2   2204     addwfc	0x4, 0x1, 0       	ADDWFC	r0x04, F
0032a4   c003     movff	0x3, 0xfe9         	MOVFF	r0x03, FSR0L
0032a6   ffe9
0032a8   c004     movff	0x4, 0xfea         	MOVFF	r0x04, FSR0H
0032aa   ffea
0032ac   cfef     movff	0xfef, 0x3         	MOVFF	INDF0, r0x03
0032ae   f003
0032b0   5003     movf	0x3, 0, 0           	MOVF	r0x03, W
0032b2   6ee5     movwf	0xe5, 0            	MOVWF	POSTDEC1
0032b4   5000     movf	0, 0, 0             	MOVF	r0x00, W
0032b6   6ee5     movwf	0xe5, 0            	MOVWF	POSTDEC1
0032b8   ec11     call	0x3622, 0           	CALL	_OneWireWrite
0032ba   f01b
0032bc   0e02     movlw	0x2                	MOVLW	0x02
0032be   26e1     addwf	0xe1, 0x1, 0       	ADDWF	FSR1L, F
                                           ;	.line	259; /home/mandon/pinguino32X2/trunk/x.2/p8/share/sdcc/include/pic16/18b20.c	for (i = 0; i < 8; i++)				// Send the Address ROM Code.
0032c0   2a02     incf	0x2, 0x1, 0         	INCF	r0x02, F
0032c2   d7e3     bra	0x328a               	BRA	_00352_DS_
                                           _00355_DS_:
                                           ;	.line	261; /home/mandon/pinguino32X2/trunk/x.2/p8/share/sdcc/include/pic16/18b20.c	return TRUE;
0032c4   0e01     movlw	0x1                	MOVLW	0x01
                                           _00356_DS_:
0032c6   cfe4     movff	0xfe4, 0x4         	MOVFF	PREINC1, r0x04
0032c8   f004
0032ca   cfe4     movff	0xfe4, 0x3         	MOVFF	PREINC1, r0x03
0032cc   f003
0032ce   cfe4     movff	0xfe4, 0x2         	MOVFF	PREINC1, r0x02
0032d0   f002
0032d2   cfe4     movff	0xfe4, 0x1         	MOVFF	PREINC1, r0x01
0032d4   f001
0032d6   cfe4     movff	0xfe4, 0           	MOVFF	PREINC1, r0x00
0032d8   f000
0032da   cfe4     movff	0xfe4, 0xfd9       	MOVFF	PREINC1, FSR2L
0032dc   ffd9
0032de   0012     return	0                 	RETURN	
                                           
                                           ; ; Starting pCode block
                                           S_main__DS18B20Configure	code
                                           _DS18B20Configure:
                                           ;	.line	220; /home/mandon/pinguino32X2/trunk/x.2/p8/share/sdcc/include/pic16/18b20.c	u8 DS18B20Configure(u8 pin, u8 num, u8 TH, u8 TL, u8 config)
002ef2   cfd9     movff	0xfd9, 0xfe5       	MOVFF	FSR2L, POSTDEC1
002ef4   ffe5
002ef6   cfe1     movff	0xfe1, 0xfd9       	MOVFF	FSR1L, FSR2L
002ef8   ffd9
002efa   c000     movff	0, 0xfe5           	MOVFF	r0x00, POSTDEC1
002efc   ffe5
002efe   c001     movff	0x1, 0xfe5         	MOVFF	r0x01, POSTDEC1
002f00   ffe5
002f02   c002     movff	0x2, 0xfe5         	MOVFF	r0x02, POSTDEC1
002f04   ffe5
002f06   c003     movff	0x3, 0xfe5         	MOVFF	r0x03, POSTDEC1
002f08   ffe5
002f0a   c004     movff	0x4, 0xfe5         	MOVFF	r0x04, POSTDEC1
002f0c   ffe5
002f0e   c005     movff	0x5, 0xfe5         	MOVFF	r0x05, POSTDEC1
002f10   ffe5
002f12   0e02     movlw	0x2                	MOVLW	0x02
002f14   cfdb     movff	0xfdb, 0           	MOVFF	PLUSW2, r0x00
002f16   f000
002f18   0e03     movlw	0x3                	MOVLW	0x03
002f1a   cfdb     movff	0xfdb, 0x1         	MOVFF	PLUSW2, r0x01
002f1c   f001
002f1e   0e04     movlw	0x4                	MOVLW	0x04
002f20   cfdb     movff	0xfdb, 0x2         	MOVFF	PLUSW2, r0x02
002f22   f002
002f24   0e05     movlw	0x5                	MOVLW	0x05
002f26   cfdb     movff	0xfdb, 0x3         	MOVFF	PLUSW2, r0x03
002f28   f003
002f2a   0e06     movlw	0x6                	MOVLW	0x06
002f2c   cfdb     movff	0xfdb, 0x4         	MOVFF	PLUSW2, r0x04
002f2e   f004
                                           ;	.line	222; /home/mandon/pinguino32X2/trunk/x.2/p8/share/sdcc/include/pic16/18b20.c	if (OneWireReset(pin)) return FALSE;
002f30   5000     movf	0, 0, 0             	MOVF	r0x00, W
002f32   6ee5     movwf	0xe5, 0            	MOVWF	POSTDEC1
002f34   ecd9     call	0x35b2, 0           	CALL	_OneWireReset
002f36   f01a
002f38   6e05     movwf	0x5, 0             	MOVWF	r0x05
002f3a   2ae1     incf	0xe1, 0x1, 0        	INCF	FSR1L, F
002f3c   5005     movf	0x5, 0, 0           	MOVF	r0x05, W
002f3e   e002     bz	0x2f44                	BZ	_00336_DS_
002f40   6ae8     clrf	0xe8, 0             	CLRF	WREG
002f42   d035     bra	0x2fae               	BRA	_00340_DS_
                                           _00336_DS_:
                                           ;	.line	223; /home/mandon/pinguino32X2/trunk/x.2/p8/share/sdcc/include/pic16/18b20.c	if (num == SKIPROM)
002f44   5001     movf	0x1, 0, 0           	MOVF	r0x01, W
002f46   0acc     xorlw	0xcc               	XORLW	0xcc
002f48   e109     bnz	0x2f5c               	BNZ	_00338_DS_
                                           ;	.line	226; /home/mandon/pinguino32X2/trunk/x.2/p8/share/sdcc/include/pic16/18b20.c	OneWireWrite(pin, SKIPROM);
002f4a   0ecc     movlw	0xcc               	MOVLW	0xcc
002f4c   6ee5     movwf	0xe5, 0            	MOVWF	POSTDEC1
002f4e   5000     movf	0, 0, 0             	MOVF	r0x00, W
002f50   6ee5     movwf	0xe5, 0            	MOVWF	POSTDEC1
002f52   ec11     call	0x3622, 0           	CALL	_OneWireWrite
002f54   f01b
002f56   0e02     movlw	0x2                	MOVLW	0x02
002f58   26e1     addwf	0xe1, 0x1, 0       	ADDWF	FSR1L, F
002f5a   d008     bra	0x2f6c               	BRA	_00339_DS_
                                           _00338_DS_:
                                           ;	.line	231; /home/mandon/pinguino32X2/trunk/x.2/p8/share/sdcc/include/pic16/18b20.c	DS18B20MatchRom(pin, num);
002f5c   5001     movf	0x1, 0, 0           	MOVF	r0x01, W
002f5e   6ee5     movwf	0xe5, 0            	MOVWF	POSTDEC1
002f60   5000     movf	0, 0, 0             	MOVF	r0x00, W
002f62   6ee5     movwf	0xe5, 0            	MOVWF	POSTDEC1
002f64   ec1a     call	0x3234, 0           	CALL	_DS18B20MatchRom
002f66   f019
002f68   0e02     movlw	0x2                	MOVLW	0x02
002f6a   26e1     addwf	0xe1, 0x1, 0       	ADDWF	FSR1L, F
                                           _00339_DS_:
                                           ;	.line	233; /home/mandon/pinguino32X2/trunk/x.2/p8/share/sdcc/include/pic16/18b20.c	OneWireWrite(pin, WRITE_SCRATCHPAD);	// Allows the master to write 3 bytes of data to the scratchpad
002f6c   0e4e     movlw	0x4e               	MOVLW	0x4e
002f6e   6ee5     movwf	0xe5, 0            	MOVWF	POSTDEC1
002f70   5000     movf	0, 0, 0             	MOVF	r0x00, W
002f72   6ee5     movwf	0xe5, 0            	MOVWF	POSTDEC1
002f74   ec11     call	0x3622, 0           	CALL	_OneWireWrite
002f76   f01b
002f78   0e02     movlw	0x2                	MOVLW	0x02
002f7a   26e1     addwf	0xe1, 0x1, 0       	ADDWF	FSR1L, F
                                           ;	.line	234; /home/mandon/pinguino32X2/trunk/x.2/p8/share/sdcc/include/pic16/18b20.c	OneWireWrite(pin, TH);				// The first data byte is written into the TH register (byte 2 of the scratchpad)
002f7c   5002     movf	0x2, 0, 0           	MOVF	r0x02, W
002f7e   6ee5     movwf	0xe5, 0            	MOVWF	POSTDEC1
002f80   5000     movf	0, 0, 0             	MOVF	r0x00, W
002f82   6ee5     movwf	0xe5, 0            	MOVWF	POSTDEC1
002f84   ec11     call	0x3622, 0           	CALL	_OneWireWrite
002f86   f01b
002f88   0e02     movlw	0x2                	MOVLW	0x02
002f8a   26e1     addwf	0xe1, 0x1, 0       	ADDWF	FSR1L, F
                                           ;	.line	235; /home/mandon/pinguino32X2/trunk/x.2/p8/share/sdcc/include/pic16/18b20.c	OneWireWrite(pin, TL);				// The second byte is written into the TL register (byte 3)
002f8c   5003     movf	0x3, 0, 0           	MOVF	r0x03, W
002f8e   6ee5     movwf	0xe5, 0            	MOVWF	POSTDEC1
002f90   5000     movf	0, 0, 0             	MOVF	r0x00, W
002f92   6ee5     movwf	0xe5, 0            	MOVWF	POSTDEC1
002f94   ec11     call	0x3622, 0           	CALL	_OneWireWrite
002f96   f01b
002f98   0e02     movlw	0x2                	MOVLW	0x02
002f9a   26e1     addwf	0xe1, 0x1, 0       	ADDWF	FSR1L, F
                                           ;	.line	236; /home/mandon/pinguino32X2/trunk/x.2/p8/share/sdcc/include/pic16/18b20.c	OneWireWrite(pin, config);			// The third byte is written into the configuration register (byte 4)
002f9c   5004     movf	0x4, 0, 0           	MOVF	r0x04, W
002f9e   6ee5     movwf	0xe5, 0            	MOVWF	POSTDEC1
002fa0   5000     movf	0, 0, 0             	MOVF	r0x00, W
002fa2   6ee5     movwf	0xe5, 0            	MOVWF	POSTDEC1
002fa4   ec11     call	0x3622, 0           	CALL	_OneWireWrite
002fa6   f01b
002fa8   0e02     movlw	0x2                	MOVLW	0x02
002faa   26e1     addwf	0xe1, 0x1, 0       	ADDWF	FSR1L, F
                                           ;	.line	237; /home/mandon/pinguino32X2/trunk/x.2/p8/share/sdcc/include/pic16/18b20.c	return TRUE;
002fac   0e01     movlw	0x1                	MOVLW	0x01
                                           _00340_DS_:
002fae   cfe4     movff	0xfe4, 0x5         	MOVFF	PREINC1, r0x05
002fb0   f005
002fb2   cfe4     movff	0xfe4, 0x4         	MOVFF	PREINC1, r0x04
002fb4   f004
002fb6   cfe4     movff	0xfe4, 0x3         	MOVFF	PREINC1, r0x03
002fb8   f003
002fba   cfe4     movff	0xfe4, 0x2         	MOVFF	PREINC1, r0x02
002fbc   f002
002fbe   cfe4     movff	0xfe4, 0x1         	MOVFF	PREINC1, r0x01
002fc0   f001
002fc2   cfe4     movff	0xfe4, 0           	MOVFF	PREINC1, r0x00
002fc4   f000
002fc6   cfe4     movff	0xfe4, 0xfd9       	MOVFF	PREINC1, FSR2L
002fc8   ffd9
002fca   0012     return	0                 	RETURN	
                                           
                                           ; ; Starting pCode block
                                           S_main__DS18B20Read	code
                                           _DS18B20Read:
                                           ;	.line	117; /home/mandon/pinguino32X2/trunk/x.2/p8/share/sdcc/include/pic16/18b20.c	u8 DS18B20Read(u8 pin, u8 num, u8 resolution, DS18B20_Temperature * t)
0024ba   cfd9     movff	0xfd9, 0xfe5       	MOVFF	FSR2L, POSTDEC1
0024bc   ffe5
0024be   cfe1     movff	0xfe1, 0xfd9       	MOVFF	FSR1L, FSR2L
0024c0   ffd9
0024c2   c000     movff	0, 0xfe5           	MOVFF	r0x00, POSTDEC1
0024c4   ffe5
0024c6   c001     movff	0x1, 0xfe5         	MOVFF	r0x01, POSTDEC1
0024c8   ffe5
0024ca   c002     movff	0x2, 0xfe5         	MOVFF	r0x02, POSTDEC1
0024cc   ffe5
0024ce   c003     movff	0x3, 0xfe5         	MOVFF	r0x03, POSTDEC1
0024d0   ffe5
0024d2   c004     movff	0x4, 0xfe5         	MOVFF	r0x04, POSTDEC1
0024d4   ffe5
0024d6   c005     movff	0x5, 0xfe5         	MOVFF	r0x05, POSTDEC1
0024d8   ffe5
0024da   c006     movff	0x6, 0xfe5         	MOVFF	r0x06, POSTDEC1
0024dc   ffe5
0024de   c007     movff	0x7, 0xfe5         	MOVFF	r0x07, POSTDEC1
0024e0   ffe5
0024e2   c008     movff	0x8, 0xfe5         	MOVFF	r0x08, POSTDEC1
0024e4   ffe5
0024e6   0e02     movlw	0x2                	MOVLW	0x02
0024e8   cfdb     movff	0xfdb, 0           	MOVFF	PLUSW2, r0x00
0024ea   f000
0024ec   0e03     movlw	0x3                	MOVLW	0x03
0024ee   cfdb     movff	0xfdb, 0x1         	MOVFF	PLUSW2, r0x01
0024f0   f001
0024f2   0e04     movlw	0x4                	MOVLW	0x04
0024f4   cfdb     movff	0xfdb, 0x2         	MOVFF	PLUSW2, r0x02
0024f6   f002
0024f8   0e05     movlw	0x5                	MOVLW	0x05
0024fa   cfdb     movff	0xfdb, 0x3         	MOVFF	PLUSW2, r0x03
0024fc   f003
0024fe   0e06     movlw	0x6                	MOVLW	0x06
002500   cfdb     movff	0xfdb, 0x4         	MOVFF	PLUSW2, r0x04
002502   f004
002504   0e07     movlw	0x7                	MOVLW	0x07
002506   cfdb     movff	0xfdb, 0x5         	MOVFF	PLUSW2, r0x05
002508   f005
                                           ;	.line	119; /home/mandon/pinguino32X2/trunk/x.2/p8/share/sdcc/include/pic16/18b20.c	u8 res, busy = LOW;
00250a   6a06     clrf	0x6, 0              	CLRF	r0x06
                                           ;	.line	122; /home/mandon/pinguino32X2/trunk/x.2/p8/share/sdcc/include/pic16/18b20.c	switch (resolution)
00250c   0e01     movlw	0x1                	MOVLW	0x01
00250e   5c02     subwf	0x2, 0, 0          	SUBWF	r0x02, W
002510   e332     bnc	0x2576               	BNC	_00284_DS_
002512   0e05     movlw	0x5                	MOVLW	0x05
002514   5c02     subwf	0x2, 0, 0          	SUBWF	r0x02, W
002516   e22f     bc	0x2576                	BC	_00284_DS_
002518   0602     decf	0x2, 0x1, 0         	DECF	r0x02, F
00251a   c00a     movff	0xa, 0xfe5         	MOVFF	r0x0a, POSTDEC1
00251c   ffe5
00251e   c00b     movff	0xb, 0xfe5         	MOVFF	r0x0b, POSTDEC1
002520   ffe5
002522   6a0b     clrf	0xb, 0              	CLRF	r0x0b
002524   3402     rlcf	0x2, 0, 0           	RLCF	r0x02, W
002526   360b     rlcf	0xb, 0x1, 0         	RLCF	r0x0b, F
002528   34e8     rlcf	0xe8, 0, 0          	RLCF	WREG, W
00252a   360b     rlcf	0xb, 0x1, 0         	RLCF	r0x0b, F
00252c   0bfc     andlw	0xfc               	ANDLW	0xfc
00252e   6e0a     movwf	0xa, 0             	MOVWF	r0x0a
002530   0e00     movlw	0                  	MOVLW	UPPER(_00327_DS_)
002532   6efb     movwf	0xfb, 0            	MOVWF	PCLATU
002534   0e25     movlw	0x25               	MOVLW	HIGH(_00327_DS_)
002536   6efa     movwf	0xfa, 0            	MOVWF	PCLATH
002538   0e50     movlw	0x50               	MOVLW	LOW(_00327_DS_)
00253a   260a     addwf	0xa, 0x1, 0        	ADDWF	r0x0a, F
00253c   500b     movf	0xb, 0, 0           	MOVF	r0x0b, W
00253e   22fa     addwfc	0xfa, 0x1, 0      	ADDWFC	PCLATH, F
002540   b0d8     btfsc	0xd8, 0, 0         	BTFSC	STATUS, 0
002542   2afb     incf	0xfb, 0x1, 0        	INCF	PCLATU, F
002544   500a     movf	0xa, 0, 0           	MOVF	r0x0a, W
002546   cfe4     movff	0xfe4, 0xb         	MOVFF	PREINC1, r0x0b
002548   f00b
00254a   cfe4     movff	0xfe4, 0xa         	MOVFF	PREINC1, r0x0a
00254c   f00a
00254e   6ef9     movwf	0xf9, 0            	MOVWF	PCL
                                           _00327_DS_:
002550   efb0     goto	0x2560              	GOTO	_00280_DS_
002552   f012
002554   efb3     goto	0x2566              	GOTO	_00281_DS_
002556   f012
002558   efb6     goto	0x256c              	GOTO	_00282_DS_
00255a   f012
00255c   efb9     goto	0x2572              	GOTO	_00283_DS_
00255e   f012
                                           _00280_DS_:
                                           ;	.line	124; /home/mandon/pinguino32X2/trunk/x.2/p8/share/sdcc/include/pic16/18b20.c	case RES12BIT:	res = 0b01100000;	break;	// 12-bit resolution
002560   0e60     movlw	0x60               	MOVLW	0x60
002562   6e02     movwf	0x2, 0             	MOVWF	r0x02
002564   d009     bra	0x2578               	BRA	_00285_DS_
                                           _00281_DS_:
                                           ;	.line	125; /home/mandon/pinguino32X2/trunk/x.2/p8/share/sdcc/include/pic16/18b20.c	case RES11BIT:	res = 0b01000000;	break;	// 11-bit resolution
002566   0e40     movlw	0x40               	MOVLW	0x40
002568   6e02     movwf	0x2, 0             	MOVWF	r0x02
00256a   d006     bra	0x2578               	BRA	_00285_DS_
                                           _00282_DS_:
                                           ;	.line	126; /home/mandon/pinguino32X2/trunk/x.2/p8/share/sdcc/include/pic16/18b20.c	case RES10BIT:	res = 0b00100000;	break;	// 10-bit resolution
00256c   0e20     movlw	0x20               	MOVLW	0x20
00256e   6e02     movwf	0x2, 0             	MOVWF	r0x02
002570   d003     bra	0x2578               	BRA	_00285_DS_
                                           _00283_DS_:
                                           ;	.line	127; /home/mandon/pinguino32X2/trunk/x.2/p8/share/sdcc/include/pic16/18b20.c	case  RES9BIT:	res = 0b00000000;	break;	//  9-bit resolution
002572   6a02     clrf	0x2, 0              	CLRF	r0x02
002574   d001     bra	0x2578               	BRA	_00285_DS_
                                           _00284_DS_:
                                           ;	.line	128; /home/mandon/pinguino32X2/trunk/x.2/p8/share/sdcc/include/pic16/18b20.c	default:		res = 0b00000000;	break;	//  9-bit resolution
002576   6a02     clrf	0x2, 0              	CLRF	r0x02
                                           _00285_DS_:
                                           ;	.line	132; /home/mandon/pinguino32X2/trunk/x.2/p8/share/sdcc/include/pic16/18b20.c	if (!DS18B20Configure(pin, num, 0, 0, res)) return FALSE; // no alarm
002578   5002     movf	0x2, 0, 0           	MOVF	r0x02, W
00257a   6ee5     movwf	0xe5, 0            	MOVWF	POSTDEC1
00257c   6ae5     clrf	0xe5, 0             	CLRF	POSTDEC1
00257e   6ae5     clrf	0xe5, 0             	CLRF	POSTDEC1
002580   5001     movf	0x1, 0, 0           	MOVF	r0x01, W
002582   6ee5     movwf	0xe5, 0            	MOVWF	POSTDEC1
002584   5000     movf	0, 0, 0             	MOVF	r0x00, W
002586   6ee5     movwf	0xe5, 0            	MOVWF	POSTDEC1
002588   ec79     call	0x2ef2, 0           	CALL	_DS18B20Configure
00258a   f017
00258c   6e02     movwf	0x2, 0             	MOVWF	r0x02
00258e   0e05     movlw	0x5                	MOVLW	0x05
002590   26e1     addwf	0xe1, 0x1, 0       	ADDWF	FSR1L, F
002592   5002     movf	0x2, 0, 0           	MOVF	r0x02, W
002594   e102     bnz	0x259a               	BNZ	_00287_DS_
002596   6ae8     clrf	0xe8, 0             	CLRF	WREG
002598   d0f5     bra	0x2784               	BRA	_00310_DS_
                                           _00287_DS_:
                                           ;	.line	134; /home/mandon/pinguino32X2/trunk/x.2/p8/share/sdcc/include/pic16/18b20.c	if (OneWireReset(pin)) return FALSE;
00259a   5000     movf	0, 0, 0             	MOVF	r0x00, W
00259c   6ee5     movwf	0xe5, 0            	MOVWF	POSTDEC1
00259e   ecd9     call	0x35b2, 0           	CALL	_OneWireReset
0025a0   f01a
0025a2   6e02     movwf	0x2, 0             	MOVWF	r0x02
0025a4   2ae1     incf	0xe1, 0x1, 0        	INCF	FSR1L, F
0025a6   5002     movf	0x2, 0, 0           	MOVF	r0x02, W
0025a8   e002     bz	0x25ae                	BZ	_00289_DS_
0025aa   6ae8     clrf	0xe8, 0             	CLRF	WREG
0025ac   d0eb     bra	0x2784               	BRA	_00310_DS_
                                           _00289_DS_:
                                           ;	.line	136; /home/mandon/pinguino32X2/trunk/x.2/p8/share/sdcc/include/pic16/18b20.c	if (num == SKIPROM)
0025ae   6a02     clrf	0x2, 0              	CLRF	r0x02
0025b0   5001     movf	0x1, 0, 0           	MOVF	r0x01, W
0025b2   0acc     xorlw	0xcc               	XORLW	0xcc
0025b4   e101     bnz	0x25b8               	BNZ	_00329_DS_
0025b6   2a02     incf	0x2, 0x1, 0         	INCF	r0x02, F
                                           _00329_DS_:
0025b8   5002     movf	0x2, 0, 0           	MOVF	r0x02, W
0025ba   e009     bz	0x25ce                	BZ	_00293_DS_
                                           ;	.line	139; /home/mandon/pinguino32X2/trunk/x.2/p8/share/sdcc/include/pic16/18b20.c	OneWireWrite(pin, SKIPROM);
0025bc   0ecc     movlw	0xcc               	MOVLW	0xcc
0025be   6ee5     movwf	0xe5, 0            	MOVWF	POSTDEC1
0025c0   5000     movf	0, 0, 0             	MOVF	r0x00, W
0025c2   6ee5     movwf	0xe5, 0            	MOVWF	POSTDEC1
0025c4   ec11     call	0x3622, 0           	CALL	_OneWireWrite
0025c6   f01b
0025c8   0e02     movlw	0x2                	MOVLW	0x02
0025ca   26e1     addwf	0xe1, 0x1, 0       	ADDWF	FSR1L, F
0025cc   d00d     bra	0x25e8               	BRA	_00294_DS_
                                           _00293_DS_:
                                           ;	.line	144; /home/mandon/pinguino32X2/trunk/x.2/p8/share/sdcc/include/pic16/18b20.c	if (!DS18B20MatchRom(pin, num)) return FALSE;
0025ce   5001     movf	0x1, 0, 0           	MOVF	r0x01, W
0025d0   6ee5     movwf	0xe5, 0            	MOVWF	POSTDEC1
0025d2   5000     movf	0, 0, 0             	MOVF	r0x00, W
0025d4   6ee5     movwf	0xe5, 0            	MOVWF	POSTDEC1
0025d6   ec1a     call	0x3234, 0           	CALL	_DS18B20MatchRom
0025d8   f019
0025da   6e07     movwf	0x7, 0             	MOVWF	r0x07
0025dc   0e02     movlw	0x2                	MOVLW	0x02
0025de   26e1     addwf	0xe1, 0x1, 0       	ADDWF	FSR1L, F
0025e0   5007     movf	0x7, 0, 0           	MOVF	r0x07, W
0025e2   e102     bnz	0x25e8               	BNZ	_00294_DS_
0025e4   6ae8     clrf	0xe8, 0             	CLRF	WREG
0025e6   d0ce     bra	0x2784               	BRA	_00310_DS_
                                           _00294_DS_:
                                           ;	.line	147; /home/mandon/pinguino32X2/trunk/x.2/p8/share/sdcc/include/pic16/18b20.c	OneWireWrite(pin, CONVERT_T);		// Start temperature conversion
0025e8   0e44     movlw	0x44               	MOVLW	0x44
0025ea   6ee5     movwf	0xe5, 0            	MOVWF	POSTDEC1
0025ec   5000     movf	0, 0, 0             	MOVF	r0x00, W
0025ee   6ee5     movwf	0xe5, 0            	MOVWF	POSTDEC1
0025f0   ec11     call	0x3622, 0           	CALL	_OneWireWrite
0025f2   f01b
0025f4   0e02     movlw	0x2                	MOVLW	0x02
0025f6   26e1     addwf	0xe1, 0x1, 0       	ADDWF	FSR1L, F
                                           _00295_DS_:
                                           ;	.line	149; /home/mandon/pinguino32X2/trunk/x.2/p8/share/sdcc/include/pic16/18b20.c	while (busy == LOW)					// Wait while busy ( = bus is low)
0025f8   5006     movf	0x6, 0, 0           	MOVF	r0x06, W
0025fa   e107     bnz	0x260a               	BNZ	_00297_DS_
                                           ;	.line	150; /home/mandon/pinguino32X2/trunk/x.2/p8/share/sdcc/include/pic16/18b20.c	busy = OneWireRead(pin);
0025fc   5000     movf	0, 0, 0             	MOVF	r0x00, W
0025fe   6ee5     movwf	0xe5, 0            	MOVWF	POSTDEC1
002600   ec47     call	0x368e, 0           	CALL	_OneWireRead
002602   f01b
002604   6e06     movwf	0x6, 0             	MOVWF	r0x06
002606   2ae1     incf	0xe1, 0x1, 0        	INCF	FSR1L, F
002608   d7f7     bra	0x25f8               	BRA	_00295_DS_
                                           _00297_DS_:
                                           ;	.line	152; /home/mandon/pinguino32X2/trunk/x.2/p8/share/sdcc/include/pic16/18b20.c	if (OneWireReset(pin)) return FALSE;
00260a   5000     movf	0, 0, 0             	MOVF	r0x00, W
00260c   6ee5     movwf	0xe5, 0            	MOVWF	POSTDEC1
00260e   ecd9     call	0x35b2, 0           	CALL	_OneWireReset
002610   f01a
002612   6e06     movwf	0x6, 0             	MOVWF	r0x06
002614   2ae1     incf	0xe1, 0x1, 0        	INCF	FSR1L, F
002616   5006     movf	0x6, 0, 0           	MOVF	r0x06, W
002618   e002     bz	0x261e                	BZ	_00299_DS_
00261a   6ae8     clrf	0xe8, 0             	CLRF	WREG
00261c   d0b3     bra	0x2784               	BRA	_00310_DS_
                                           _00299_DS_:
                                           ;	.line	154; /home/mandon/pinguino32X2/trunk/x.2/p8/share/sdcc/include/pic16/18b20.c	if (num == SKIPROM)
00261e   5002     movf	0x2, 0, 0           	MOVF	r0x02, W
002620   e009     bz	0x2634                	BZ	_00303_DS_
                                           ;	.line	157; /home/mandon/pinguino32X2/trunk/x.2/p8/share/sdcc/include/pic16/18b20.c	OneWireWrite(pin, SKIPROM);
002622   0ecc     movlw	0xcc               	MOVLW	0xcc
002624   6ee5     movwf	0xe5, 0            	MOVWF	POSTDEC1
002626   5000     movf	0, 0, 0             	MOVF	r0x00, W
002628   6ee5     movwf	0xe5, 0            	MOVWF	POSTDEC1
00262a   ec11     call	0x3622, 0           	CALL	_OneWireWrite
00262c   f01b
00262e   0e02     movlw	0x2                	MOVLW	0x02
002630   26e1     addwf	0xe1, 0x1, 0       	ADDWF	FSR1L, F
002632   d00d     bra	0x264e               	BRA	_00304_DS_
                                           _00303_DS_:
                                           ;	.line	162; /home/mandon/pinguino32X2/trunk/x.2/p8/share/sdcc/include/pic16/18b20.c	if (!DS18B20MatchRom(pin, num)) return FALSE;
002634   5001     movf	0x1, 0, 0           	MOVF	r0x01, W
002636   6ee5     movwf	0xe5, 0            	MOVWF	POSTDEC1
002638   5000     movf	0, 0, 0             	MOVF	r0x00, W
00263a   6ee5     movwf	0xe5, 0            	MOVWF	POSTDEC1
00263c   ec1a     call	0x3234, 0           	CALL	_DS18B20MatchRom
00263e   f019
002640   6e01     movwf	0x1, 0             	MOVWF	r0x01
002642   0e02     movlw	0x2                	MOVLW	0x02
002644   26e1     addwf	0xe1, 0x1, 0       	ADDWF	FSR1L, F
002646   5001     movf	0x1, 0, 0           	MOVF	r0x01, W
002648   e102     bnz	0x264e               	BNZ	_00304_DS_
00264a   6ae8     clrf	0xe8, 0             	CLRF	WREG
00264c   d09b     bra	0x2784               	BRA	_00310_DS_
                                           _00304_DS_:
                                           ;	.line	165; /home/mandon/pinguino32X2/trunk/x.2/p8/share/sdcc/include/pic16/18b20.c	OneWireWrite(pin, READ_SCRATCHPAD);// Read scratchpad
00264e   0ebe     movlw	0xbe               	MOVLW	0xbe
002650   6ee5     movwf	0xe5, 0            	MOVWF	POSTDEC1
002652   5000     movf	0, 0, 0             	MOVF	r0x00, W
002654   6ee5     movwf	0xe5, 0            	MOVWF	POSTDEC1
002656   ec11     call	0x3622, 0           	CALL	_OneWireWrite
002658   f01b
00265a   0e02     movlw	0x2                	MOVLW	0x02
00265c   26e1     addwf	0xe1, 0x1, 0       	ADDWF	FSR1L, F
                                           ;	.line	167; /home/mandon/pinguino32X2/trunk/x.2/p8/share/sdcc/include/pic16/18b20.c	temp_lsb = OneWireRead(pin);		// byte 0 of scratchpad : temperature lsb
00265e   5000     movf	0, 0, 0             	MOVF	r0x00, W
002660   6ee5     movwf	0xe5, 0            	MOVWF	POSTDEC1
002662   ec47     call	0x368e, 0           	CALL	_OneWireRead
002664   f01b
002666   6e01     movwf	0x1, 0             	MOVWF	r0x01
002668   2ae1     incf	0xe1, 0x1, 0        	INCF	FSR1L, F
                                           ;	.line	168; /home/mandon/pinguino32X2/trunk/x.2/p8/share/sdcc/include/pic16/18b20.c	temp_msb = OneWireRead(pin);		// byte 1 of scratchpad : temperature msb
00266a   5000     movf	0, 0, 0             	MOVF	r0x00, W
00266c   6ee5     movwf	0xe5, 0            	MOVWF	POSTDEC1
00266e   ec47     call	0x368e, 0           	CALL	_OneWireRead
002670   f01b
002672   6e02     movwf	0x2, 0             	MOVWF	r0x02
002674   2ae1     incf	0xe1, 0x1, 0        	INCF	FSR1L, F
                                           ;	.line	170; /home/mandon/pinguino32X2/trunk/x.2/p8/share/sdcc/include/pic16/18b20.c	if (OneWireReset(pin)) return FALSE;
002676   5000     movf	0, 0, 0             	MOVF	r0x00, W
002678   6ee5     movwf	0xe5, 0            	MOVWF	POSTDEC1
00267a   ecd9     call	0x35b2, 0           	CALL	_OneWireReset
00267c   f01a
00267e   6e00     movwf	0, 0               	MOVWF	r0x00
002680   2ae1     incf	0xe1, 0x1, 0        	INCF	FSR1L, F
002682   5000     movf	0, 0, 0             	MOVF	r0x00, W
002684   e002     bz	0x268a                	BZ	_00306_DS_
002686   6ae8     clrf	0xe8, 0             	CLRF	WREG
002688   d07d     bra	0x2784               	BRA	_00310_DS_
                                           _00306_DS_:
                                           ;	.line	181; /home/mandon/pinguino32X2/trunk/x.2/p8/share/sdcc/include/pic16/18b20.c	if (temp_msb >= 0b11111000)		// test if temperature is negative
00268a   0ef8     movlw	0xf8               	MOVLW	0xf8
00268c   5c02     subwf	0x2, 0, 0          	SUBWF	r0x02, W
00268e   e30c     bnc	0x26a8               	BNC	_00308_DS_
                                           ;	.line	183; /home/mandon/pinguino32X2/trunk/x.2/p8/share/sdcc/include/pic16/18b20.c	t->sign = 1;
002690   0e01     movlw	0x1                	MOVLW	0x01
002692   6ee5     movwf	0xe5, 0            	MOVWF	POSTDEC1
002694   c003     movff	0x3, 0xfe9         	MOVFF	r0x03, FSR0L
002696   ffe9
002698   c004     movff	0x4, 0xff3         	MOVFF	r0x04, PRODL
00269a   fff3
00269c   5005     movf	0x5, 0, 0           	MOVF	r0x05, W
00269e   ec31     call	0x62, 0             	CALL	__gptrput1
0026a0   f000
                                           ;	.line	184; /home/mandon/pinguino32X2/trunk/x.2/p8/share/sdcc/include/pic16/18b20.c	temp_msb -= 0b11111000;
0026a2   0e08     movlw	0x8                	MOVLW	0x08
0026a4   2602     addwf	0x2, 0x1, 0        	ADDWF	r0x02, F
0026a6   d008     bra	0x26b8               	BRA	_00309_DS_
                                           _00308_DS_:
                                           ;	.line	188; /home/mandon/pinguino32X2/trunk/x.2/p8/share/sdcc/include/pic16/18b20.c	t->sign = 0;
0026a8   6ae5     clrf	0xe5, 0             	CLRF	POSTDEC1
0026aa   c003     movff	0x3, 0xfe9         	MOVFF	r0x03, FSR0L
0026ac   ffe9
0026ae   c004     movff	0x4, 0xff3         	MOVFF	r0x04, PRODL
0026b0   fff3
0026b2   5005     movf	0x5, 0, 0           	MOVF	r0x05, W
0026b4   ec31     call	0x62, 0             	CALL	__gptrput1
0026b6   f000
                                           _00309_DS_:
                                           ;	.line	191; /home/mandon/pinguino32X2/trunk/x.2/p8/share/sdcc/include/pic16/18b20.c	t->integer = temp_lsb >> 4;			// fractional part is removed, it remains only integer part
0026b8   5003     movf	0x3, 0, 0           	MOVF	r0x03, W
0026ba   0f01     addlw	0x1                	ADDLW	0x01
0026bc   6e00     movwf	0, 0               	MOVWF	r0x00
0026be   0e00     movlw	0                  	MOVLW	0x00
0026c0   2004     addwfc	0x4, 0, 0         	ADDWFC	r0x04, W
0026c2   6e06     movwf	0x6, 0             	MOVWF	r0x06
0026c4   0e00     movlw	0                  	MOVLW	0x00
0026c6   2005     addwfc	0x5, 0, 0         	ADDWFC	r0x05, W
0026c8   6e07     movwf	0x7, 0             	MOVWF	r0x07
0026ca   3801     swapf	0x1, 0, 0          	SWAPF	r0x01, W
0026cc   0b0f     andlw	0xf                	ANDLW	0x0f
0026ce   6e08     movwf	0x8, 0             	MOVWF	r0x08
0026d0   c008     movff	0x8, 0xfe5         	MOVFF	r0x08, POSTDEC1
0026d2   ffe5
0026d4   c000     movff	0, 0xfe9           	MOVFF	r0x00, FSR0L
0026d6   ffe9
0026d8   c006     movff	0x6, 0xff3         	MOVFF	r0x06, PRODL
0026da   fff3
0026dc   5007     movf	0x7, 0, 0           	MOVF	r0x07, W
0026de   ec31     call	0x62, 0             	CALL	__gptrput1
0026e0   f000
                                           ;	.line	192; /home/mandon/pinguino32X2/trunk/x.2/p8/share/sdcc/include/pic16/18b20.c	t->integer |= (temp_msb << 4);		// integer part from temp_msb is added
0026e2   3802     swapf	0x2, 0, 0          	SWAPF	r0x02, W
0026e4   0bf0     andlw	0xf0               	ANDLW	0xf0
                                           ; #	MOVWF	r0x09
                                           ; #	MOVF	r0x09, W
0026e6   1008     iorwf	0x8, 0, 0          	IORWF	r0x08, W
0026e8   6e02     movwf	0x2, 0             	MOVWF	r0x02
0026ea   c002     movff	0x2, 0xfe5         	MOVFF	r0x02, POSTDEC1
0026ec   ffe5
0026ee   c000     movff	0, 0xfe9           	MOVFF	r0x00, FSR0L
0026f0   ffe9
0026f2   c006     movff	0x6, 0xff3         	MOVFF	r0x06, PRODL
0026f4   fff3
0026f6   5007     movf	0x7, 0, 0           	MOVF	r0x07, W
0026f8   ec31     call	0x62, 0             	CALL	__gptrput1
0026fa   f000
                                           ;	.line	201; /home/mandon/pinguino32X2/trunk/x.2/p8/share/sdcc/include/pic16/18b20.c	t->fraction = (temp_lsb & 0x0F) * 625;
0026fc   0e02     movlw	0x2                	MOVLW	0x02
0026fe   2603     addwf	0x3, 0x1, 0        	ADDWF	r0x03, F
002700   0e00     movlw	0                  	MOVLW	0x00
002702   2204     addwfc	0x4, 0x1, 0       	ADDWFC	r0x04, F
002704   2205     addwfc	0x5, 0x1, 0       	ADDWFC	r0x05, F
002706   0e0f     movlw	0xf                	MOVLW	0x0f
002708   1601     andwf	0x1, 0x1, 0        	ANDWF	r0x01, F
00270a   6ae5     clrf	0xe5, 0             	CLRF	POSTDEC1
00270c   5001     movf	0x1, 0, 0           	MOVF	r0x01, W
00270e   6ee5     movwf	0xe5, 0            	MOVWF	POSTDEC1
002710   0e02     movlw	0x2                	MOVLW	0x02
002712   6ee5     movwf	0xe5, 0            	MOVWF	POSTDEC1
002714   0e71     movlw	0x71               	MOVLW	0x71
002716   6ee5     movwf	0xe5, 0            	MOVWF	POSTDEC1
002718   ec27     call	0x4e, 0             	CALL	__mulint
00271a   f000
00271c   6e00     movwf	0, 0               	MOVWF	r0x00
00271e   cff3     movff	0xff3, 0x1         	MOVFF	PRODL, r0x01
002720   f001
002722   0e04     movlw	0x4                	MOVLW	0x04
002724   26e1     addwf	0xe1, 0x1, 0       	ADDWF	FSR1L, F
002726   c000     movff	0, 0xfe5           	MOVFF	r0x00, POSTDEC1
002728   ffe5
00272a   c001     movff	0x1, 0xff4         	MOVFF	r0x01, PRODH
00272c   fff4
00272e   c003     movff	0x3, 0xfe9         	MOVFF	r0x03, FSR0L
002730   ffe9
002732   c004     movff	0x4, 0xff3         	MOVFF	r0x04, PRODL
002734   fff3
002736   5005     movf	0x5, 0, 0           	MOVF	r0x05, W
002738   ec33     call	0x66, 0             	CALL	__gptrput2
00273a   f000
                                           ;	.line	202; /home/mandon/pinguino32X2/trunk/x.2/p8/share/sdcc/include/pic16/18b20.c	t->fraction /= 100;					// two digits after decimal 
00273c   c003     movff	0x3, 0xfe9         	MOVFF	r0x03, FSR0L
00273e   ffe9
002740   c004     movff	0x4, 0xff3         	MOVFF	r0x04, PRODL
002742   fff3
002744   5005     movf	0x5, 0, 0           	MOVF	r0x05, W
002746   ec2b     call	0x56, 0             	CALL	__gptrget2
002748   f000
00274a   6e00     movwf	0, 0               	MOVWF	r0x00
00274c   cff3     movff	0xff3, 0x1         	MOVFF	PRODL, r0x01
00274e   f001
002750   6ae5     clrf	0xe5, 0             	CLRF	POSTDEC1
002752   0e64     movlw	0x64               	MOVLW	0x64
002754   6ee5     movwf	0xe5, 0            	MOVWF	POSTDEC1
002756   5001     movf	0x1, 0, 0           	MOVF	r0x01, W
002758   6ee5     movwf	0xe5, 0            	MOVWF	POSTDEC1
00275a   5000     movf	0, 0, 0             	MOVF	r0x00, W
00275c   6ee5     movwf	0xe5, 0            	MOVWF	POSTDEC1
00275e   ec70     call	0x32e0, 0           	CALL	__divuint
002760   f019
002762   6e00     movwf	0, 0               	MOVWF	r0x00
002764   cff3     movff	0xff3, 0x1         	MOVFF	PRODL, r0x01
002766   f001
002768   0e04     movlw	0x4                	MOVLW	0x04
00276a   26e1     addwf	0xe1, 0x1, 0       	ADDWF	FSR1L, F
00276c   c000     movff	0, 0xfe5           	MOVFF	r0x00, POSTDEC1
00276e   ffe5
002770   c001     movff	0x1, 0xff4         	MOVFF	r0x01, PRODH
002772   fff4
002774   c003     movff	0x3, 0xfe9         	MOVFF	r0x03, FSR0L
002776   ffe9
002778   c004     movff	0x4, 0xff3         	MOVFF	r0x04, PRODL
00277a   fff3
00277c   5005     movf	0x5, 0, 0           	MOVF	r0x05, W
00277e   ec33     call	0x66, 0             	CALL	__gptrput2
002780   f000
                                           ;	.line	204; /home/mandon/pinguino32X2/trunk/x.2/p8/share/sdcc/include/pic16/18b20.c	return TRUE;
002782   0e01     movlw	0x1                	MOVLW	0x01
                                           _00310_DS_:
002784   cfe4     movff	0xfe4, 0x8         	MOVFF	PREINC1, r0x08
002786   f008
002788   cfe4     movff	0xfe4, 0x7         	MOVFF	PREINC1, r0x07
00278a   f007
00278c   cfe4     movff	0xfe4, 0x6         	MOVFF	PREINC1, r0x06
00278e   f006
002790   cfe4     movff	0xfe4, 0x5         	MOVFF	PREINC1, r0x05
002792   f005
002794   cfe4     movff	0xfe4, 0x4         	MOVFF	PREINC1, r0x04
002796   f004
002798   cfe4     movff	0xfe4, 0x3         	MOVFF	PREINC1, r0x03
00279a   f003
00279c   cfe4     movff	0xfe4, 0x2         	MOVFF	PREINC1, r0x02
00279e   f002
0027a0   cfe4     movff	0xfe4, 0x1         	MOVFF	PREINC1, r0x01
0027a2   f001
0027a4   cfe4     movff	0xfe4, 0           	MOVFF	PREINC1, r0x00
0027a6   f000
0027a8   cfe4     movff	0xfe4, 0xfd9       	MOVFF	PREINC1, FSR2L
0027aa   ffd9
0027ac   0012     return	0                 	RETURN	
                                           
                                           ; ; Starting pCode block
                                           S_main__OneWireWrite	code
                                           _OneWireWrite:
                                           ;	.line	145; /home/mandon/pinguino32X2/trunk/x.2/p8/share/sdcc/include/pic16/1wire.c	void OneWireWrite(u8 DQpin, u8 val)
003622   cfd9     movff	0xfd9, 0xfe5       	MOVFF	FSR2L, POSTDEC1
003624   ffe5
003626   cfe1     movff	0xfe1, 0xfd9       	MOVFF	FSR1L, FSR2L
003628   ffd9
00362a   c000     movff	0, 0xfe5           	MOVFF	r0x00, POSTDEC1
00362c   ffe5
00362e   c001     movff	0x1, 0xfe5         	MOVFF	r0x01, POSTDEC1
003630   ffe5
003632   c002     movff	0x2, 0xfe5         	MOVFF	r0x02, POSTDEC1
003634   ffe5
003636   c003     movff	0x3, 0xfe5         	MOVFF	r0x03, POSTDEC1
003638   ffe5
00363a   0e02     movlw	0x2                	MOVLW	0x02
00363c   cfdb     movff	0xfdb, 0           	MOVFF	PLUSW2, r0x00
00363e   f000
003640   0e03     movlw	0x3                	MOVLW	0x03
003642   cfdb     movff	0xfdb, 0x1         	MOVFF	PLUSW2, r0x01
003644   f001
                                           ;	.line	148; /home/mandon/pinguino32X2/trunk/x.2/p8/share/sdcc/include/pic16/1wire.c	for (i=0; i<8; i++)					// writes byte, one bit at a time
003646   6a02     clrf	0x2, 0              	CLRF	r0x02
                                           _00264_DS_:
003648   0e08     movlw	0x8                	MOVLW	0x08
00364a   5c02     subwf	0x2, 0, 0          	SUBWF	r0x02, W
00364c   e215     bc	0x3678                	BC	_00268_DS_
                                           ;	.line	150; /home/mandon/pinguino32X2/trunk/x.2/p8/share/sdcc/include/pic16/1wire.c	temp = val >> i;				// shifts val right 'i' spaces
00364e   c001     movff	0x1, 0x3           	MOVFF	r0x01, r0x03
003650   f003
003652   5002     movf	0x2, 0, 0           	MOVF	r0x02, W
003654   e005     bz	0x3660                	BZ	_00274_DS_
003656   6ce8     negf	0xe8, 0             	NEGF	WREG
003658   90d8     bcf	0xd8, 0, 0           	BCF	STATUS, 0
                                           _00275_DS_:
00365a   3203     rrcf	0x3, 0x1, 0         	RRCF	r0x03, F
00365c   0f01     addlw	0x1                	ADDLW	0x01
00365e   e3fd     bnc	0x365a               	BNC	_00275_DS_
                                           _00274_DS_:
                                           ;	.line	151; /home/mandon/pinguino32X2/trunk/x.2/p8/share/sdcc/include/pic16/1wire.c	temp &= 0x01;					// copy that bit to temp
003660   0e01     movlw	0x1                	MOVLW	0x01
003662   1603     andwf	0x3, 0x1, 0        	ANDWF	r0x03, F
                                           ;	.line	152; /home/mandon/pinguino32X2/trunk/x.2/p8/share/sdcc/include/pic16/1wire.c	OneWireWriteBit(DQpin, temp);	// write bit in temp into
003664   5003     movf	0x3, 0, 0           	MOVF	r0x03, W
003666   6ee5     movwf	0xe5, 0            	MOVWF	POSTDEC1
003668   5000     movf	0, 0, 0             	MOVF	r0x00, W
00366a   6ee5     movwf	0xe5, 0            	MOVWF	POSTDEC1
00366c   ec9e     call	0x353c, 0           	CALL	_OneWireWriteBit
00366e   f01a
003670   0e02     movlw	0x2                	MOVLW	0x02
003672   26e1     addwf	0xe1, 0x1, 0       	ADDWF	FSR1L, F
                                           ;	.line	148; /home/mandon/pinguino32X2/trunk/x.2/p8/share/sdcc/include/pic16/1wire.c	for (i=0; i<8; i++)					// writes byte, one bit at a time
003674   2a02     incf	0x2, 0x1, 0         	INCF	r0x02, F
003676   d7e8     bra	0x3648               	BRA	_00264_DS_
                                           _00268_DS_:
003678   cfe4     movff	0xfe4, 0x3         	MOVFF	PREINC1, r0x03
00367a   f003
00367c   cfe4     movff	0xfe4, 0x2         	MOVFF	PREINC1, r0x02
00367e   f002
003680   cfe4     movff	0xfe4, 0x1         	MOVFF	PREINC1, r0x01
003682   f001
003684   cfe4     movff	0xfe4, 0           	MOVFF	PREINC1, r0x00
003686   f000
003688   cfe4     movff	0xfe4, 0xfd9       	MOVFF	PREINC1, FSR2L
00368a   ffd9
00368c   0012     return	0                 	RETURN	
                                           
                                           ; ; Starting pCode block
                                           S_main__OneWireWriteBit	code
                                           _OneWireWriteBit:
                                           ;	.line	124; /home/mandon/pinguino32X2/trunk/x.2/p8/share/sdcc/include/pic16/1wire.c	void OneWireWriteBit(u8 DQpin, u8 bitval)
00353c   cfd9     movff	0xfd9, 0xfe5       	MOVFF	FSR2L, POSTDEC1
00353e   ffe5
003540   cfe1     movff	0xfe1, 0xfd9       	MOVFF	FSR1L, FSR2L
003542   ffd9
003544   c000     movff	0, 0xfe5           	MOVFF	r0x00, POSTDEC1
003546   ffe5
003548   c001     movff	0x1, 0xfe5         	MOVFF	r0x01, POSTDEC1
00354a   ffe5
00354c   0e02     movlw	0x2                	MOVLW	0x02
00354e   cfdb     movff	0xfdb, 0           	MOVFF	PLUSW2, r0x00
003550   f000
003552   0e03     movlw	0x3                	MOVLW	0x03
003554   cfdb     movff	0xfdb, 0x1         	MOVFF	PLUSW2, r0x01
003556   f001
                                           ;	.line	126; /home/mandon/pinguino32X2/trunk/x.2/p8/share/sdcc/include/pic16/1wire.c	if(bitval == 1)
003558   5001     movf	0x1, 0, 0           	MOVF	r0x01, W
00355a   0a01     xorlw	0x1                	XORLW	0x01
00355c   e112     bnz	0x3582               	BNZ	_00253_DS_
                                           ;	.line	128; /home/mandon/pinguino32X2/trunk/x.2/p8/share/sdcc/include/pic16/1wire.c	OneWireLow(DQpin);				// pull DQ line low
00355e   5000     movf	0, 0, 0             	MOVF	r0x00, W
003560   6ee5     movwf	0xe5, 0            	MOVWF	POSTDEC1
003562   ecb1     call	0x3962, 0           	CALL	_OneWireLow
003564   f01c
003566   2ae1     incf	0xe1, 0x1, 0        	INCF	FSR1L, F
                                           ;	.line	130; /home/mandon/pinguino32X2/trunk/x.2/p8/share/sdcc/include/pic16/1wire.c	OneWireHigh(DQpin);				// allow line to return high
003568   5000     movf	0, 0, 0             	MOVF	r0x00, W
00356a   6ee5     movwf	0xe5, 0            	MOVWF	POSTDEC1
00356c   ecef     call	0x39de, 0           	CALL	_OneWireHigh
00356e   f01c
003570   2ae1     incf	0xe1, 0x1, 0        	INCF	FSR1L, F
                                           ;	.line	131; /home/mandon/pinguino32X2/trunk/x.2/p8/share/sdcc/include/pic16/1wire.c	Delayus(60);
003572   6ae5     clrf	0xe5, 0             	CLRF	POSTDEC1
003574   0e3c     movlw	0x3c               	MOVLW	0x3c
003576   6ee5     movwf	0xe5, 0            	MOVWF	POSTDEC1
003578   ec38     call	0x3870, 0           	CALL	_Delayus
00357a   f01c
00357c   0e02     movlw	0x2                	MOVLW	0x02
00357e   26e1     addwf	0xe1, 0x1, 0       	ADDWF	FSR1L, F
003580   d011     bra	0x35a4               	BRA	_00255_DS_
                                           _00253_DS_:
                                           ;	.line	135; /home/mandon/pinguino32X2/trunk/x.2/p8/share/sdcc/include/pic16/1wire.c	OneWireLow(DQpin);				// pull DQ line low
003582   5000     movf	0, 0, 0             	MOVF	r0x00, W
003584   6ee5     movwf	0xe5, 0            	MOVWF	POSTDEC1
003586   ecb1     call	0x3962, 0           	CALL	_OneWireLow
003588   f01c
00358a   2ae1     incf	0xe1, 0x1, 0        	INCF	FSR1L, F
                                           ;	.line	136; /home/mandon/pinguino32X2/trunk/x.2/p8/share/sdcc/include/pic16/1wire.c	Delayus(60);					// for the whole time slot
00358c   6ae5     clrf	0xe5, 0             	CLRF	POSTDEC1
00358e   0e3c     movlw	0x3c               	MOVLW	0x3c
003590   6ee5     movwf	0xe5, 0            	MOVWF	POSTDEC1
003592   ec38     call	0x3870, 0           	CALL	_Delayus
003594   f01c
003596   0e02     movlw	0x2                	MOVLW	0x02
003598   26e1     addwf	0xe1, 0x1, 0       	ADDWF	FSR1L, F
                                           ;	.line	137; /home/mandon/pinguino32X2/trunk/x.2/p8/share/sdcc/include/pic16/1wire.c	OneWireHigh(DQpin);				// allow line to return high
00359a   5000     movf	0, 0, 0             	MOVF	r0x00, W
00359c   6ee5     movwf	0xe5, 0            	MOVWF	POSTDEC1
00359e   ecef     call	0x39de, 0           	CALL	_OneWireHigh
0035a0   f01c
0035a2   2ae1     incf	0xe1, 0x1, 0        	INCF	FSR1L, F
                                           _00255_DS_:
0035a4   cfe4     movff	0xfe4, 0x1         	MOVFF	PREINC1, r0x01
0035a6   f001
0035a8   cfe4     movff	0xfe4, 0           	MOVFF	PREINC1, r0x00
0035aa   f000
0035ac   cfe4     movff	0xfe4, 0xfd9       	MOVFF	PREINC1, FSR2L
0035ae   ffd9
0035b0   0012     return	0                 	RETURN	
                                           
                                           ; ; Starting pCode block
                                           S_main__OneWireRead	code
                                           _OneWireRead:
                                           ;	.line	107; /home/mandon/pinguino32X2/trunk/x.2/p8/share/sdcc/include/pic16/1wire.c	u8 OneWireRead(u8 DQpin)
00368e   cfd9     movff	0xfd9, 0xfe5       	MOVFF	FSR2L, POSTDEC1
003690   ffe5
003692   cfe1     movff	0xfe1, 0xfd9       	MOVFF	FSR1L, FSR2L
003694   ffd9
003696   c000     movff	0, 0xfe5           	MOVFF	r0x00, POSTDEC1
003698   ffe5
00369a   c001     movff	0x1, 0xfe5         	MOVFF	r0x01, POSTDEC1
00369c   ffe5
00369e   c002     movff	0x2, 0xfe5         	MOVFF	r0x02, POSTDEC1
0036a0   ffe5
0036a2   c003     movff	0x3, 0xfe5         	MOVFF	r0x03, POSTDEC1
0036a4   ffe5
0036a6   0e02     movlw	0x2                	MOVLW	0x02
0036a8   cfdb     movff	0xfdb, 0           	MOVFF	PLUSW2, r0x00
0036aa   f000
                                           ;	.line	109; /home/mandon/pinguino32X2/trunk/x.2/p8/share/sdcc/include/pic16/1wire.c	u8 i, value = 0;
0036ac   6a01     clrf	0x1, 0              	CLRF	r0x01
                                           ;	.line	110; /home/mandon/pinguino32X2/trunk/x.2/p8/share/sdcc/include/pic16/1wire.c	for (i=0; i<8; i++)
0036ae   6a02     clrf	0x2, 0              	CLRF	r0x02
                                           _00235_DS_:
0036b0   0e08     movlw	0x8                	MOVLW	0x08
0036b2   5c02     subwf	0x2, 0, 0          	SUBWF	r0x02, W
0036b4   e215     bc	0x36e0                	BC	_00238_DS_
                                           ;	.line	112; /home/mandon/pinguino32X2/trunk/x.2/p8/share/sdcc/include/pic16/1wire.c	if (OneWireReadBit(DQpin))	// reads byte in, one bit at a time
0036b6   5000     movf	0, 0, 0             	MOVF	r0x00, W
0036b8   6ee5     movwf	0xe5, 0            	MOVWF	POSTDEC1
0036ba   ec89     call	0x3912, 0           	CALL	_OneWireReadBit
0036bc   f01c
0036be   6e03     movwf	0x3, 0             	MOVWF	r0x03
0036c0   2ae1     incf	0xe1, 0x1, 0        	INCF	FSR1L, F
0036c2   5003     movf	0x3, 0, 0           	MOVF	r0x03, W
0036c4   e00b     bz	0x36dc                	BZ	_00237_DS_
                                           ;	.line	114; /home/mandon/pinguino32X2/trunk/x.2/p8/share/sdcc/include/pic16/1wire.c	value |= 0x01 << i;			// and then shifts it left
0036c6   0e01     movlw	0x1                	MOVLW	0x01
0036c8   6e03     movwf	0x3, 0             	MOVWF	r0x03
0036ca   5002     movf	0x2, 0, 0           	MOVF	r0x02, W
0036cc   e005     bz	0x36d8                	BZ	_00246_DS_
0036ce   6ce8     negf	0xe8, 0             	NEGF	WREG
0036d0   90d8     bcf	0xd8, 0, 0           	BCF	STATUS, 0
                                           _00247_DS_:
0036d2   3603     rlcf	0x3, 0x1, 0         	RLCF	r0x03, F
0036d4   0f01     addlw	0x1                	ADDLW	0x01
0036d6   e3fd     bnc	0x36d2               	BNC	_00247_DS_
                                           _00246_DS_:
0036d8   5003     movf	0x3, 0, 0           	MOVF	r0x03, W
0036da   1201     iorwf	0x1, 0x1, 0        	IORWF	r0x01, F
                                           _00237_DS_:
                                           ;	.line	110; /home/mandon/pinguino32X2/trunk/x.2/p8/share/sdcc/include/pic16/1wire.c	for (i=0; i<8; i++)
0036dc   2a02     incf	0x2, 0x1, 0         	INCF	r0x02, F
0036de   d7e8     bra	0x36b0               	BRA	_00235_DS_
                                           _00238_DS_:
                                           ;	.line	117; /home/mandon/pinguino32X2/trunk/x.2/p8/share/sdcc/include/pic16/1wire.c	return(value);
0036e0   5001     movf	0x1, 0, 0           	MOVF	r0x01, W
0036e2   cfe4     movff	0xfe4, 0x3         	MOVFF	PREINC1, r0x03
0036e4   f003
0036e6   cfe4     movff	0xfe4, 0x2         	MOVFF	PREINC1, r0x02
0036e8   f002
0036ea   cfe4     movff	0xfe4, 0x1         	MOVFF	PREINC1, r0x01
0036ec   f001
0036ee   cfe4     movff	0xfe4, 0           	MOVFF	PREINC1, r0x00
0036f0   f000
0036f2   cfe4     movff	0xfe4, 0xfd9       	MOVFF	PREINC1, FSR2L
0036f4   ffd9
0036f6   0012     return	0                 	RETURN	
                                           
                                           ; ; Starting pCode block
                                           S_main__OneWireReadBit	code
                                           _OneWireReadBit:
                                           ;	.line	90; /home/mandon/pinguino32X2/trunk/x.2/p8/share/sdcc/include/pic16/1wire.c	u8 OneWireReadBit(u8 DQpin)
003912   cfd9     movff	0xfd9, 0xfe5       	MOVFF	FSR2L, POSTDEC1
003914   ffe5
003916   cfe1     movff	0xfe1, 0xfd9       	MOVFF	FSR1L, FSR2L
003918   ffd9
00391a   c000     movff	0, 0xfe5           	MOVFF	r0x00, POSTDEC1
00391c   ffe5
00391e   0e02     movlw	0x2                	MOVLW	0x02
003920   cfdb     movff	0xfdb, 0           	MOVFF	PLUSW2, r0x00
003922   f000
                                           ;	.line	94; /home/mandon/pinguino32X2/trunk/x.2/p8/share/sdcc/include/pic16/1wire.c	OneWireLow(DQpin);			// pull DQ line low to start time slot
003924   5000     movf	0, 0, 0             	MOVF	r0x00, W
003926   6ee5     movwf	0xe5, 0            	MOVWF	POSTDEC1
003928   ecb1     call	0x3962, 0           	CALL	_OneWireLow
00392a   f01c
00392c   2ae1     incf	0xe1, 0x1, 0        	INCF	FSR1L, F
                                           ;	.line	96; /home/mandon/pinguino32X2/trunk/x.2/p8/share/sdcc/include/pic16/1wire.c	OneWireHigh(DQpin);			// allow line to return high
00392e   5000     movf	0, 0, 0             	MOVF	r0x00, W
003930   6ee5     movwf	0xe5, 0            	MOVWF	POSTDEC1
003932   ecef     call	0x39de, 0           	CALL	_OneWireHigh
003934   f01c
003936   2ae1     incf	0xe1, 0x1, 0        	INCF	FSR1L, F
                                           ;	.line	98; /home/mandon/pinguino32X2/trunk/x.2/p8/share/sdcc/include/pic16/1wire.c	dq = digitalread(DQpin);		// get presence signal
003938   6ae5     clrf	0xe5, 0             	CLRF	POSTDEC1
00393a   5000     movf	0, 0, 0             	MOVF	r0x00, W
00393c   6ee5     movwf	0xe5, 0            	MOVWF	POSTDEC1
00393e   ecc5     call	0x2d8a, 0           	CALL	_digitalread
003940   f016
003942   6e00     movwf	0, 0               	MOVWF	r0x00
003944   0e02     movlw	0x2                	MOVLW	0x02
003946   26e1     addwf	0xe1, 0x1, 0       	ADDWF	FSR1L, F
                                           ;	.line	99; /home/mandon/pinguino32X2/trunk/x.2/p8/share/sdcc/include/pic16/1wire.c	Delayus(50);				// wait for rest of timeslot
003948   6ae5     clrf	0xe5, 0             	CLRF	POSTDEC1
00394a   0e32     movlw	0x32               	MOVLW	0x32
00394c   6ee5     movwf	0xe5, 0            	MOVWF	POSTDEC1
00394e   ec38     call	0x3870, 0           	CALL	_Delayus
003950   f01c
003952   0e02     movlw	0x2                	MOVLW	0x02
003954   26e1     addwf	0xe1, 0x1, 0       	ADDWF	FSR1L, F
                                           ;	.line	100; /home/mandon/pinguino32X2/trunk/x.2/p8/share/sdcc/include/pic16/1wire.c	return (dq);					// return value of DQ line
003956   5000     movf	0, 0, 0             	MOVF	r0x00, W
003958   cfe4     movff	0xfe4, 0           	MOVFF	PREINC1, r0x00
00395a   f000
00395c   cfe4     movff	0xfe4, 0xfd9       	MOVFF	PREINC1, FSR2L
00395e   ffd9
003960   0012     return	0                 	RETURN	
                                           
                                           ; ; Starting pCode block
                                           S_main__OneWireReset	code
                                           _OneWireReset:
                                           ;	.line	73; /home/mandon/pinguino32X2/trunk/x.2/p8/share/sdcc/include/pic16/1wire.c	u8 OneWireReset(u8 DQpin)
0035b2   cfd9     movff	0xfd9, 0xfe5       	MOVFF	FSR2L, POSTDEC1
0035b4   ffe5
0035b6   cfe1     movff	0xfe1, 0xfd9       	MOVFF	FSR1L, FSR2L
0035b8   ffd9
0035ba   c000     movff	0, 0xfe5           	MOVFF	r0x00, POSTDEC1
0035bc   ffe5
0035be   0e02     movlw	0x2                	MOVLW	0x02
0035c0   cfdb     movff	0xfdb, 0           	MOVFF	PLUSW2, r0x00
0035c2   f000
                                           ;	.line	77; /home/mandon/pinguino32X2/trunk/x.2/p8/share/sdcc/include/pic16/1wire.c	OneWireLow(DQpin);			// pull DQ line low
0035c4   5000     movf	0, 0, 0             	MOVF	r0x00, W
0035c6   6ee5     movwf	0xe5, 0            	MOVWF	POSTDEC1
0035c8   ecb1     call	0x3962, 0           	CALL	_OneWireLow
0035ca   f01c
0035cc   2ae1     incf	0xe1, 0x1, 0        	INCF	FSR1L, F
                                           ;	.line	78; /home/mandon/pinguino32X2/trunk/x.2/p8/share/sdcc/include/pic16/1wire.c	Delayus(480);				// leave it low for min. 480us
0035ce   0e01     movlw	0x1                	MOVLW	0x01
0035d0   6ee5     movwf	0xe5, 0            	MOVWF	POSTDEC1
0035d2   0ee0     movlw	0xe0               	MOVLW	0xe0
0035d4   6ee5     movwf	0xe5, 0            	MOVWF	POSTDEC1
0035d6   ec38     call	0x3870, 0           	CALL	_Delayus
0035d8   f01c
0035da   0e02     movlw	0x2                	MOVLW	0x02
0035dc   26e1     addwf	0xe1, 0x1, 0       	ADDWF	FSR1L, F
                                           ;	.line	79; /home/mandon/pinguino32X2/trunk/x.2/p8/share/sdcc/include/pic16/1wire.c	OneWireHigh(DQpin);			// allow line to return high
0035de   5000     movf	0, 0, 0             	MOVF	r0x00, W
0035e0   6ee5     movwf	0xe5, 0            	MOVWF	POSTDEC1
0035e2   ecef     call	0x39de, 0           	CALL	_OneWireHigh
0035e4   f01c
0035e6   2ae1     incf	0xe1, 0x1, 0        	INCF	FSR1L, F
                                           ;	.line	80; /home/mandon/pinguino32X2/trunk/x.2/p8/share/sdcc/include/pic16/1wire.c	Delayus(60);				// takes 15 to 60 us
0035e8   6ae5     clrf	0xe5, 0             	CLRF	POSTDEC1
0035ea   0e3c     movlw	0x3c               	MOVLW	0x3c
0035ec   6ee5     movwf	0xe5, 0            	MOVWF	POSTDEC1
0035ee   ec38     call	0x3870, 0           	CALL	_Delayus
0035f0   f01c
0035f2   0e02     movlw	0x2                	MOVLW	0x02
0035f4   26e1     addwf	0xe1, 0x1, 0       	ADDWF	FSR1L, F
                                           ;	.line	81; /home/mandon/pinguino32X2/trunk/x.2/p8/share/sdcc/include/pic16/1wire.c	presence = digitalread(DQpin);	// get presence signal
0035f6   6ae5     clrf	0xe5, 0             	CLRF	POSTDEC1
0035f8   5000     movf	0, 0, 0             	MOVF	r0x00, W
0035fa   6ee5     movwf	0xe5, 0            	MOVWF	POSTDEC1
0035fc   ecc5     call	0x2d8a, 0           	CALL	_digitalread
0035fe   f016
003600   6e00     movwf	0, 0               	MOVWF	r0x00
003602   0e02     movlw	0x2                	MOVLW	0x02
003604   26e1     addwf	0xe1, 0x1, 0       	ADDWF	FSR1L, F
                                           ;	.line	82; /home/mandon/pinguino32X2/trunk/x.2/p8/share/sdcc/include/pic16/1wire.c	Delayus(420);				// wait for end of timeslot (960-480-60=420)
003606   0e01     movlw	0x1                	MOVLW	0x01
003608   6ee5     movwf	0xe5, 0            	MOVWF	POSTDEC1
00360a   0ea4     movlw	0xa4               	MOVLW	0xa4
00360c   6ee5     movwf	0xe5, 0            	MOVWF	POSTDEC1
00360e   ec38     call	0x3870, 0           	CALL	_Delayus
003610   f01c
003612   0e02     movlw	0x2                	MOVLW	0x02
003614   26e1     addwf	0xe1, 0x1, 0       	ADDWF	FSR1L, F
                                           ;	.line	83; /home/mandon/pinguino32X2/trunk/x.2/p8/share/sdcc/include/pic16/1wire.c	return (presence);
003616   5000     movf	0, 0, 0             	MOVF	r0x00, W
003618   cfe4     movff	0xfe4, 0           	MOVFF	PREINC1, r0x00
00361a   f000
00361c   cfe4     movff	0xfe4, 0xfd9       	MOVFF	PREINC1, FSR2L
00361e   ffd9
003620   0012     return	0                 	RETURN	
                                           
                                           ; ; Starting pCode block
                                           S_main__OneWireHigh	code
                                           _OneWireHigh:
                                           ;	.line	60; /home/mandon/pinguino32X2/trunk/x.2/p8/share/sdcc/include/pic16/1wire.c	static void OneWireHigh(u8 DQpin)
0039de   cfd9     movff	0xfd9, 0xfe5       	MOVFF	FSR2L, POSTDEC1
0039e0   ffe5
0039e2   cfe1     movff	0xfe1, 0xfd9       	MOVFF	FSR1L, FSR2L
0039e4   ffd9
0039e6   c000     movff	0, 0xfe5           	MOVFF	r0x00, POSTDEC1
0039e8   ffe5
0039ea   0e02     movlw	0x2                	MOVLW	0x02
0039ec   cfdb     movff	0xfdb, 0           	MOVFF	PLUSW2, r0x00
0039ee   f000
                                           ;	.line	62; /home/mandon/pinguino32X2/trunk/x.2/p8/share/sdcc/include/pic16/1wire.c	pinmode(DQpin, INPUT);
0039f0   6ae5     clrf	0xe5, 0             	CLRF	POSTDEC1
0039f2   0e01     movlw	0x1                	MOVLW	0x01
0039f4   6ee5     movwf	0xe5, 0            	MOVWF	POSTDEC1
0039f6   6ae5     clrf	0xe5, 0             	CLRF	POSTDEC1
0039f8   5000     movf	0, 0, 0             	MOVF	r0x00, W
0039fa   6ee5     movwf	0xe5, 0            	MOVWF	POSTDEC1
0039fc   ecd7     call	0x27ae, 0           	CALL	_pinmode
0039fe   f013
003a00   0e04     movlw	0x4                	MOVLW	0x04
003a02   26e1     addwf	0xe1, 0x1, 0       	ADDWF	FSR1L, F
003a04   cfe4     movff	0xfe4, 0           	MOVFF	PREINC1, r0x00
003a06   f000
003a08   cfe4     movff	0xfe4, 0xfd9       	MOVFF	PREINC1, FSR2L
003a0a   ffd9
003a0c   0012     return	0                 	RETURN	
                                           
                                           ; ; Starting pCode block
                                           S_main__OneWireLow	code
                                           _OneWireLow:
                                           ;	.line	50; /home/mandon/pinguino32X2/trunk/x.2/p8/share/sdcc/include/pic16/1wire.c	static void OneWireLow(u8 DQpin)
003962   cfd9     movff	0xfd9, 0xfe5       	MOVFF	FSR2L, POSTDEC1
003964   ffe5
003966   cfe1     movff	0xfe1, 0xfd9       	MOVFF	FSR1L, FSR2L
003968   ffd9
00396a   c000     movff	0, 0xfe5           	MOVFF	r0x00, POSTDEC1
00396c   ffe5
00396e   c001     movff	0x1, 0xfe5         	MOVFF	r0x01, POSTDEC1
003970   ffe5
003972   0e02     movlw	0x2                	MOVLW	0x02
003974   cfdb     movff	0xfdb, 0           	MOVFF	PLUSW2, r0x00
003976   f000
                                           ;	.line	52; /home/mandon/pinguino32X2/trunk/x.2/p8/share/sdcc/include/pic16/1wire.c	digitalwrite(DQpin, LOW);
003978   6a01     clrf	0x1, 0              	CLRF	r0x01
00397a   6ae5     clrf	0xe5, 0             	CLRF	POSTDEC1
00397c   6ae5     clrf	0xe5, 0             	CLRF	POSTDEC1
00397e   6ae5     clrf	0xe5, 0             	CLRF	POSTDEC1
003980   5000     movf	0, 0, 0             	MOVF	r0x00, W
003982   6ee5     movwf	0xe5, 0            	MOVWF	POSTDEC1
003984   ecd2     call	0x29a4, 0           	CALL	_digitalwrite
003986   f014
003988   0e04     movlw	0x4                	MOVLW	0x04
00398a   26e1     addwf	0xe1, 0x1, 0       	ADDWF	FSR1L, F
                                           ;	.line	53; /home/mandon/pinguino32X2/trunk/x.2/p8/share/sdcc/include/pic16/1wire.c	pinmode(DQpin, OUTPUT);
00398c   6ae5     clrf	0xe5, 0             	CLRF	POSTDEC1
00398e   6ae5     clrf	0xe5, 0             	CLRF	POSTDEC1
003990   5001     movf	0x1, 0, 0           	MOVF	r0x01, W
003992   6ee5     movwf	0xe5, 0            	MOVWF	POSTDEC1
003994   5000     movf	0, 0, 0             	MOVF	r0x00, W
003996   6ee5     movwf	0xe5, 0            	MOVWF	POSTDEC1
003998   ecd7     call	0x27ae, 0           	CALL	_pinmode
00399a   f013
00399c   0e04     movlw	0x4                	MOVLW	0x04
00399e   26e1     addwf	0xe1, 0x1, 0       	ADDWF	FSR1L, F
0039a0   cfe4     movff	0xfe4, 0x1         	MOVFF	PREINC1, r0x01
0039a2   f001
0039a4   cfe4     movff	0xfe4, 0           	MOVFF	PREINC1, r0x00
0039a6   f000
0039a8   cfe4     movff	0xfe4, 0xfd9       	MOVFF	PREINC1, FSR2L
0039aa   ffd9
0039ac   0012     return	0                 	RETURN	
                                           
                                           ; ; Starting pCode block
                                           S_main__toggle	code
                                           _toggle:
                                           ;	.line	93; /home/mandon/pinguino32X2/trunk/x.2/p8/share/sdcc/include/pic16/digitalw.c	void toggle(u8 pin)
0037c2   cfd9     movff	0xfd9, 0xfe5       	MOVFF	FSR2L, POSTDEC1
0037c4   ffe5
0037c6   cfe1     movff	0xfe1, 0xfd9       	MOVFF	FSR1L, FSR2L
0037c8   ffd9
0037ca   c000     movff	0, 0xfe5           	MOVFF	r0x00, POSTDEC1
0037cc   ffe5
0037ce   c001     movff	0x1, 0xfe5         	MOVFF	r0x01, POSTDEC1
0037d0   ffe5
0037d2   c002     movff	0x2, 0xfe5         	MOVFF	r0x02, POSTDEC1
0037d4   ffe5
0037d6   0e02     movlw	0x2                	MOVLW	0x02
0037d8   cfdb     movff	0xfdb, 0           	MOVFF	PLUSW2, r0x00
0037da   f000
                                           ;	.line	96; /home/mandon/pinguino32X2/trunk/x.2/p8/share/sdcc/include/pic16/digitalw.c	val = digitalread(pin);
0037dc   6a01     clrf	0x1, 0              	CLRF	r0x01
0037de   6ae5     clrf	0xe5, 0             	CLRF	POSTDEC1
0037e0   5000     movf	0, 0, 0             	MOVF	r0x00, W
0037e2   6ee5     movwf	0xe5, 0            	MOVWF	POSTDEC1
0037e4   ecc5     call	0x2d8a, 0           	CALL	_digitalread
0037e6   f016
0037e8   6e02     movwf	0x2, 0             	MOVWF	r0x02
0037ea   0e02     movlw	0x2                	MOVLW	0x02
0037ec   26e1     addwf	0xe1, 0x1, 0       	ADDWF	FSR1L, F
                                           ;	.line	97; /home/mandon/pinguino32X2/trunk/x.2/p8/share/sdcc/include/pic16/digitalw.c	digitalwrite(pin, val^1);
0037ee   0e01     movlw	0x1                	MOVLW	0x01
0037f0   1a02     xorwf	0x2, 0x1, 0        	XORWF	r0x02, F
0037f2   6ae5     clrf	0xe5, 0             	CLRF	POSTDEC1
0037f4   5002     movf	0x2, 0, 0           	MOVF	r0x02, W
0037f6   6ee5     movwf	0xe5, 0            	MOVWF	POSTDEC1
0037f8   5001     movf	0x1, 0, 0           	MOVF	r0x01, W
0037fa   6ee5     movwf	0xe5, 0            	MOVWF	POSTDEC1
0037fc   5000     movf	0, 0, 0             	MOVF	r0x00, W
0037fe   6ee5     movwf	0xe5, 0            	MOVWF	POSTDEC1
003800   ecd2     call	0x29a4, 0           	CALL	_digitalwrite
003802   f014
003804   0e04     movlw	0x4                	MOVLW	0x04
003806   26e1     addwf	0xe1, 0x1, 0       	ADDWF	FSR1L, F
003808   cfe4     movff	0xfe4, 0x2         	MOVFF	PREINC1, r0x02
00380a   f002
00380c   cfe4     movff	0xfe4, 0x1         	MOVFF	PREINC1, r0x01
00380e   f001
003810   cfe4     movff	0xfe4, 0           	MOVFF	PREINC1, r0x00
003812   f000
003814   cfe4     movff	0xfe4, 0xfd9       	MOVFF	PREINC1, FSR2L
003816   ffd9
003818   0012     return	0                 	RETURN	
                                           
                                           ; ; Starting pCode block
                                           S_main__pinmode	code
                                           _pinmode:
                                           ;	.line	69; /home/mandon/pinguino32X2/trunk/x.2/p8/share/sdcc/include/pic16/digitalw.c	void pinmode(int input, int state)
0027ae   cfd9     movff	0xfd9, 0xfe5       	MOVFF	FSR2L, POSTDEC1
0027b0   ffe5
0027b2   cfe1     movff	0xfe1, 0xfd9       	MOVFF	FSR1L, FSR2L
0027b4   ffd9
0027b6   c000     movff	0, 0xfe5           	MOVFF	r0x00, POSTDEC1
0027b8   ffe5
0027ba   c001     movff	0x1, 0xfe5         	MOVFF	r0x01, POSTDEC1
0027bc   ffe5
0027be   c002     movff	0x2, 0xfe5         	MOVFF	r0x02, POSTDEC1
0027c0   ffe5
0027c2   c003     movff	0x3, 0xfe5         	MOVFF	r0x03, POSTDEC1
0027c4   ffe5
0027c6   c004     movff	0x4, 0xfe5         	MOVFF	r0x04, POSTDEC1
0027c8   ffe5
0027ca   c005     movff	0x5, 0xfe5         	MOVFF	r0x05, POSTDEC1
0027cc   ffe5
0027ce   c006     movff	0x6, 0xfe5         	MOVFF	r0x06, POSTDEC1
0027d0   ffe5
0027d2   0e02     movlw	0x2                	MOVLW	0x02
0027d4   cfdb     movff	0xfdb, 0           	MOVFF	PLUSW2, r0x00
0027d6   f000
0027d8   0e03     movlw	0x3                	MOVLW	0x03
0027da   cfdb     movff	0xfdb, 0x1         	MOVFF	PLUSW2, r0x01
0027dc   f001
0027de   0e04     movlw	0x4                	MOVLW	0x04
0027e0   cfdb     movff	0xfdb, 0x2         	MOVFF	PLUSW2, r0x02
0027e2   f002
0027e4   0e05     movlw	0x5                	MOVLW	0x05
0027e6   cfdb     movff	0xfdb, 0x3         	MOVFF	PLUSW2, r0x03
0027e8   f003
                                           ;	.line	71; /home/mandon/pinguino32X2/trunk/x.2/p8/share/sdcc/include/pic16/digitalw.c	switch (port[input])
0027ea   0ea8     movlw	0xa8               	MOVLW	LOW(_port)
0027ec   2400     addwf	0, 0, 0            	ADDWF	r0x00, W
0027ee   6e04     movwf	0x4, 0             	MOVWF	r0x04
0027f0   0e23     movlw	0x23               	MOVLW	HIGH(_port)
0027f2   2001     addwfc	0x1, 0, 0         	ADDWFC	r0x01, W
0027f4   6e05     movwf	0x5, 0             	MOVWF	r0x05
0027f6   6a06     clrf	0x6, 0              	CLRF	r0x06
0027f8   be01     btfsc	0x1, 0x7, 0        	BTFSC	r0x01, 7
0027fa   6806     setf	0x6, 0              	SETF	r0x06
0027fc   0e00     movlw	0                  	MOVLW	UPPER(_port)
0027fe   2206     addwfc	0x6, 0x1, 0       	ADDWFC	r0x06, F
002800   c004     movff	0x4, 0xff6         	MOVFF	r0x04, TBLPTRL
002802   fff6
002804   c005     movff	0x5, 0xff7         	MOVFF	r0x05, TBLPTRH
002806   fff7
002808   c006     movff	0x6, 0xff8         	MOVFF	r0x06, TBLPTRU
00280a   fff8
00280c   0009     tblrd	*+                 	TBLRD*+	
00280e   cff5     movff	0xff5, 0x4         	MOVFF	TABLAT, r0x04
002810   f004
002812   0e03     movlw	0x3                	MOVLW	0x03
002814   5c04     subwf	0x4, 0, 0          	SUBWF	r0x04, W
002816   b0d8     btfsc	0xd8, 0, 0         	BTFSC	STATUS, 0
002818   d0b4     bra	0x2982               	BRA	_00196_DS_
00281a   c007     movff	0x7, 0xfe5         	MOVFF	r0x07, POSTDEC1
00281c   ffe5
00281e   c008     movff	0x8, 0xfe5         	MOVFF	r0x08, POSTDEC1
002820   ffe5
002822   6a08     clrf	0x8, 0              	CLRF	r0x08
002824   3404     rlcf	0x4, 0, 0           	RLCF	r0x04, W
002826   3608     rlcf	0x8, 0x1, 0         	RLCF	r0x08, F
002828   34e8     rlcf	0xe8, 0, 0          	RLCF	WREG, W
00282a   3608     rlcf	0x8, 0x1, 0         	RLCF	r0x08, F
00282c   0bfc     andlw	0xfc               	ANDLW	0xfc
00282e   6e07     movwf	0x7, 0             	MOVWF	r0x07
002830   0e00     movlw	0                  	MOVLW	UPPER(_00203_DS_)
002832   6efb     movwf	0xfb, 0            	MOVWF	PCLATU
002834   0e28     movlw	0x28               	MOVLW	HIGH(_00203_DS_)
002836   6efa     movwf	0xfa, 0            	MOVWF	PCLATH
002838   0e50     movlw	0x50               	MOVLW	LOW(_00203_DS_)
00283a   2607     addwf	0x7, 0x1, 0        	ADDWF	r0x07, F
00283c   5008     movf	0x8, 0, 0           	MOVF	r0x08, W
00283e   22fa     addwfc	0xfa, 0x1, 0      	ADDWFC	PCLATH, F
002840   b0d8     btfsc	0xd8, 0, 0         	BTFSC	STATUS, 0
002842   2afb     incf	0xfb, 0x1, 0        	INCF	PCLATU, F
002844   5007     movf	0x7, 0, 0           	MOVF	r0x07, W
002846   cfe4     movff	0xfe4, 0x8         	MOVFF	PREINC1, r0x08
002848   f008
00284a   cfe4     movff	0xfe4, 0x7         	MOVFF	PREINC1, r0x07
00284c   f007
00284e   6ef9     movwf	0xf9, 0            	MOVWF	PCL
                                           _00203_DS_:
002850   ef2e     goto	0x285c              	GOTO	_00183_DS_
002852   f014
002854   ef60     goto	0x28c0              	GOTO	_00187_DS_
002856   f014
002858   ef92     goto	0x2924              	GOTO	_00191_DS_
00285a   f014
                                           _00183_DS_:
                                           ;	.line	73; /home/mandon/pinguino32X2/trunk/x.2/p8/share/sdcc/include/pic16/digitalw.c	case 0: if (state) TRISB=TRISB | mask[input];
00285c   5002     movf	0x2, 0, 0           	MOVF	r0x02, W
00285e   1003     iorwf	0x3, 0, 0          	IORWF	r0x03, W
002860   e017     bz	0x2890                	BZ	_00185_DS_
002862   0e96     movlw	0x96               	MOVLW	LOW(_mask)
002864   2400     addwf	0, 0, 0            	ADDWF	r0x00, W
002866   6e04     movwf	0x4, 0             	MOVWF	r0x04
002868   0e23     movlw	0x23               	MOVLW	HIGH(_mask)
00286a   2001     addwfc	0x1, 0, 0         	ADDWFC	r0x01, W
00286c   6e05     movwf	0x5, 0             	MOVWF	r0x05
00286e   6a06     clrf	0x6, 0              	CLRF	r0x06
002870   be01     btfsc	0x1, 0x7, 0        	BTFSC	r0x01, 7
002872   6806     setf	0x6, 0              	SETF	r0x06
002874   0e00     movlw	0                  	MOVLW	UPPER(_mask)
002876   2206     addwfc	0x6, 0x1, 0       	ADDWFC	r0x06, F
002878   c004     movff	0x4, 0xff6         	MOVFF	r0x04, TBLPTRL
00287a   fff6
00287c   c005     movff	0x5, 0xff7         	MOVFF	r0x05, TBLPTRH
00287e   fff7
002880   c006     movff	0x6, 0xff8         	MOVFF	r0x06, TBLPTRU
002882   fff8
002884   0009     tblrd	*+                 	TBLRD*+	
002886   cff5     movff	0xff5, 0x4         	MOVFF	TABLAT, r0x04
002888   f004
00288a   5004     movf	0x4, 0, 0           	MOVF	r0x04, W
00288c   1293     iorwf	0x93, 0x1, 0       	IORWF	_TRISB, F
00288e   d079     bra	0x2982               	BRA	_00196_DS_
                                           _00185_DS_:
                                           ;	.line	74; /home/mandon/pinguino32X2/trunk/x.2/p8/share/sdcc/include/pic16/digitalw.c	else TRISB=TRISB & (255-mask[input]);
002890   0e96     movlw	0x96               	MOVLW	LOW(_mask)
002892   2400     addwf	0, 0, 0            	ADDWF	r0x00, W
002894   6e04     movwf	0x4, 0             	MOVWF	r0x04
002896   0e23     movlw	0x23               	MOVLW	HIGH(_mask)
002898   2001     addwfc	0x1, 0, 0         	ADDWFC	r0x01, W
00289a   6e05     movwf	0x5, 0             	MOVWF	r0x05
00289c   6a06     clrf	0x6, 0              	CLRF	r0x06
00289e   be01     btfsc	0x1, 0x7, 0        	BTFSC	r0x01, 7
0028a0   6806     setf	0x6, 0              	SETF	r0x06
0028a2   0e00     movlw	0                  	MOVLW	UPPER(_mask)
0028a4   2206     addwfc	0x6, 0x1, 0       	ADDWFC	r0x06, F
0028a6   c004     movff	0x4, 0xff6         	MOVFF	r0x04, TBLPTRL
0028a8   fff6
0028aa   c005     movff	0x5, 0xff7         	MOVFF	r0x05, TBLPTRH
0028ac   fff7
0028ae   c006     movff	0x6, 0xff8         	MOVFF	r0x06, TBLPTRU
0028b0   fff8
0028b2   0009     tblrd	*+                 	TBLRD*+	
0028b4   cff5     movff	0xff5, 0x4         	MOVFF	TABLAT, r0x04
0028b6   f004
0028b8   5004     movf	0x4, 0, 0           	MOVF	r0x04, W
0028ba   08ff     sublw	0xff               	SUBLW	0xff
                                           ; #	MOVWF	r0x04
                                           ; #	MOVF	r0x04, W
0028bc   1693     andwf	0x93, 0x1, 0       	ANDWF	_TRISB, F
                                           ;	.line	75; /home/mandon/pinguino32X2/trunk/x.2/p8/share/sdcc/include/pic16/digitalw.c	break;
0028be   d061     bra	0x2982               	BRA	_00196_DS_
                                           _00187_DS_:
                                           ;	.line	76; /home/mandon/pinguino32X2/trunk/x.2/p8/share/sdcc/include/pic16/digitalw.c	case 1: if (state) TRISC=TRISC | mask[input];
0028c0   5002     movf	0x2, 0, 0           	MOVF	r0x02, W
0028c2   1003     iorwf	0x3, 0, 0          	IORWF	r0x03, W
0028c4   e017     bz	0x28f4                	BZ	_00189_DS_
0028c6   0e96     movlw	0x96               	MOVLW	LOW(_mask)
0028c8   2400     addwf	0, 0, 0            	ADDWF	r0x00, W
0028ca   6e04     movwf	0x4, 0             	MOVWF	r0x04
0028cc   0e23     movlw	0x23               	MOVLW	HIGH(_mask)
0028ce   2001     addwfc	0x1, 0, 0         	ADDWFC	r0x01, W
0028d0   6e05     movwf	0x5, 0             	MOVWF	r0x05
0028d2   6a06     clrf	0x6, 0              	CLRF	r0x06
0028d4   be01     btfsc	0x1, 0x7, 0        	BTFSC	r0x01, 7
0028d6   6806     setf	0x6, 0              	SETF	r0x06
0028d8   0e00     movlw	0                  	MOVLW	UPPER(_mask)
0028da   2206     addwfc	0x6, 0x1, 0       	ADDWFC	r0x06, F
0028dc   c004     movff	0x4, 0xff6         	MOVFF	r0x04, TBLPTRL
0028de   fff6
0028e0   c005     movff	0x5, 0xff7         	MOVFF	r0x05, TBLPTRH
0028e2   fff7
0028e4   c006     movff	0x6, 0xff8         	MOVFF	r0x06, TBLPTRU
0028e6   fff8
0028e8   0009     tblrd	*+                 	TBLRD*+	
0028ea   cff5     movff	0xff5, 0x4         	MOVFF	TABLAT, r0x04
0028ec   f004
0028ee   5004     movf	0x4, 0, 0           	MOVF	r0x04, W
0028f0   1294     iorwf	0x94, 0x1, 0       	IORWF	_TRISC, F
0028f2   d047     bra	0x2982               	BRA	_00196_DS_
                                           _00189_DS_:
                                           ;	.line	77; /home/mandon/pinguino32X2/trunk/x.2/p8/share/sdcc/include/pic16/digitalw.c	else TRISC=TRISC & (255-mask[input]);
0028f4   0e96     movlw	0x96               	MOVLW	LOW(_mask)
0028f6   2400     addwf	0, 0, 0            	ADDWF	r0x00, W
0028f8   6e04     movwf	0x4, 0             	MOVWF	r0x04
0028fa   0e23     movlw	0x23               	MOVLW	HIGH(_mask)
0028fc   2001     addwfc	0x1, 0, 0         	ADDWFC	r0x01, W
0028fe   6e05     movwf	0x5, 0             	MOVWF	r0x05
002900   6a06     clrf	0x6, 0              	CLRF	r0x06
002902   be01     btfsc	0x1, 0x7, 0        	BTFSC	r0x01, 7
002904   6806     setf	0x6, 0              	SETF	r0x06
002906   0e00     movlw	0                  	MOVLW	UPPER(_mask)
002908   2206     addwfc	0x6, 0x1, 0       	ADDWFC	r0x06, F
00290a   c004     movff	0x4, 0xff6         	MOVFF	r0x04, TBLPTRL
00290c   fff6
00290e   c005     movff	0x5, 0xff7         	MOVFF	r0x05, TBLPTRH
002910   fff7
002912   c006     movff	0x6, 0xff8         	MOVFF	r0x06, TBLPTRU
002914   fff8
002916   0009     tblrd	*+                 	TBLRD*+	
002918   cff5     movff	0xff5, 0x4         	MOVFF	TABLAT, r0x04
00291a   f004
00291c   5004     movf	0x4, 0, 0           	MOVF	r0x04, W
00291e   08ff     sublw	0xff               	SUBLW	0xff
                                           ; #	MOVWF	r0x04
                                           ; #	MOVF	r0x04, W
002920   1694     andwf	0x94, 0x1, 0       	ANDWF	_TRISC, F
                                           ;	.line	78; /home/mandon/pinguino32X2/trunk/x.2/p8/share/sdcc/include/pic16/digitalw.c	break;
002922   d02f     bra	0x2982               	BRA	_00196_DS_
                                           _00191_DS_:
                                           ;	.line	79; /home/mandon/pinguino32X2/trunk/x.2/p8/share/sdcc/include/pic16/digitalw.c	case 2: if (state) TRISA=TRISA | mask[input];
002924   5002     movf	0x2, 0, 0           	MOVF	r0x02, W
002926   1003     iorwf	0x3, 0, 0          	IORWF	r0x03, W
002928   e017     bz	0x2958                	BZ	_00193_DS_
00292a   0e96     movlw	0x96               	MOVLW	LOW(_mask)
00292c   2400     addwf	0, 0, 0            	ADDWF	r0x00, W
00292e   6e02     movwf	0x2, 0             	MOVWF	r0x02
002930   0e23     movlw	0x23               	MOVLW	HIGH(_mask)
002932   2001     addwfc	0x1, 0, 0         	ADDWFC	r0x01, W
002934   6e03     movwf	0x3, 0             	MOVWF	r0x03
002936   6a04     clrf	0x4, 0              	CLRF	r0x04
002938   be01     btfsc	0x1, 0x7, 0        	BTFSC	r0x01, 7
00293a   6804     setf	0x4, 0              	SETF	r0x04
00293c   0e00     movlw	0                  	MOVLW	UPPER(_mask)
00293e   2204     addwfc	0x4, 0x1, 0       	ADDWFC	r0x04, F
002940   c002     movff	0x2, 0xff6         	MOVFF	r0x02, TBLPTRL
002942   fff6
002944   c003     movff	0x3, 0xff7         	MOVFF	r0x03, TBLPTRH
002946   fff7
002948   c004     movff	0x4, 0xff8         	MOVFF	r0x04, TBLPTRU
00294a   fff8
00294c   0009     tblrd	*+                 	TBLRD*+	
00294e   cff5     movff	0xff5, 0x2         	MOVFF	TABLAT, r0x02
002950   f002
002952   5002     movf	0x2, 0, 0           	MOVF	r0x02, W
002954   1292     iorwf	0x92, 0x1, 0       	IORWF	_TRISA, F
002956   d015     bra	0x2982               	BRA	_00196_DS_
                                           _00193_DS_:
                                           ;	.line	80; /home/mandon/pinguino32X2/trunk/x.2/p8/share/sdcc/include/pic16/digitalw.c	else TRISA=TRISA & (255-mask[input]);
002958   6a02     clrf	0x2, 0              	CLRF	r0x02
00295a   be01     btfsc	0x1, 0x7, 0        	BTFSC	r0x01, 7
00295c   6802     setf	0x2, 0              	SETF	r0x02
00295e   0e96     movlw	0x96               	MOVLW	LOW(_mask)
002960   2600     addwf	0, 0x1, 0          	ADDWF	r0x00, F
002962   0e23     movlw	0x23               	MOVLW	HIGH(_mask)
002964   2201     addwfc	0x1, 0x1, 0       	ADDWFC	r0x01, F
002966   0e00     movlw	0                  	MOVLW	UPPER(_mask)
002968   2202     addwfc	0x2, 0x1, 0       	ADDWFC	r0x02, F
00296a   c000     movff	0, 0xff6           	MOVFF	r0x00, TBLPTRL
00296c   fff6
00296e   c001     movff	0x1, 0xff7         	MOVFF	r0x01, TBLPTRH
002970   fff7
002972   c002     movff	0x2, 0xff8         	MOVFF	r0x02, TBLPTRU
002974   fff8
002976   0009     tblrd	*+                 	TBLRD*+	
002978   cff5     movff	0xff5, 0           	MOVFF	TABLAT, r0x00
00297a   f000
00297c   5000     movf	0, 0, 0             	MOVF	r0x00, W
00297e   08ff     sublw	0xff               	SUBLW	0xff
                                           ; #	MOVWF	r0x00
                                           ; #	MOVF	r0x00, W
002980   1692     andwf	0x92, 0x1, 0       	ANDWF	_TRISA, F
                                           _00196_DS_:
                                           ;	.line	90; /home/mandon/pinguino32X2/trunk/x.2/p8/share/sdcc/include/pic16/digitalw.c	}
002982   cfe4     movff	0xfe4, 0x6         	MOVFF	PREINC1, r0x06
002984   f006
002986   cfe4     movff	0xfe4, 0x5         	MOVFF	PREINC1, r0x05
002988   f005
00298a   cfe4     movff	0xfe4, 0x4         	MOVFF	PREINC1, r0x04
00298c   f004
00298e   cfe4     movff	0xfe4, 0x3         	MOVFF	PREINC1, r0x03
002990   f003
002992   cfe4     movff	0xfe4, 0x2         	MOVFF	PREINC1, r0x02
002994   f002
002996   cfe4     movff	0xfe4, 0x1         	MOVFF	PREINC1, r0x01
002998   f001
00299a   cfe4     movff	0xfe4, 0           	MOVFF	PREINC1, r0x00
00299c   f000
00299e   cfe4     movff	0xfe4, 0xfd9       	MOVFF	PREINC1, FSR2L
0029a0   ffd9
0029a2   0012     return	0                 	RETURN	
                                           
                                           ; ; Starting pCode block
                                           S_main__digitalread	code
                                           _digitalread:
                                           ;	.line	44; /home/mandon/pinguino32X2/trunk/x.2/p8/share/sdcc/include/pic16/digitalw.c	int digitalread(int input)
002d8a   cfd9     movff	0xfd9, 0xfe5       	MOVFF	FSR2L, POSTDEC1
002d8c   ffe5
002d8e   cfe1     movff	0xfe1, 0xfd9       	MOVFF	FSR1L, FSR2L
002d90   ffd9
002d92   c000     movff	0, 0xfe5           	MOVFF	r0x00, POSTDEC1
002d94   ffe5
002d96   c001     movff	0x1, 0xfe5         	MOVFF	r0x01, POSTDEC1
002d98   ffe5
002d9a   c002     movff	0x2, 0xfe5         	MOVFF	r0x02, POSTDEC1
002d9c   ffe5
002d9e   c003     movff	0x3, 0xfe5         	MOVFF	r0x03, POSTDEC1
002da0   ffe5
002da2   c004     movff	0x4, 0xfe5         	MOVFF	r0x04, POSTDEC1
002da4   ffe5
002da6   0e02     movlw	0x2                	MOVLW	0x02
002da8   cfdb     movff	0xfdb, 0           	MOVFF	PLUSW2, r0x00
002daa   f000
002dac   0e03     movlw	0x3                	MOVLW	0x03
002dae   cfdb     movff	0xfdb, 0x1         	MOVFF	PLUSW2, r0x01
002db0   f001
                                           ;	.line	46; /home/mandon/pinguino32X2/trunk/x.2/p8/share/sdcc/include/pic16/digitalw.c	switch (port[input])
002db2   0ea8     movlw	0xa8               	MOVLW	LOW(_port)
002db4   2400     addwf	0, 0, 0            	ADDWF	r0x00, W
002db6   6e02     movwf	0x2, 0             	MOVWF	r0x02
002db8   0e23     movlw	0x23               	MOVLW	HIGH(_port)
002dba   2001     addwfc	0x1, 0, 0         	ADDWFC	r0x01, W
002dbc   6e03     movwf	0x3, 0             	MOVWF	r0x03
002dbe   6a04     clrf	0x4, 0              	CLRF	r0x04
002dc0   be01     btfsc	0x1, 0x7, 0        	BTFSC	r0x01, 7
002dc2   6804     setf	0x4, 0              	SETF	r0x04
002dc4   0e00     movlw	0                  	MOVLW	UPPER(_port)
002dc6   2204     addwfc	0x4, 0x1, 0       	ADDWFC	r0x04, F
002dc8   c002     movff	0x2, 0xff6         	MOVFF	r0x02, TBLPTRL
002dca   fff6
002dcc   c003     movff	0x3, 0xff7         	MOVFF	r0x03, TBLPTRH
002dce   fff7
002dd0   c004     movff	0x4, 0xff8         	MOVFF	r0x04, TBLPTRU
002dd2   fff8
002dd4   0009     tblrd	*+                 	TBLRD*+	
002dd6   cff5     movff	0xff5, 0x2         	MOVFF	TABLAT, r0x02
002dd8   f002
002dda   0e03     movlw	0x3                	MOVLW	0x03
002ddc   5c02     subwf	0x2, 0, 0          	SUBWF	r0x02, W
002dde   b0d8     btfsc	0xd8, 0, 0         	BTFSC	STATUS, 0
002de0   d079     bra	0x2ed4               	BRA	_00170_DS_
002de2   c005     movff	0x5, 0xfe5         	MOVFF	r0x05, POSTDEC1
002de4   ffe5
002de6   c006     movff	0x6, 0xfe5         	MOVFF	r0x06, POSTDEC1
002de8   ffe5
002dea   6a06     clrf	0x6, 0              	CLRF	r0x06
002dec   3402     rlcf	0x2, 0, 0           	RLCF	r0x02, W
002dee   3606     rlcf	0x6, 0x1, 0         	RLCF	r0x06, F
002df0   34e8     rlcf	0xe8, 0, 0          	RLCF	WREG, W
002df2   3606     rlcf	0x6, 0x1, 0         	RLCF	r0x06, F
002df4   0bfc     andlw	0xfc               	ANDLW	0xfc
002df6   6e05     movwf	0x5, 0             	MOVWF	r0x05
002df8   0e00     movlw	0                  	MOVLW	UPPER(_00178_DS_)
002dfa   6efb     movwf	0xfb, 0            	MOVWF	PCLATU
002dfc   0e2e     movlw	0x2e               	MOVLW	HIGH(_00178_DS_)
002dfe   6efa     movwf	0xfa, 0            	MOVWF	PCLATH
002e00   0e18     movlw	0x18               	MOVLW	LOW(_00178_DS_)
002e02   2605     addwf	0x5, 0x1, 0        	ADDWF	r0x05, F
002e04   5006     movf	0x6, 0, 0           	MOVF	r0x06, W
002e06   22fa     addwfc	0xfa, 0x1, 0      	ADDWFC	PCLATH, F
002e08   b0d8     btfsc	0xd8, 0, 0         	BTFSC	STATUS, 0
002e0a   2afb     incf	0xfb, 0x1, 0        	INCF	PCLATU, F
002e0c   5005     movf	0x5, 0, 0           	MOVF	r0x05, W
002e0e   cfe4     movff	0xfe4, 0x6         	MOVFF	PREINC1, r0x06
002e10   f006
002e12   cfe4     movff	0xfe4, 0x5         	MOVFF	PREINC1, r0x05
002e14   f005
002e16   6ef9     movwf	0xf9, 0            	MOVWF	PCL
                                           _00178_DS_:
002e18   ef12     goto	0x2e24              	GOTO	_00158_DS_
002e1a   f017
002e1c   ef30     goto	0x2e60              	GOTO	_00162_DS_
002e1e   f017
002e20   ef4e     goto	0x2e9c              	GOTO	_00166_DS_
002e22   f017
                                           _00158_DS_:
                                           ;	.line	48; /home/mandon/pinguino32X2/trunk/x.2/p8/share/sdcc/include/pic16/digitalw.c	case 0: if ((PORTB & mask[input])!=0) return (1);
002e24   0e96     movlw	0x96               	MOVLW	LOW(_mask)
002e26   2400     addwf	0, 0, 0            	ADDWF	r0x00, W
002e28   6e02     movwf	0x2, 0             	MOVWF	r0x02
002e2a   0e23     movlw	0x23               	MOVLW	HIGH(_mask)
002e2c   2001     addwfc	0x1, 0, 0         	ADDWFC	r0x01, W
002e2e   6e03     movwf	0x3, 0             	MOVWF	r0x03
002e30   6a04     clrf	0x4, 0              	CLRF	r0x04
002e32   be01     btfsc	0x1, 0x7, 0        	BTFSC	r0x01, 7
002e34   6804     setf	0x4, 0              	SETF	r0x04
002e36   0e00     movlw	0                  	MOVLW	UPPER(_mask)
002e38   2204     addwfc	0x4, 0x1, 0       	ADDWFC	r0x04, F
002e3a   c002     movff	0x2, 0xff6         	MOVFF	r0x02, TBLPTRL
002e3c   fff6
002e3e   c003     movff	0x3, 0xff7         	MOVFF	r0x03, TBLPTRH
002e40   fff7
002e42   c004     movff	0x4, 0xff8         	MOVFF	r0x04, TBLPTRU
002e44   fff8
002e46   0009     tblrd	*+                 	TBLRD*+	
002e48   cff5     movff	0xff5, 0x2         	MOVFF	TABLAT, r0x02
002e4a   f002
002e4c   5081     movf	0x81, 0, 0          	MOVF	_PORTB, W
002e4e   1602     andwf	0x2, 0x1, 0        	ANDWF	r0x02, F
002e50   5002     movf	0x2, 0, 0           	MOVF	r0x02, W
002e52   e003     bz	0x2e5a                	BZ	_00160_DS_
002e54   6af3     clrf	0xf3, 0             	CLRF	PRODL
002e56   0e01     movlw	0x1                	MOVLW	0x01
002e58   d03f     bra	0x2ed8               	BRA	_00171_DS_
                                           _00160_DS_:
                                           ;	.line	49; /home/mandon/pinguino32X2/trunk/x.2/p8/share/sdcc/include/pic16/digitalw.c	else return (0);
002e5a   6af3     clrf	0xf3, 0             	CLRF	PRODL
002e5c   6ae8     clrf	0xe8, 0             	CLRF	WREG
002e5e   d03c     bra	0x2ed8               	BRA	_00171_DS_
                                           _00162_DS_:
                                           ;	.line	51; /home/mandon/pinguino32X2/trunk/x.2/p8/share/sdcc/include/pic16/digitalw.c	case 1: if ((PORTC & mask[input])!=0) return (1);
002e60   0e96     movlw	0x96               	MOVLW	LOW(_mask)
002e62   2400     addwf	0, 0, 0            	ADDWF	r0x00, W
002e64   6e02     movwf	0x2, 0             	MOVWF	r0x02
002e66   0e23     movlw	0x23               	MOVLW	HIGH(_mask)
002e68   2001     addwfc	0x1, 0, 0         	ADDWFC	r0x01, W
002e6a   6e03     movwf	0x3, 0             	MOVWF	r0x03
002e6c   6a04     clrf	0x4, 0              	CLRF	r0x04
002e6e   be01     btfsc	0x1, 0x7, 0        	BTFSC	r0x01, 7
002e70   6804     setf	0x4, 0              	SETF	r0x04
002e72   0e00     movlw	0                  	MOVLW	UPPER(_mask)
002e74   2204     addwfc	0x4, 0x1, 0       	ADDWFC	r0x04, F
002e76   c002     movff	0x2, 0xff6         	MOVFF	r0x02, TBLPTRL
002e78   fff6
002e7a   c003     movff	0x3, 0xff7         	MOVFF	r0x03, TBLPTRH
002e7c   fff7
002e7e   c004     movff	0x4, 0xff8         	MOVFF	r0x04, TBLPTRU
002e80   fff8
002e82   0009     tblrd	*+                 	TBLRD*+	
002e84   cff5     movff	0xff5, 0x2         	MOVFF	TABLAT, r0x02
002e86   f002
002e88   5082     movf	0x82, 0, 0          	MOVF	_PORTC, W
002e8a   1602     andwf	0x2, 0x1, 0        	ANDWF	r0x02, F
002e8c   5002     movf	0x2, 0, 0           	MOVF	r0x02, W
002e8e   e003     bz	0x2e96                	BZ	_00164_DS_
002e90   6af3     clrf	0xf3, 0             	CLRF	PRODL
002e92   0e01     movlw	0x1                	MOVLW	0x01
002e94   d021     bra	0x2ed8               	BRA	_00171_DS_
                                           _00164_DS_:
                                           ;	.line	52; /home/mandon/pinguino32X2/trunk/x.2/p8/share/sdcc/include/pic16/digitalw.c	else return (0);
002e96   6af3     clrf	0xf3, 0             	CLRF	PRODL
002e98   6ae8     clrf	0xe8, 0             	CLRF	WREG
002e9a   d01e     bra	0x2ed8               	BRA	_00171_DS_
                                           _00166_DS_:
                                           ;	.line	54; /home/mandon/pinguino32X2/trunk/x.2/p8/share/sdcc/include/pic16/digitalw.c	case 2: if ((PORTA & mask[input])!=0) return (1);
002e9c   6a02     clrf	0x2, 0              	CLRF	r0x02
002e9e   be01     btfsc	0x1, 0x7, 0        	BTFSC	r0x01, 7
002ea0   6802     setf	0x2, 0              	SETF	r0x02
002ea2   0e96     movlw	0x96               	MOVLW	LOW(_mask)
002ea4   2600     addwf	0, 0x1, 0          	ADDWF	r0x00, F
002ea6   0e23     movlw	0x23               	MOVLW	HIGH(_mask)
002ea8   2201     addwfc	0x1, 0x1, 0       	ADDWFC	r0x01, F
002eaa   0e00     movlw	0                  	MOVLW	UPPER(_mask)
002eac   2202     addwfc	0x2, 0x1, 0       	ADDWFC	r0x02, F
002eae   c000     movff	0, 0xff6           	MOVFF	r0x00, TBLPTRL
002eb0   fff6
002eb2   c001     movff	0x1, 0xff7         	MOVFF	r0x01, TBLPTRH
002eb4   fff7
002eb6   c002     movff	0x2, 0xff8         	MOVFF	r0x02, TBLPTRU
002eb8   fff8
002eba   0009     tblrd	*+                 	TBLRD*+	
002ebc   cff5     movff	0xff5, 0           	MOVFF	TABLAT, r0x00
002ebe   f000
002ec0   5080     movf	0x80, 0, 0          	MOVF	_PORTA, W
002ec2   1600     andwf	0, 0x1, 0          	ANDWF	r0x00, F
002ec4   5000     movf	0, 0, 0             	MOVF	r0x00, W
002ec6   e003     bz	0x2ece                	BZ	_00168_DS_
002ec8   6af3     clrf	0xf3, 0             	CLRF	PRODL
002eca   0e01     movlw	0x1                	MOVLW	0x01
002ecc   d005     bra	0x2ed8               	BRA	_00171_DS_
                                           _00168_DS_:
                                           ;	.line	55; /home/mandon/pinguino32X2/trunk/x.2/p8/share/sdcc/include/pic16/digitalw.c	else return (0);
002ece   6af3     clrf	0xf3, 0             	CLRF	PRODL
002ed0   6ae8     clrf	0xe8, 0             	CLRF	WREG
002ed2   d002     bra	0x2ed8               	BRA	_00171_DS_
                                           _00170_DS_:
                                           ;	.line	66; /home/mandon/pinguino32X2/trunk/x.2/p8/share/sdcc/include/pic16/digitalw.c	return (0);
002ed4   6af3     clrf	0xf3, 0             	CLRF	PRODL
002ed6   6ae8     clrf	0xe8, 0             	CLRF	WREG
                                           _00171_DS_:
002ed8   cfe4     movff	0xfe4, 0x4         	MOVFF	PREINC1, r0x04
002eda   f004
002edc   cfe4     movff	0xfe4, 0x3         	MOVFF	PREINC1, r0x03
002ede   f003
002ee0   cfe4     movff	0xfe4, 0x2         	MOVFF	PREINC1, r0x02
002ee2   f002
002ee4   cfe4     movff	0xfe4, 0x1         	MOVFF	PREINC1, r0x01
002ee6   f001
002ee8   cfe4     movff	0xfe4, 0           	MOVFF	PREINC1, r0x00
002eea   f000
002eec   cfe4     movff	0xfe4, 0xfd9       	MOVFF	PREINC1, FSR2L
002eee   ffd9
002ef0   0012     return	0                 	RETURN	
                                           
                                           ; ; Starting pCode block
                                           S_main__digitalwrite	code
                                           _digitalwrite:
                                           ;	.line	20; /home/mandon/pinguino32X2/trunk/x.2/p8/share/sdcc/include/pic16/digitalw.c	void digitalwrite(int output,int state)
0029a4   cfd9     movff	0xfd9, 0xfe5       	MOVFF	FSR2L, POSTDEC1
0029a6   ffe5
0029a8   cfe1     movff	0xfe1, 0xfd9       	MOVFF	FSR1L, FSR2L
0029aa   ffd9
0029ac   c000     movff	0, 0xfe5           	MOVFF	r0x00, POSTDEC1
0029ae   ffe5
0029b0   c001     movff	0x1, 0xfe5         	MOVFF	r0x01, POSTDEC1
0029b2   ffe5
0029b4   c002     movff	0x2, 0xfe5         	MOVFF	r0x02, POSTDEC1
0029b6   ffe5
0029b8   c003     movff	0x3, 0xfe5         	MOVFF	r0x03, POSTDEC1
0029ba   ffe5
0029bc   c004     movff	0x4, 0xfe5         	MOVFF	r0x04, POSTDEC1
0029be   ffe5
0029c0   c005     movff	0x5, 0xfe5         	MOVFF	r0x05, POSTDEC1
0029c2   ffe5
0029c4   c006     movff	0x6, 0xfe5         	MOVFF	r0x06, POSTDEC1
0029c6   ffe5
0029c8   0e02     movlw	0x2                	MOVLW	0x02
0029ca   cfdb     movff	0xfdb, 0           	MOVFF	PLUSW2, r0x00
0029cc   f000
0029ce   0e03     movlw	0x3                	MOVLW	0x03
0029d0   cfdb     movff	0xfdb, 0x1         	MOVFF	PLUSW2, r0x01
0029d2   f001
0029d4   0e04     movlw	0x4                	MOVLW	0x04
0029d6   cfdb     movff	0xfdb, 0x2         	MOVFF	PLUSW2, r0x02
0029d8   f002
0029da   0e05     movlw	0x5                	MOVLW	0x05
0029dc   cfdb     movff	0xfdb, 0x3         	MOVFF	PLUSW2, r0x03
0029de   f003
                                           ;	.line	22; /home/mandon/pinguino32X2/trunk/x.2/p8/share/sdcc/include/pic16/digitalw.c	switch (port[output])
0029e0   0ea8     movlw	0xa8               	MOVLW	LOW(_port)
0029e2   2400     addwf	0, 0, 0            	ADDWF	r0x00, W
0029e4   6e04     movwf	0x4, 0             	MOVWF	r0x04
0029e6   0e23     movlw	0x23               	MOVLW	HIGH(_port)
0029e8   2001     addwfc	0x1, 0, 0         	ADDWFC	r0x01, W
0029ea   6e05     movwf	0x5, 0             	MOVWF	r0x05
0029ec   6a06     clrf	0x6, 0              	CLRF	r0x06
0029ee   be01     btfsc	0x1, 0x7, 0        	BTFSC	r0x01, 7
0029f0   6806     setf	0x6, 0              	SETF	r0x06
0029f2   0e00     movlw	0                  	MOVLW	UPPER(_port)
0029f4   2206     addwfc	0x6, 0x1, 0       	ADDWFC	r0x06, F
0029f6   c004     movff	0x4, 0xff6         	MOVFF	r0x04, TBLPTRL
0029f8   fff6
0029fa   c005     movff	0x5, 0xff7         	MOVFF	r0x05, TBLPTRH
0029fc   fff7
0029fe   c006     movff	0x6, 0xff8         	MOVFF	r0x06, TBLPTRU
002a00   fff8
002a02   0009     tblrd	*+                 	TBLRD*+	
002a04   cff5     movff	0xff5, 0x4         	MOVFF	TABLAT, r0x04
002a06   f004
002a08   0e03     movlw	0x3                	MOVLW	0x03
002a0a   5c04     subwf	0x4, 0, 0          	SUBWF	r0x04, W
002a0c   b0d8     btfsc	0xd8, 0, 0         	BTFSC	STATUS, 0
002a0e   d0b4     bra	0x2b78               	BRA	_00146_DS_
002a10   c007     movff	0x7, 0xfe5         	MOVFF	r0x07, POSTDEC1
002a12   ffe5
002a14   c008     movff	0x8, 0xfe5         	MOVFF	r0x08, POSTDEC1
002a16   ffe5
002a18   6a08     clrf	0x8, 0              	CLRF	r0x08
002a1a   3404     rlcf	0x4, 0, 0           	RLCF	r0x04, W
002a1c   3608     rlcf	0x8, 0x1, 0         	RLCF	r0x08, F
002a1e   34e8     rlcf	0xe8, 0, 0          	RLCF	WREG, W
002a20   3608     rlcf	0x8, 0x1, 0         	RLCF	r0x08, F
002a22   0bfc     andlw	0xfc               	ANDLW	0xfc
002a24   6e07     movwf	0x7, 0             	MOVWF	r0x07
002a26   0e00     movlw	0                  	MOVLW	UPPER(_00153_DS_)
002a28   6efb     movwf	0xfb, 0            	MOVWF	PCLATU
002a2a   0e2a     movlw	0x2a               	MOVLW	HIGH(_00153_DS_)
002a2c   6efa     movwf	0xfa, 0            	MOVWF	PCLATH
002a2e   0e46     movlw	0x46               	MOVLW	LOW(_00153_DS_)
002a30   2607     addwf	0x7, 0x1, 0        	ADDWF	r0x07, F
002a32   5008     movf	0x8, 0, 0           	MOVF	r0x08, W
002a34   22fa     addwfc	0xfa, 0x1, 0      	ADDWFC	PCLATH, F
002a36   b0d8     btfsc	0xd8, 0, 0         	BTFSC	STATUS, 0
002a38   2afb     incf	0xfb, 0x1, 0        	INCF	PCLATU, F
002a3a   5007     movf	0x7, 0, 0           	MOVF	r0x07, W
002a3c   cfe4     movff	0xfe4, 0x8         	MOVFF	PREINC1, r0x08
002a3e   f008
002a40   cfe4     movff	0xfe4, 0x7         	MOVFF	PREINC1, r0x07
002a42   f007
002a44   6ef9     movwf	0xf9, 0            	MOVWF	PCL
                                           _00153_DS_:
002a46   ef29     goto	0x2a52              	GOTO	_00133_DS_
002a48   f015
002a4a   ef5b     goto	0x2ab6              	GOTO	_00137_DS_
002a4c   f015
002a4e   ef8d     goto	0x2b1a              	GOTO	_00141_DS_
002a50   f015
                                           _00133_DS_:
                                           ;	.line	24; /home/mandon/pinguino32X2/trunk/x.2/p8/share/sdcc/include/pic16/digitalw.c	case 0: if (state) PORTB=PORTB | mask[output]; 
002a52   5002     movf	0x2, 0, 0           	MOVF	r0x02, W
002a54   1003     iorwf	0x3, 0, 0          	IORWF	r0x03, W
002a56   e017     bz	0x2a86                	BZ	_00135_DS_
002a58   0e96     movlw	0x96               	MOVLW	LOW(_mask)
002a5a   2400     addwf	0, 0, 0            	ADDWF	r0x00, W
002a5c   6e04     movwf	0x4, 0             	MOVWF	r0x04
002a5e   0e23     movlw	0x23               	MOVLW	HIGH(_mask)
002a60   2001     addwfc	0x1, 0, 0         	ADDWFC	r0x01, W
002a62   6e05     movwf	0x5, 0             	MOVWF	r0x05
002a64   6a06     clrf	0x6, 0              	CLRF	r0x06
002a66   be01     btfsc	0x1, 0x7, 0        	BTFSC	r0x01, 7
002a68   6806     setf	0x6, 0              	SETF	r0x06
002a6a   0e00     movlw	0                  	MOVLW	UPPER(_mask)
002a6c   2206     addwfc	0x6, 0x1, 0       	ADDWFC	r0x06, F
002a6e   c004     movff	0x4, 0xff6         	MOVFF	r0x04, TBLPTRL
002a70   fff6
002a72   c005     movff	0x5, 0xff7         	MOVFF	r0x05, TBLPTRH
002a74   fff7
002a76   c006     movff	0x6, 0xff8         	MOVFF	r0x06, TBLPTRU
002a78   fff8
002a7a   0009     tblrd	*+                 	TBLRD*+	
002a7c   cff5     movff	0xff5, 0x4         	MOVFF	TABLAT, r0x04
002a7e   f004
002a80   5004     movf	0x4, 0, 0           	MOVF	r0x04, W
002a82   1281     iorwf	0x81, 0x1, 0       	IORWF	_PORTB, F
002a84   d079     bra	0x2b78               	BRA	_00146_DS_
                                           _00135_DS_:
                                           ;	.line	25; /home/mandon/pinguino32X2/trunk/x.2/p8/share/sdcc/include/pic16/digitalw.c	else PORTB=PORTB & (255-mask[output]);
002a86   0e96     movlw	0x96               	MOVLW	LOW(_mask)
002a88   2400     addwf	0, 0, 0            	ADDWF	r0x00, W
002a8a   6e04     movwf	0x4, 0             	MOVWF	r0x04
002a8c   0e23     movlw	0x23               	MOVLW	HIGH(_mask)
002a8e   2001     addwfc	0x1, 0, 0         	ADDWFC	r0x01, W
002a90   6e05     movwf	0x5, 0             	MOVWF	r0x05
002a92   6a06     clrf	0x6, 0              	CLRF	r0x06
002a94   be01     btfsc	0x1, 0x7, 0        	BTFSC	r0x01, 7
002a96   6806     setf	0x6, 0              	SETF	r0x06
002a98   0e00     movlw	0                  	MOVLW	UPPER(_mask)
002a9a   2206     addwfc	0x6, 0x1, 0       	ADDWFC	r0x06, F
002a9c   c004     movff	0x4, 0xff6         	MOVFF	r0x04, TBLPTRL
002a9e   fff6
002aa0   c005     movff	0x5, 0xff7         	MOVFF	r0x05, TBLPTRH
002aa2   fff7
002aa4   c006     movff	0x6, 0xff8         	MOVFF	r0x06, TBLPTRU
002aa6   fff8
002aa8   0009     tblrd	*+                 	TBLRD*+	
002aaa   cff5     movff	0xff5, 0x4         	MOVFF	TABLAT, r0x04
002aac   f004
002aae   5004     movf	0x4, 0, 0           	MOVF	r0x04, W
002ab0   08ff     sublw	0xff               	SUBLW	0xff
                                           ; #	MOVWF	r0x04
                                           ; #	MOVF	r0x04, W
002ab2   1681     andwf	0x81, 0x1, 0       	ANDWF	_PORTB, F
                                           ;	.line	26; /home/mandon/pinguino32X2/trunk/x.2/p8/share/sdcc/include/pic16/digitalw.c	break;
002ab4   d061     bra	0x2b78               	BRA	_00146_DS_
                                           _00137_DS_:
                                           ;	.line	27; /home/mandon/pinguino32X2/trunk/x.2/p8/share/sdcc/include/pic16/digitalw.c	case 1: if (state) PORTC=PORTC | mask[output];
002ab6   5002     movf	0x2, 0, 0           	MOVF	r0x02, W
002ab8   1003     iorwf	0x3, 0, 0          	IORWF	r0x03, W
002aba   e017     bz	0x2aea                	BZ	_00139_DS_
002abc   0e96     movlw	0x96               	MOVLW	LOW(_mask)
002abe   2400     addwf	0, 0, 0            	ADDWF	r0x00, W
002ac0   6e04     movwf	0x4, 0             	MOVWF	r0x04
002ac2   0e23     movlw	0x23               	MOVLW	HIGH(_mask)
002ac4   2001     addwfc	0x1, 0, 0         	ADDWFC	r0x01, W
002ac6   6e05     movwf	0x5, 0             	MOVWF	r0x05
002ac8   6a06     clrf	0x6, 0              	CLRF	r0x06
002aca   be01     btfsc	0x1, 0x7, 0        	BTFSC	r0x01, 7
002acc   6806     setf	0x6, 0              	SETF	r0x06
002ace   0e00     movlw	0                  	MOVLW	UPPER(_mask)
002ad0   2206     addwfc	0x6, 0x1, 0       	ADDWFC	r0x06, F
002ad2   c004     movff	0x4, 0xff6         	MOVFF	r0x04, TBLPTRL
002ad4   fff6
002ad6   c005     movff	0x5, 0xff7         	MOVFF	r0x05, TBLPTRH
002ad8   fff7
002ada   c006     movff	0x6, 0xff8         	MOVFF	r0x06, TBLPTRU
002adc   fff8
002ade   0009     tblrd	*+                 	TBLRD*+	
002ae0   cff5     movff	0xff5, 0x4         	MOVFF	TABLAT, r0x04
002ae2   f004
002ae4   5004     movf	0x4, 0, 0           	MOVF	r0x04, W
002ae6   1282     iorwf	0x82, 0x1, 0       	IORWF	_PORTC, F
002ae8   d047     bra	0x2b78               	BRA	_00146_DS_
                                           _00139_DS_:
                                           ;	.line	28; /home/mandon/pinguino32X2/trunk/x.2/p8/share/sdcc/include/pic16/digitalw.c	else PORTC=PORTC & (255-mask[output]);
002aea   0e96     movlw	0x96               	MOVLW	LOW(_mask)
002aec   2400     addwf	0, 0, 0            	ADDWF	r0x00, W
002aee   6e04     movwf	0x4, 0             	MOVWF	r0x04
002af0   0e23     movlw	0x23               	MOVLW	HIGH(_mask)
002af2   2001     addwfc	0x1, 0, 0         	ADDWFC	r0x01, W
002af4   6e05     movwf	0x5, 0             	MOVWF	r0x05
002af6   6a06     clrf	0x6, 0              	CLRF	r0x06
002af8   be01     btfsc	0x1, 0x7, 0        	BTFSC	r0x01, 7
002afa   6806     setf	0x6, 0              	SETF	r0x06
002afc   0e00     movlw	0                  	MOVLW	UPPER(_mask)
002afe   2206     addwfc	0x6, 0x1, 0       	ADDWFC	r0x06, F
002b00   c004     movff	0x4, 0xff6         	MOVFF	r0x04, TBLPTRL
002b02   fff6
002b04   c005     movff	0x5, 0xff7         	MOVFF	r0x05, TBLPTRH
002b06   fff7
002b08   c006     movff	0x6, 0xff8         	MOVFF	r0x06, TBLPTRU
002b0a   fff8
002b0c   0009     tblrd	*+                 	TBLRD*+	
002b0e   cff5     movff	0xff5, 0x4         	MOVFF	TABLAT, r0x04
002b10   f004
002b12   5004     movf	0x4, 0, 0           	MOVF	r0x04, W
002b14   08ff     sublw	0xff               	SUBLW	0xff
                                           ; #	MOVWF	r0x04
                                           ; #	MOVF	r0x04, W
002b16   1682     andwf	0x82, 0x1, 0       	ANDWF	_PORTC, F
                                           ;	.line	29; /home/mandon/pinguino32X2/trunk/x.2/p8/share/sdcc/include/pic16/digitalw.c	break;
002b18   d02f     bra	0x2b78               	BRA	_00146_DS_
                                           _00141_DS_:
                                           ;	.line	30; /home/mandon/pinguino32X2/trunk/x.2/p8/share/sdcc/include/pic16/digitalw.c	case 2: if (state) PORTA=PORTA | mask[output];
002b1a   5002     movf	0x2, 0, 0           	MOVF	r0x02, W
002b1c   1003     iorwf	0x3, 0, 0          	IORWF	r0x03, W
002b1e   e017     bz	0x2b4e                	BZ	_00143_DS_
002b20   0e96     movlw	0x96               	MOVLW	LOW(_mask)
002b22   2400     addwf	0, 0, 0            	ADDWF	r0x00, W
002b24   6e02     movwf	0x2, 0             	MOVWF	r0x02
002b26   0e23     movlw	0x23               	MOVLW	HIGH(_mask)
002b28   2001     addwfc	0x1, 0, 0         	ADDWFC	r0x01, W
002b2a   6e03     movwf	0x3, 0             	MOVWF	r0x03
002b2c   6a04     clrf	0x4, 0              	CLRF	r0x04
002b2e   be01     btfsc	0x1, 0x7, 0        	BTFSC	r0x01, 7
002b30   6804     setf	0x4, 0              	SETF	r0x04
002b32   0e00     movlw	0                  	MOVLW	UPPER(_mask)
002b34   2204     addwfc	0x4, 0x1, 0       	ADDWFC	r0x04, F
002b36   c002     movff	0x2, 0xff6         	MOVFF	r0x02, TBLPTRL
002b38   fff6
002b3a   c003     movff	0x3, 0xff7         	MOVFF	r0x03, TBLPTRH
002b3c   fff7
002b3e   c004     movff	0x4, 0xff8         	MOVFF	r0x04, TBLPTRU
002b40   fff8
002b42   0009     tblrd	*+                 	TBLRD*+	
002b44   cff5     movff	0xff5, 0x2         	MOVFF	TABLAT, r0x02
002b46   f002
002b48   5002     movf	0x2, 0, 0           	MOVF	r0x02, W
002b4a   1280     iorwf	0x80, 0x1, 0       	IORWF	_PORTA, F
002b4c   d015     bra	0x2b78               	BRA	_00146_DS_
                                           _00143_DS_:
                                           ;	.line	31; /home/mandon/pinguino32X2/trunk/x.2/p8/share/sdcc/include/pic16/digitalw.c	else PORTA=PORTA & (255-mask[output]);
002b4e   6a02     clrf	0x2, 0              	CLRF	r0x02
002b50   be01     btfsc	0x1, 0x7, 0        	BTFSC	r0x01, 7
002b52   6802     setf	0x2, 0              	SETF	r0x02
002b54   0e96     movlw	0x96               	MOVLW	LOW(_mask)
002b56   2600     addwf	0, 0x1, 0          	ADDWF	r0x00, F
002b58   0e23     movlw	0x23               	MOVLW	HIGH(_mask)
002b5a   2201     addwfc	0x1, 0x1, 0       	ADDWFC	r0x01, F
002b5c   0e00     movlw	0                  	MOVLW	UPPER(_mask)
002b5e   2202     addwfc	0x2, 0x1, 0       	ADDWFC	r0x02, F
002b60   c000     movff	0, 0xff6           	MOVFF	r0x00, TBLPTRL
002b62   fff6
002b64   c001     movff	0x1, 0xff7         	MOVFF	r0x01, TBLPTRH
002b66   fff7
002b68   c002     movff	0x2, 0xff8         	MOVFF	r0x02, TBLPTRU
002b6a   fff8
002b6c   0009     tblrd	*+                 	TBLRD*+	
002b6e   cff5     movff	0xff5, 0           	MOVFF	TABLAT, r0x00
002b70   f000
002b72   5000     movf	0, 0, 0             	MOVF	r0x00, W
002b74   08ff     sublw	0xff               	SUBLW	0xff
                                           ; #	MOVWF	r0x00
                                           ; #	MOVF	r0x00, W
002b76   1680     andwf	0x80, 0x1, 0       	ANDWF	_PORTA, F
                                           _00146_DS_:
                                           ;	.line	41; /home/mandon/pinguino32X2/trunk/x.2/p8/share/sdcc/include/pic16/digitalw.c	}
002b78   cfe4     movff	0xfe4, 0x6         	MOVFF	PREINC1, r0x06
002b7a   f006
002b7c   cfe4     movff	0xfe4, 0x5         	MOVFF	PREINC1, r0x05
002b7e   f005
002b80   cfe4     movff	0xfe4, 0x4         	MOVFF	PREINC1, r0x04
002b82   f004
002b84   cfe4     movff	0xfe4, 0x3         	MOVFF	PREINC1, r0x03
002b86   f003
002b88   cfe4     movff	0xfe4, 0x2         	MOVFF	PREINC1, r0x02
002b8a   f002
002b8c   cfe4     movff	0xfe4, 0x1         	MOVFF	PREINC1, r0x01
002b8e   f001
002b90   cfe4     movff	0xfe4, 0           	MOVFF	PREINC1, r0x00
002b92   f000
002b94   cfe4     movff	0xfe4, 0xfd9       	MOVFF	PREINC1, FSR2L
002b96   ffd9
002b98   0012     return	0                 	RETURN	
                                           
                                           ; ; Starting pCode block
                                           S_main__Delayus	code
                                           _Delayus:
                                           ;	.line	16; /home/mandon/pinguino32X2/trunk/x.2/p8/share/sdcc/include/pic16/delay.c	void Delayus(int microsecondes)
003870   cfd9     movff	0xfd9, 0xfe5       	MOVFF	FSR2L, POSTDEC1
003872   ffe5
003874   cfe1     movff	0xfe1, 0xfd9       	MOVFF	FSR1L, FSR2L
003876   ffd9
003878   c000     movff	0, 0xfe5           	MOVFF	r0x00, POSTDEC1
00387a   ffe5
00387c   c001     movff	0x1, 0xfe5         	MOVFF	r0x01, POSTDEC1
00387e   ffe5
003880   c002     movff	0x2, 0xfe5         	MOVFF	r0x02, POSTDEC1
003882   ffe5
003884   c003     movff	0x3, 0xfe5         	MOVFF	r0x03, POSTDEC1
003886   ffe5
003888   0e02     movlw	0x2                	MOVLW	0x02
00388a   cfdb     movff	0xfdb, 0           	MOVFF	PLUSW2, r0x00
00388c   f000
00388e   0e03     movlw	0x3                	MOVLW	0x03
003890   cfdb     movff	0xfdb, 0x1         	MOVFF	PLUSW2, r0x01
003892   f001
                                           ;	.line	20; /home/mandon/pinguino32X2/trunk/x.2/p8/share/sdcc/include/pic16/delay.c	for (i=0;i<microsecondes;i++);
003894   6a02     clrf	0x2, 0              	CLRF	r0x02
003896   6a03     clrf	0x3, 0              	CLRF	r0x03
                                           _00119_DS_:
003898   5001     movf	0x1, 0, 0           	MOVF	r0x01, W
00389a   5c03     subwf	0x3, 0, 0          	SUBWF	r0x03, W
00389c   e102     bnz	0x38a2               	BNZ	_00128_DS_
00389e   5000     movf	0, 0, 0             	MOVF	r0x00, W
0038a0   5c02     subwf	0x2, 0, 0          	SUBWF	r0x02, W
                                           _00128_DS_:
0038a2   e204     bc	0x38ac                	BC	_00123_DS_
0038a4   2a02     incf	0x2, 0x1, 0         	INCF	r0x02, F
0038a6   b0d8     btfsc	0xd8, 0, 0         	BTFSC	STATUS, 0
0038a8   2a03     incf	0x3, 0x1, 0         	INCF	r0x03, F
0038aa   d7f6     bra	0x3898               	BRA	_00119_DS_
                                           _00123_DS_:
0038ac   cfe4     movff	0xfe4, 0x3         	MOVFF	PREINC1, r0x03
0038ae   f003
0038b0   cfe4     movff	0xfe4, 0x2         	MOVFF	PREINC1, r0x02
0038b2   f002
0038b4   cfe4     movff	0xfe4, 0x1         	MOVFF	PREINC1, r0x01
0038b6   f001
0038b8   cfe4     movff	0xfe4, 0           	MOVFF	PREINC1, r0x00
0038ba   f000
0038bc   cfe4     movff	0xfe4, 0xfd9       	MOVFF	PREINC1, FSR2L
0038be   ffd9
0038c0   0012     return	0                 	RETURN	
                                           
                                           ; ; Starting pCode block
                                           S_main__Delayms	code
                                           _Delayms:
                                           ;	.line	9; /home/mandon/pinguino32X2/trunk/x.2/p8/share/sdcc/include/pic16/delay.c	void Delayms(unsigned long milliseconde)
00338a   cfd9     movff	0xfd9, 0xfe5       	MOVFF	FSR2L, POSTDEC1
00338c   ffe5
00338e   cfe1     movff	0xfe1, 0xfd9       	MOVFF	FSR1L, FSR2L
003390   ffd9
003392   c000     movff	0, 0xfe5           	MOVFF	r0x00, POSTDEC1
003394   ffe5
003396   c001     movff	0x1, 0xfe5         	MOVFF	r0x01, POSTDEC1
003398   ffe5
00339a   c002     movff	0x2, 0xfe5         	MOVFF	r0x02, POSTDEC1
00339c   ffe5
00339e   c003     movff	0x3, 0xfe5         	MOVFF	r0x03, POSTDEC1
0033a0   ffe5
0033a2   c004     movff	0x4, 0xfe5         	MOVFF	r0x04, POSTDEC1
0033a4   ffe5
0033a6   c005     movff	0x5, 0xfe5         	MOVFF	r0x05, POSTDEC1
0033a8   ffe5
0033aa   c006     movff	0x6, 0xfe5         	MOVFF	r0x06, POSTDEC1
0033ac   ffe5
0033ae   c007     movff	0x7, 0xfe5         	MOVFF	r0x07, POSTDEC1
0033b0   ffe5
0033b2   0e02     movlw	0x2                	MOVLW	0x02
0033b4   cfdb     movff	0xfdb, 0           	MOVFF	PLUSW2, r0x00
0033b6   f000
0033b8   0e03     movlw	0x3                	MOVLW	0x03
0033ba   cfdb     movff	0xfdb, 0x1         	MOVFF	PLUSW2, r0x01
0033bc   f001
0033be   0e04     movlw	0x4                	MOVLW	0x04
0033c0   cfdb     movff	0xfdb, 0x2         	MOVFF	PLUSW2, r0x02
0033c2   f002
0033c4   0e05     movlw	0x5                	MOVLW	0x05
0033c6   cfdb     movff	0xfdb, 0x3         	MOVFF	PLUSW2, r0x03
0033c8   f003
                                           ;	.line	13; /home/mandon/pinguino32X2/trunk/x.2/p8/share/sdcc/include/pic16/delay.c	for (i=0;i<milliseconde;i++) delay10ktcy(1);
0033ca   6a04     clrf	0x4, 0              	CLRF	r0x04
0033cc   6a05     clrf	0x5, 0              	CLRF	r0x05
0033ce   6a06     clrf	0x6, 0              	CLRF	r0x06
0033d0   6a07     clrf	0x7, 0              	CLRF	r0x07
                                           _00105_DS_:
0033d2   5003     movf	0x3, 0, 0           	MOVF	r0x03, W
0033d4   5c07     subwf	0x7, 0, 0          	SUBWF	r0x07, W
0033d6   e108     bnz	0x33e8               	BNZ	_00114_DS_
0033d8   5002     movf	0x2, 0, 0           	MOVF	r0x02, W
0033da   5c06     subwf	0x6, 0, 0          	SUBWF	r0x06, W
0033dc   e105     bnz	0x33e8               	BNZ	_00114_DS_
0033de   5001     movf	0x1, 0, 0           	MOVF	r0x01, W
0033e0   5c05     subwf	0x5, 0, 0          	SUBWF	r0x05, W
0033e2   e102     bnz	0x33e8               	BNZ	_00114_DS_
0033e4   5000     movf	0, 0, 0             	MOVF	r0x00, W
0033e6   5c04     subwf	0x4, 0, 0          	SUBWF	r0x04, W
                                           _00114_DS_:
0033e8   e20b     bc	0x3400                	BC	_00109_DS_
0033ea   0e01     movlw	0x1                	MOVLW	0x01
0033ec   ec37     call	0x6e, 0             	CALL	_delay10ktcy
0033ee   f000
0033f0   2a04     incf	0x4, 0x1, 0         	INCF	r0x04, F
0033f2   b0d8     btfsc	0xd8, 0, 0         	BTFSC	STATUS, 0
0033f4   2a05     incf	0x5, 0x1, 0         	INCF	r0x05, F
0033f6   b0d8     btfsc	0xd8, 0, 0         	BTFSC	STATUS, 0
0033f8   2a06     incf	0x6, 0x1, 0         	INCF	r0x06, F
0033fa   b0d8     btfsc	0xd8, 0, 0         	BTFSC	STATUS, 0
0033fc   2a07     incf	0x7, 0x1, 0         	INCF	r0x07, F
0033fe   d7e9     bra	0x33d2               	BRA	_00105_DS_
                                           _00109_DS_:
003400   cfe4     movff	0xfe4, 0x7         	MOVFF	PREINC1, r0x07
003402   f007
003404   cfe4     movff	0xfe4, 0x6         	MOVFF	PREINC1, r0x06
003406   f006
003408   cfe4     movff	0xfe4, 0x5         	MOVFF	PREINC1, r0x05
00340a   f005
00340c   cfe4     movff	0xfe4, 0x4         	MOVFF	PREINC1, r0x04
00340e   f004
003410   cfe4     movff	0xfe4, 0x3         	MOVFF	PREINC1, r0x03
003412   f003
003414   cfe4     movff	0xfe4, 0x2         	MOVFF	PREINC1, r0x02
003416   f002
003418   cfe4     movff	0xfe4, 0x1         	MOVFF	PREINC1, r0x01
00341a   f001
00341c   cfe4     movff	0xfe4, 0           	MOVFF	PREINC1, r0x00
00341e   f000
003420   cfe4     movff	0xfe4, 0xfd9       	MOVFF	PREINC1, FSR2L
003422   ffd9
003424   0012     return	0                 	RETURN	
                                           
                                           ; ; Starting pCode block for Ival
                                           	code
                                           _mask:
002396   0201     mulwf	0x1, 0             	DB	0x01, 0x02, 0x04, 0x08, 0x10, 0x20, 0x40, 0x80, 0x40, 0x80, 0x01, 0x02
002398   0804     sublw	0x4                
00239a   2010     addwfc	0x10, 0, 0        
00239c   8040     bsf	0x40, 0, 0           
00239e   8040     bsf	0x40, 0, 0           
0023a0   0201     mulwf	0x1, 0             
0023a2   0104     movlb	0x4                	DB	0x04, 0x01, 0x02, 0x04, 0x08, 0x20
0023a4   0402     decf	0x2, 0, 0           
0023a6   2008     addwfc	0x8, 0, 0         
                                           ; ; Starting pCode block for Ival
                                           _port:
0023a8   0000     nop                      	DB	0x00, 0x00, 0x00, 0x00, 0x00, 0x00, 0x00, 0x00, 0x01, 0x01, 0x01, 0x01
0023aa   0000     nop                      
0023ac   0000     nop                      
0023ae   0000     nop                      
0023b0   0101     movlb	0x1                
0023b2   0101     movlb	0x1                
0023b4   0201     mulwf	0x1, 0             	DB	0x01, 0x02, 0x02, 0x02, 0x02, 0x02
0023b6   0202     mulwf	0x2, 0             
0023b8   0202     mulwf	0x2, 0             
                                           ; ; Starting pCode block for Ival
                                           _dscrc_table:
0023ba   5e00     subwf	0, 0x1, 0          	DB	0x00, 0x5e, 0xbc, 0xe2, 0x61, 0x3f, 0xdd, 0x83, 0xc2, 0x9c, 0x7e, 0x20
0023bc   e2bc     bc	0x2336                
0023be   3f61     incfsz	0x61, 0x1, 0x1    
0023c0   83dd     bsf	0xdd, 0x1, 0x1       
0023c2   9cc2     bcf	0xc2, 0x6, 0         
0023c4   207e     addwfc	0x7e, 0, 0        
0023c6   fda3     dw	0xfda3  ;unknown opcode 	DB	0xa3, 0xfd, 0x1f, 0x41, 0x9d, 0xc3, 0x21, 0x7f, 0xfc, 0xa2, 0x40, 0x1e
0023c8   411f     rrncf	0x1f, 0, 0x1       
0023ca   c39d     movff	0x39d, 0xf21       
0023cc   7f21
0023ce   a2fc     btfss	0xfc, 0x1, 0       
0023d0   1e40     comf	0x40, 0x1, 0        
0023d2   015f     movlb	0x5f               	DB	0x5f, 0x01, 0xe3, 0xbd, 0x3e, 0x60, 0x82, 0xdc, 0x23, 0x7d, 0x9f, 0xc1
0023d4   bde3     btfsc	0xe3, 0x6, 0x1     
0023d6   603e     cpfslt	0x3e, 0           
0023d8   dc82     rcall	0x1cde             
0023da   7d23     btg	0x23, 0x6, 0x1       
0023dc   c19f     movff	0x19f, 0xc42       
0023de   1c42
0023de   1c42     comf	0x42, 0, 0          	DB	0x42, 0x1c, 0xfe, 0xa0, 0xe1, 0xbf, 0x5d, 0x03, 0x80, 0xde, 0x3c, 0x62
0023e0   a0fe     btfss	0xfe, 0, 0         
0023e2   bfe1     btfsc	0xe1, 0x7, 0x1     
0023e4   035d     mulwf	0x5d, 0x1          
0023e6   de80     rcall	0x20e8             
0023e8   623c     cpfseq	0x3c, 0           
0023ea   e0be     bz	0x2368                	DB	0xbe, 0xe0, 0x02, 0x5c, 0xdf, 0x81, 0x63, 0x3d, 0x7c, 0x22, 0xc0, 0x9e
0023ec   5c02     subwf	0x2, 0, 0          
0023ee   81df     bsf	0xdf, 0, 0x1         
0023f0   3d63     incfsz	0x63, 0, 0x1      
0023f2   227c     addwfc	0x7c, 0x1, 0      
0023f4   9ec0     bcf	0xc0, 0x7, 0         
0023f6   431d     rrncf	0x1d, 0x1, 0x1     	DB	0x1d, 0x43, 0xa1, 0xff, 0x46, 0x18, 0xfa, 0xa4, 0x27, 0x79, 0x9b, 0xc5
0023f8   ffa1     dw	0xffa1  ;unknown opcode 
0023fa   1846     xorwf	0x46, 0, 0         
0023fc   a4fa     btfss	0xfa, 0x2, 0       
0023fe   7927     btg	0x27, 0x4, 0x1       
002400   c59b     movff	0x59b, 0xa84       
002402   da84
002402   da84     rcall	0x290c             	DB	0x84, 0xda, 0x38, 0x66, 0xe5, 0xbb, 0x59, 0x07, 0xdb, 0x85, 0x67, 0x39
002404   6638     tstfsz	0x38, 0           
002406   bbe5     btfsc	0xe5, 0x5, 0x1     
002408   0759     decf	0x59, 0x1, 0x1      
00240a   85db     bsf	0xdb, 0x2, 0x1       
00240c   3967     swapf	0x67, 0, 0x1       
00240e   e4ba     bov	0x2384               	DB	0xba, 0xe4, 0x06, 0x58, 0x19, 0x47, 0xa5, 0xfb, 0x78, 0x26, 0xc4, 0x9a
002410   5806     subwfb	0x6, 0, 0         
002412   4719     rlncf	0x19, 0x1, 0x1     
002414   fba5     dw	0xfba5  ;unknown opcode 
002416   2678     addwf	0x78, 0x1, 0       
002418   9ac4     bcf	0xc4, 0x5, 0         
00241a   3b65     swapf	0x65, 0x1, 0x1     	DB	0x65, 0x3b, 0xd9, 0x87, 0x04, 0x5a, 0xb8, 0xe6, 0xa7, 0xf9, 0x1b, 0x45
00241c   87d9     bsf	0xd9, 0x3, 0x1       
00241e   5a04     subwfb	0x4, 0x1, 0       
002420   e6b8     bn	0x2392                
002422   f9a7     dw	0xf9a7  ;unknown opcode 
002424   451b     rlncf	0x1b, 0, 0x1       
002426   98c6     bcf	0xc6, 0x4, 0         	DB	0xc6, 0x98, 0x7a, 0x24, 0xf8, 0xa6, 0x44, 0x1a, 0x99, 0xc7, 0x25, 0x7b
002428   247a     addwf	0x7a, 0, 0         
00242a   a6f8     btfss	0xf8, 0x3, 0       
00242c   1a44     xorwf	0x44, 0x1, 0       
00242e   c799     movff	0x799, 0xb25       
002430   7b25
002432   643a     cpfsgt	0x3a, 0           	DB	0x3a, 0x64, 0x86, 0xd8, 0x5b, 0x05, 0xe7, 0xb9, 0x8c, 0xd2, 0x30, 0x6e
002434   d886     rcall	0x2542             
002436   055b     decf	0x5b, 0, 0x1        
002438   b9e7     btfsc	0xe7, 0x4, 0x1     
00243a   d28c     bra	0x2954               
00243c   6e30     movwf	0x30, 0            
00243e   b3ed     btfsc	0xed, 0x1, 0x1     	DB	0xed, 0xb3, 0x51, 0x0f, 0x4e, 0x10, 0xf2, 0xac, 0x2f, 0x71, 0x93, 0xcd
002440   0f51     addlw	0x51               
002442   104e     iorwf	0x4e, 0, 0         
002444   acf2     btfss	0xf2, 0x6, 0       
002446   712f     btg	0x2f, 0, 0x1         
002448   cd93     movff	0xd93, 0xf11       
00244a   4f11
00244a   4f11     dcfsnz	0x11, 0x1, 0x1    	DB	0x11, 0x4f, 0xad, 0xf3, 0x70, 0x2e, 0xcc, 0x92, 0xd3, 0x8d, 0x6f, 0x31
00244c   f3ad     dw	0xf3ad  ;unknown opcode 
00244e   2e70     decfsz	0x70, 0x1, 0      
002450   92cc     bcf	0xcc, 0x1, 0         
002452   8dd3     bsf	0xd3, 0x6, 0x1       
002454   316f     rrcf	0x6f, 0, 0x1        
002456   ecb2     call	0x1d64, 0           	DB	0xb2, 0xec, 0x0e, 0x50, 0xaf, 0xf1, 0x13, 0x4d, 0xce, 0x90, 0x72, 0x2c
002458   500e
00245a   f1af     dw	0xf1af  ;unknown opcode 
00245c   4d13     dcfsnz	0x13, 0, 0x1      
00245e   90ce     bcf	0xce, 0, 0           
002460   2c72     decfsz	0x72, 0, 0        
002462   336d     rrcf	0x6d, 0x1, 0x1      	DB	0x6d, 0x33, 0xd1, 0x8f, 0x0c, 0x52, 0xb0, 0xee, 0x32, 0x6c, 0x8e, 0xd0
002464   8fd1     bsf	0xd1, 0x7, 0x1       
002466   520c     movf	0xc, 0x1, 0         
002468   eeb0     dw	0xeeb0  ;unknown opcode 
00246a   6c32     negf	0x32, 0             
00246c   d08e     bra	0x258a               
00246e   0d53     mullw	0x53               	DB	0x53, 0x0d, 0xef, 0xb1, 0xf0, 0xae, 0x4c, 0x12, 0x91, 0xcf, 0x2d, 0x73
002470   b1ef     btfsc	0xef, 0, 0x1       
002472   aef0     btfss	0xf0, 0x7, 0       
002474   124c     iorwf	0x4c, 0x1, 0       
002476   cf91     movff	0xf91, 0x32d       
002478   732d
00247a   94ca     bcf	0xca, 0x2, 0         	DB	0xca, 0x94, 0x76, 0x28, 0xab, 0xf5, 0x17, 0x49, 0x08, 0x56, 0xb4, 0xea
00247c   2876     incf	0x76, 0, 0          
00247e   f5ab     dw	0xf5ab  ;unknown opcode 
002480   4917     infsnz	0x17, 0, 0x1      
002482   5608     subfwb	0x8, 0x1, 0       
002484   eab4     dw	0xeab4  ;unknown opcode 
002486   3769     rlcf	0x69, 0x1, 0x1      	DB	0x69, 0x37, 0xd5, 0x8b, 0x57, 0x09, 0xeb, 0xb5, 0x36, 0x68, 0x8a, 0xd4
002488   8bd5     bsf	0xd5, 0x5, 0x1       
00248a   0957     iorlw	0x57               
00248c   b5eb     btfsc	0xeb, 0x2, 0x1     
00248e   6836     setf	0x36, 0             
002490   d48a     bra	0x1da6               
002492   cb95     movff	0xb95, 0x729       	DB	0x95, 0xcb, 0x29, 0x77, 0xf4, 0xaa, 0x48, 0x16, 0xe9, 0xb7, 0x55, 0x0b
002494   7729
002496   aaf4     btfss	0xf4, 0x5, 0       
002498   1648     andwf	0x48, 0x1, 0       
00249a   b7e9     btfsc	0xe9, 0x3, 0x1     
00249c   0b55     andlw	0x55               
00249e   d688     bra	0x21b0               	DB	0x88, 0xd6, 0x34, 0x6a, 0x2b, 0x75, 0x97, 0xc9, 0x4a, 0x14, 0xf6, 0xa8
0024a0   6a34     clrf	0x34, 0             
0024a2   752b     btg	0x2b, 0x2, 0x1       
0024a4   c997     movff	0x997, 0x44a       
0024a6   144a
0024a8   a8f6     btfss	0xf6, 0x4, 0       
0024aa   2a74     incf	0x74, 0x1, 0        	DB	0x74, 0x2a, 0xc8, 0x96, 0x15, 0x4b, 0xa9, 0xf7, 0xb6, 0xe8, 0x0a, 0x54
0024ac   96c8     bcf	0xc8, 0x3, 0         
0024ae   4b15     infsnz	0x15, 0x1, 0x1    
0024b0   f7a9     dw	0xf7a9  ;unknown opcode 
0024b2   e8b6     dw	0xe8b6  ;unknown opcode 
0024b4   540a     subfwb	0xa, 0, 0         
0024b6   89d7     bsf	0xd7, 0x4, 0x1       	DB	0xd7, 0x89, 0x6b, 0x35
0024b8   356b     rlcf	0x6b, 0, 0x1        
                                           
                                           
                                           ; Statistics:
                                           ; code size:	 5514 (0x158a) bytes ( 4.21%)
                                           ;           	 2757 (0x0ac5) words
                                           ; udata size:	  266 (0x010a) bytes (14.84%)
                                           ; access size:	   12 (0x000c) bytes
                                           
                                           
                                           	end
