gplink-0.13.7 beta
Copyright (c) 1998-2005 gputils project
Listing File Generated: 4-7-2011  14:46:22
 
 
Address  Value    Disassembly              Source
-------  -----    -----------              ------
                                           ;--------------------------------------------------------
                                           ; File Created by SDCC : free open source ANSI-C Compiler
                                           ; Version 2.9.0 #5416 (Aug  9 2009) (UNIX)
                                           ; This file was generated Thu Apr  7 14:46:22 2011
                                           ;--------------------------------------------------------
                                           ; PIC16 port for the Microchip 16-bit core micros
                                           ;--------------------------------------------------------
                                           	list	p=18f2550
                                           
                                           	radix dec
                                           
                                           ;--------------------------------------------------------
                                           ; public variables in this module
                                           ;--------------------------------------------------------
                                           	global _I2C_master
                                           	global _I2C_slave
                                           	global _I2C_init
                                           	global _I2C_send
                                           	global _I2C_get
                                           	global _I2C_writechar
                                           	global _I2C_readchar
                                           	global _I2C_interrupt
                                           	global _lcdi2c_backlight
                                           	global _lcdi2c_noBacklight
                                           	global _lcdi2c_clear
                                           	global _lcdi2c_home
                                           	global _lcdi2c_noAutoscroll
                                           	global _lcdi2c_autoscroll
                                           	global _lcdi2c_rightToLeft
                                           	global _lcdi2c_leftToRight
                                           	global _lcdi2c_scrollDisplayRight
                                           	global _lcdi2c_scrollDisplayLeft
                                           	global _lcdi2c_blink
                                           	global _lcdi2c_noBlink
                                           	global _lcdi2c_cursor
                                           	global _lcdi2c_noCursor
                                           	global _lcdi2c_display
                                           	global _lcdi2c_noDisplay
                                           	global _lcdi2c_setCursor
                                           	global _lcdi2c_clearLine
                                           	global _lcdi2c_write
                                           	global _lcdi2c_printf
                                           	global _lcdi2c_newchar
                                           	global _lcdi2c_newpattern
                                           	global _lcdi2c_init
                                           	global _intUsed
                                           	global _intCount
                                           	global _intCountLimit
                                           	global _preloadH
                                           	global _preloadL
                                           	global _numcolmax
                                           	global _numlinemax
                                           	global _Backlight
                                           	global _PCF8574_address
                                           	global _PCF8574_data
                                           	global _s
                                           	global _m
                                           	global _h
                                           	global _Delayms
                                           	global _Delayus
                                           	global _detachInterrupt
                                           	global _int_init
                                           	global _int_start
                                           	global _int_stop
                                           	global _OnTimer0
                                           	global _userhighinterrupt
                                           	global _userinterrupt
                                           	global _I2C_OnRequest
                                           	global _IC2_OnReceive
                                           	global _pprintf
                                           	global _psprintf
                                           	global _epap_in
                                           	global _epap_out
                                           	global _epapin_init
                                           	global _epapout_init
                                           	global _tick
                                           	global _setup
                                           	global _loop
                                           	global _pinguino_main
                                           	global _high_priority_isr
                                           	global _low_priority_isr
                                           	global _car0
                                           	global _car1
                                           	global _car2
                                           	global _car3
                                           	global _car4
                                           	global _car5
                                           	global _car6
                                           	global _car7
                                           	global _car8
                                           	global _car9
                                           	global _car10
                                           	global _car11
                                           	global _car12
                                           
                                           ;--------------------------------------------------------
                                           ; extern variables in this module
                                           ;--------------------------------------------------------
                                           	extern __gptrget3
                                           	extern __gptrput1
                                           	extern __gptrput3
                                           	extern __gptrget1
                                           	extern __gptrget2
                                           	extern _SPPDATAbits
                                           	extern _SPPCFGbits
                                           	extern _SPPEPSbits
                                           	extern _SPPCONbits
                                           	extern _UFRMLbits
                                           	extern _UFRMHbits
                                           	extern _UIRbits
                                           	extern _UIEbits
                                           	extern _UEIRbits
                                           	extern _UEIEbits
                                           	extern _USTATbits
                                           	extern _UCONbits
                                           	extern _UADDRbits
                                           	extern _UCFGbits
                                           	extern _UEP0bits
                                           	extern _UEP1bits
                                           	extern _UEP2bits
                                           	extern _UEP3bits
                                           	extern _UEP4bits
                                           	extern _UEP5bits
                                           	extern _UEP6bits
                                           	extern _UEP7bits
                                           	extern _UEP8bits
                                           	extern _UEP9bits
                                           	extern _UEP10bits
                                           	extern _UEP11bits
                                           	extern _UEP12bits
                                           	extern _UEP13bits
                                           	extern _UEP14bits
                                           	extern _UEP15bits
                                           	extern _PORTAbits
                                           	extern _PORTBbits
                                           	extern _PORTCbits
                                           	extern _PORTDbits
                                           	extern _PORTEbits
                                           	extern _LATAbits
                                           	extern _LATBbits
                                           	extern _LATCbits
                                           	extern _LATDbits
                                           	extern _LATEbits
                                           	extern _TRISAbits
                                           	extern _TRISBbits
                                           	extern _TRISCbits
                                           	extern _TRISDbits
                                           	extern _TRISEbits
                                           	extern _OSCTUNEbits
                                           	extern _PIE1bits
                                           	extern _PIR1bits
                                           	extern _IPR1bits
                                           	extern _PIE2bits
                                           	extern _PIR2bits
                                           	extern _IPR2bits
                                           	extern _EECON1bits
                                           	extern _RCSTAbits
                                           	extern _TXSTAbits
                                           	extern _T3CONbits
                                           	extern _CMCONbits
                                           	extern _CVRCONbits
                                           	extern _ECCP1ASbits
                                           	extern _ECCP1DELbits
                                           	extern _BAUDCONbits
                                           	extern _CCP2CONbits
                                           	extern _CCP1CONbits
                                           	extern _ADCON2bits
                                           	extern _ADCON1bits
                                           	extern _ADCON0bits
                                           	extern _SSPCON2bits
                                           	extern _SSPCON1bits
                                           	extern _SSPSTATbits
                                           	extern _T2CONbits
                                           	extern _T1CONbits
                                           	extern _RCONbits
                                           	extern _WDTCONbits
                                           	extern _HLVDCONbits
                                           	extern _OSCCONbits
                                           	extern _T0CONbits
                                           	extern _STATUSbits
                                           	extern _FSR2Hbits
                                           	extern _BSRbits
                                           	extern _FSR1Hbits
                                           	extern _FSR0Hbits
                                           	extern _INTCON3bits
                                           	extern _INTCON2bits
                                           	extern _INTCONbits
                                           	extern _TBLPTRUbits
                                           	extern _PCLATHbits
                                           	extern _PCLATUbits
                                           	extern _STKPTRbits
                                           	extern _TOSUbits
                                           	extern _usb_device_state
                                           	extern _usb_active_cfg
                                           	extern _usb_active_alt_setting
                                           	extern _SPPDATA
                                           	extern _SPPCFG
                                           	extern _SPPEPS
                                           	extern _SPPCON
                                           	extern _UFRML
                                           	extern _UFRMH
                                           	extern _UIR
                                           	extern _UIE
                                           	extern _UEIR
                                           	extern _UEIE
                                           	extern _USTAT
                                           	extern _UCON
                                           	extern _UADDR
                                           	extern _UCFG
                                           	extern _UEP0
                                           	extern _UEP1
                                           	extern _UEP2
                                           	extern _UEP3
                                           	extern _UEP4
                                           	extern _UEP5
                                           	extern _UEP6
                                           	extern _UEP7
                                           	extern _UEP8
                                           	extern _UEP9
                                           	extern _UEP10
                                           	extern _UEP11
                                           	extern _UEP12
                                           	extern _UEP13
                                           	extern _UEP14
                                           	extern _UEP15
                                           	extern _PORTA
                                           	extern _PORTB
                                           	extern _PORTC
                                           	extern _PORTD
                                           	extern _PORTE
                                           	extern _LATA
                                           	extern _LATB
                                           	extern _LATC
                                           	extern _LATD
                                           	extern _LATE
                                           	extern _TRISA
                                           	extern _TRISB
                                           	extern _TRISC
                                           	extern _TRISD
                                           	extern _TRISE
                                           	extern _OSCTUNE
                                           	extern _PIE1
                                           	extern _PIR1
                                           	extern _IPR1
                                           	extern _PIE2
                                           	extern _PIR2
                                           	extern _IPR2
                                           	extern _EECON1
                                           	extern _EECON2
                                           	extern _EEDATA
                                           	extern _EEADR
                                           	extern _RCSTA
                                           	extern _TXSTA
                                           	extern _TXREG
                                           	extern _RCREG
                                           	extern _SPBRG
                                           	extern _SPBRGH
                                           	extern _T3CON
                                           	extern _TMR3L
                                           	extern _TMR3H
                                           	extern _CMCON
                                           	extern _CVRCON
                                           	extern _ECCP1AS
                                           	extern _ECCP1DEL
                                           	extern _BAUDCON
                                           	extern _CCP2CON
                                           	extern _CCPR2L
                                           	extern _CCPR2H
                                           	extern _CCP1CON
                                           	extern _CCPR1L
                                           	extern _CCPR1H
                                           	extern _ADCON2
                                           	extern _ADCON1
                                           	extern _ADCON0
                                           	extern _ADRESL
                                           	extern _ADRESH
                                           	extern _SSPCON2
                                           	extern _SSPCON1
                                           	extern _SSPSTAT
                                           	extern _SSPADD
                                           	extern _SSPBUF
                                           	extern _T2CON
                                           	extern _PR2
                                           	extern _TMR2
                                           	extern _T1CON
                                           	extern _TMR1L
                                           	extern _TMR1H
                                           	extern _RCON
                                           	extern _WDTCON
                                           	extern _HLVDCON
                                           	extern _OSCCON
                                           	extern _T0CON
                                           	extern _TMR0L
                                           	extern _TMR0H
                                           	extern _STATUS
                                           	extern _FSR2L
                                           	extern _FSR2H
                                           	extern _PLUSW2
                                           	extern _PREINC2
                                           	extern _POSTDEC2
                                           	extern _POSTINC2
                                           	extern _INDF2
                                           	extern _BSR
                                           	extern _FSR1L
                                           	extern _FSR1H
                                           	extern _PLUSW1
                                           	extern _PREINC1
                                           	extern _POSTDEC1
                                           	extern _POSTINC1
                                           	extern _INDF1
                                           	extern _WREG
                                           	extern _FSR0L
                                           	extern _FSR0H
                                           	extern _PLUSW0
                                           	extern _PREINC0
                                           	extern _POSTDEC0
                                           	extern _POSTINC0
                                           	extern _INDF0
                                           	extern _INTCON3
                                           	extern _INTCON2
                                           	extern _INTCON
                                           	extern _PRODL
                                           	extern _PRODH
                                           	extern _TABLAT
                                           	extern _TBLPTRL
                                           	extern _TBLPTRH
                                           	extern _TBLPTRU
                                           	extern _PCL
                                           	extern _PCLATH
                                           	extern _PCLATU
                                           	extern _STKPTR
                                           	extern _TOSL
                                           	extern _TOSH
                                           	extern _TOSU
                                           	extern _delay10ktcy
                                           	extern __moduint
                                           	extern __divuint
                                           	extern __mulint
                                           ;--------------------------------------------------------
                                           ;	Equates to used internal registers
                                           ;--------------------------------------------------------
                                           STATUS	equ	0xfd8
                                           PCL	equ	0xff9
                                           PCLATH	equ	0xffa
                                           PCLATU	equ	0xffb
                                           INTCON	equ	0xff2
                                           WREG	equ	0xfe8
                                           BSR	equ	0xfe0
                                           TOSL	equ	0xffd
                                           TOSH	equ	0xffe
                                           TOSU	equ	0xfff
                                           TBLPTRL	equ	0xff6
                                           FSR0L	equ	0xfe9
                                           FSR0H	equ	0xfea
                                           FSR1L	equ	0xfe1
                                           FSR2L	equ	0xfd9
                                           FSR2H	equ	0xfda
                                           INDF0	equ	0xfef
                                           POSTINC0	equ	0xfee
                                           POSTDEC1	equ	0xfe5
                                           PREINC1	equ	0xfe4
                                           PLUSW2	equ	0xfdb
                                           PRODL	equ	0xff3
                                           PRODH	equ	0xff4
                                           
                                           
                                           	idata
                                           _Backlight	db	0x00
                                           _s	db	0x00
                                           _m	db	0x00
                                           _h	db	0x00
                                           
                                           
                                           ; Internal registers
                                           .registers	udata_ovr	0x0000
                                           r0x00	res	1
                                           r0x01	res	1
                                           r0x02	res	1
                                           r0x03	res	1
                                           r0x04	res	1
                                           r0x05	res	1
                                           r0x06	res	1
                                           r0x07	res	1
                                           r0x08	res	1
                                           r0x09	res	1
                                           r0x0a	res	1
                                           r0x0b	res	1
                                           r0x0c	res	1
                                           r0x0d	res	1
                                           r0x0e	res	1
                                           r0x0f	res	1
                                           r0x10	res	1
                                           r0x11	res	1
                                           r0x12	res	1
                                           r0x13	res	1
                                           r0x14	res	1
                                           r0x15	res	1
                                           r0x16	res	1
                                           r0x17	res	1
                                           r0x18	res	1
                                           r0x19	res	1
                                           r0x1a	res	1
                                           
                                           udata_main_0	udata
                                           __i2c_onRequest_function	res	3
                                           
                                           udata_main_1	udata
                                           __i2c_onReceive_function	res	3
                                           
                                           udata_main_2	udata
                                           _pputchar	res	3
                                           
                                           udata_main_3	udata
                                           _intUsed	res	20
                                           
                                           udata_main_4	udata
                                           _intCount	res	8
                                           
                                           udata_main_5	udata
                                           _intCountLimit	res	8
                                           
                                           udata_main_6	udata
                                           _preloadH	res	4
                                           
                                           udata_main_7	udata
                                           _preloadL	res	4
                                           
                                           udata_main_8	udata
                                           _intFunction	res	60
                                           
                                           udata_main_9	udata
                                           _pprinti_print_buf_1_1	res	12
                                           
                                           udata_main_10	udata
                                           _pprint_scr_1_1	res	2
                                           
                                           udata_main_11	udata
                                           _psprintf_out_1_1	res	3
                                           
                                           udata_main_12	udata
                                           _PCF8574_data	res	1
                                           
                                           udata_main_13	udata
                                           _PCF8574_address	res	1
                                           
                                           udata_main_14	udata
                                           _lcdi2c_setCursor_row_offsets_1_1	res	8
                                           
                                           udata_main_15	udata
                                           _numlinemax	res	1
                                           
                                           udata_main_16	udata
                                           _numcolmax	res	1
                                           
                                           udata_main_17	udata
                                           _setup_newcar_1_1	res	8
                                           
                                           ;--------------------------------------------------------
                                           ; global & static initialisations
                                           ;--------------------------------------------------------
                                           ; ; Starting pCode block
                                           S_main__high_priority_isr	code	0X002020
                                           _high_priority_isr:
                                           ;	.line	121; /home/regis/Hobbies/Electronique/Projets/PinguinoIDE/X/branches/linux/source/main.c	void high_priority_isr(void) interrupt
002020   cfe8     movff	0xfe8, 0xfe5       	MOVFF	WREG, POSTDEC1
002022   ffe5
002024   cfd8     movff	0xfd8, 0xfe5       	MOVFF	STATUS, POSTDEC1
002026   ffe5
002028   cfe0     movff	0xfe0, 0xfe5       	MOVFF	BSR, POSTDEC1
00202a   ffe5
00202c   cff3     movff	0xff3, 0xfe5       	MOVFF	PRODL, POSTDEC1
00202e   ffe5
002030   cff4     movff	0xff4, 0xfe5       	MOVFF	PRODH, POSTDEC1
002032   ffe5
002034   cfe9     movff	0xfe9, 0xfe5       	MOVFF	FSR0L, POSTDEC1
002036   ffe5
002038   cfea     movff	0xfea, 0xfe5       	MOVFF	FSR0H, POSTDEC1
00203a   ffe5
00203c   cffa     movff	0xffa, 0xfe5       	MOVFF	PCLATH, POSTDEC1
00203e   ffe5
002040   cffb     movff	0xffb, 0xfe5       	MOVFF	PCLATU, POSTDEC1
002042   ffe5
                                           ;	.line	172; /home/regis/Hobbies/Electronique/Projets/PinguinoIDE/X/branches/linux/source/main.c	I2C_interrupt();
002044   eccf     call	0x3f9e, 0           	CALL	_I2C_interrupt
002046   f01f
002048   cfe4     movff	0xfe4, 0xffb       	MOVFF	PREINC1, PCLATU
00204a   fffb
00204c   cfe4     movff	0xfe4, 0xffa       	MOVFF	PREINC1, PCLATH
00204e   fffa
002050   cfe4     movff	0xfe4, 0xfea       	MOVFF	PREINC1, FSR0H
002052   ffea
002054   cfe4     movff	0xfe4, 0xfe9       	MOVFF	PREINC1, FSR0L
002056   ffe9
002058   cfe4     movff	0xfe4, 0xff4       	MOVFF	PREINC1, PRODH
00205a   fff4
00205c   cfe4     movff	0xfe4, 0xff3       	MOVFF	PREINC1, PRODL
00205e   fff3
002060   cfe4     movff	0xfe4, 0xfe0       	MOVFF	PREINC1, BSR
002062   ffe0
002064   cfe4     movff	0xfe4, 0xfd8       	MOVFF	PREINC1, STATUS
002066   ffd8
002068   cfe4     movff	0xfe4, 0xfe8       	MOVFF	PREINC1, WREG
00206a   ffe8
00206c   0010     retfie	0                 	RETFIE	
                                           
                                           ; ; Starting pCode block
                                           S_main__low_priority_isr	code	0X004000
                                           _low_priority_isr:
                                           ;	.line	185; /home/regis/Hobbies/Electronique/Projets/PinguinoIDE/X/branches/linux/source/main.c	void low_priority_isr(void) interrupt
004000   cfe8     movff	0xfe8, 0xfe5       	MOVFF	WREG, POSTDEC1
004002   ffe5
004004   cfd8     movff	0xfd8, 0xfe5       	MOVFF	STATUS, POSTDEC1
004006   ffe5
004008   cfe0     movff	0xfe0, 0xfe5       	MOVFF	BSR, POSTDEC1
00400a   ffe5
00400c   cff3     movff	0xff3, 0xfe5       	MOVFF	PRODL, POSTDEC1
00400e   ffe5
004010   cff4     movff	0xff4, 0xfe5       	MOVFF	PRODH, POSTDEC1
004012   ffe5
004014   cfe9     movff	0xfe9, 0xfe5       	MOVFF	FSR0L, POSTDEC1
004016   ffe5
004018   cfea     movff	0xfea, 0xfe5       	MOVFF	FSR0H, POSTDEC1
00401a   ffe5
00401c   cffa     movff	0xffa, 0xfe5       	MOVFF	PCLATH, POSTDEC1
00401e   ffe5
004020   cffb     movff	0xffb, 0xfe5       	MOVFF	PCLATU, POSTDEC1
004022   ffe5
                                           ;	.line	188; /home/regis/Hobbies/Electronique/Projets/PinguinoIDE/X/branches/linux/source/main.c	userinterrupt();
004024   ecaa     call	0x3b54, 0           	CALL	_userinterrupt
004026   f01d
004028   cfe4     movff	0xfe4, 0xffb       	MOVFF	PREINC1, PCLATU
00402a   fffb
00402c   cfe4     movff	0xfe4, 0xffa       	MOVFF	PREINC1, PCLATH
00402e   fffa
004030   cfe4     movff	0xfe4, 0xfea       	MOVFF	PREINC1, FSR0H
004032   ffea
004034   cfe4     movff	0xfe4, 0xfe9       	MOVFF	PREINC1, FSR0L
004036   ffe9
004038   cfe4     movff	0xfe4, 0xff4       	MOVFF	PREINC1, PRODH
00403a   fff4
00403c   cfe4     movff	0xfe4, 0xff3       	MOVFF	PREINC1, PRODL
00403e   fff3
004040   cfe4     movff	0xfe4, 0xfe0       	MOVFF	PREINC1, BSR
004042   ffe0
004044   cfe4     movff	0xfe4, 0xfd8       	MOVFF	PREINC1, STATUS
004046   ffd8
004048   cfe4     movff	0xfe4, 0xfe8       	MOVFF	PREINC1, WREG
00404a   ffe8
00404c   0010     retfie	0                 	RETFIE	
                                           
                                           ; I code from now on!
                                           ; ; Starting pCode block
                                           S_main__pinguino_main	code
                                           _pinguino_main:
                                           ;	.line	53; /home/regis/Hobbies/Electronique/Projets/PinguinoIDE/X/branches/linux/source/main.c	PIE1 = 0;
004304   6a9d     clrf	0x9d, 0             	CLRF	_PIE1
                                           ;	.line	54; /home/regis/Hobbies/Electronique/Projets/PinguinoIDE/X/branches/linux/source/main.c	PIE2 = 0;
004306   6aa0     clrf	0xa0, 0             	CLRF	_PIE2
                                           ;	.line	55; /home/regis/Hobbies/Electronique/Projets/PinguinoIDE/X/branches/linux/source/main.c	ADCON1 = 0b00001111;				// AN0 to AN12 Digital I/O
004308   0e0f     movlw	0xf                	MOVLW	0x0f
00430a   6ec1     movwf	0xc1, 0            	MOVWF	_ADCON1
                                           ;	.line	58; /home/regis/Hobbies/Electronique/Projets/PinguinoIDE/X/branches/linux/source/main.c	int_init();							// Disable all interrupts
00430c   ec20     call	0x4240, 0           	CALL	_int_init
00430e   f021
                                           ;	.line	67; /home/regis/Hobbies/Electronique/Projets/PinguinoIDE/X/branches/linux/source/main.c	setup();
004310   ec74     call	0x32e8, 0           	CALL	_setup
004312   f019
                                           ;	.line	70; /home/regis/Hobbies/Electronique/Projets/PinguinoIDE/X/branches/linux/source/main.c	int_start();							// Enable all timers interrupts
004314   ec3f     call	0x447e, 0           	CALL	_int_start
004316   f022
                                           _00817_DS_:
                                           ;	.line	115; /home/regis/Hobbies/Electronique/Projets/PinguinoIDE/X/branches/linux/source/main.c	loop();
004318   ec42     call	0x4484, 0           	CALL	_loop
00431a   f022
00431c   d7fd     bra	0x4318               	BRA	_00817_DS_
00431e   0012     return	0                 	RETURN	
                                           
                                           ; ; Starting pCode block
                                           S_main__loop	code
                                           _loop:
                                           ;	.line	138; /home/regis/Hobbies/Electronique/Projets/PinguinoIDE/X/branches/linux/source/user.c	}
004484   0012     return	0                 	RETURN	
                                           
                                           ; ; Starting pCode block
                                           S_main__setup	code
                                           _setup:
                                           ;	.line	108; /home/regis/Hobbies/Electronique/Projets/PinguinoIDE/X/branches/linux/source/user.c	const u8 newcar[8]={
0032e8   0e04     movlw	0x4                	MOVLW	0x04
0032ea   0102     movlb	0x2                	BANKSEL	_setup_newcar_1_1
0032ec   6f74     movwf	0x74, 0x1          	MOVWF	_setup_newcar_1_1, B
0032ee   0e08     movlw	0x8                	MOVLW	0x08
                                           ; removed redundant BANKSEL
0032f0   6f75     movwf	0x75, 0x1          	MOVWF	(_setup_newcar_1_1 + 1), B
0032f2   0e0e     movlw	0xe                	MOVLW	0x0e
                                           ; removed redundant BANKSEL
0032f4   6f76     movwf	0x76, 0x1          	MOVWF	(_setup_newcar_1_1 + 2), B
0032f6   0e11     movlw	0x11               	MOVLW	0x11
                                           ; removed redundant BANKSEL
0032f8   6f77     movwf	0x77, 0x1          	MOVWF	(_setup_newcar_1_1 + 3), B
0032fa   0e1f     movlw	0x1f               	MOVLW	0x1f
                                           ; removed redundant BANKSEL
0032fc   6f78     movwf	0x78, 0x1          	MOVWF	(_setup_newcar_1_1 + 4), B
0032fe   0e10     movlw	0x10               	MOVLW	0x10
                                           ; removed redundant BANKSEL
003300   6f79     movwf	0x79, 0x1          	MOVWF	(_setup_newcar_1_1 + 5), B
003302   0e0e     movlw	0xe                	MOVLW	0x0e
                                           ; removed redundant BANKSEL
003304   6f7a     movwf	0x7a, 0x1          	MOVWF	(_setup_newcar_1_1 + 6), B
                                           ; removed redundant BANKSEL
003306   6b7b     clrf	0x7b, 0x1           	CLRF	(_setup_newcar_1_1 + 7), B
                                           ;	.line	118; /home/regis/Hobbies/Electronique/Projets/PinguinoIDE/X/branches/linux/source/user.c	lcdi2c_newchar(newcar, 0);		// newcar is assigned to ascii 0
003308   6ae5     clrf	0xe5, 0             	CLRF	POSTDEC1
00330a   0e80     movlw	0x80               	MOVLW	0x80
00330c   6ee5     movwf	0xe5, 0            	MOVWF	POSTDEC1
00330e   0e02     movlw	0x2                	MOVLW	HIGH(_setup_newcar_1_1)
003310   6ee5     movwf	0xe5, 0            	MOVWF	POSTDEC1
003312   0e74     movlw	0x74               	MOVLW	LOW(_setup_newcar_1_1)
003314   6ee5     movwf	0xe5, 0            	MOVWF	POSTDEC1
003316   ec50     call	0x38a0, 0           	CALL	_lcdi2c_newchar
003318   f01c
00331a   0e04     movlw	0x4                	MOVLW	0x04
00331c   26e1     addwf	0xe1, 0x1, 0       	ADDWF	FSR1L, F
                                           ;	.line	120; /home/regis/Hobbies/Electronique/Projets/PinguinoIDE/X/branches/linux/source/user.c	lcdi2c_init(16, 2, 0b01001110);// display is 2x16, ic2 address is 01001110 (see above)
00331e   0e4e     movlw	0x4e               	MOVLW	0x4e
003320   6ee5     movwf	0xe5, 0            	MOVWF	POSTDEC1
003322   0e02     movlw	0x2                	MOVLW	0x02
003324   6ee5     movwf	0xe5, 0            	MOVWF	POSTDEC1
003326   0e10     movlw	0x10               	MOVLW	0x10
003328   6ee5     movwf	0xe5, 0            	MOVWF	POSTDEC1
00332a   ece8     call	0x33d0, 0           	CALL	_lcdi2c_init
00332c   f019
00332e   0e03     movlw	0x3                	MOVLW	0x03
003330   26e1     addwf	0xe1, 0x1, 0       	ADDWF	FSR1L, F
                                           ;	.line	121; /home/regis/Hobbies/Electronique/Projets/PinguinoIDE/X/branches/linux/source/user.c	lcdi2c_backlight();				// turns backlight on
003332   ec73     call	0x42e6, 0           	CALL	_lcdi2c_backlight
003334   f021
                                           ;	.line	122; /home/regis/Hobbies/Electronique/Projets/PinguinoIDE/X/branches/linux/source/user.c	lcdi2c_clear();					// clear screen
003336   ec43     call	0x4286, 0           	CALL	_lcdi2c_clear
003338   f021
                                           ;	.line	123; /home/regis/Hobbies/Electronique/Projets/PinguinoIDE/X/branches/linux/source/user.c	lcdi2c_home();						// set cursor at (0,0)
00333a   ec33     call	0x4266, 0           	CALL	_lcdi2c_home
00333c   f021
                                           ;	.line	124; /home/regis/Hobbies/Electronique/Projets/PinguinoIDE/X/branches/linux/source/user.c	lcdi2c_printf("   lcdi2c demo  ");
00333e   0e00     movlw	0                  	MOVLW	UPPER(__str_3)
003340   6ee5     movwf	0xe5, 0            	MOVWF	POSTDEC1
003342   0e2b     movlw	0x2b               	MOVLW	HIGH(__str_3)
003344   6ee5     movwf	0xe5, 0            	MOVWF	POSTDEC1
003346   0e2e     movlw	0x2e               	MOVLW	LOW(__str_3)
003348   6ee5     movwf	0xe5, 0            	MOVWF	POSTDEC1
00334a   ec8e     call	0x3d1c, 0           	CALL	_lcdi2c_printf
00334c   f01e
00334e   0e03     movlw	0x3                	MOVLW	0x03
003350   26e1     addwf	0xe1, 0x1, 0       	ADDWF	FSR1L, F
                                           ;	.line	125; /home/regis/Hobbies/Electronique/Projets/PinguinoIDE/X/branches/linux/source/user.c	lcdi2c_setCursor(0, 1);			// set cursor at line 1, col 0
003352   0e01     movlw	0x1                	MOVLW	0x01
003354   6ee5     movwf	0xe5, 0            	MOVWF	POSTDEC1
003356   0e00     movlw	0                  	MOVLW	0x00
003358   6ae5     clrf	0xe5, 0             	CLRF	POSTDEC1
00335a   ec44     call	0x3c88, 0           	CALL	_lcdi2c_setCursor
00335c   f01e
00335e   0e02     movlw	0x2                	MOVLW	0x02
003360   26e1     addwf	0xe1, 0x1, 0       	ADDWF	FSR1L, F
                                           ;	.line	126; /home/regis/Hobbies/Electronique/Projets/PinguinoIDE/X/branches/linux/source/user.c	lcdi2c_printf(" Regis Blanchot ");
003362   0e00     movlw	0                  	MOVLW	UPPER(__str_4)
003364   6ee5     movwf	0xe5, 0            	MOVWF	POSTDEC1
003366   0e2b     movlw	0x2b               	MOVLW	HIGH(__str_4)
003368   6ee5     movwf	0xe5, 0            	MOVWF	POSTDEC1
00336a   0e40     movlw	0x40               	MOVLW	LOW(__str_4)
00336c   6ee5     movwf	0xe5, 0            	MOVWF	POSTDEC1
00336e   ec8e     call	0x3d1c, 0           	CALL	_lcdi2c_printf
003370   f01e
003372   0e03     movlw	0x3                	MOVLW	0x03
003374   26e1     addwf	0xe1, 0x1, 0       	ADDWF	FSR1L, F
                                           ;	.line	128; /home/regis/Hobbies/Electronique/Projets/PinguinoIDE/X/branches/linux/source/user.c	lcdi2c_setCursor(2, 1);			// set cursor at line 1, col 2
003376   0e01     movlw	0x1                	MOVLW	0x01
003378   6ee5     movwf	0xe5, 0            	MOVWF	POSTDEC1
00337a   0e02     movlw	0x2                	MOVLW	0x02
00337c   6ee5     movwf	0xe5, 0            	MOVWF	POSTDEC1
00337e   ec44     call	0x3c88, 0           	CALL	_lcdi2c_setCursor
003380   f01e
003382   0e02     movlw	0x2                	MOVLW	0x02
003384   26e1     addwf	0xe1, 0x1, 0       	ADDWF	FSR1L, F
                                           ;	.line	129; /home/regis/Hobbies/Electronique/Projets/PinguinoIDE/X/branches/linux/source/user.c	lcdi2c_write(0);					// replace 'e' by 'é'
003386   0e00     movlw	0                  	MOVLW	0x00
003388   6ae5     clrf	0xe5, 0             	CLRF	POSTDEC1
00338a   ecf4     call	0x41e8, 0           	CALL	_lcdi2c_write
00338c   f020
00338e   2ae1     incf	0xe1, 0x1, 0        	INCF	FSR1L, F
                                           ;	.line	130; /home/regis/Hobbies/Electronique/Projets/PinguinoIDE/X/branches/linux/source/user.c	Delayms(5000);						// wait for 2 sec.
003390   6ae5     clrf	0xe5, 0             	CLRF	POSTDEC1
003392   6ae5     clrf	0xe5, 0             	CLRF	POSTDEC1
003394   0e13     movlw	0x13               	MOVLW	0x13
003396   6ee5     movwf	0xe5, 0            	MOVWF	POSTDEC1
003398   0e88     movlw	0x88               	MOVLW	0x88
00339a   6ee5     movwf	0xe5, 0            	MOVWF	POSTDEC1
00339c   ec97     call	0x372e, 0           	CALL	_Delayms
00339e   f01b
0033a0   0e04     movlw	0x4                	MOVLW	0x04
0033a2   26e1     addwf	0xe1, 0x1, 0       	ADDWF	FSR1L, F
                                           ;	.line	131; /home/regis/Hobbies/Electronique/Projets/PinguinoIDE/X/branches/linux/source/user.c	lcdi2c_clearLine(0);				// clear first line
0033a4   0e00     movlw	0                  	MOVLW	0x00
0033a6   6ae5     clrf	0xe5, 0             	CLRF	POSTDEC1
0033a8   ec7a     call	0x40f4, 0           	CALL	_lcdi2c_clearLine
0033aa   f020
0033ac   2ae1     incf	0xe1, 0x1, 0        	INCF	FSR1L, F
                                           ;	.line	133; /home/regis/Hobbies/Electronique/Projets/PinguinoIDE/X/branches/linux/source/user.c	OnTimer0(tick, INT_MILLISEC, 1000);
0033ae   0e03     movlw	0x3                	MOVLW	0x03
0033b0   6ee5     movwf	0xe5, 0            	MOVWF	POSTDEC1
0033b2   0ee8     movlw	0xe8               	MOVLW	0xe8
0033b4   6ee5     movwf	0xe5, 0            	MOVWF	POSTDEC1
0033b6   0e02     movlw	0x2                	MOVLW	0x02
0033b8   6ee5     movwf	0xe5, 0            	MOVWF	POSTDEC1
0033ba   0e00     movlw	0                  	MOVLW	UPPER(_tick)
0033bc   6ee5     movwf	0xe5, 0            	MOVWF	POSTDEC1
0033be   0e3e     movlw	0x3e               	MOVLW	HIGH(_tick)
0033c0   6ee5     movwf	0xe5, 0            	MOVWF	POSTDEC1
0033c2   0e2a     movlw	0x2a               	MOVLW	LOW(_tick)
0033c4   6ee5     movwf	0xe5, 0            	MOVWF	POSTDEC1
0033c6   ec52     call	0x30a4, 0           	CALL	_OnTimer0
0033c8   f018
0033ca   0e06     movlw	0x6                	MOVLW	0x06
0033cc   26e1     addwf	0xe1, 0x1, 0       	ADDWF	FSR1L, F
0033ce   0012     return	0                 	RETURN	
                                           
                                           ; ; Starting pCode block
                                           S_main__tick	code
                                           _tick:
                                           ;	.line	80; /home/regis/Hobbies/Electronique/Projets/PinguinoIDE/X/branches/linux/source/user.c	void tick()
003e2a   c000     movff	0, 0xfe5           	MOVFF	r0x00, POSTDEC1
003e2c   ffe5
003e2e   c002     movff	0x2, 0xfe5         	MOVFF	r0x02, POSTDEC1
003e30   ffe5
003e32   c004     movff	0x4, 0xfe5         	MOVFF	r0x04, POSTDEC1
003e34   ffe5
003e36   0102     movlb	0x2                	BANKSEL	_s
                                           ;	.line	82; /home/regis/Hobbies/Electronique/Projets/PinguinoIDE/X/branches/linux/source/user.c	s++;
003e38   2b7e     incf	0x7e, 0x1, 0x1      	INCF	_s, F, B
                                           ;	.line	84; /home/regis/Hobbies/Electronique/Projets/PinguinoIDE/X/branches/linux/source/user.c	if (s > 59)
003e3a   0e3c     movlw	0x3c               	MOVLW	0x3c
                                           ; removed redundant BANKSEL
003e3c   5d7e     subwf	0x7e, 0, 0x1       	SUBWF	_s, W, B
003e3e   e303     bnc	0x3e46               	BNC	_00789_DS_
                                           ; removed redundant BANKSEL
                                           ;	.line	86; /home/regis/Hobbies/Electronique/Projets/PinguinoIDE/X/branches/linux/source/user.c	s = 0;
003e40   6b7e     clrf	0x7e, 0x1           	CLRF	_s, B
003e42   0102     movlb	0x2                	BANKSEL	_m
                                           ;	.line	87; /home/regis/Hobbies/Electronique/Projets/PinguinoIDE/X/branches/linux/source/user.c	m++;
003e44   2b7f     incf	0x7f, 0x1, 0x1      	INCF	_m, F, B
                                           _00789_DS_:
                                           ;	.line	90; /home/regis/Hobbies/Electronique/Projets/PinguinoIDE/X/branches/linux/source/user.c	if (m > 59)
003e46   0e3c     movlw	0x3c               	MOVLW	0x3c
003e48   0102     movlb	0x2                	BANKSEL	_m
003e4a   5d7f     subwf	0x7f, 0, 0x1       	SUBWF	_m, W, B
003e4c   e303     bnc	0x3e54               	BNC	_00791_DS_
                                           ; removed redundant BANKSEL
                                           ;	.line	92; /home/regis/Hobbies/Electronique/Projets/PinguinoIDE/X/branches/linux/source/user.c	m = 0;
003e4e   6b7f     clrf	0x7f, 0x1           	CLRF	_m, B
003e50   0102     movlb	0x2                	BANKSEL	_h
                                           ;	.line	93; /home/regis/Hobbies/Electronique/Projets/PinguinoIDE/X/branches/linux/source/user.c	h++;
003e52   2b80     incf	0x80, 0x1, 0x1      	INCF	_h, F, B
                                           _00791_DS_:
                                           ;	.line	96; /home/regis/Hobbies/Electronique/Projets/PinguinoIDE/X/branches/linux/source/user.c	if (h > 23)
003e54   0e18     movlw	0x18               	MOVLW	0x18
                                           ; #	SUBWF	_h, W, B
                                           ; #	BTFSS	STATUS, 0
                                           ; #	GOTO	_00793_DS_
                                           ; #	CLRF	_h, B
                                           ; #	MOVLW	0x00
003e56   0102     movlb	0x2                	BANKSEL	_h
                                           ;	.line	98; /home/regis/Hobbies/Electronique/Projets/PinguinoIDE/X/branches/linux/source/user.c	h = 0;
003e58   5d80     subwf	0x80, 0, 0x1       	SUBWF	_h, W, B
                                           ;	.line	101; /home/regis/Hobbies/Electronique/Projets/PinguinoIDE/X/branches/linux/source/user.c	lcdi2c_setCursor(4, 0); // col, line
003e5a   e301     bnc	0x3e5e               	BNC	_10829_DS_
                                           ; removed redundant BANKSEL
003e5c   6b80     clrf	0x80, 0x1           	CLRF	_h, B
                                           _10829_DS_:
003e5e   6ae5     clrf	0xe5, 0             	CLRF	POSTDEC1
003e60   0e04     movlw	0x4                	MOVLW	0x04
003e62   6ee5     movwf	0xe5, 0            	MOVWF	POSTDEC1
003e64   ec44     call	0x3c88, 0           	CALL	_lcdi2c_setCursor
003e66   f01e
003e68   0e02     movlw	0x2                	MOVLW	0x02
003e6a   26e1     addwf	0xe1, 0x1, 0       	ADDWF	FSR1L, F
                                           ;	.line	102; /home/regis/Hobbies/Electronique/Projets/PinguinoIDE/X/branches/linux/source/user.c	lcdi2c_printf("%02u:%02u:%02u", h, m, s);
003e6c   c27e     movff	0x27e, 0           	MOVFF	_s, r0x00
003e6e   f000
003e70   c27f     movff	0x27f, 0x2         	MOVFF	_m, r0x02
003e72   f002
003e74   c280     movff	0x280, 0x4         	MOVFF	_h, r0x04
003e76   f004
003e78   6ae5     clrf	0xe5, 0             	CLRF	POSTDEC1
003e7a   5000     movf	0, 0, 0             	MOVF	r0x00, W
003e7c   6ee5     movwf	0xe5, 0            	MOVWF	POSTDEC1
003e7e   6ae5     clrf	0xe5, 0             	CLRF	POSTDEC1
003e80   5002     movf	0x2, 0, 0           	MOVF	r0x02, W
003e82   6ee5     movwf	0xe5, 0            	MOVWF	POSTDEC1
003e84   6ae5     clrf	0xe5, 0             	CLRF	POSTDEC1
003e86   5004     movf	0x4, 0, 0           	MOVF	r0x04, W
003e88   6ee5     movwf	0xe5, 0            	MOVWF	POSTDEC1
003e8a   0e00     movlw	0                  	MOVLW	UPPER(__str_2)
003e8c   6ee5     movwf	0xe5, 0            	MOVWF	POSTDEC1
003e8e   0e2b     movlw	0x2b               	MOVLW	HIGH(__str_2)
003e90   6ee5     movwf	0xe5, 0            	MOVWF	POSTDEC1
003e92   0e1e     movlw	0x1e               	MOVLW	LOW(__str_2)
003e94   6ee5     movwf	0xe5, 0            	MOVWF	POSTDEC1
003e96   ec8e     call	0x3d1c, 0           	CALL	_lcdi2c_printf
003e98   f01e
003e9a   0e09     movlw	0x9                	MOVLW	0x09
003e9c   26e1     addwf	0xe1, 0x1, 0       	ADDWF	FSR1L, F
003e9e   cfe4     movff	0xfe4, 0x4         	MOVFF	PREINC1, r0x04
003ea0   f004
003ea2   cfe4     movff	0xfe4, 0x2         	MOVFF	PREINC1, r0x02
003ea4   f002
003ea6   cfe4     movff	0xfe4, 0           	MOVFF	PREINC1, r0x00
003ea8   f000
003eaa   0012     return	0                 	RETURN	
                                           
                                           ; ; Starting pCode block
                                           S_main__epapout_init	code
                                           _epapout_init:
                                           ;	.line	41; /home/regis/Hobbies/Electronique/Projets/PinguinoIDE/X/branches/linux/source/main.c	void epapout_init() { return; }
004486   0012     return	0                 	RETURN	
                                           
                                           ; ; Starting pCode block
                                           S_main__epapin_init	code
                                           _epapin_init:
                                           ;	.line	40; /home/regis/Hobbies/Electronique/Projets/PinguinoIDE/X/branches/linux/source/main.c	void epapin_init() { return; }
004488   0012     return	0                 	RETURN	
                                           
                                           ; ; Starting pCode block
                                           S_main__epap_out	code
                                           _epap_out:
                                           ;	.line	39; /home/regis/Hobbies/Electronique/Projets/PinguinoIDE/X/branches/linux/source/main.c	void epap_out() { return; }
00448a   0012     return	0                 	RETURN	
                                           
                                           ; ; Starting pCode block
                                           S_main__epap_in	code
                                           _epap_in:
                                           ;	.line	38; /home/regis/Hobbies/Electronique/Projets/PinguinoIDE/X/branches/linux/source/main.c	void epap_in() { return; }
00448c   0012     return	0                 	RETURN	
                                           
                                           ; ; Starting pCode block
                                           S_main__lcdi2c_init	code
                                           _lcdi2c_init:
                                           ;	.line	546; /home/regis/Hobbies/Electronique/Projets/PinguinoIDE/X/branches/linux/tools/p8/bin/../share/sdcc/include/pic16/lcdi2c.c	void lcdi2c_init(u8 numcol, u8 numline, u8 i2c_address)
0033d0   cfd9     movff	0xfd9, 0xfe5       	MOVFF	FSR2L, POSTDEC1
0033d2   ffe5
0033d4   cfe1     movff	0xfe1, 0xfd9       	MOVFF	FSR1L, FSR2L
0033d6   ffd9
0033d8   c000     movff	0, 0xfe5           	MOVFF	r0x00, POSTDEC1
0033da   ffe5
0033dc   c001     movff	0x1, 0xfe5         	MOVFF	r0x01, POSTDEC1
0033de   ffe5
0033e0   c002     movff	0x2, 0xfe5         	MOVFF	r0x02, POSTDEC1
0033e2   ffe5
0033e4   0e02     movlw	0x2                	MOVLW	0x02
0033e6   cfdb     movff	0xfdb, 0           	MOVFF	PLUSW2, r0x00
0033e8   f000
0033ea   0e03     movlw	0x3                	MOVLW	0x03
0033ec   cfdb     movff	0xfdb, 0x1         	MOVFF	PLUSW2, r0x01
0033ee   f001
0033f0   0e04     movlw	0x4                	MOVLW	0x04
0033f2   cfdb     movff	0xfdb, 0x2         	MOVFF	PLUSW2, r0x02
0033f4   f002
                                           ;	.line	548; /home/regis/Hobbies/Electronique/Projets/PinguinoIDE/X/branches/linux/tools/p8/bin/../share/sdcc/include/pic16/lcdi2c.c	numcolmax  = numcol - 1;
0033f6   0400     decf	0, 0, 0             	DECF	r0x00, W
0033f8   0102     movlb	0x2                	BANKSEL	_numcolmax
0033fa   6f9a     movwf	0x9a, 0x1          	MOVWF	_numcolmax, B
                                           ;	.line	549; /home/regis/Hobbies/Electronique/Projets/PinguinoIDE/X/branches/linux/tools/p8/bin/../share/sdcc/include/pic16/lcdi2c.c	numlinemax = numline - 1;
0033fc   0401     decf	0x1, 0, 0           	DECF	r0x01, W
0033fe   0102     movlb	0x2                	BANKSEL	_numlinemax
003400   6f99     movwf	0x99, 0x1          	MOVWF	_numlinemax, B
                                           ;	.line	550; /home/regis/Hobbies/Electronique/Projets/PinguinoIDE/X/branches/linux/tools/p8/bin/../share/sdcc/include/pic16/lcdi2c.c	PCF8574_address = 0b01001110 | i2c_address;
003402   0e4e     movlw	0x4e               	MOVLW	0x4e
003404   1002     iorwf	0x2, 0, 0          	IORWF	r0x02, W
003406   0102     movlb	0x2                	BANKSEL	_PCF8574_address
003408   6f98     movwf	0x98, 0x1          	MOVWF	_PCF8574_address, B
00340a   0102     movlb	0x2                	BANKSEL	_PCF8574_data
                                           ;	.line	551; /home/regis/Hobbies/Electronique/Projets/PinguinoIDE/X/branches/linux/tools/p8/bin/../share/sdcc/include/pic16/lcdi2c.c	PCF8574_data.val = 0;
00340c   6b97     clrf	0x97, 0x1           	CLRF	_PCF8574_data, B
                                           ;	.line	553; /home/regis/Hobbies/Electronique/Projets/PinguinoIDE/X/branches/linux/tools/p8/bin/../share/sdcc/include/pic16/lcdi2c.c	I2C_init(I2C_MASTER_MODE, I2C_SLEW_OFF);
00340e   0e00     movlw	0                  	MOVLW	0x00
003410   6ae5     clrf	0xe5, 0             	CLRF	POSTDEC1
003412   6ae5     clrf	0xe5, 0             	CLRF	POSTDEC1
003414   6ae5     clrf	0xe5, 0             	CLRF	POSTDEC1
003416   ecd2     call	0x3da4, 0           	CALL	_I2C_init
003418   f01e
00341a   0e03     movlw	0x3                	MOVLW	0x03
00341c   26e1     addwf	0xe1, 0x1, 0       	ADDWF	FSR1L, F
                                           ;	.line	556; /home/regis/Hobbies/Electronique/Projets/PinguinoIDE/X/branches/linux/tools/p8/bin/../share/sdcc/include/pic16/lcdi2c.c	lcdi2c_send4(0x30, LCD_CMD);			// 0x30 - Mode 8 bits
00341e   6ae5     clrf	0xe5, 0             	CLRF	POSTDEC1
003420   0e30     movlw	0x30               	MOVLW	0x30
003422   6ee5     movwf	0xe5, 0            	MOVWF	POSTDEC1
003424   ec56     call	0x3eac, 0           	CALL	_lcdi2c_send4
003426   f01f
003428   0e02     movlw	0x2                	MOVLW	0x02
00342a   26e1     addwf	0xe1, 0x1, 0       	ADDWF	FSR1L, F
                                           ;	.line	558; /home/regis/Hobbies/Electronique/Projets/PinguinoIDE/X/branches/linux/tools/p8/bin/../share/sdcc/include/pic16/lcdi2c.c	lcdi2c_send4(0x30, LCD_CMD);			// 0x30 - Mode 8 bits
00342c   6ae5     clrf	0xe5, 0             	CLRF	POSTDEC1
00342e   0e30     movlw	0x30               	MOVLW	0x30
003430   6ee5     movwf	0xe5, 0            	MOVWF	POSTDEC1
003432   ec56     call	0x3eac, 0           	CALL	_lcdi2c_send4
003434   f01f
003436   0e02     movlw	0x2                	MOVLW	0x02
003438   26e1     addwf	0xe1, 0x1, 0       	ADDWF	FSR1L, F
                                           ;	.line	560; /home/regis/Hobbies/Electronique/Projets/PinguinoIDE/X/branches/linux/tools/p8/bin/../share/sdcc/include/pic16/lcdi2c.c	lcdi2c_send4(0x30, LCD_CMD);			// 0x30 - Mode 8 bits
00343a   6ae5     clrf	0xe5, 0             	CLRF	POSTDEC1
00343c   0e30     movlw	0x30               	MOVLW	0x30
00343e   6ee5     movwf	0xe5, 0            	MOVWF	POSTDEC1
003440   ec56     call	0x3eac, 0           	CALL	_lcdi2c_send4
003442   f01f
003444   0e02     movlw	0x2                	MOVLW	0x02
003446   26e1     addwf	0xe1, 0x1, 0       	ADDWF	FSR1L, F
                                           ;	.line	562; /home/regis/Hobbies/Electronique/Projets/PinguinoIDE/X/branches/linux/tools/p8/bin/../share/sdcc/include/pic16/lcdi2c.c	lcdi2c_send4(0x20, LCD_CMD);			// 0x20 - Mode 4 bits
003448   6ae5     clrf	0xe5, 0             	CLRF	POSTDEC1
00344a   0e20     movlw	0x20               	MOVLW	0x20
00344c   6ee5     movwf	0xe5, 0            	MOVWF	POSTDEC1
00344e   ec56     call	0x3eac, 0           	CALL	_lcdi2c_send4
003450   f01f
003452   0e02     movlw	0x2                	MOVLW	0x02
003454   26e1     addwf	0xe1, 0x1, 0       	ADDWF	FSR1L, F
                                           ;	.line	563; /home/regis/Hobbies/Electronique/Projets/PinguinoIDE/X/branches/linux/tools/p8/bin/../share/sdcc/include/pic16/lcdi2c.c	lcdi2c_send8(LCD_SYSTEM_SET_4BITS, LCD_CMD); 	// 0x28 - Mode 4 bits - 2 Lignes - 5x8
003456   6ae5     clrf	0xe5, 0             	CLRF	POSTDEC1
003458   0e28     movlw	0x28               	MOVLW	0x28
00345a   6ee5     movwf	0xe5, 0            	MOVWF	POSTDEC1
00345c   ec96     call	0x3f2c, 0           	CALL	_lcdi2c_send8
00345e   f01f
003460   0e02     movlw	0x2                	MOVLW	0x02
003462   26e1     addwf	0xe1, 0x1, 0       	ADDWF	FSR1L, F
                                           ;	.line	565; /home/regis/Hobbies/Electronique/Projets/PinguinoIDE/X/branches/linux/tools/p8/bin/../share/sdcc/include/pic16/lcdi2c.c	lcdi2c_send8(LCD_DISPLAY_ON, LCD_CMD);		// 0x0C - Display ON + Cursor OFF + Blinking OFF
003464   6ae5     clrf	0xe5, 0             	CLRF	POSTDEC1
003466   0e0c     movlw	0xc                	MOVLW	0x0c
003468   6ee5     movwf	0xe5, 0            	MOVWF	POSTDEC1
00346a   ec96     call	0x3f2c, 0           	CALL	_lcdi2c_send8
00346c   f01f
00346e   0e02     movlw	0x2                	MOVLW	0x02
003470   26e1     addwf	0xe1, 0x1, 0       	ADDWF	FSR1L, F
                                           ;	.line	567; /home/regis/Hobbies/Electronique/Projets/PinguinoIDE/X/branches/linux/tools/p8/bin/../share/sdcc/include/pic16/lcdi2c.c	lcdi2c_send8(LCD_DISPLAY_CLEAR, LCD_CMD);    	// 0x01 - Efface l'affichage + init. DDRAM
003472   6ae5     clrf	0xe5, 0             	CLRF	POSTDEC1
003474   0e01     movlw	0x1                	MOVLW	0x01
003476   6ee5     movwf	0xe5, 0            	MOVWF	POSTDEC1
003478   ec96     call	0x3f2c, 0           	CALL	_lcdi2c_send8
00347a   f01f
00347c   0e02     movlw	0x2                	MOVLW	0x02
00347e   26e1     addwf	0xe1, 0x1, 0       	ADDWF	FSR1L, F
                                           ;	.line	568; /home/regis/Hobbies/Electronique/Projets/PinguinoIDE/X/branches/linux/tools/p8/bin/../share/sdcc/include/pic16/lcdi2c.c	Delayms(2);					// le temps d'execution de Display Clear > 1.64ms
003480   6ae5     clrf	0xe5, 0             	CLRF	POSTDEC1
003482   6ae5     clrf	0xe5, 0             	CLRF	POSTDEC1
003484   6ae5     clrf	0xe5, 0             	CLRF	POSTDEC1
003486   6ee5     movwf	0xe5, 0            	MOVWF	POSTDEC1
003488   ec97     call	0x372e, 0           	CALL	_Delayms
00348a   f01b
00348c   0e04     movlw	0x4                	MOVLW	0x04
00348e   26e1     addwf	0xe1, 0x1, 0       	ADDWF	FSR1L, F
                                           ;	.line	569; /home/regis/Hobbies/Electronique/Projets/PinguinoIDE/X/branches/linux/tools/p8/bin/../share/sdcc/include/pic16/lcdi2c.c	lcdi2c_send8(LCD_ENTRY_MODE_SET, LCD_CMD);   	// 0x06 - Increment + Display not shifted (Déplacement automatique du curseur)
003490   6ae5     clrf	0xe5, 0             	CLRF	POSTDEC1
003492   0e06     movlw	0x6                	MOVLW	0x06
003494   6ee5     movwf	0xe5, 0            	MOVWF	POSTDEC1
003496   ec96     call	0x3f2c, 0           	CALL	_lcdi2c_send8
003498   f01f
00349a   0e02     movlw	0x2                	MOVLW	0x02
00349c   26e1     addwf	0xe1, 0x1, 0       	ADDWF	FSR1L, F
                                           ;	.line	571; /home/regis/Hobbies/Electronique/Projets/PinguinoIDE/X/branches/linux/tools/p8/bin/../share/sdcc/include/pic16/lcdi2c.c	lcdi2c_newpattern();				// Implante les nouveaux caracteres
00349e   ec38     call	0x3670, 0           	CALL	_lcdi2c_newpattern
0034a0   f01b
0034a2   cfe4     movff	0xfe4, 0x2         	MOVFF	PREINC1, r0x02
0034a4   f002
0034a6   cfe4     movff	0xfe4, 0x1         	MOVFF	PREINC1, r0x01
0034a8   f001
0034aa   cfe4     movff	0xfe4, 0           	MOVFF	PREINC1, r0x00
0034ac   f000
0034ae   cfe4     movff	0xfe4, 0xfd9       	MOVFF	PREINC1, FSR2L
0034b0   ffd9
0034b2   0012     return	0                 	RETURN	
                                           
                                           ; ; Starting pCode block
                                           S_main__lcdi2c_newpattern	code
                                           _lcdi2c_newpattern:
                                           ;	.line	516; /home/regis/Hobbies/Electronique/Projets/PinguinoIDE/X/branches/linux/tools/p8/bin/../share/sdcc/include/pic16/lcdi2c.c	lcdi2c_newchar(car0,  ACIRC);			// â
003670   6ae5     clrf	0xe5, 0             	CLRF	POSTDEC1
003672   0e00     movlw	0                  	MOVLW	UPPER(_car0)
003674   6ee5     movwf	0xe5, 0            	MOVWF	POSTDEC1
003676   0e2a     movlw	0x2a               	MOVLW	HIGH(_car0)
003678   6ee5     movwf	0xe5, 0            	MOVWF	POSTDEC1
00367a   0eb6     movlw	0xb6               	MOVLW	LOW(_car0)
00367c   6ee5     movwf	0xe5, 0            	MOVWF	POSTDEC1
00367e   ec50     call	0x38a0, 0           	CALL	_lcdi2c_newchar
003680   f01c
003682   0e04     movlw	0x4                	MOVLW	0x04
003684   26e1     addwf	0xe1, 0x1, 0       	ADDWF	FSR1L, F
                                           ;	.line	517; /home/regis/Hobbies/Electronique/Projets/PinguinoIDE/X/branches/linux/tools/p8/bin/../share/sdcc/include/pic16/lcdi2c.c	lcdi2c_newchar(car1,  AGRAVE);		// à
003686   0e01     movlw	0x1                	MOVLW	0x01
003688   6ee5     movwf	0xe5, 0            	MOVWF	POSTDEC1
00368a   0e00     movlw	0                  	MOVLW	UPPER(_car1)
00368c   6ee5     movwf	0xe5, 0            	MOVWF	POSTDEC1
00368e   0e2a     movlw	0x2a               	MOVLW	HIGH(_car1)
003690   6ee5     movwf	0xe5, 0            	MOVWF	POSTDEC1
003692   0ebe     movlw	0xbe               	MOVLW	LOW(_car1)
003694   6ee5     movwf	0xe5, 0            	MOVWF	POSTDEC1
003696   ec50     call	0x38a0, 0           	CALL	_lcdi2c_newchar
003698   f01c
00369a   0e04     movlw	0x4                	MOVLW	0x04
00369c   26e1     addwf	0xe1, 0x1, 0       	ADDWF	FSR1L, F
                                           ;	.line	519; /home/regis/Hobbies/Electronique/Projets/PinguinoIDE/X/branches/linux/tools/p8/bin/../share/sdcc/include/pic16/lcdi2c.c	lcdi2c_newchar(car2,  CCEDIL);		// ç
00369e   0e02     movlw	0x2                	MOVLW	0x02
0036a0   6ee5     movwf	0xe5, 0            	MOVWF	POSTDEC1
0036a2   0e00     movlw	0                  	MOVLW	UPPER(_car2)
0036a4   6ee5     movwf	0xe5, 0            	MOVWF	POSTDEC1
0036a6   0e2a     movlw	0x2a               	MOVLW	HIGH(_car2)
0036a8   6ee5     movwf	0xe5, 0            	MOVWF	POSTDEC1
0036aa   0ec6     movlw	0xc6               	MOVLW	LOW(_car2)
0036ac   6ee5     movwf	0xe5, 0            	MOVWF	POSTDEC1
0036ae   ec50     call	0x38a0, 0           	CALL	_lcdi2c_newchar
0036b0   f01c
0036b2   0e04     movlw	0x4                	MOVLW	0x04
0036b4   26e1     addwf	0xe1, 0x1, 0       	ADDWF	FSR1L, F
                                           ;	.line	521; /home/regis/Hobbies/Electronique/Projets/PinguinoIDE/X/branches/linux/tools/p8/bin/../share/sdcc/include/pic16/lcdi2c.c	lcdi2c_newchar(car3,  EACUTE);		// é
0036b6   0e03     movlw	0x3                	MOVLW	0x03
0036b8   6ee5     movwf	0xe5, 0            	MOVWF	POSTDEC1
0036ba   0e00     movlw	0                  	MOVLW	UPPER(_car3)
0036bc   6ee5     movwf	0xe5, 0            	MOVWF	POSTDEC1
0036be   0e2a     movlw	0x2a               	MOVLW	HIGH(_car3)
0036c0   6ee5     movwf	0xe5, 0            	MOVWF	POSTDEC1
0036c2   0ece     movlw	0xce               	MOVLW	LOW(_car3)
0036c4   6ee5     movwf	0xe5, 0            	MOVWF	POSTDEC1
0036c6   ec50     call	0x38a0, 0           	CALL	_lcdi2c_newchar
0036c8   f01c
0036ca   0e04     movlw	0x4                	MOVLW	0x04
0036cc   26e1     addwf	0xe1, 0x1, 0       	ADDWF	FSR1L, F
                                           ;	.line	522; /home/regis/Hobbies/Electronique/Projets/PinguinoIDE/X/branches/linux/tools/p8/bin/../share/sdcc/include/pic16/lcdi2c.c	lcdi2c_newchar(car4,  EGRAVE);		// è
0036ce   6ee5     movwf	0xe5, 0            	MOVWF	POSTDEC1
0036d0   0e00     movlw	0                  	MOVLW	UPPER(_car4)
0036d2   6ee5     movwf	0xe5, 0            	MOVWF	POSTDEC1
0036d4   0e2a     movlw	0x2a               	MOVLW	HIGH(_car4)
0036d6   6ee5     movwf	0xe5, 0            	MOVWF	POSTDEC1
0036d8   0ed6     movlw	0xd6               	MOVLW	LOW(_car4)
0036da   6ee5     movwf	0xe5, 0            	MOVWF	POSTDEC1
0036dc   ec50     call	0x38a0, 0           	CALL	_lcdi2c_newchar
0036de   f01c
0036e0   0e04     movlw	0x4                	MOVLW	0x04
0036e2   26e1     addwf	0xe1, 0x1, 0       	ADDWF	FSR1L, F
                                           ;	.line	523; /home/regis/Hobbies/Electronique/Projets/PinguinoIDE/X/branches/linux/tools/p8/bin/../share/sdcc/include/pic16/lcdi2c.c	lcdi2c_newchar(car5,  ECIRC);			// ê
0036e4   0e05     movlw	0x5                	MOVLW	0x05
0036e6   6ee5     movwf	0xe5, 0            	MOVWF	POSTDEC1
0036e8   0e00     movlw	0                  	MOVLW	UPPER(_car5)
0036ea   6ee5     movwf	0xe5, 0            	MOVWF	POSTDEC1
0036ec   0e2a     movlw	0x2a               	MOVLW	HIGH(_car5)
0036ee   6ee5     movwf	0xe5, 0            	MOVWF	POSTDEC1
0036f0   0ede     movlw	0xde               	MOVLW	LOW(_car5)
0036f2   6ee5     movwf	0xe5, 0            	MOVWF	POSTDEC1
0036f4   ec50     call	0x38a0, 0           	CALL	_lcdi2c_newchar
0036f6   f01c
0036f8   0e04     movlw	0x4                	MOVLW	0x04
0036fa   26e1     addwf	0xe1, 0x1, 0       	ADDWF	FSR1L, F
                                           ;	.line	524; /home/regis/Hobbies/Electronique/Projets/PinguinoIDE/X/branches/linux/tools/p8/bin/../share/sdcc/include/pic16/lcdi2c.c	lcdi2c_newchar(car6,  ETREMA);		// ë
0036fc   0e06     movlw	0x6                	MOVLW	0x06
0036fe   6ee5     movwf	0xe5, 0            	MOVWF	POSTDEC1
003700   0e00     movlw	0                  	MOVLW	UPPER(_car6)
003702   6ee5     movwf	0xe5, 0            	MOVWF	POSTDEC1
003704   0e2a     movlw	0x2a               	MOVLW	HIGH(_car6)
003706   6ee5     movwf	0xe5, 0            	MOVWF	POSTDEC1
003708   0ee6     movlw	0xe6               	MOVLW	LOW(_car6)
00370a   6ee5     movwf	0xe5, 0            	MOVWF	POSTDEC1
00370c   ec50     call	0x38a0, 0           	CALL	_lcdi2c_newchar
00370e   f01c
003710   0e04     movlw	0x4                	MOVLW	0x04
003712   26e1     addwf	0xe1, 0x1, 0       	ADDWF	FSR1L, F
                                           ;	.line	525; /home/regis/Hobbies/Electronique/Projets/PinguinoIDE/X/branches/linux/tools/p8/bin/../share/sdcc/include/pic16/lcdi2c.c	lcdi2c_newchar(car7,  EURO);			// €
003714   0e07     movlw	0x7                	MOVLW	0x07
003716   6ee5     movwf	0xe5, 0            	MOVWF	POSTDEC1
003718   0e00     movlw	0                  	MOVLW	UPPER(_car7)
00371a   6ee5     movwf	0xe5, 0            	MOVWF	POSTDEC1
00371c   0e2a     movlw	0x2a               	MOVLW	HIGH(_car7)
00371e   6ee5     movwf	0xe5, 0            	MOVWF	POSTDEC1
003720   0eee     movlw	0xee               	MOVLW	LOW(_car7)
003722   6ee5     movwf	0xe5, 0            	MOVWF	POSTDEC1
003724   ec50     call	0x38a0, 0           	CALL	_lcdi2c_newchar
003726   f01c
003728   0e04     movlw	0x4                	MOVLW	0x04
00372a   26e1     addwf	0xe1, 0x1, 0       	ADDWF	FSR1L, F
00372c   0012     return	0                 	RETURN	
                                           
                                           ; ; Starting pCode block
                                           S_main__lcdi2c_newchar	code
                                           _lcdi2c_newchar:
                                           ;	.line	496; /home/regis/Hobbies/Electronique/Projets/PinguinoIDE/X/branches/linux/tools/p8/bin/../share/sdcc/include/pic16/lcdi2c.c	void lcdi2c_newchar(const u8 *c, u8 char_code)
0038a0   cfd9     movff	0xfd9, 0xfe5       	MOVFF	FSR2L, POSTDEC1
0038a2   ffe5
0038a4   cfe1     movff	0xfe1, 0xfd9       	MOVFF	FSR1L, FSR2L
0038a6   ffd9
0038a8   c000     movff	0, 0xfe5           	MOVFF	r0x00, POSTDEC1
0038aa   ffe5
0038ac   c001     movff	0x1, 0xfe5         	MOVFF	r0x01, POSTDEC1
0038ae   ffe5
0038b0   c002     movff	0x2, 0xfe5         	MOVFF	r0x02, POSTDEC1
0038b2   ffe5
0038b4   c003     movff	0x3, 0xfe5         	MOVFF	r0x03, POSTDEC1
0038b6   ffe5
0038b8   c004     movff	0x4, 0xfe5         	MOVFF	r0x04, POSTDEC1
0038ba   ffe5
0038bc   c005     movff	0x5, 0xfe5         	MOVFF	r0x05, POSTDEC1
0038be   ffe5
0038c0   c006     movff	0x6, 0xfe5         	MOVFF	r0x06, POSTDEC1
0038c2   ffe5
0038c4   0e02     movlw	0x2                	MOVLW	0x02
0038c6   cfdb     movff	0xfdb, 0           	MOVFF	PLUSW2, r0x00
0038c8   f000
0038ca   0e03     movlw	0x3                	MOVLW	0x03
0038cc   cfdb     movff	0xfdb, 0x1         	MOVFF	PLUSW2, r0x01
0038ce   f001
0038d0   0e04     movlw	0x4                	MOVLW	0x04
0038d2   cfdb     movff	0xfdb, 0x2         	MOVFF	PLUSW2, r0x02
0038d4   f002
0038d6   0e05     movlw	0x5                	MOVLW	0x05
0038d8   cfdb     movff	0xfdb, 0x3         	MOVFF	PLUSW2, r0x03
0038da   f003
                                           ;	.line	501; /home/regis/Hobbies/Electronique/Projets/PinguinoIDE/X/branches/linux/tools/p8/bin/../share/sdcc/include/pic16/lcdi2c.c	a = (char_code << 3) | LCD_ADRESS_CGRAM;
0038dc   3803     swapf	0x3, 0, 0          	SWAPF	r0x03, W
0038de   40e8     rrncf	0xe8, 0, 0         	RRNCF	WREG, W
0038e0   0bf8     andlw	0xf8               	ANDLW	0xf8
0038e2   6e04     movwf	0x4, 0             	MOVWF	r0x04
0038e4   0e40     movlw	0x40               	MOVLW	0x40
0038e6   1004     iorwf	0x4, 0, 0          	IORWF	r0x04, W
0038e8   6e03     movwf	0x3, 0             	MOVWF	r0x03
                                           ;	.line	502; /home/regis/Hobbies/Electronique/Projets/PinguinoIDE/X/branches/linux/tools/p8/bin/../share/sdcc/include/pic16/lcdi2c.c	for(i=0; i<8; i++)
0038ea   6a04     clrf	0x4, 0              	CLRF	r0x04
                                           _00743_DS_:
0038ec   0e08     movlw	0x8                	MOVLW	0x08
0038ee   5c04     subwf	0x4, 0, 0          	SUBWF	r0x04, W
0038f0   e221     bc	0x3934                	BC	_00747_DS_
                                           ;	.line	504; /home/regis/Hobbies/Electronique/Projets/PinguinoIDE/X/branches/linux/tools/p8/bin/../share/sdcc/include/pic16/lcdi2c.c	lcdi2c_send8(a, LCD_CMD);
0038f2   6ae5     clrf	0xe5, 0             	CLRF	POSTDEC1
0038f4   5003     movf	0x3, 0, 0           	MOVF	r0x03, W
0038f6   6ee5     movwf	0xe5, 0            	MOVWF	POSTDEC1
0038f8   ec96     call	0x3f2c, 0           	CALL	_lcdi2c_send8
0038fa   f01f
0038fc   0e02     movlw	0x2                	MOVLW	0x02
0038fe   26e1     addwf	0xe1, 0x1, 0       	ADDWF	FSR1L, F
                                           ;	.line	505; /home/regis/Hobbies/Electronique/Projets/PinguinoIDE/X/branches/linux/tools/p8/bin/../share/sdcc/include/pic16/lcdi2c.c	lcdi2c_send8(c[i], LCD_DATA);
003900   5004     movf	0x4, 0, 0           	MOVF	r0x04, W
003902   2400     addwf	0, 0, 0            	ADDWF	r0x00, W
003904   6e05     movwf	0x5, 0             	MOVWF	r0x05
003906   6ae8     clrf	0xe8, 0             	CLRF	WREG
003908   2001     addwfc	0x1, 0, 0         	ADDWFC	r0x01, W
00390a   6e06     movwf	0x6, 0             	MOVWF	r0x06
00390c   6ae8     clrf	0xe8, 0             	CLRF	WREG
00390e   2002     addwfc	0x2, 0, 0         	ADDWFC	r0x02, W
003910   c005     movff	0x5, 0xfe9         	MOVFF	r0x05, FSR0L
003912   ffe9
003914   c006     movff	0x6, 0xff3         	MOVFF	r0x06, PRODL
003916   fff3
003918   ec29     call	0x52, 0             	CALL	__gptrget1
00391a   f000
00391c   6e05     movwf	0x5, 0             	MOVWF	r0x05
00391e   0e01     movlw	0x1                	MOVLW	0x01
003920   6ee5     movwf	0xe5, 0            	MOVWF	POSTDEC1
003922   5005     movf	0x5, 0, 0           	MOVF	r0x05, W
003924   6ee5     movwf	0xe5, 0            	MOVWF	POSTDEC1
003926   ec96     call	0x3f2c, 0           	CALL	_lcdi2c_send8
003928   f01f
00392a   0e02     movlw	0x2                	MOVLW	0x02
00392c   26e1     addwf	0xe1, 0x1, 0       	ADDWF	FSR1L, F
                                           ;	.line	506; /home/regis/Hobbies/Electronique/Projets/PinguinoIDE/X/branches/linux/tools/p8/bin/../share/sdcc/include/pic16/lcdi2c.c	a++;
00392e   2a03     incf	0x3, 0x1, 0         	INCF	r0x03, F
                                           ;	.line	502; /home/regis/Hobbies/Electronique/Projets/PinguinoIDE/X/branches/linux/tools/p8/bin/../share/sdcc/include/pic16/lcdi2c.c	for(i=0; i<8; i++)
003930   2a04     incf	0x4, 0x1, 0         	INCF	r0x04, F
003932   d7dc     bra	0x38ec               	BRA	_00743_DS_
                                           _00747_DS_:
003934   cfe4     movff	0xfe4, 0x6         	MOVFF	PREINC1, r0x06
003936   f006
003938   cfe4     movff	0xfe4, 0x5         	MOVFF	PREINC1, r0x05
00393a   f005
00393c   cfe4     movff	0xfe4, 0x4         	MOVFF	PREINC1, r0x04
00393e   f004
003940   cfe4     movff	0xfe4, 0x3         	MOVFF	PREINC1, r0x03
003942   f003
003944   cfe4     movff	0xfe4, 0x2         	MOVFF	PREINC1, r0x02
003946   f002
003948   cfe4     movff	0xfe4, 0x1         	MOVFF	PREINC1, r0x01
00394a   f001
00394c   cfe4     movff	0xfe4, 0           	MOVFF	PREINC1, r0x00
00394e   f000
003950   cfe4     movff	0xfe4, 0xfd9       	MOVFF	PREINC1, FSR2L
003952   ffd9
003954   0012     return	0                 	RETURN	
                                           
                                           ; ; Starting pCode block
                                           S_main__lcdi2c_printf	code
                                           _lcdi2c_printf:
                                           ;	.line	478; /home/regis/Hobbies/Electronique/Projets/PinguinoIDE/X/branches/linux/tools/p8/bin/../share/sdcc/include/pic16/lcdi2c.c	void lcdi2c_printf(u8 *fmt, ...)
003d1c   cfd9     movff	0xfd9, 0xfe5       	MOVFF	FSR2L, POSTDEC1
003d1e   ffe5
003d20   cfe1     movff	0xfe1, 0xfd9       	MOVFF	FSR1L, FSR2L
003d22   ffd9
003d24   c000     movff	0, 0xfe5           	MOVFF	r0x00, POSTDEC1
003d26   ffe5
003d28   c001     movff	0x1, 0xfe5         	MOVFF	r0x01, POSTDEC1
003d2a   ffe5
003d2c   c003     movff	0x3, 0xfe5         	MOVFF	r0x03, POSTDEC1
003d2e   ffe5
003d30   c004     movff	0x4, 0xfe5         	MOVFF	r0x04, POSTDEC1
003d32   ffe5
003d34   c005     movff	0x5, 0xfe5         	MOVFF	r0x05, POSTDEC1
003d36   ffe5
                                           ;	.line	482; /home/regis/Hobbies/Electronique/Projets/PinguinoIDE/X/branches/linux/tools/p8/bin/../share/sdcc/include/pic16/lcdi2c.c	va_start(args, fmt);
003d38   0e02     movlw	0x2                	MOVLW	0x02
003d3a   24d9     addwf	0xd9, 0, 0         	ADDWF	FSR2L, W
003d3c   6e00     movwf	0, 0               	MOVWF	r0x00
003d3e   0e00     movlw	0                  	MOVLW	0x00
003d40   20da     addwfc	0xda, 0, 0        	ADDWFC	FSR2H, W
003d42   6e01     movwf	0x1, 0             	MOVWF	r0x01
003d44   0e03     movlw	0x3                	MOVLW	0x03
003d46   2600     addwf	0, 0x1, 0          	ADDWF	r0x00, F
003d48   b0d8     btfsc	0xd8, 0, 0         	BTFSC	STATUS, 0
003d4a   2a01     incf	0x1, 0x1, 0         	INCF	r0x01, F
                                           ; #	MOVF	r0x01, W
                                           ; #	MOVWF	r0x01
                                           ; #	MOVF	r0x01, W
                                           ; #	MOVF	r0x00, W
                                           ; #	MOVF	r0x00, W
                                           ; #	MOVWF	r0x00
                                           ;	.line	483; /home/regis/Hobbies/Electronique/Projets/PinguinoIDE/X/branches/linux/tools/p8/bin/../share/sdcc/include/pic16/lcdi2c.c	pprintf(lcdi2c_write, fmt, args);
003d4c   0e02     movlw	0x2                	MOVLW	0x02
003d4e   cfdb     movff	0xfdb, 0x3         	MOVFF	PLUSW2, r0x03
003d50   f003
003d52   0e03     movlw	0x3                	MOVLW	0x03
003d54   cfdb     movff	0xfdb, 0x4         	MOVFF	PLUSW2, r0x04
003d56   f004
003d58   0e04     movlw	0x4                	MOVLW	0x04
003d5a   cfdb     movff	0xfdb, 0x5         	MOVFF	PLUSW2, r0x05
003d5c   f005
003d5e   0e80     movlw	0x80               	MOVLW	0x80
003d60   6ee5     movwf	0xe5, 0            	MOVWF	POSTDEC1
003d62   5001     movf	0x1, 0, 0           	MOVF	r0x01, W
003d64   6ee5     movwf	0xe5, 0            	MOVWF	POSTDEC1
003d66   5000     movf	0, 0, 0             	MOVF	r0x00, W
003d68   6ee5     movwf	0xe5, 0            	MOVWF	POSTDEC1
003d6a   5005     movf	0x5, 0, 0           	MOVF	r0x05, W
003d6c   6ee5     movwf	0xe5, 0            	MOVWF	POSTDEC1
003d6e   5004     movf	0x4, 0, 0           	MOVF	r0x04, W
003d70   6ee5     movwf	0xe5, 0            	MOVWF	POSTDEC1
003d72   5003     movf	0x3, 0, 0           	MOVF	r0x03, W
003d74   6ee5     movwf	0xe5, 0            	MOVWF	POSTDEC1
003d76   0e00     movlw	0                  	MOVLW	UPPER(_lcdi2c_write)
003d78   6ee5     movwf	0xe5, 0            	MOVWF	POSTDEC1
003d7a   0e41     movlw	0x41               	MOVLW	HIGH(_lcdi2c_write)
003d7c   6ee5     movwf	0xe5, 0            	MOVWF	POSTDEC1
003d7e   0ee8     movlw	0xe8               	MOVLW	LOW(_lcdi2c_write)
003d80   6ee5     movwf	0xe5, 0            	MOVWF	POSTDEC1
003d82   ec56     call	0x3aac, 0           	CALL	_pprintf
003d84   f01d
003d86   0e09     movlw	0x9                	MOVLW	0x09
003d88   26e1     addwf	0xe1, 0x1, 0       	ADDWF	FSR1L, F
                                           ;	.line	484; /home/regis/Hobbies/Electronique/Projets/PinguinoIDE/X/branches/linux/tools/p8/bin/../share/sdcc/include/pic16/lcdi2c.c	va_end(args);
003d8a   cfe4     movff	0xfe4, 0x5         	MOVFF	PREINC1, r0x05
003d8c   f005
003d8e   cfe4     movff	0xfe4, 0x4         	MOVFF	PREINC1, r0x04
003d90   f004
003d92   cfe4     movff	0xfe4, 0x3         	MOVFF	PREINC1, r0x03
003d94   f003
003d96   cfe4     movff	0xfe4, 0x1         	MOVFF	PREINC1, r0x01
003d98   f001
003d9a   cfe4     movff	0xfe4, 0           	MOVFF	PREINC1, r0x00
003d9c   f000
003d9e   cfe4     movff	0xfe4, 0xfd9       	MOVFF	PREINC1, FSR2L
003da0   ffd9
003da2   0012     return	0                 	RETURN	
                                           
                                           ; ; Starting pCode block
                                           S_main__lcdi2c_write	code
                                           _lcdi2c_write:
                                           ;	.line	468; /home/regis/Hobbies/Electronique/Projets/PinguinoIDE/X/branches/linux/tools/p8/bin/../share/sdcc/include/pic16/lcdi2c.c	void lcdi2c_write(u8 c)
0041e8   cfd9     movff	0xfd9, 0xfe5       	MOVFF	FSR2L, POSTDEC1
0041ea   ffe5
0041ec   cfe1     movff	0xfe1, 0xfd9       	MOVFF	FSR1L, FSR2L
0041ee   ffd9
0041f0   c000     movff	0, 0xfe5           	MOVFF	r0x00, POSTDEC1
0041f2   ffe5
0041f4   0e02     movlw	0x2                	MOVLW	0x02
0041f6   cfdb     movff	0xfdb, 0           	MOVFF	PLUSW2, r0x00
0041f8   f000
                                           ;	.line	470; /home/regis/Hobbies/Electronique/Projets/PinguinoIDE/X/branches/linux/tools/p8/bin/../share/sdcc/include/pic16/lcdi2c.c	lcdi2c_send8(c, LCD_DATA);
0041fa   0e01     movlw	0x1                	MOVLW	0x01
0041fc   6ee5     movwf	0xe5, 0            	MOVWF	POSTDEC1
0041fe   5000     movf	0, 0, 0             	MOVF	r0x00, W
004200   6ee5     movwf	0xe5, 0            	MOVWF	POSTDEC1
004202   ec96     call	0x3f2c, 0           	CALL	_lcdi2c_send8
004204   f01f
004206   0e02     movlw	0x2                	MOVLW	0x02
004208   26e1     addwf	0xe1, 0x1, 0       	ADDWF	FSR1L, F
00420a   cfe4     movff	0xfe4, 0           	MOVFF	PREINC1, r0x00
00420c   f000
00420e   cfe4     movff	0xfe4, 0xfd9       	MOVFF	PREINC1, FSR2L
004210   ffd9
004212   0012     return	0                 	RETURN	
                                           
                                           ; ; Starting pCode block
                                           S_main__lcdi2c_clearLine	code
                                           _lcdi2c_clearLine:
                                           ;	.line	453; /home/regis/Hobbies/Electronique/Projets/PinguinoIDE/X/branches/linux/tools/p8/bin/../share/sdcc/include/pic16/lcdi2c.c	void lcdi2c_clearLine(u8 line)
0040f4   cfd9     movff	0xfd9, 0xfe5       	MOVFF	FSR2L, POSTDEC1
0040f6   ffe5
0040f8   cfe1     movff	0xfe1, 0xfd9       	MOVFF	FSR1L, FSR2L
0040fa   ffd9
0040fc   c000     movff	0, 0xfe5           	MOVFF	r0x00, POSTDEC1
0040fe   ffe5
004100   0e02     movlw	0x2                	MOVLW	0x02
004102   cfdb     movff	0xfdb, 0           	MOVFF	PLUSW2, r0x00
004104   f000
                                           ;	.line	457; /home/regis/Hobbies/Electronique/Projets/PinguinoIDE/X/branches/linux/tools/p8/bin/../share/sdcc/include/pic16/lcdi2c.c	lcdi2c_setCursor(0, line);
004106   5000     movf	0, 0, 0             	MOVF	r0x00, W
004108   6ee5     movwf	0xe5, 0            	MOVWF	POSTDEC1
00410a   0e00     movlw	0                  	MOVLW	0x00
00410c   6ae5     clrf	0xe5, 0             	CLRF	POSTDEC1
00410e   ec44     call	0x3c88, 0           	CALL	_lcdi2c_setCursor
004110   f01e
004112   0e02     movlw	0x2                	MOVLW	0x02
004114   26e1     addwf	0xe1, 0x1, 0       	ADDWF	FSR1L, F
                                           ;	.line	458; /home/regis/Hobbies/Electronique/Projets/PinguinoIDE/X/branches/linux/tools/p8/bin/../share/sdcc/include/pic16/lcdi2c.c	for (i = 0; i < numcolmax; i++)
004116   6a00     clrf	0, 0                	CLRF	r0x00
                                           _00719_DS_:
004118   0102     movlb	0x2                	BANKSEL	_numcolmax
00411a   519a     movf	0x9a, 0, 0x1        	MOVF	_numcolmax, W, B
00411c   5c00     subwf	0, 0, 0            	SUBWF	r0x00, W
00411e   e207     bc	0x412e                	BC	_00723_DS_
                                           ;	.line	459; /home/regis/Hobbies/Electronique/Projets/PinguinoIDE/X/branches/linux/tools/p8/bin/../share/sdcc/include/pic16/lcdi2c.c	lcdi2c_write(ESPACE);  // affiche des espaces
004120   0e20     movlw	0x20               	MOVLW	0x20
004122   6ee5     movwf	0xe5, 0            	MOVWF	POSTDEC1
004124   ecf4     call	0x41e8, 0           	CALL	_lcdi2c_write
004126   f020
004128   2ae1     incf	0xe1, 0x1, 0        	INCF	FSR1L, F
                                           ;	.line	458; /home/regis/Hobbies/Electronique/Projets/PinguinoIDE/X/branches/linux/tools/p8/bin/../share/sdcc/include/pic16/lcdi2c.c	for (i = 0; i < numcolmax; i++)
00412a   2a00     incf	0, 0x1, 0           	INCF	r0x00, F
00412c   d7f5     bra	0x4118               	BRA	_00719_DS_
                                           _00723_DS_:
00412e   cfe4     movff	0xfe4, 0           	MOVFF	PREINC1, r0x00
004130   f000
004132   cfe4     movff	0xfe4, 0xfd9       	MOVFF	PREINC1, FSR2L
004134   ffd9
004136   0012     return	0                 	RETURN	
                                           
                                           ; ; Starting pCode block
                                           S_main__lcdi2c_setCursor	code
                                           _lcdi2c_setCursor:
                                           ;	.line	438; /home/regis/Hobbies/Electronique/Projets/PinguinoIDE/X/branches/linux/tools/p8/bin/../share/sdcc/include/pic16/lcdi2c.c	void lcdi2c_setCursor(u8 col, u8 line)
003c88   cfd9     movff	0xfd9, 0xfe5       	MOVFF	FSR2L, POSTDEC1
003c8a   ffe5
003c8c   cfe1     movff	0xfe1, 0xfd9       	MOVFF	FSR1L, FSR2L
003c8e   ffd9
003c90   c000     movff	0, 0xfe5           	MOVFF	r0x00, POSTDEC1
003c92   ffe5
003c94   c001     movff	0x1, 0xfe5         	MOVFF	r0x01, POSTDEC1
003c96   ffe5
003c98   c002     movff	0x2, 0xfe5         	MOVFF	r0x02, POSTDEC1
003c9a   ffe5
003c9c   0e02     movlw	0x2                	MOVLW	0x02
003c9e   cfdb     movff	0xfdb, 0           	MOVFF	PLUSW2, r0x00
003ca0   f000
003ca2   0e03     movlw	0x3                	MOVLW	0x03
003ca4   cfdb     movff	0xfdb, 0x1         	MOVFF	PLUSW2, r0x01
003ca6   f001
003ca8   0102     movlb	0x2                	BANKSEL	_lcdi2c_setCursor_row_offsets_1_1
                                           ;	.line	440; /home/regis/Hobbies/Electronique/Projets/PinguinoIDE/X/branches/linux/tools/p8/bin/../share/sdcc/include/pic16/lcdi2c.c	int row_offsets[] = { 0x00, 0x40, 0x14, 0x54 };
003caa   6b6c     clrf	0x6c, 0x1           	CLRF	_lcdi2c_setCursor_row_offsets_1_1, B
                                           ; removed redundant BANKSEL
003cac   6b6d     clrf	0x6d, 0x1           	CLRF	(_lcdi2c_setCursor_row_offsets_1_1 + 1), B
003cae   0e40     movlw	0x40               	MOVLW	0x40
                                           ; removed redundant BANKSEL
003cb0   6f6e     movwf	0x6e, 0x1          	MOVWF	(_lcdi2c_setCursor_row_offsets_1_1 + 2), B
                                           ; removed redundant BANKSEL
003cb2   6b6f     clrf	0x6f, 0x1           	CLRF	(_lcdi2c_setCursor_row_offsets_1_1 + 3), B
003cb4   0e14     movlw	0x14               	MOVLW	0x14
                                           ; removed redundant BANKSEL
003cb6   6f70     movwf	0x70, 0x1          	MOVWF	(_lcdi2c_setCursor_row_offsets_1_1 + 4), B
                                           ; removed redundant BANKSEL
003cb8   6b71     clrf	0x71, 0x1           	CLRF	(_lcdi2c_setCursor_row_offsets_1_1 + 5), B
003cba   0e54     movlw	0x54               	MOVLW	0x54
                                           ; removed redundant BANKSEL
003cbc   6f72     movwf	0x72, 0x1          	MOVWF	(_lcdi2c_setCursor_row_offsets_1_1 + 6), B
                                           ; removed redundant BANKSEL
003cbe   6b73     clrf	0x73, 0x1           	CLRF	(_lcdi2c_setCursor_row_offsets_1_1 + 7), B
                                           ;	.line	442; /home/regis/Hobbies/Electronique/Projets/PinguinoIDE/X/branches/linux/tools/p8/bin/../share/sdcc/include/pic16/lcdi2c.c	if ( line > numlinemax )
003cc0   5001     movf	0x1, 0, 0           	MOVF	r0x01, W
003cc2   0102     movlb	0x2                	BANKSEL	_numlinemax
003cc4   5d99     subwf	0x99, 0, 0x1       	SUBWF	_numlinemax, W, B
003cc6   e202     bc	0x3ccc                	BC	_00706_DS_
                                           ; removed redundant BANKSEL
                                           ;	.line	443; /home/regis/Hobbies/Electronique/Projets/PinguinoIDE/X/branches/linux/tools/p8/bin/../share/sdcc/include/pic16/lcdi2c.c	line = numlinemax - 1;    // we count rows starting w/0
003cc8   0599     decf	0x99, 0, 0x1        	DECF	_numlinemax, W, B
003cca   6e01     movwf	0x1, 0             	MOVWF	r0x01
                                           _00706_DS_:
                                           ;	.line	444; /home/regis/Hobbies/Electronique/Projets/PinguinoIDE/X/branches/linux/tools/p8/bin/../share/sdcc/include/pic16/lcdi2c.c	if ( col > numcolmax )
003ccc   5000     movf	0, 0, 0             	MOVF	r0x00, W
003cce   0102     movlb	0x2                	BANKSEL	_numcolmax
003cd0   5d9a     subwf	0x9a, 0, 0x1       	SUBWF	_numcolmax, W, B
003cd2   e202     bc	0x3cd8                	BC	_00708_DS_
                                           ; removed redundant BANKSEL
                                           ;	.line	445; /home/regis/Hobbies/Electronique/Projets/PinguinoIDE/X/branches/linux/tools/p8/bin/../share/sdcc/include/pic16/lcdi2c.c	col = numcolmax - 1;    // we count rows starting w/0
003cd4   059a     decf	0x9a, 0, 0x1        	DECF	_numcolmax, W, B
003cd6   6e00     movwf	0, 0               	MOVWF	r0x00
                                           ; ;multiply lit val:0x02 by variable r0x01 and store in r0x01
                                           ; ;Unrolled 8 X 8 multiplication
                                           ; ;FIXME: the function does not support result==WREG
                                           _00708_DS_:
                                           ;	.line	446; /home/regis/Hobbies/Electronique/Projets/PinguinoIDE/X/branches/linux/tools/p8/bin/../share/sdcc/include/pic16/lcdi2c.c	lcdi2c_send8(LCD_SETDDRAMADDR | (col + row_offsets[line]), LCD_CMD);
003cd8   90d8     bcf	0xd8, 0, 0           	BCF	STATUS, 0
003cda   3601     rlcf	0x1, 0x1, 0         	RLCF	r0x01, F
003cdc   6a02     clrf	0x2, 0              	CLRF	r0x02
003cde   0e6c     movlw	0x6c               	MOVLW	LOW(_lcdi2c_setCursor_row_offsets_1_1)
003ce0   2601     addwf	0x1, 0x1, 0        	ADDWF	r0x01, F
003ce2   0e02     movlw	0x2                	MOVLW	HIGH(_lcdi2c_setCursor_row_offsets_1_1)
003ce4   2202     addwfc	0x2, 0x1, 0       	ADDWFC	r0x02, F
003ce6   c001     movff	0x1, 0xfe9         	MOVFF	r0x01, FSR0L
003ce8   ffe9
003cea   c002     movff	0x2, 0xfea         	MOVFF	r0x02, FSR0H
003cec   ffea
003cee   cfee     movff	0xfee, 0x1         	MOVFF	POSTINC0, r0x01
003cf0   f001
003cf2   cfef     movff	0xfef, 0x2         	MOVFF	INDF0, r0x02
003cf4   f002
003cf6   5001     movf	0x1, 0, 0           	MOVF	r0x01, W
003cf8   2600     addwf	0, 0x1, 0          	ADDWF	r0x00, F
003cfa   8e00     bsf	0, 0x7, 0            	BSF	r0x00, 7
003cfc   6ae5     clrf	0xe5, 0             	CLRF	POSTDEC1
003cfe   5000     movf	0, 0, 0             	MOVF	r0x00, W
003d00   6ee5     movwf	0xe5, 0            	MOVWF	POSTDEC1
003d02   ec96     call	0x3f2c, 0           	CALL	_lcdi2c_send8
003d04   f01f
003d06   0e02     movlw	0x2                	MOVLW	0x02
003d08   26e1     addwf	0xe1, 0x1, 0       	ADDWF	FSR1L, F
003d0a   cfe4     movff	0xfe4, 0x2         	MOVFF	PREINC1, r0x02
003d0c   f002
003d0e   cfe4     movff	0xfe4, 0x1         	MOVFF	PREINC1, r0x01
003d10   f001
003d12   cfe4     movff	0xfe4, 0           	MOVFF	PREINC1, r0x00
003d14   f000
003d16   cfe4     movff	0xfe4, 0xfd9       	MOVFF	PREINC1, FSR2L
003d18   ffd9
003d1a   0012     return	0                 	RETURN	
                                           
                                           ; ; Starting pCode block
                                           S_main__lcdi2c_noDisplay	code
                                           _lcdi2c_noDisplay:
                                           ;	.line	429; /home/regis/Hobbies/Electronique/Projets/PinguinoIDE/X/branches/linux/tools/p8/bin/../share/sdcc/include/pic16/lcdi2c.c	lcdi2c_send8(LCD_DISPLAYOFF, LCD_CMD);
004366   0e00     movlw	0                  	MOVLW	0x00
004368   6ae5     clrf	0xe5, 0             	CLRF	POSTDEC1
00436a   6ae5     clrf	0xe5, 0             	CLRF	POSTDEC1
00436c   ec96     call	0x3f2c, 0           	CALL	_lcdi2c_send8
00436e   f01f
004370   0e02     movlw	0x2                	MOVLW	0x02
004372   26e1     addwf	0xe1, 0x1, 0       	ADDWF	FSR1L, F
004374   0012     return	0                 	RETURN	
                                           
                                           ; ; Starting pCode block
                                           S_main__lcdi2c_display	code
                                           _lcdi2c_display:
                                           ;	.line	420; /home/regis/Hobbies/Electronique/Projets/PinguinoIDE/X/branches/linux/tools/p8/bin/../share/sdcc/include/pic16/lcdi2c.c	lcdi2c_send8(LCD_DISPLAYON, LCD_CMD);
004376   6ae5     clrf	0xe5, 0             	CLRF	POSTDEC1
004378   0e04     movlw	0x4                	MOVLW	0x04
00437a   6ee5     movwf	0xe5, 0            	MOVWF	POSTDEC1
00437c   ec96     call	0x3f2c, 0           	CALL	_lcdi2c_send8
00437e   f01f
004380   0e02     movlw	0x2                	MOVLW	0x02
004382   26e1     addwf	0xe1, 0x1, 0       	ADDWF	FSR1L, F
004384   0012     return	0                 	RETURN	
                                           
                                           ; ; Starting pCode block
                                           S_main__lcdi2c_noCursor	code
                                           _lcdi2c_noCursor:
                                           ;	.line	411; /home/regis/Hobbies/Electronique/Projets/PinguinoIDE/X/branches/linux/tools/p8/bin/../share/sdcc/include/pic16/lcdi2c.c	lcdi2c_send8(LCD_CURSOROFF, LCD_CMD);
004386   0e00     movlw	0                  	MOVLW	0x00
004388   6ae5     clrf	0xe5, 0             	CLRF	POSTDEC1
00438a   6ae5     clrf	0xe5, 0             	CLRF	POSTDEC1
00438c   ec96     call	0x3f2c, 0           	CALL	_lcdi2c_send8
00438e   f01f
004390   0e02     movlw	0x2                	MOVLW	0x02
004392   26e1     addwf	0xe1, 0x1, 0       	ADDWF	FSR1L, F
004394   0012     return	0                 	RETURN	
                                           
                                           ; ; Starting pCode block
                                           S_main__lcdi2c_cursor	code
                                           _lcdi2c_cursor:
                                           ;	.line	402; /home/regis/Hobbies/Electronique/Projets/PinguinoIDE/X/branches/linux/tools/p8/bin/../share/sdcc/include/pic16/lcdi2c.c	lcdi2c_send8(LCD_CURSORON, LCD_CMD);
004396   6ae5     clrf	0xe5, 0             	CLRF	POSTDEC1
004398   0e02     movlw	0x2                	MOVLW	0x02
00439a   6ee5     movwf	0xe5, 0            	MOVWF	POSTDEC1
00439c   ec96     call	0x3f2c, 0           	CALL	_lcdi2c_send8
00439e   f01f
0043a0   0e02     movlw	0x2                	MOVLW	0x02
0043a2   26e1     addwf	0xe1, 0x1, 0       	ADDWF	FSR1L, F
0043a4   0012     return	0                 	RETURN	
                                           
                                           ; ; Starting pCode block
                                           S_main__lcdi2c_noBlink	code
                                           _lcdi2c_noBlink:
                                           ;	.line	393; /home/regis/Hobbies/Electronique/Projets/PinguinoIDE/X/branches/linux/tools/p8/bin/../share/sdcc/include/pic16/lcdi2c.c	lcdi2c_send8(LCD_BLINKOFF, LCD_CMD);
0043a6   0e00     movlw	0                  	MOVLW	0x00
0043a8   6ae5     clrf	0xe5, 0             	CLRF	POSTDEC1
0043aa   6ae5     clrf	0xe5, 0             	CLRF	POSTDEC1
0043ac   ec96     call	0x3f2c, 0           	CALL	_lcdi2c_send8
0043ae   f01f
0043b0   0e02     movlw	0x2                	MOVLW	0x02
0043b2   26e1     addwf	0xe1, 0x1, 0       	ADDWF	FSR1L, F
0043b4   0012     return	0                 	RETURN	
                                           
                                           ; ; Starting pCode block
                                           S_main__lcdi2c_blink	code
                                           _lcdi2c_blink:
                                           ;	.line	384; /home/regis/Hobbies/Electronique/Projets/PinguinoIDE/X/branches/linux/tools/p8/bin/../share/sdcc/include/pic16/lcdi2c.c	lcdi2c_send8(LCD_BLINKON, LCD_CMD);
0043b6   6ae5     clrf	0xe5, 0             	CLRF	POSTDEC1
0043b8   0e01     movlw	0x1                	MOVLW	0x01
0043ba   6ee5     movwf	0xe5, 0            	MOVWF	POSTDEC1
0043bc   ec96     call	0x3f2c, 0           	CALL	_lcdi2c_send8
0043be   f01f
0043c0   0e02     movlw	0x2                	MOVLW	0x02
0043c2   26e1     addwf	0xe1, 0x1, 0       	ADDWF	FSR1L, F
0043c4   0012     return	0                 	RETURN	
                                           
                                           ; ; Starting pCode block
                                           S_main__lcdi2c_scrollDisplayLeft	code
                                           _lcdi2c_scrollDisplayLeft:
                                           ;	.line	375; /home/regis/Hobbies/Electronique/Projets/PinguinoIDE/X/branches/linux/tools/p8/bin/../share/sdcc/include/pic16/lcdi2c.c	lcdi2c_send8(LCD_CURSORSHIFT | LCD_DISPLAYMOVE | LCD_MOVELEFT, LCD_CMD);
0043c6   6ae5     clrf	0xe5, 0             	CLRF	POSTDEC1
0043c8   0e18     movlw	0x18               	MOVLW	0x18
0043ca   6ee5     movwf	0xe5, 0            	MOVWF	POSTDEC1
0043cc   ec96     call	0x3f2c, 0           	CALL	_lcdi2c_send8
0043ce   f01f
0043d0   0e02     movlw	0x2                	MOVLW	0x02
0043d2   26e1     addwf	0xe1, 0x1, 0       	ADDWF	FSR1L, F
0043d4   0012     return	0                 	RETURN	
                                           
                                           ; ; Starting pCode block
                                           S_main__lcdi2c_scrollDisplayRight	code
                                           _lcdi2c_scrollDisplayRight:
                                           ;	.line	366; /home/regis/Hobbies/Electronique/Projets/PinguinoIDE/X/branches/linux/tools/p8/bin/../share/sdcc/include/pic16/lcdi2c.c	lcdi2c_send8(LCD_CURSORSHIFT | LCD_DISPLAYMOVE | LCD_MOVERIGHT, LCD_CMD);
0043d6   6ae5     clrf	0xe5, 0             	CLRF	POSTDEC1
0043d8   0e1c     movlw	0x1c               	MOVLW	0x1c
0043da   6ee5     movwf	0xe5, 0            	MOVWF	POSTDEC1
0043dc   ec96     call	0x3f2c, 0           	CALL	_lcdi2c_send8
0043de   f01f
0043e0   0e02     movlw	0x2                	MOVLW	0x02
0043e2   26e1     addwf	0xe1, 0x1, 0       	ADDWF	FSR1L, F
0043e4   0012     return	0                 	RETURN	
                                           
                                           ; ; Starting pCode block
                                           S_main__lcdi2c_leftToRight	code
                                           _lcdi2c_leftToRight:
                                           ;	.line	357; /home/regis/Hobbies/Electronique/Projets/PinguinoIDE/X/branches/linux/tools/p8/bin/../share/sdcc/include/pic16/lcdi2c.c	lcdi2c_send8(LCD_ENTRYLEFT, LCD_CMD);
0043e6   6ae5     clrf	0xe5, 0             	CLRF	POSTDEC1
0043e8   0e02     movlw	0x2                	MOVLW	0x02
0043ea   6ee5     movwf	0xe5, 0            	MOVWF	POSTDEC1
0043ec   ec96     call	0x3f2c, 0           	CALL	_lcdi2c_send8
0043ee   f01f
0043f0   0e02     movlw	0x2                	MOVLW	0x02
0043f2   26e1     addwf	0xe1, 0x1, 0       	ADDWF	FSR1L, F
0043f4   0012     return	0                 	RETURN	
                                           
                                           ; ; Starting pCode block
                                           S_main__lcdi2c_rightToLeft	code
                                           _lcdi2c_rightToLeft:
                                           ;	.line	348; /home/regis/Hobbies/Electronique/Projets/PinguinoIDE/X/branches/linux/tools/p8/bin/../share/sdcc/include/pic16/lcdi2c.c	lcdi2c_send8(LCD_ENTRYRIGHT, LCD_CMD);
0043f6   0e00     movlw	0                  	MOVLW	0x00
0043f8   6ae5     clrf	0xe5, 0             	CLRF	POSTDEC1
0043fa   6ae5     clrf	0xe5, 0             	CLRF	POSTDEC1
0043fc   ec96     call	0x3f2c, 0           	CALL	_lcdi2c_send8
0043fe   f01f
004400   0e02     movlw	0x2                	MOVLW	0x02
004402   26e1     addwf	0xe1, 0x1, 0       	ADDWF	FSR1L, F
004404   0012     return	0                 	RETURN	
                                           
                                           ; ; Starting pCode block
                                           S_main__lcdi2c_autoscroll	code
                                           _lcdi2c_autoscroll:
                                           ;	.line	339; /home/regis/Hobbies/Electronique/Projets/PinguinoIDE/X/branches/linux/tools/p8/bin/../share/sdcc/include/pic16/lcdi2c.c	lcdi2c_send8(LCD_ENTRYSHIFTINCREMENT, LCD_CMD);
004406   6ae5     clrf	0xe5, 0             	CLRF	POSTDEC1
004408   0e01     movlw	0x1                	MOVLW	0x01
00440a   6ee5     movwf	0xe5, 0            	MOVWF	POSTDEC1
00440c   ec96     call	0x3f2c, 0           	CALL	_lcdi2c_send8
00440e   f01f
004410   0e02     movlw	0x2                	MOVLW	0x02
004412   26e1     addwf	0xe1, 0x1, 0       	ADDWF	FSR1L, F
004414   0012     return	0                 	RETURN	
                                           
                                           ; ; Starting pCode block
                                           S_main__lcdi2c_noAutoscroll	code
                                           _lcdi2c_noAutoscroll:
                                           ;	.line	330; /home/regis/Hobbies/Electronique/Projets/PinguinoIDE/X/branches/linux/tools/p8/bin/../share/sdcc/include/pic16/lcdi2c.c	lcdi2c_send8(LCD_ENTRYSHIFTDECREMENT, LCD_CMD);
004416   0e00     movlw	0                  	MOVLW	0x00
004418   6ae5     clrf	0xe5, 0             	CLRF	POSTDEC1
00441a   6ae5     clrf	0xe5, 0             	CLRF	POSTDEC1
00441c   ec96     call	0x3f2c, 0           	CALL	_lcdi2c_send8
00441e   f01f
004420   0e02     movlw	0x2                	MOVLW	0x02
004422   26e1     addwf	0xe1, 0x1, 0       	ADDWF	FSR1L, F
004424   0012     return	0                 	RETURN	
                                           
                                           ; ; Starting pCode block
                                           S_main__lcdi2c_home	code
                                           _lcdi2c_home:
                                           ;	.line	320; /home/regis/Hobbies/Electronique/Projets/PinguinoIDE/X/branches/linux/tools/p8/bin/../share/sdcc/include/pic16/lcdi2c.c	lcdi2c_send8(LCD_CURSOR_HOME, LCD_CMD);
004266   6ae5     clrf	0xe5, 0             	CLRF	POSTDEC1
004268   0e02     movlw	0x2                	MOVLW	0x02
00426a   6ee5     movwf	0xe5, 0            	MOVWF	POSTDEC1
00426c   ec96     call	0x3f2c, 0           	CALL	_lcdi2c_send8
00426e   f01f
004270   0e02     movlw	0x2                	MOVLW	0x02
004272   26e1     addwf	0xe1, 0x1, 0       	ADDWF	FSR1L, F
                                           ;	.line	321; /home/regis/Hobbies/Electronique/Projets/PinguinoIDE/X/branches/linux/tools/p8/bin/../share/sdcc/include/pic16/lcdi2c.c	Delayms(2);	// Wait for more than 1.64ms
004274   6ae5     clrf	0xe5, 0             	CLRF	POSTDEC1
004276   6ae5     clrf	0xe5, 0             	CLRF	POSTDEC1
004278   6ae5     clrf	0xe5, 0             	CLRF	POSTDEC1
00427a   6ee5     movwf	0xe5, 0            	MOVWF	POSTDEC1
00427c   ec97     call	0x372e, 0           	CALL	_Delayms
00427e   f01b
004280   0e04     movlw	0x4                	MOVLW	0x04
004282   26e1     addwf	0xe1, 0x1, 0       	ADDWF	FSR1L, F
004284   0012     return	0                 	RETURN	
                                           
                                           ; ; Starting pCode block
                                           S_main__lcdi2c_clear	code
                                           _lcdi2c_clear:
                                           ;	.line	310; /home/regis/Hobbies/Electronique/Projets/PinguinoIDE/X/branches/linux/tools/p8/bin/../share/sdcc/include/pic16/lcdi2c.c	lcdi2c_send8(LCD_DISPLAY_CLEAR, LCD_CMD);
004286   6ae5     clrf	0xe5, 0             	CLRF	POSTDEC1
004288   0e01     movlw	0x1                	MOVLW	0x01
00428a   6ee5     movwf	0xe5, 0            	MOVWF	POSTDEC1
00428c   ec96     call	0x3f2c, 0           	CALL	_lcdi2c_send8
00428e   f01f
004290   0e02     movlw	0x2                	MOVLW	0x02
004292   26e1     addwf	0xe1, 0x1, 0       	ADDWF	FSR1L, F
                                           ;	.line	311; /home/regis/Hobbies/Electronique/Projets/PinguinoIDE/X/branches/linux/tools/p8/bin/../share/sdcc/include/pic16/lcdi2c.c	Delayms(2);	// Wait for more than 1.64ms
004294   6ae5     clrf	0xe5, 0             	CLRF	POSTDEC1
004296   6ae5     clrf	0xe5, 0             	CLRF	POSTDEC1
004298   6ae5     clrf	0xe5, 0             	CLRF	POSTDEC1
00429a   6ee5     movwf	0xe5, 0            	MOVWF	POSTDEC1
00429c   ec97     call	0x372e, 0           	CALL	_Delayms
00429e   f01b
0042a0   0e04     movlw	0x4                	MOVLW	0x04
0042a2   26e1     addwf	0xe1, 0x1, 0       	ADDWF	FSR1L, F
0042a4   0012     return	0                 	RETURN	
                                           
                                           ; ; Starting pCode block
                                           S_main__lcdi2c_noBacklight	code
                                           _lcdi2c_noBacklight:
004320   0102     movlb	0x2                	BANKSEL	_Backlight
                                           ;	.line	299; /home/regis/Hobbies/Electronique/Projets/PinguinoIDE/X/branches/linux/tools/p8/bin/../share/sdcc/include/pic16/lcdi2c.c	Backlight = OFF;	// 1 = OFF since PCF8574 is logical inverted
004322   6b7d     clrf	0x7d, 0x1           	CLRF	_Backlight, B
004324   0102     movlb	0x2                	BANKSEL	_PCF8574_data
                                           ;	.line	300; /home/regis/Hobbies/Electronique/Projets/PinguinoIDE/X/branches/linux/tools/p8/bin/../share/sdcc/include/pic16/lcdi2c.c	LCD_BL = Backlight;
004326   9197     bcf	0x97, 0, 0x1         	BCF	_PCF8574_data, 0, B
                                           ;	.line	301; /home/regis/Hobbies/Electronique/Projets/PinguinoIDE/X/branches/linux/tools/p8/bin/../share/sdcc/include/pic16/lcdi2c.c	I2C_send(PCF8574_address, PCF8574_data.val);
004328   5197     movf	0x97, 0, 0x1        	MOVF	_PCF8574_data, W, B
00432a   6ee5     movwf	0xe5, 0            	MOVWF	POSTDEC1
00432c   0102     movlb	0x2                	BANKSEL	_PCF8574_address
00432e   5198     movf	0x98, 0, 0x1        	MOVF	_PCF8574_address, W, B
004330   6ee5     movwf	0xe5, 0            	MOVWF	POSTDEC1
004332   ec27     call	0x404e, 0           	CALL	_I2C_send
004334   f020
004336   0e02     movlw	0x2                	MOVLW	0x02
004338   26e1     addwf	0xe1, 0x1, 0       	ADDWF	FSR1L, F
00433a   0012     return	0                 	RETURN	
                                           
                                           ; ; Starting pCode block
                                           S_main__lcdi2c_backlight	code
                                           _lcdi2c_backlight:
                                           ;	.line	288; /home/regis/Hobbies/Electronique/Projets/PinguinoIDE/X/branches/linux/tools/p8/bin/../share/sdcc/include/pic16/lcdi2c.c	Backlight = ON;	// 0 = ON since PCF8574 is logical inverted
0042e6   0e01     movlw	0x1                	MOVLW	0x01
0042e8   0102     movlb	0x2                	BANKSEL	_Backlight
0042ea   6f7d     movwf	0x7d, 0x1          	MOVWF	_Backlight, B
0042ec   0102     movlb	0x2                	BANKSEL	_PCF8574_data
                                           ;	.line	289; /home/regis/Hobbies/Electronique/Projets/PinguinoIDE/X/branches/linux/tools/p8/bin/../share/sdcc/include/pic16/lcdi2c.c	LCD_BL = Backlight;
0042ee   8197     bsf	0x97, 0, 0x1         	BSF	_PCF8574_data, 0, B
                                           ;	.line	290; /home/regis/Hobbies/Electronique/Projets/PinguinoIDE/X/branches/linux/tools/p8/bin/../share/sdcc/include/pic16/lcdi2c.c	I2C_send(PCF8574_address, PCF8574_data.val);
0042f0   5197     movf	0x97, 0, 0x1        	MOVF	_PCF8574_data, W, B
0042f2   6ee5     movwf	0xe5, 0            	MOVWF	POSTDEC1
0042f4   0102     movlb	0x2                	BANKSEL	_PCF8574_address
0042f6   5198     movf	0x98, 0, 0x1        	MOVF	_PCF8574_address, W, B
0042f8   6ee5     movwf	0xe5, 0            	MOVWF	POSTDEC1
0042fa   ec27     call	0x404e, 0           	CALL	_I2C_send
0042fc   f020
0042fe   0e02     movlw	0x2                	MOVLW	0x02
004300   26e1     addwf	0xe1, 0x1, 0       	ADDWF	FSR1L, F
004302   0012     return	0                 	RETURN	
                                           
                                           ; ; Starting pCode block
                                           S_main__lcdi2c_send8	code
                                           _lcdi2c_send8:
                                           ;	.line	275; /home/regis/Hobbies/Electronique/Projets/PinguinoIDE/X/branches/linux/tools/p8/bin/../share/sdcc/include/pic16/lcdi2c.c	static void lcdi2c_send8(u8 octet, u8 mode)
003f2c   cfd9     movff	0xfd9, 0xfe5       	MOVFF	FSR2L, POSTDEC1
003f2e   ffe5
003f30   cfe1     movff	0xfe1, 0xfd9       	MOVFF	FSR1L, FSR2L
003f32   ffd9
003f34   c000     movff	0, 0xfe5           	MOVFF	r0x00, POSTDEC1
003f36   ffe5
003f38   c001     movff	0x1, 0xfe5         	MOVFF	r0x01, POSTDEC1
003f3a   ffe5
003f3c   c002     movff	0x2, 0xfe5         	MOVFF	r0x02, POSTDEC1
003f3e   ffe5
003f40   0e02     movlw	0x2                	MOVLW	0x02
003f42   cfdb     movff	0xfdb, 0           	MOVFF	PLUSW2, r0x00
003f44   f000
003f46   0e03     movlw	0x3                	MOVLW	0x03
003f48   cfdb     movff	0xfdb, 0x1         	MOVFF	PLUSW2, r0x01
003f4a   f001
                                           ;	.line	277; /home/regis/Hobbies/Electronique/Projets/PinguinoIDE/X/branches/linux/tools/p8/bin/../share/sdcc/include/pic16/lcdi2c.c	lcdi2c_send4(octet & LCD_MASK, mode);			// envoie les "Upper 4 bits"
003f4c   0ef0     movlw	0xf0               	MOVLW	0xf0
003f4e   1400     andwf	0, 0, 0            	ANDWF	r0x00, W
003f50   6e02     movwf	0x2, 0             	MOVWF	r0x02
003f52   5001     movf	0x1, 0, 0           	MOVF	r0x01, W
003f54   6ee5     movwf	0xe5, 0            	MOVWF	POSTDEC1
003f56   5002     movf	0x2, 0, 0           	MOVF	r0x02, W
003f58   6ee5     movwf	0xe5, 0            	MOVWF	POSTDEC1
003f5a   ec56     call	0x3eac, 0           	CALL	_lcdi2c_send4
003f5c   f01f
003f5e   0e02     movlw	0x2                	MOVLW	0x02
003f60   26e1     addwf	0xe1, 0x1, 0       	ADDWF	FSR1L, F
                                           ;	.line	278; /home/regis/Hobbies/Electronique/Projets/PinguinoIDE/X/branches/linux/tools/p8/bin/../share/sdcc/include/pic16/lcdi2c.c	lcdi2c_send4((octet << 4) & LCD_MASK, mode);	// envoie les "Lower 4 bits"
003f62   3800     swapf	0, 0, 0            	SWAPF	r0x00, W
003f64   0bf0     andlw	0xf0               	ANDLW	0xf0
003f66   6e02     movwf	0x2, 0             	MOVWF	r0x02
003f68   0ef0     movlw	0xf0               	MOVLW	0xf0
003f6a   1402     andwf	0x2, 0, 0          	ANDWF	r0x02, W
003f6c   6e00     movwf	0, 0               	MOVWF	r0x00
003f6e   5001     movf	0x1, 0, 0           	MOVF	r0x01, W
003f70   6ee5     movwf	0xe5, 0            	MOVWF	POSTDEC1
003f72   5000     movf	0, 0, 0             	MOVF	r0x00, W
003f74   6ee5     movwf	0xe5, 0            	MOVWF	POSTDEC1
003f76   ec56     call	0x3eac, 0           	CALL	_lcdi2c_send4
003f78   f01f
003f7a   0e02     movlw	0x2                	MOVLW	0x02
003f7c   26e1     addwf	0xe1, 0x1, 0       	ADDWF	FSR1L, F
                                           ;	.line	279; /home/regis/Hobbies/Electronique/Projets/PinguinoIDE/X/branches/linux/tools/p8/bin/../share/sdcc/include/pic16/lcdi2c.c	Delayus(46);			 // Wait for instruction excution time (more than 46us)
003f7e   6ae5     clrf	0xe5, 0             	CLRF	POSTDEC1
003f80   0e2e     movlw	0x2e               	MOVLW	0x2e
003f82   6ee5     movwf	0xe5, 0            	MOVWF	POSTDEC1
003f84   ec51     call	0x40a2, 0           	CALL	_Delayus
003f86   f020
003f88   0e02     movlw	0x2                	MOVLW	0x02
003f8a   26e1     addwf	0xe1, 0x1, 0       	ADDWF	FSR1L, F
003f8c   cfe4     movff	0xfe4, 0x2         	MOVFF	PREINC1, r0x02
003f8e   f002
003f90   cfe4     movff	0xfe4, 0x1         	MOVFF	PREINC1, r0x01
003f92   f001
003f94   cfe4     movff	0xfe4, 0           	MOVFF	PREINC1, r0x00
003f96   f000
003f98   cfe4     movff	0xfe4, 0xfd9       	MOVFF	PREINC1, FSR2L
003f9a   ffd9
003f9c   0012     return	0                 	RETURN	
                                           
                                           ; ; Starting pCode block
                                           S_main__lcdi2c_send4	code
                                           _lcdi2c_send4:
                                           ;	.line	243; /home/regis/Hobbies/Electronique/Projets/PinguinoIDE/X/branches/linux/tools/p8/bin/../share/sdcc/include/pic16/lcdi2c.c	static void lcdi2c_send4(u8 quartet, u8 mode)
003eac   cfd9     movff	0xfd9, 0xfe5       	MOVFF	FSR2L, POSTDEC1
003eae   ffe5
003eb0   cfe1     movff	0xfe1, 0xfd9       	MOVFF	FSR1L, FSR2L
003eb2   ffd9
003eb4   c000     movff	0, 0xfe5           	MOVFF	r0x00, POSTDEC1
003eb6   ffe5
003eb8   c001     movff	0x1, 0xfe5         	MOVFF	r0x01, POSTDEC1
003eba   ffe5
003ebc   0e02     movlw	0x2                	MOVLW	0x02
003ebe   cfdb     movff	0xfdb, 0           	MOVFF	PLUSW2, r0x00
003ec0   f000
003ec2   0e03     movlw	0x3                	MOVLW	0x03
003ec4   cfdb     movff	0xfdb, 0x1         	MOVFF	PLUSW2, r0x01
003ec6   f001
                                           ;	.line	246; /home/regis/Hobbies/Electronique/Projets/PinguinoIDE/X/branches/linux/tools/p8/bin/../share/sdcc/include/pic16/lcdi2c.c	PCF8574_data.val = quartet;	// x  x  x  x  0  0  0    0
003ec8   5000     movf	0, 0, 0             	MOVF	r0x00, W
003eca   0102     movlb	0x2                	BANKSEL	_PCF8574_data
003ecc   6f97     movwf	0x97, 0x1          	MOVWF	_PCF8574_data, B
                                           ;	.line	247; /home/regis/Hobbies/Electronique/Projets/PinguinoIDE/X/branches/linux/tools/p8/bin/../share/sdcc/include/pic16/lcdi2c.c	LCD_EN = LOW;						// x  x  x  x  0  0  0    0
003ece   9797     bcf	0x97, 0x3, 0x1       	BCF	_PCF8574_data, 3, B
                                           ;	.line	248; /home/regis/Hobbies/Electronique/Projets/PinguinoIDE/X/branches/linux/tools/p8/bin/../share/sdcc/include/pic16/lcdi2c.c	LCD_RW = LCD_WRITE;				// x  x  x  x  0  0  0    0
003ed0   9597     bcf	0x97, 0x2, 0x1       	BCF	_PCF8574_data, 2, B
                                           ;	.line	249; /home/regis/Hobbies/Electronique/Projets/PinguinoIDE/X/branches/linux/tools/p8/bin/../share/sdcc/include/pic16/lcdi2c.c	LCD_RS = mode;						// x  x  x  x  0  0  0/1  0
003ed2   5001     movf	0x1, 0, 0           	MOVF	r0x01, W
003ed4   0b01     andlw	0x1                	ANDLW	0x01
003ed6   44e8     rlncf	0xe8, 0, 0         	RLNCF	WREG, W
003ed8   6ef4     movwf	0xf4, 0            	MOVWF	PRODH
                                           ; removed redundant BANKSEL
003eda   5197     movf	0x97, 0, 0x1        	MOVF	_PCF8574_data, W, B
003edc   0bfd     andlw	0xfd               	ANDLW	0xfd
003ede   10f4     iorwf	0xf4, 0, 0         	IORWF	PRODH, W
                                           ; removed redundant BANKSEL
003ee0   6f97     movwf	0x97, 0x1          	MOVWF	_PCF8574_data, B
003ee2   0102     movlb	0x2                	BANKSEL	_Backlight
                                           ;	.line	250; /home/regis/Hobbies/Electronique/Projets/PinguinoIDE/X/branches/linux/tools/p8/bin/../share/sdcc/include/pic16/lcdi2c.c	LCD_BL = Backlight;				// x  x  x  x  0  0  0/1  0/1
003ee4   517d     movf	0x7d, 0, 0x1        	MOVF	_Backlight, W, B
003ee6   0b01     andlw	0x1                	ANDLW	0x01
003ee8   6ef4     movwf	0xf4, 0            	MOVWF	PRODH
003eea   0102     movlb	0x2                	BANKSEL	_PCF8574_data
003eec   5197     movf	0x97, 0, 0x1        	MOVF	_PCF8574_data, W, B
003eee   0bfe     andlw	0xfe               	ANDLW	0xfe
003ef0   10f4     iorwf	0xf4, 0, 0         	IORWF	PRODH, W
                                           ; removed redundant BANKSEL
003ef2   6f97     movwf	0x97, 0x1          	MOVWF	_PCF8574_data, B
                                           ;	.line	254; /home/regis/Hobbies/Electronique/Projets/PinguinoIDE/X/branches/linux/tools/p8/bin/../share/sdcc/include/pic16/lcdi2c.c	LCD_EN = HIGH;
003ef4   8797     bsf	0x97, 0x3, 0x1       	BSF	_PCF8574_data, 3, B
                                           ;	.line	255; /home/regis/Hobbies/Electronique/Projets/PinguinoIDE/X/branches/linux/tools/p8/bin/../share/sdcc/include/pic16/lcdi2c.c	I2C_send(PCF8574_address, PCF8574_data.val);
003ef6   5197     movf	0x97, 0, 0x1        	MOVF	_PCF8574_data, W, B
003ef8   6ee5     movwf	0xe5, 0            	MOVWF	POSTDEC1
003efa   0102     movlb	0x2                	BANKSEL	_PCF8574_address
003efc   5198     movf	0x98, 0, 0x1        	MOVF	_PCF8574_address, W, B
003efe   6ee5     movwf	0xe5, 0            	MOVWF	POSTDEC1
003f00   ec27     call	0x404e, 0           	CALL	_I2C_send
003f02   f020
003f04   0e02     movlw	0x2                	MOVLW	0x02
003f06   26e1     addwf	0xe1, 0x1, 0       	ADDWF	FSR1L, F
003f08   0102     movlb	0x2                	BANKSEL	_PCF8574_data
                                           ;	.line	258; /home/regis/Hobbies/Electronique/Projets/PinguinoIDE/X/branches/linux/tools/p8/bin/../share/sdcc/include/pic16/lcdi2c.c	LCD_EN = LOW;
003f0a   9797     bcf	0x97, 0x3, 0x1       	BCF	_PCF8574_data, 3, B
                                           ;	.line	259; /home/regis/Hobbies/Electronique/Projets/PinguinoIDE/X/branches/linux/tools/p8/bin/../share/sdcc/include/pic16/lcdi2c.c	I2C_send(PCF8574_address, PCF8574_data.val);
003f0c   5197     movf	0x97, 0, 0x1        	MOVF	_PCF8574_data, W, B
003f0e   6ee5     movwf	0xe5, 0            	MOVWF	POSTDEC1
003f10   0102     movlb	0x2                	BANKSEL	_PCF8574_address
003f12   5198     movf	0x98, 0, 0x1        	MOVF	_PCF8574_address, W, B
003f14   6ee5     movwf	0xe5, 0            	MOVWF	POSTDEC1
003f16   ec27     call	0x404e, 0           	CALL	_I2C_send
003f18   f020
003f1a   0e02     movlw	0x2                	MOVLW	0x02
003f1c   26e1     addwf	0xe1, 0x1, 0       	ADDWF	FSR1L, F
003f1e   cfe4     movff	0xfe4, 0x1         	MOVFF	PREINC1, r0x01
003f20   f001
003f22   cfe4     movff	0xfe4, 0           	MOVFF	PREINC1, r0x00
003f24   f000
003f26   cfe4     movff	0xfe4, 0xfd9       	MOVFF	PREINC1, FSR2L
003f28   ffd9
003f2a   0012     return	0                 	RETURN	
                                           
                                           ; ; Starting pCode block
                                           S_main__psprintf	code
                                           _psprintf:
                                           ;	.line	248; /home/regis/Hobbies/Electronique/Projets/PinguinoIDE/X/branches/linux/tools/p8/bin/../share/sdcc/include/pic16/stdio.c	int psprintf(char *out, const char *format, va_list args)
003956   cfd9     movff	0xfd9, 0xfe5       	MOVFF	FSR2L, POSTDEC1
003958   ffe5
00395a   cfe1     movff	0xfe1, 0xfd9       	MOVFF	FSR1L, FSR2L
00395c   ffd9
00395e   c000     movff	0, 0xfe5           	MOVFF	r0x00, POSTDEC1
003960   ffe5
003962   c001     movff	0x1, 0xfe5         	MOVFF	r0x01, POSTDEC1
003964   ffe5
003966   c002     movff	0x2, 0xfe5         	MOVFF	r0x02, POSTDEC1
003968   ffe5
00396a   c003     movff	0x3, 0xfe5         	MOVFF	r0x03, POSTDEC1
00396c   ffe5
00396e   c004     movff	0x4, 0xfe5         	MOVFF	r0x04, POSTDEC1
003970   ffe5
003972   c005     movff	0x5, 0xfe5         	MOVFF	r0x05, POSTDEC1
003974   ffe5
003976   0e02     movlw	0x2                	MOVLW	0x02
003978   cfdb     movff	0xfdb, 0x292       	MOVFF	PLUSW2, _psprintf_out_1_1
00397a   f292
00397c   0e03     movlw	0x3                	MOVLW	0x03
00397e   cfdb     movff	0xfdb, 0x293       	MOVFF	PLUSW2, (_psprintf_out_1_1 + 1)
003980   f293
003982   0e04     movlw	0x4                	MOVLW	0x04
003984   cfdb     movff	0xfdb, 0x294       	MOVFF	PLUSW2, (_psprintf_out_1_1 + 2)
003986   f294
003988   0e05     movlw	0x5                	MOVLW	0x05
00398a   cfdb     movff	0xfdb, 0           	MOVFF	PLUSW2, r0x00
00398c   f000
00398e   0e06     movlw	0x6                	MOVLW	0x06
003990   cfdb     movff	0xfdb, 0x1         	MOVFF	PLUSW2, r0x01
003992   f001
003994   0e07     movlw	0x7                	MOVLW	0x07
003996   cfdb     movff	0xfdb, 0x2         	MOVFF	PLUSW2, r0x02
003998   f002
00399a   0e08     movlw	0x8                	MOVLW	0x08
00399c   cfdb     movff	0xfdb, 0x3         	MOVFF	PLUSW2, r0x03
00399e   f003
0039a0   0e09     movlw	0x9                	MOVLW	0x09
0039a2   cfdb     movff	0xfdb, 0x4         	MOVFF	PLUSW2, r0x04
0039a4   f004
0039a6   0e0a     movlw	0xa                	MOVLW	0x0a
0039a8   cfdb     movff	0xfdb, 0x5         	MOVFF	PLUSW2, r0x05
0039aa   f005
                                           ;	.line	253; /home/regis/Hobbies/Electronique/Projets/PinguinoIDE/X/branches/linux/tools/p8/bin/../share/sdcc/include/pic16/stdio.c	return pprint(&out, format, args);
0039ac   5005     movf	0x5, 0, 0           	MOVF	r0x05, W
0039ae   6ee5     movwf	0xe5, 0            	MOVWF	POSTDEC1
0039b0   5004     movf	0x4, 0, 0           	MOVF	r0x04, W
0039b2   6ee5     movwf	0xe5, 0            	MOVWF	POSTDEC1
0039b4   5003     movf	0x3, 0, 0           	MOVF	r0x03, W
0039b6   6ee5     movwf	0xe5, 0            	MOVWF	POSTDEC1
0039b8   5002     movf	0x2, 0, 0           	MOVF	r0x02, W
0039ba   6ee5     movwf	0xe5, 0            	MOVWF	POSTDEC1
0039bc   5001     movf	0x1, 0, 0           	MOVF	r0x01, W
0039be   6ee5     movwf	0xe5, 0            	MOVWF	POSTDEC1
0039c0   5000     movf	0, 0, 0             	MOVF	r0x00, W
0039c2   6ee5     movwf	0xe5, 0            	MOVWF	POSTDEC1
0039c4   0e80     movlw	0x80               	MOVLW	0x80
0039c6   6ee5     movwf	0xe5, 0            	MOVWF	POSTDEC1
0039c8   0e02     movlw	0x2                	MOVLW	HIGH(_psprintf_out_1_1)
0039ca   6ee5     movwf	0xe5, 0            	MOVWF	POSTDEC1
0039cc   0e92     movlw	0x92               	MOVLW	LOW(_psprintf_out_1_1)
0039ce   6ee5     movwf	0xe5, 0            	MOVWF	POSTDEC1
0039d0   ec37     call	0x206e, 0           	CALL	_pprint
0039d2   f010
0039d4   6e00     movwf	0, 0               	MOVWF	r0x00
0039d6   cff3     movff	0xff3, 0x1         	MOVFF	PRODL, r0x01
0039d8   f001
0039da   0e09     movlw	0x9                	MOVLW	0x09
0039dc   26e1     addwf	0xe1, 0x1, 0       	ADDWF	FSR1L, F
0039de   c001     movff	0x1, 0xff3         	MOVFF	r0x01, PRODL
0039e0   fff3
0039e2   5000     movf	0, 0, 0             	MOVF	r0x00, W
0039e4   cfe4     movff	0xfe4, 0x5         	MOVFF	PREINC1, r0x05
0039e6   f005
0039e8   cfe4     movff	0xfe4, 0x4         	MOVFF	PREINC1, r0x04
0039ea   f004
0039ec   cfe4     movff	0xfe4, 0x3         	MOVFF	PREINC1, r0x03
0039ee   f003
0039f0   cfe4     movff	0xfe4, 0x2         	MOVFF	PREINC1, r0x02
0039f2   f002
0039f4   cfe4     movff	0xfe4, 0x1         	MOVFF	PREINC1, r0x01
0039f6   f001
0039f8   cfe4     movff	0xfe4, 0           	MOVFF	PREINC1, r0x00
0039fa   f000
0039fc   cfe4     movff	0xfe4, 0xfd9       	MOVFF	PREINC1, FSR2L
0039fe   ffd9
003a00   0012     return	0                 	RETURN	
                                           
                                           ; ; Starting pCode block
                                           S_main__pprintf	code
                                           _pprintf:
                                           ;	.line	238; /home/regis/Hobbies/Electronique/Projets/PinguinoIDE/X/branches/linux/tools/p8/bin/../share/sdcc/include/pic16/stdio.c	int pprintf(stdout func, const char *format, va_list args)
003aac   cfd9     movff	0xfd9, 0xfe5       	MOVFF	FSR2L, POSTDEC1
003aae   ffe5
003ab0   cfe1     movff	0xfe1, 0xfd9       	MOVFF	FSR1L, FSR2L
003ab2   ffd9
003ab4   c000     movff	0, 0xfe5           	MOVFF	r0x00, POSTDEC1
003ab6   ffe5
003ab8   c001     movff	0x1, 0xfe5         	MOVFF	r0x01, POSTDEC1
003aba   ffe5
003abc   c002     movff	0x2, 0xfe5         	MOVFF	r0x02, POSTDEC1
003abe   ffe5
003ac0   c003     movff	0x3, 0xfe5         	MOVFF	r0x03, POSTDEC1
003ac2   ffe5
003ac4   c004     movff	0x4, 0xfe5         	MOVFF	r0x04, POSTDEC1
003ac6   ffe5
003ac8   c005     movff	0x5, 0xfe5         	MOVFF	r0x05, POSTDEC1
003aca   ffe5
003acc   0e02     movlw	0x2                	MOVLW	0x02
003ace   cfdb     movff	0xfdb, 0x28f       	MOVFF	PLUSW2, _pputchar
003ad0   f28f
003ad2   0e03     movlw	0x3                	MOVLW	0x03
003ad4   cfdb     movff	0xfdb, 0x290       	MOVFF	PLUSW2, (_pputchar + 1)
003ad6   f290
003ad8   0e04     movlw	0x4                	MOVLW	0x04
003ada   cfdb     movff	0xfdb, 0x291       	MOVFF	PLUSW2, (_pputchar + 2)
003adc   f291
003ade   0e05     movlw	0x5                	MOVLW	0x05
003ae0   cfdb     movff	0xfdb, 0           	MOVFF	PLUSW2, r0x00
003ae2   f000
003ae4   0e06     movlw	0x6                	MOVLW	0x06
003ae6   cfdb     movff	0xfdb, 0x1         	MOVFF	PLUSW2, r0x01
003ae8   f001
003aea   0e07     movlw	0x7                	MOVLW	0x07
003aec   cfdb     movff	0xfdb, 0x2         	MOVFF	PLUSW2, r0x02
003aee   f002
003af0   0e08     movlw	0x8                	MOVLW	0x08
003af2   cfdb     movff	0xfdb, 0x3         	MOVFF	PLUSW2, r0x03
003af4   f003
003af6   0e09     movlw	0x9                	MOVLW	0x09
003af8   cfdb     movff	0xfdb, 0x4         	MOVFF	PLUSW2, r0x04
003afa   f004
003afc   0e0a     movlw	0xa                	MOVLW	0x0a
003afe   cfdb     movff	0xfdb, 0x5         	MOVFF	PLUSW2, r0x05
003b00   f005
                                           ;	.line	244; /home/regis/Hobbies/Electronique/Projets/PinguinoIDE/X/branches/linux/tools/p8/bin/../share/sdcc/include/pic16/stdio.c	return pprint(0, format, args);
003b02   5005     movf	0x5, 0, 0           	MOVF	r0x05, W
003b04   6ee5     movwf	0xe5, 0            	MOVWF	POSTDEC1
003b06   5004     movf	0x4, 0, 0           	MOVF	r0x04, W
003b08   6ee5     movwf	0xe5, 0            	MOVWF	POSTDEC1
003b0a   5003     movf	0x3, 0, 0           	MOVF	r0x03, W
003b0c   6ee5     movwf	0xe5, 0            	MOVWF	POSTDEC1
003b0e   5002     movf	0x2, 0, 0           	MOVF	r0x02, W
003b10   6ee5     movwf	0xe5, 0            	MOVWF	POSTDEC1
003b12   5001     movf	0x1, 0, 0           	MOVF	r0x01, W
003b14   6ee5     movwf	0xe5, 0            	MOVWF	POSTDEC1
003b16   5000     movf	0, 0, 0             	MOVF	r0x00, W
003b18   6ee5     movwf	0xe5, 0            	MOVWF	POSTDEC1
003b1a   0e00     movlw	0                  	MOVLW	0x00
003b1c   6ae5     clrf	0xe5, 0             	CLRF	POSTDEC1
003b1e   6ae5     clrf	0xe5, 0             	CLRF	POSTDEC1
003b20   6ae5     clrf	0xe5, 0             	CLRF	POSTDEC1
003b22   ec37     call	0x206e, 0           	CALL	_pprint
003b24   f010
003b26   6e00     movwf	0, 0               	MOVWF	r0x00
003b28   cff3     movff	0xff3, 0x1         	MOVFF	PRODL, r0x01
003b2a   f001
003b2c   0e09     movlw	0x9                	MOVLW	0x09
003b2e   26e1     addwf	0xe1, 0x1, 0       	ADDWF	FSR1L, F
003b30   c001     movff	0x1, 0xff3         	MOVFF	r0x01, PRODL
003b32   fff3
003b34   5000     movf	0, 0, 0             	MOVF	r0x00, W
003b36   cfe4     movff	0xfe4, 0x5         	MOVFF	PREINC1, r0x05
003b38   f005
003b3a   cfe4     movff	0xfe4, 0x4         	MOVFF	PREINC1, r0x04
003b3c   f004
003b3e   cfe4     movff	0xfe4, 0x3         	MOVFF	PREINC1, r0x03
003b40   f003
003b42   cfe4     movff	0xfe4, 0x2         	MOVFF	PREINC1, r0x02
003b44   f002
003b46   cfe4     movff	0xfe4, 0x1         	MOVFF	PREINC1, r0x01
003b48   f001
003b4a   cfe4     movff	0xfe4, 0           	MOVFF	PREINC1, r0x00
003b4c   f000
003b4e   cfe4     movff	0xfe4, 0xfd9       	MOVFF	PREINC1, FSR2L
003b50   ffd9
003b52   0012     return	0                 	RETURN	
                                           
                                           ; ; Starting pCode block
                                           S_main__pprint	code
                                           _pprint:
                                           ;	.line	141; /home/regis/Hobbies/Electronique/Projets/PinguinoIDE/X/branches/linux/tools/p8/bin/../share/sdcc/include/pic16/stdio.c	static int pprint(char **out, const char *format, va_list args)
00206e   cfd9     movff	0xfd9, 0xfe5       	MOVFF	FSR2L, POSTDEC1
002070   ffe5
002072   cfe1     movff	0xfe1, 0xfd9       	MOVFF	FSR1L, FSR2L
002074   ffd9
002076   c000     movff	0, 0xfe5           	MOVFF	r0x00, POSTDEC1
002078   ffe5
00207a   c001     movff	0x1, 0xfe5         	MOVFF	r0x01, POSTDEC1
00207c   ffe5
00207e   c002     movff	0x2, 0xfe5         	MOVFF	r0x02, POSTDEC1
002080   ffe5
002082   c003     movff	0x3, 0xfe5         	MOVFF	r0x03, POSTDEC1
002084   ffe5
002086   c004     movff	0x4, 0xfe5         	MOVFF	r0x04, POSTDEC1
002088   ffe5
00208a   c005     movff	0x5, 0xfe5         	MOVFF	r0x05, POSTDEC1
00208c   ffe5
00208e   c006     movff	0x6, 0xfe5         	MOVFF	r0x06, POSTDEC1
002090   ffe5
002092   c007     movff	0x7, 0xfe5         	MOVFF	r0x07, POSTDEC1
002094   ffe5
002096   c008     movff	0x8, 0xfe5         	MOVFF	r0x08, POSTDEC1
002098   ffe5
00209a   c009     movff	0x9, 0xfe5         	MOVFF	r0x09, POSTDEC1
00209c   ffe5
00209e   c00a     movff	0xa, 0xfe5         	MOVFF	r0x0a, POSTDEC1
0020a0   ffe5
0020a2   c00b     movff	0xb, 0xfe5         	MOVFF	r0x0b, POSTDEC1
0020a4   ffe5
0020a6   c00c     movff	0xc, 0xfe5         	MOVFF	r0x0c, POSTDEC1
0020a8   ffe5
0020aa   c00d     movff	0xd, 0xfe5         	MOVFF	r0x0d, POSTDEC1
0020ac   ffe5
0020ae   c00e     movff	0xe, 0xfe5         	MOVFF	r0x0e, POSTDEC1
0020b0   ffe5
0020b2   c00f     movff	0xf, 0xfe5         	MOVFF	r0x0f, POSTDEC1
0020b4   ffe5
0020b6   c010     movff	0x10, 0xfe5        	MOVFF	r0x10, POSTDEC1
0020b8   ffe5
0020ba   c011     movff	0x11, 0xfe5        	MOVFF	r0x11, POSTDEC1
0020bc   ffe5
0020be   c012     movff	0x12, 0xfe5        	MOVFF	r0x12, POSTDEC1
0020c0   ffe5
0020c2   c013     movff	0x13, 0xfe5        	MOVFF	r0x13, POSTDEC1
0020c4   ffe5
0020c6   0e02     movlw	0x2                	MOVLW	0x02
0020c8   cfdb     movff	0xfdb, 0           	MOVFF	PLUSW2, r0x00
0020ca   f000
0020cc   0e03     movlw	0x3                	MOVLW	0x03
0020ce   cfdb     movff	0xfdb, 0x1         	MOVFF	PLUSW2, r0x01
0020d0   f001
0020d2   0e04     movlw	0x4                	MOVLW	0x04
0020d4   cfdb     movff	0xfdb, 0x2         	MOVFF	PLUSW2, r0x02
0020d6   f002
0020d8   0e05     movlw	0x5                	MOVLW	0x05
0020da   cfdb     movff	0xfdb, 0x3         	MOVFF	PLUSW2, r0x03
0020dc   f003
0020de   0e06     movlw	0x6                	MOVLW	0x06
0020e0   cfdb     movff	0xfdb, 0x4         	MOVFF	PLUSW2, r0x04
0020e2   f004
0020e4   0e07     movlw	0x7                	MOVLW	0x07
0020e6   cfdb     movff	0xfdb, 0x5         	MOVFF	PLUSW2, r0x05
0020e8   f005
0020ea   0e08     movlw	0x8                	MOVLW	0x08
0020ec   cfdb     movff	0xfdb, 0x6         	MOVFF	PLUSW2, r0x06
0020ee   f006
0020f0   0e09     movlw	0x9                	MOVLW	0x09
0020f2   cfdb     movff	0xfdb, 0x7         	MOVFF	PLUSW2, r0x07
0020f4   f007
0020f6   0e0a     movlw	0xa                	MOVLW	0x0a
0020f8   cfdb     movff	0xfdb, 0x8         	MOVFF	PLUSW2, r0x08
0020fa   f008
                                           ;	.line	144; /home/regis/Hobbies/Electronique/Projets/PinguinoIDE/X/branches/linux/tools/p8/bin/../share/sdcc/include/pic16/stdio.c	register int pc = 0;
0020fc   6a09     clrf	0x9, 0              	CLRF	r0x09
0020fe   6a0a     clrf	0xa, 0              	CLRF	r0x0a
                                           _00533_DS_:
                                           ;	.line	147; /home/regis/Hobbies/Electronique/Projets/PinguinoIDE/X/branches/linux/tools/p8/bin/../share/sdcc/include/pic16/stdio.c	for (; *format != 0; ++format)
002100   c003     movff	0x3, 0xfe9         	MOVFF	r0x03, FSR0L
002102   ffe9
002104   c004     movff	0x4, 0xff3         	MOVFF	r0x04, PRODL
002106   fff3
002108   5005     movf	0x5, 0, 0           	MOVF	r0x05, W
00210a   ec29     call	0x52, 0             	CALL	__gptrget1
00210c   f000
00210e   6e0b     movwf	0xb, 0             	MOVWF	r0x0b
002110   500b     movf	0xb, 0, 0           	MOVF	r0x0b, W
002112   b4d8     btfsc	0xd8, 0x2, 0       	BTFSC	STATUS, 2
002114   ef87     goto	0x270e              	GOTO	_00536_DS_
002116   f013
                                           ;	.line	149; /home/regis/Hobbies/Electronique/Projets/PinguinoIDE/X/branches/linux/tools/p8/bin/../share/sdcc/include/pic16/stdio.c	if (*format == '%')
002118   500b     movf	0xb, 0, 0           	MOVF	r0x0b, W
00211a   0a25     xorlw	0x25               	XORLW	0x25
00211c   e002     bz	0x2122                	BZ	_00573_DS_
00211e   ef6b     goto	0x26d6              	GOTO	_00529_DS_
002120   f013
                                           _00573_DS_:
                                           ;	.line	151; /home/regis/Hobbies/Electronique/Projets/PinguinoIDE/X/branches/linux/tools/p8/bin/../share/sdcc/include/pic16/stdio.c	++format;
002122   2a03     incf	0x3, 0x1, 0         	INCF	r0x03, F
002124   b0d8     btfsc	0xd8, 0, 0         	BTFSC	STATUS, 0
002126   2a04     incf	0x4, 0x1, 0         	INCF	r0x04, F
002128   b0d8     btfsc	0xd8, 0, 0         	BTFSC	STATUS, 0
00212a   2a05     incf	0x5, 0x1, 0         	INCF	r0x05, F
                                           ;	.line	152; /home/regis/Hobbies/Electronique/Projets/PinguinoIDE/X/branches/linux/tools/p8/bin/../share/sdcc/include/pic16/stdio.c	width = pad = 0;
00212c   6a0b     clrf	0xb, 0              	CLRF	r0x0b
00212e   6a0c     clrf	0xc, 0              	CLRF	r0x0c
002130   6a0d     clrf	0xd, 0              	CLRF	r0x0d
002132   6a0e     clrf	0xe, 0              	CLRF	r0x0e
                                           ;	.line	153; /home/regis/Hobbies/Electronique/Projets/PinguinoIDE/X/branches/linux/tools/p8/bin/../share/sdcc/include/pic16/stdio.c	if (*format == '\0')
002134   c003     movff	0x3, 0xfe9         	MOVFF	r0x03, FSR0L
002136   ffe9
002138   c004     movff	0x4, 0xff3         	MOVFF	r0x04, PRODL
00213a   fff3
00213c   5005     movf	0x5, 0, 0           	MOVF	r0x05, W
00213e   ec29     call	0x52, 0             	CALL	__gptrget1
002140   f000
002142   6e0f     movwf	0xf, 0             	MOVWF	r0x0f
002144   500f     movf	0xf, 0, 0           	MOVF	r0x0f, W
002146   b4d8     btfsc	0xd8, 0x2, 0       	BTFSC	STATUS, 2
002148   ef87     goto	0x270e              	GOTO	_00536_DS_
00214a   f013
                                           ;	.line	155; /home/regis/Hobbies/Electronique/Projets/PinguinoIDE/X/branches/linux/tools/p8/bin/../share/sdcc/include/pic16/stdio.c	if (*format == '%')
00214c   500f     movf	0xf, 0, 0           	MOVF	r0x0f, W
00214e   0a25     xorlw	0x25               	XORLW	0x25
002150   e102     bnz	0x2156               	BNZ	_00575_DS_
002152   ef6b     goto	0x26d6              	GOTO	_00529_DS_
002154   f013
                                           _00575_DS_:
                                           ;	.line	157; /home/regis/Hobbies/Electronique/Projets/PinguinoIDE/X/branches/linux/tools/p8/bin/../share/sdcc/include/pic16/stdio.c	if (*format == '-')
002156   500f     movf	0xf, 0, 0           	MOVF	r0x0f, W
002158   0a2d     xorlw	0x2d               	XORLW	0x2d
00215a   e108     bnz	0x216c               	BNZ	_00554_DS_
                                           ;	.line	159; /home/regis/Hobbies/Electronique/Projets/PinguinoIDE/X/branches/linux/tools/p8/bin/../share/sdcc/include/pic16/stdio.c	++format;
00215c   2a03     incf	0x3, 0x1, 0         	INCF	r0x03, F
00215e   b0d8     btfsc	0xd8, 0, 0         	BTFSC	STATUS, 0
002160   2a04     incf	0x4, 0x1, 0         	INCF	r0x04, F
002162   b0d8     btfsc	0xd8, 0, 0         	BTFSC	STATUS, 0
002164   2a05     incf	0x5, 0x1, 0         	INCF	r0x05, F
                                           ;	.line	160; /home/regis/Hobbies/Electronique/Projets/PinguinoIDE/X/branches/linux/tools/p8/bin/../share/sdcc/include/pic16/stdio.c	pad = PAD_RIGHT;
002166   0e01     movlw	0x1                	MOVLW	0x01
002168   6e0b     movwf	0xb, 0             	MOVWF	r0x0b
00216a   6a0c     clrf	0xc, 0              	CLRF	r0x0c
                                           _00554_DS_:
                                           ;	.line	162; /home/regis/Hobbies/Electronique/Projets/PinguinoIDE/X/branches/linux/tools/p8/bin/../share/sdcc/include/pic16/stdio.c	while (*format == '0')
00216c   c003     movff	0x3, 0xf           	MOVFF	r0x03, r0x0f
00216e   f00f
002170   c004     movff	0x4, 0x10          	MOVFF	r0x04, r0x10
002172   f010
002174   c005     movff	0x5, 0x11          	MOVFF	r0x05, r0x11
002176   f011
                                           _00508_DS_:
002178   c00f     movff	0xf, 0xfe9         	MOVFF	r0x0f, FSR0L
00217a   ffe9
00217c   c010     movff	0x10, 0xff3        	MOVFF	r0x10, PRODL
00217e   fff3
002180   5011     movf	0x11, 0, 0          	MOVF	r0x11, W
002182   ec29     call	0x52, 0             	CALL	__gptrget1
002184   f000
                                           ; #	MOVWF	r0x12
                                           ; #	MOVF	r0x12, W
002186   0a30     xorlw	0x30               	XORLW	0x30
002188   e107     bnz	0x2198               	BNZ	_00540_DS_
                                           ;	.line	164; /home/regis/Hobbies/Electronique/Projets/PinguinoIDE/X/branches/linux/tools/p8/bin/../share/sdcc/include/pic16/stdio.c	++format;
00218a   2a0f     incf	0xf, 0x1, 0         	INCF	r0x0f, F
00218c   b0d8     btfsc	0xd8, 0, 0         	BTFSC	STATUS, 0
00218e   2a10     incf	0x10, 0x1, 0        	INCF	r0x10, F
002190   b0d8     btfsc	0xd8, 0, 0         	BTFSC	STATUS, 0
002192   2a11     incf	0x11, 0x1, 0        	INCF	r0x11, F
                                           ;	.line	165; /home/regis/Hobbies/Electronique/Projets/PinguinoIDE/X/branches/linux/tools/p8/bin/../share/sdcc/include/pic16/stdio.c	pad |= PAD_ZERO;
002194   820b     bsf	0xb, 0x1, 0          	BSF	r0x0b, 1
002196   d7f0     bra	0x2178               	BRA	_00508_DS_
                                           _00540_DS_:
                                           ;	.line	167; /home/regis/Hobbies/Electronique/Projets/PinguinoIDE/X/branches/linux/tools/p8/bin/../share/sdcc/include/pic16/stdio.c	for ( ; *format >= '0' && *format <= '9'; ++format)
002198   c00f     movff	0xf, 0xfe9         	MOVFF	r0x0f, FSR0L
00219a   ffe9
00219c   c010     movff	0x10, 0xff3        	MOVFF	r0x10, PRODL
00219e   fff3
0021a0   5011     movf	0x11, 0, 0          	MOVF	r0x11, W
0021a2   ec29     call	0x52, 0             	CALL	__gptrget1
0021a4   f000
                                           ; #	MOVWF	r0x12
                                           ; #	MOVF	r0x12, W
0021a6   6e12     movwf	0x12, 0            	MOVWF	r0x12
0021a8   0f80     addlw	0x80               	ADDLW	0x80
0021aa   0f50     addlw	0x50               	ADDLW	0x50
0021ac   e323     bnc	0x21f4               	BNC	_00571_DS_
0021ae   5012     movf	0x12, 0, 0          	MOVF	r0x12, W
0021b0   0f80     addlw	0x80               	ADDLW	0x80
0021b2   0f46     addlw	0x46               	ADDLW	0x46
0021b4   e21f     bc	0x21f4                	BC	_00571_DS_
                                           ;	.line	169; /home/regis/Hobbies/Electronique/Projets/PinguinoIDE/X/branches/linux/tools/p8/bin/../share/sdcc/include/pic16/stdio.c	width *= 10;
0021b6   500e     movf	0xe, 0, 0           	MOVF	r0x0e, W
0021b8   6ee5     movwf	0xe5, 0            	MOVWF	POSTDEC1
0021ba   500d     movf	0xd, 0, 0           	MOVF	r0x0d, W
0021bc   6ee5     movwf	0xe5, 0            	MOVWF	POSTDEC1
0021be   6ae5     clrf	0xe5, 0             	CLRF	POSTDEC1
0021c0   0e0a     movlw	0xa                	MOVLW	0x0a
0021c2   6ee5     movwf	0xe5, 0            	MOVWF	POSTDEC1
0021c4   ec27     call	0x4e, 0             	CALL	__mulint
0021c6   f000
0021c8   6e0d     movwf	0xd, 0             	MOVWF	r0x0d
0021ca   cff3     movff	0xff3, 0xe         	MOVFF	PRODL, r0x0e
0021cc   f00e
0021ce   0e04     movlw	0x4                	MOVLW	0x04
0021d0   26e1     addwf	0xe1, 0x1, 0       	ADDWF	FSR1L, F
                                           ;	.line	170; /home/regis/Hobbies/Electronique/Projets/PinguinoIDE/X/branches/linux/tools/p8/bin/../share/sdcc/include/pic16/stdio.c	width += *format - '0';
0021d2   6a13     clrf	0x13, 0             	CLRF	r0x13
0021d4   be12     btfsc	0x12, 0x7, 0       	BTFSC	r0x12, 7
0021d6   6813     setf	0x13, 0             	SETF	r0x13
0021d8   0ed0     movlw	0xd0               	MOVLW	0xd0
0021da   2612     addwf	0x12, 0x1, 0       	ADDWF	r0x12, F
0021dc   a0d8     btfss	0xd8, 0, 0         	BTFSS	STATUS, 0
0021de   0613     decf	0x13, 0x1, 0        	DECF	r0x13, F
0021e0   5012     movf	0x12, 0, 0          	MOVF	r0x12, W
0021e2   260d     addwf	0xd, 0x1, 0        	ADDWF	r0x0d, F
0021e4   5013     movf	0x13, 0, 0          	MOVF	r0x13, W
0021e6   220e     addwfc	0xe, 0x1, 0       	ADDWFC	r0x0e, F
                                           ;	.line	167; /home/regis/Hobbies/Electronique/Projets/PinguinoIDE/X/branches/linux/tools/p8/bin/../share/sdcc/include/pic16/stdio.c	for ( ; *format >= '0' && *format <= '9'; ++format)
0021e8   2a0f     incf	0xf, 0x1, 0         	INCF	r0x0f, F
0021ea   b0d8     btfsc	0xd8, 0, 0         	BTFSC	STATUS, 0
0021ec   2a10     incf	0x10, 0x1, 0        	INCF	r0x10, F
0021ee   b0d8     btfsc	0xd8, 0, 0         	BTFSC	STATUS, 0
0021f0   2a11     incf	0x11, 0x1, 0        	INCF	r0x11, F
0021f2   d7d2     bra	0x2198               	BRA	_00540_DS_
                                           _00571_DS_:
0021f4   c00f     movff	0xf, 0x3           	MOVFF	r0x0f, r0x03
0021f6   f003
0021f8   c010     movff	0x10, 0x4          	MOVFF	r0x10, r0x04
0021fa   f004
0021fc   c011     movff	0x11, 0x5          	MOVFF	r0x11, r0x05
0021fe   f005
                                           ;	.line	172; /home/regis/Hobbies/Electronique/Projets/PinguinoIDE/X/branches/linux/tools/p8/bin/../share/sdcc/include/pic16/stdio.c	if (*format == 's')
002200   c00f     movff	0xf, 0xfe9         	MOVFF	r0x0f, FSR0L
002202   ffe9
002204   c010     movff	0x10, 0xff3        	MOVFF	r0x10, PRODL
002206   fff3
002208   5011     movf	0x11, 0, 0          	MOVF	r0x11, W
00220a   ec29     call	0x52, 0             	CALL	__gptrget1
00220c   f000
                                           ; #	MOVWF	r0x0f
                                           ; #	MOVF	r0x0f, W
00220e   6e0f     movwf	0xf, 0             	MOVWF	r0x0f
002210   0a73     xorlw	0x73               	XORLW	0x73
002212   e001     bz	0x2216                	BZ	_00584_DS_
002214   d04a     bra	0x22aa               	BRA	_00512_DS_
                                           _00584_DS_:
                                           ;	.line	175; /home/regis/Hobbies/Electronique/Projets/PinguinoIDE/X/branches/linux/tools/p8/bin/../share/sdcc/include/pic16/stdio.c	char *s = va_arg(args, char*);
002216   5006     movf	0x6, 0, 0           	MOVF	r0x06, W
002218   0f03     addlw	0x3                	ADDLW	0x03
00221a   6e10     movwf	0x10, 0            	MOVWF	r0x10
00221c   0e00     movlw	0                  	MOVLW	0x00
00221e   2007     addwfc	0x7, 0, 0         	ADDWFC	r0x07, W
002220   6e11     movwf	0x11, 0            	MOVWF	r0x11
002222   0e00     movlw	0                  	MOVLW	0x00
002224   2008     addwfc	0x8, 0, 0         	ADDWFC	r0x08, W
002226   6e12     movwf	0x12, 0            	MOVWF	r0x12
002228   c010     movff	0x10, 0x6          	MOVFF	r0x10, r0x06
00222a   f006
00222c   c011     movff	0x11, 0x7          	MOVFF	r0x11, r0x07
00222e   f007
002230   c012     movff	0x12, 0x8          	MOVFF	r0x12, r0x08
002232   f008
002234   0efd     movlw	0xfd               	MOVLW	0xfd
002236   2610     addwf	0x10, 0x1, 0       	ADDWF	r0x10, F
002238   0eff     movlw	0xff               	MOVLW	0xff
00223a   2211     addwfc	0x11, 0x1, 0      	ADDWFC	r0x11, F
00223c   2212     addwfc	0x12, 0x1, 0      	ADDWFC	r0x12, F
00223e   c010     movff	0x10, 0xfe9        	MOVFF	r0x10, FSR0L
002240   ffe9
002242   c011     movff	0x11, 0xff3        	MOVFF	r0x11, PRODL
002244   fff3
002246   5012     movf	0x12, 0, 0          	MOVF	r0x12, W
002248   ec2d     call	0x5a, 0             	CALL	__gptrget3
00224a   f000
00224c   6e10     movwf	0x10, 0            	MOVWF	r0x10
00224e   cff3     movff	0xff3, 0x11        	MOVFF	PRODL, r0x11
002250   f011
002252   cff4     movff	0xff4, 0x12        	MOVFF	PRODH, r0x12
002254   f012
                                           ;	.line	177; /home/regis/Hobbies/Electronique/Projets/PinguinoIDE/X/branches/linux/tools/p8/bin/../share/sdcc/include/pic16/stdio.c	pc += pprints(out, s?s:"(null)", width, pad);
002256   1011     iorwf	0x11, 0, 0         	IORWF	r0x11, W
                                           ; #	IORWF	r0x12, W
                                           ; #	BTFSC	STATUS, 2
                                           ; #	GOTO	_00546_DS_
                                           ; #	GOTO	_00547_DS_
                                           ; #	MOVLW	LOW(__str_0)
002258   1012     iorwf	0x12, 0, 0         	IORWF	r0x12, W
00225a   e106     bnz	0x2268               	BNZ	_00547_DS_
00225c   0eca     movlw	0xca               	MOVLW	LOW(__str_0)
00225e   6e10     movwf	0x10, 0            	MOVWF	r0x10
002260   0e37     movlw	0x37               	MOVLW	HIGH(__str_0)
002262   6e11     movwf	0x11, 0            	MOVWF	r0x11
002264   0e00     movlw	0                  	MOVLW	UPPER(__str_0)
002266   6e12     movwf	0x12, 0            	MOVWF	r0x12
                                           _00547_DS_:
002268   500c     movf	0xc, 0, 0           	MOVF	r0x0c, W
00226a   6ee5     movwf	0xe5, 0            	MOVWF	POSTDEC1
00226c   500b     movf	0xb, 0, 0           	MOVF	r0x0b, W
00226e   6ee5     movwf	0xe5, 0            	MOVWF	POSTDEC1
002270   500e     movf	0xe, 0, 0           	MOVF	r0x0e, W
002272   6ee5     movwf	0xe5, 0            	MOVWF	POSTDEC1
002274   500d     movf	0xd, 0, 0           	MOVF	r0x0d, W
002276   6ee5     movwf	0xe5, 0            	MOVWF	POSTDEC1
002278   5012     movf	0x12, 0, 0          	MOVF	r0x12, W
00227a   6ee5     movwf	0xe5, 0            	MOVWF	POSTDEC1
00227c   5011     movf	0x11, 0, 0          	MOVF	r0x11, W
00227e   6ee5     movwf	0xe5, 0            	MOVWF	POSTDEC1
002280   5010     movf	0x10, 0, 0          	MOVF	r0x10, W
002282   6ee5     movwf	0xe5, 0            	MOVWF	POSTDEC1
002284   5002     movf	0x2, 0, 0           	MOVF	r0x02, W
002286   6ee5     movwf	0xe5, 0            	MOVWF	POSTDEC1
002288   5001     movf	0x1, 0, 0           	MOVF	r0x01, W
00228a   6ee5     movwf	0xe5, 0            	MOVWF	POSTDEC1
00228c   5000     movf	0, 0, 0             	MOVF	r0x00, W
00228e   6ee5     movwf	0xe5, 0            	MOVWF	POSTDEC1
002290   ec32     call	0x2e64, 0           	CALL	_pprints
002292   f017
002294   6e10     movwf	0x10, 0            	MOVWF	r0x10
002296   cff3     movff	0xff3, 0x11        	MOVFF	PRODL, r0x11
002298   f011
00229a   0e0a     movlw	0xa                	MOVLW	0x0a
00229c   26e1     addwf	0xe1, 0x1, 0       	ADDWF	FSR1L, F
00229e   5010     movf	0x10, 0, 0          	MOVF	r0x10, W
0022a0   2609     addwf	0x9, 0x1, 0        	ADDWF	r0x09, F
0022a2   5011     movf	0x11, 0, 0          	MOVF	r0x11, W
0022a4   220a     addwfc	0xa, 0x1, 0       	ADDWFC	r0x0a, F
                                           ;	.line	178; /home/regis/Hobbies/Electronique/Projets/PinguinoIDE/X/branches/linux/tools/p8/bin/../share/sdcc/include/pic16/stdio.c	continue;
0022a6   ef80     goto	0x2700              	GOTO	_00535_DS_
0022a8   f013
                                           _00512_DS_:
                                           ;	.line	180; /home/regis/Hobbies/Electronique/Projets/PinguinoIDE/X/branches/linux/tools/p8/bin/../share/sdcc/include/pic16/stdio.c	if (*format == 'd')
0022aa   500f     movf	0xf, 0, 0           	MOVF	r0x0f, W
0022ac   0a64     xorlw	0x64               	XORLW	0x64
0022ae   e001     bz	0x22b2                	BZ	_00586_DS_
0022b0   d045     bra	0x233c               	BRA	_00514_DS_
                                           _00586_DS_:
                                           ;	.line	182; /home/regis/Hobbies/Electronique/Projets/PinguinoIDE/X/branches/linux/tools/p8/bin/../share/sdcc/include/pic16/stdio.c	pc += pprinti(out, va_arg(args, int), 10, 1, width, pad, 'a');
0022b2   5006     movf	0x6, 0, 0           	MOVF	r0x06, W
0022b4   0f02     addlw	0x2                	ADDLW	0x02
0022b6   6e10     movwf	0x10, 0            	MOVWF	r0x10
0022b8   0e00     movlw	0                  	MOVLW	0x00
0022ba   2007     addwfc	0x7, 0, 0         	ADDWFC	r0x07, W
0022bc   6e11     movwf	0x11, 0            	MOVWF	r0x11
0022be   0e00     movlw	0                  	MOVLW	0x00
0022c0   2008     addwfc	0x8, 0, 0         	ADDWFC	r0x08, W
0022c2   6e12     movwf	0x12, 0            	MOVWF	r0x12
0022c4   c010     movff	0x10, 0x6          	MOVFF	r0x10, r0x06
0022c6   f006
0022c8   c011     movff	0x11, 0x7          	MOVFF	r0x11, r0x07
0022ca   f007
0022cc   c012     movff	0x12, 0x8          	MOVFF	r0x12, r0x08
0022ce   f008
0022d0   0efe     movlw	0xfe               	MOVLW	0xfe
0022d2   2610     addwf	0x10, 0x1, 0       	ADDWF	r0x10, F
0022d4   0eff     movlw	0xff               	MOVLW	0xff
0022d6   2211     addwfc	0x11, 0x1, 0      	ADDWFC	r0x11, F
0022d8   2212     addwfc	0x12, 0x1, 0      	ADDWFC	r0x12, F
0022da   c010     movff	0x10, 0xfe9        	MOVFF	r0x10, FSR0L
0022dc   ffe9
0022de   c011     movff	0x11, 0xff3        	MOVFF	r0x11, PRODL
0022e0   fff3
0022e2   5012     movf	0x12, 0, 0          	MOVF	r0x12, W
0022e4   ec2b     call	0x56, 0             	CALL	__gptrget2
0022e6   f000
0022e8   6e10     movwf	0x10, 0            	MOVWF	r0x10
0022ea   cff3     movff	0xff3, 0x11        	MOVFF	PRODL, r0x11
0022ec   f011
0022ee   6ae5     clrf	0xe5, 0             	CLRF	POSTDEC1
0022f0   0e61     movlw	0x61               	MOVLW	0x61
0022f2   6ee5     movwf	0xe5, 0            	MOVWF	POSTDEC1
0022f4   500c     movf	0xc, 0, 0           	MOVF	r0x0c, W
0022f6   6ee5     movwf	0xe5, 0            	MOVWF	POSTDEC1
0022f8   500b     movf	0xb, 0, 0           	MOVF	r0x0b, W
0022fa   6ee5     movwf	0xe5, 0            	MOVWF	POSTDEC1
0022fc   500e     movf	0xe, 0, 0           	MOVF	r0x0e, W
0022fe   6ee5     movwf	0xe5, 0            	MOVWF	POSTDEC1
002300   500d     movf	0xd, 0, 0           	MOVF	r0x0d, W
002302   6ee5     movwf	0xe5, 0            	MOVWF	POSTDEC1
002304   6ae5     clrf	0xe5, 0             	CLRF	POSTDEC1
002306   0e01     movlw	0x1                	MOVLW	0x01
002308   6ee5     movwf	0xe5, 0            	MOVWF	POSTDEC1
00230a   6ae5     clrf	0xe5, 0             	CLRF	POSTDEC1
00230c   0e0a     movlw	0xa                	MOVLW	0x0a
00230e   6ee5     movwf	0xe5, 0            	MOVWF	POSTDEC1
002310   5011     movf	0x11, 0, 0          	MOVF	r0x11, W
002312   6ee5     movwf	0xe5, 0            	MOVWF	POSTDEC1
002314   5010     movf	0x10, 0, 0          	MOVF	r0x10, W
002316   6ee5     movwf	0xe5, 0            	MOVWF	POSTDEC1
002318   5002     movf	0x2, 0, 0           	MOVF	r0x02, W
00231a   6ee5     movwf	0xe5, 0            	MOVWF	POSTDEC1
00231c   5001     movf	0x1, 0, 0           	MOVF	r0x01, W
00231e   6ee5     movwf	0xe5, 0            	MOVWF	POSTDEC1
002320   5000     movf	0, 0, 0             	MOVF	r0x00, W
002322   6ee5     movwf	0xe5, 0            	MOVWF	POSTDEC1
002324   eca9     call	0x2b52, 0           	CALL	_pprinti
002326   f015
002328   6e10     movwf	0x10, 0            	MOVWF	r0x10
00232a   cff3     movff	0xff3, 0x11        	MOVFF	PRODL, r0x11
00232c   f011
00232e   0e0f     movlw	0xf                	MOVLW	0x0f
002330   26e1     addwf	0xe1, 0x1, 0       	ADDWF	FSR1L, F
002332   5010     movf	0x10, 0, 0          	MOVF	r0x10, W
002334   2609     addwf	0x9, 0x1, 0        	ADDWF	r0x09, F
002336   5011     movf	0x11, 0, 0          	MOVF	r0x11, W
002338   220a     addwfc	0xa, 0x1, 0       	ADDWFC	r0x0a, F
                                           ;	.line	183; /home/regis/Hobbies/Electronique/Projets/PinguinoIDE/X/branches/linux/tools/p8/bin/../share/sdcc/include/pic16/stdio.c	continue;
00233a   d1e2     bra	0x2700               	BRA	_00535_DS_
                                           _00514_DS_:
                                           ;	.line	185; /home/regis/Hobbies/Electronique/Projets/PinguinoIDE/X/branches/linux/tools/p8/bin/../share/sdcc/include/pic16/stdio.c	if (*format == 'x')
00233c   500f     movf	0xf, 0, 0           	MOVF	r0x0f, W
00233e   0a78     xorlw	0x78               	XORLW	0x78
002340   e001     bz	0x2344                	BZ	_00588_DS_
002342   d044     bra	0x23cc               	BRA	_00516_DS_
                                           _00588_DS_:
                                           ;	.line	187; /home/regis/Hobbies/Electronique/Projets/PinguinoIDE/X/branches/linux/tools/p8/bin/../share/sdcc/include/pic16/stdio.c	pc += pprinti(out, va_arg(args, int), 16, 0, width, pad, 'a');
002344   5006     movf	0x6, 0, 0           	MOVF	r0x06, W
002346   0f02     addlw	0x2                	ADDLW	0x02
002348   6e10     movwf	0x10, 0            	MOVWF	r0x10
00234a   0e00     movlw	0                  	MOVLW	0x00
00234c   2007     addwfc	0x7, 0, 0         	ADDWFC	r0x07, W
00234e   6e11     movwf	0x11, 0            	MOVWF	r0x11
002350   0e00     movlw	0                  	MOVLW	0x00
002352   2008     addwfc	0x8, 0, 0         	ADDWFC	r0x08, W
002354   6e12     movwf	0x12, 0            	MOVWF	r0x12
002356   c010     movff	0x10, 0x6          	MOVFF	r0x10, r0x06
002358   f006
00235a   c011     movff	0x11, 0x7          	MOVFF	r0x11, r0x07
00235c   f007
00235e   c012     movff	0x12, 0x8          	MOVFF	r0x12, r0x08
002360   f008
002362   0efe     movlw	0xfe               	MOVLW	0xfe
002364   2610     addwf	0x10, 0x1, 0       	ADDWF	r0x10, F
002366   0eff     movlw	0xff               	MOVLW	0xff
002368   2211     addwfc	0x11, 0x1, 0      	ADDWFC	r0x11, F
00236a   2212     addwfc	0x12, 0x1, 0      	ADDWFC	r0x12, F
00236c   c010     movff	0x10, 0xfe9        	MOVFF	r0x10, FSR0L
00236e   ffe9
002370   c011     movff	0x11, 0xff3        	MOVFF	r0x11, PRODL
002372   fff3
002374   5012     movf	0x12, 0, 0          	MOVF	r0x12, W
002376   ec2b     call	0x56, 0             	CALL	__gptrget2
002378   f000
00237a   6e10     movwf	0x10, 0            	MOVWF	r0x10
00237c   cff3     movff	0xff3, 0x11        	MOVFF	PRODL, r0x11
00237e   f011
002380   6ae5     clrf	0xe5, 0             	CLRF	POSTDEC1
002382   0e61     movlw	0x61               	MOVLW	0x61
002384   6ee5     movwf	0xe5, 0            	MOVWF	POSTDEC1
002386   500c     movf	0xc, 0, 0           	MOVF	r0x0c, W
002388   6ee5     movwf	0xe5, 0            	MOVWF	POSTDEC1
00238a   500b     movf	0xb, 0, 0           	MOVF	r0x0b, W
00238c   6ee5     movwf	0xe5, 0            	MOVWF	POSTDEC1
00238e   500e     movf	0xe, 0, 0           	MOVF	r0x0e, W
002390   6ee5     movwf	0xe5, 0            	MOVWF	POSTDEC1
002392   500d     movf	0xd, 0, 0           	MOVF	r0x0d, W
002394   6ee5     movwf	0xe5, 0            	MOVWF	POSTDEC1
002396   6ae5     clrf	0xe5, 0             	CLRF	POSTDEC1
002398   6ae5     clrf	0xe5, 0             	CLRF	POSTDEC1
00239a   6ae5     clrf	0xe5, 0             	CLRF	POSTDEC1
00239c   0e10     movlw	0x10               	MOVLW	0x10
00239e   6ee5     movwf	0xe5, 0            	MOVWF	POSTDEC1
0023a0   5011     movf	0x11, 0, 0          	MOVF	r0x11, W
0023a2   6ee5     movwf	0xe5, 0            	MOVWF	POSTDEC1
0023a4   5010     movf	0x10, 0, 0          	MOVF	r0x10, W
0023a6   6ee5     movwf	0xe5, 0            	MOVWF	POSTDEC1
0023a8   5002     movf	0x2, 0, 0           	MOVF	r0x02, W
0023aa   6ee5     movwf	0xe5, 0            	MOVWF	POSTDEC1
0023ac   5001     movf	0x1, 0, 0           	MOVF	r0x01, W
0023ae   6ee5     movwf	0xe5, 0            	MOVWF	POSTDEC1
0023b0   5000     movf	0, 0, 0             	MOVF	r0x00, W
0023b2   6ee5     movwf	0xe5, 0            	MOVWF	POSTDEC1
0023b4   eca9     call	0x2b52, 0           	CALL	_pprinti
0023b6   f015
0023b8   6e10     movwf	0x10, 0            	MOVWF	r0x10
0023ba   cff3     movff	0xff3, 0x11        	MOVFF	PRODL, r0x11
0023bc   f011
0023be   0e0f     movlw	0xf                	MOVLW	0x0f
0023c0   26e1     addwf	0xe1, 0x1, 0       	ADDWF	FSR1L, F
0023c2   5010     movf	0x10, 0, 0          	MOVF	r0x10, W
0023c4   2609     addwf	0x9, 0x1, 0        	ADDWF	r0x09, F
0023c6   5011     movf	0x11, 0, 0          	MOVF	r0x11, W
0023c8   220a     addwfc	0xa, 0x1, 0       	ADDWFC	r0x0a, F
                                           ;	.line	188; /home/regis/Hobbies/Electronique/Projets/PinguinoIDE/X/branches/linux/tools/p8/bin/../share/sdcc/include/pic16/stdio.c	continue;
0023ca   d19a     bra	0x2700               	BRA	_00535_DS_
                                           _00516_DS_:
                                           ;	.line	190; /home/regis/Hobbies/Electronique/Projets/PinguinoIDE/X/branches/linux/tools/p8/bin/../share/sdcc/include/pic16/stdio.c	if (*format == 'X')
0023cc   500f     movf	0xf, 0, 0           	MOVF	r0x0f, W
0023ce   0a58     xorlw	0x58               	XORLW	0x58
0023d0   e001     bz	0x23d4                	BZ	_00590_DS_
0023d2   d044     bra	0x245c               	BRA	_00518_DS_
                                           _00590_DS_:
                                           ;	.line	192; /home/regis/Hobbies/Electronique/Projets/PinguinoIDE/X/branches/linux/tools/p8/bin/../share/sdcc/include/pic16/stdio.c	pc += pprinti(out, va_arg(args, int), 16, 0, width, pad, 'A');
0023d4   5006     movf	0x6, 0, 0           	MOVF	r0x06, W
0023d6   0f02     addlw	0x2                	ADDLW	0x02
0023d8   6e10     movwf	0x10, 0            	MOVWF	r0x10
0023da   0e00     movlw	0                  	MOVLW	0x00
0023dc   2007     addwfc	0x7, 0, 0         	ADDWFC	r0x07, W
0023de   6e11     movwf	0x11, 0            	MOVWF	r0x11
0023e0   0e00     movlw	0                  	MOVLW	0x00
0023e2   2008     addwfc	0x8, 0, 0         	ADDWFC	r0x08, W
0023e4   6e12     movwf	0x12, 0            	MOVWF	r0x12
0023e6   c010     movff	0x10, 0x6          	MOVFF	r0x10, r0x06
0023e8   f006
0023ea   c011     movff	0x11, 0x7          	MOVFF	r0x11, r0x07
0023ec   f007
0023ee   c012     movff	0x12, 0x8          	MOVFF	r0x12, r0x08
0023f0   f008
0023f2   0efe     movlw	0xfe               	MOVLW	0xfe
0023f4   2610     addwf	0x10, 0x1, 0       	ADDWF	r0x10, F
0023f6   0eff     movlw	0xff               	MOVLW	0xff
0023f8   2211     addwfc	0x11, 0x1, 0      	ADDWFC	r0x11, F
0023fa   2212     addwfc	0x12, 0x1, 0      	ADDWFC	r0x12, F
0023fc   c010     movff	0x10, 0xfe9        	MOVFF	r0x10, FSR0L
0023fe   ffe9
002400   c011     movff	0x11, 0xff3        	MOVFF	r0x11, PRODL
002402   fff3
002404   5012     movf	0x12, 0, 0          	MOVF	r0x12, W
002406   ec2b     call	0x56, 0             	CALL	__gptrget2
002408   f000
00240a   6e10     movwf	0x10, 0            	MOVWF	r0x10
00240c   cff3     movff	0xff3, 0x11        	MOVFF	PRODL, r0x11
00240e   f011
002410   6ae5     clrf	0xe5, 0             	CLRF	POSTDEC1
002412   0e41     movlw	0x41               	MOVLW	0x41
002414   6ee5     movwf	0xe5, 0            	MOVWF	POSTDEC1
002416   500c     movf	0xc, 0, 0           	MOVF	r0x0c, W
002418   6ee5     movwf	0xe5, 0            	MOVWF	POSTDEC1
00241a   500b     movf	0xb, 0, 0           	MOVF	r0x0b, W
00241c   6ee5     movwf	0xe5, 0            	MOVWF	POSTDEC1
00241e   500e     movf	0xe, 0, 0           	MOVF	r0x0e, W
002420   6ee5     movwf	0xe5, 0            	MOVWF	POSTDEC1
002422   500d     movf	0xd, 0, 0           	MOVF	r0x0d, W
002424   6ee5     movwf	0xe5, 0            	MOVWF	POSTDEC1
002426   6ae5     clrf	0xe5, 0             	CLRF	POSTDEC1
002428   6ae5     clrf	0xe5, 0             	CLRF	POSTDEC1
00242a   6ae5     clrf	0xe5, 0             	CLRF	POSTDEC1
00242c   0e10     movlw	0x10               	MOVLW	0x10
00242e   6ee5     movwf	0xe5, 0            	MOVWF	POSTDEC1
002430   5011     movf	0x11, 0, 0          	MOVF	r0x11, W
002432   6ee5     movwf	0xe5, 0            	MOVWF	POSTDEC1
002434   5010     movf	0x10, 0, 0          	MOVF	r0x10, W
002436   6ee5     movwf	0xe5, 0            	MOVWF	POSTDEC1
002438   5002     movf	0x2, 0, 0           	MOVF	r0x02, W
00243a   6ee5     movwf	0xe5, 0            	MOVWF	POSTDEC1
00243c   5001     movf	0x1, 0, 0           	MOVF	r0x01, W
00243e   6ee5     movwf	0xe5, 0            	MOVWF	POSTDEC1
002440   5000     movf	0, 0, 0             	MOVF	r0x00, W
002442   6ee5     movwf	0xe5, 0            	MOVWF	POSTDEC1
002444   eca9     call	0x2b52, 0           	CALL	_pprinti
002446   f015
002448   6e10     movwf	0x10, 0            	MOVWF	r0x10
00244a   cff3     movff	0xff3, 0x11        	MOVFF	PRODL, r0x11
00244c   f011
00244e   0e0f     movlw	0xf                	MOVLW	0x0f
002450   26e1     addwf	0xe1, 0x1, 0       	ADDWF	FSR1L, F
002452   5010     movf	0x10, 0, 0          	MOVF	r0x10, W
002454   2609     addwf	0x9, 0x1, 0        	ADDWF	r0x09, F
002456   5011     movf	0x11, 0, 0          	MOVF	r0x11, W
002458   220a     addwfc	0xa, 0x1, 0       	ADDWFC	r0x0a, F
                                           ;	.line	193; /home/regis/Hobbies/Electronique/Projets/PinguinoIDE/X/branches/linux/tools/p8/bin/../share/sdcc/include/pic16/stdio.c	continue;
00245a   d152     bra	0x2700               	BRA	_00535_DS_
                                           _00518_DS_:
                                           ;	.line	195; /home/regis/Hobbies/Electronique/Projets/PinguinoIDE/X/branches/linux/tools/p8/bin/../share/sdcc/include/pic16/stdio.c	if (*format == 'b')
00245c   500f     movf	0xf, 0, 0           	MOVF	r0x0f, W
00245e   0a62     xorlw	0x62               	XORLW	0x62
002460   e001     bz	0x2464                	BZ	_00592_DS_
002462   d044     bra	0x24ec               	BRA	_00520_DS_
                                           _00592_DS_:
                                           ;	.line	197; /home/regis/Hobbies/Electronique/Projets/PinguinoIDE/X/branches/linux/tools/p8/bin/../share/sdcc/include/pic16/stdio.c	pc += pprinti(out, va_arg(args, int), 2, 0, width, pad, 'a');
002464   5006     movf	0x6, 0, 0           	MOVF	r0x06, W
002466   0f02     addlw	0x2                	ADDLW	0x02
002468   6e10     movwf	0x10, 0            	MOVWF	r0x10
00246a   0e00     movlw	0                  	MOVLW	0x00
00246c   2007     addwfc	0x7, 0, 0         	ADDWFC	r0x07, W
00246e   6e11     movwf	0x11, 0            	MOVWF	r0x11
002470   0e00     movlw	0                  	MOVLW	0x00
002472   2008     addwfc	0x8, 0, 0         	ADDWFC	r0x08, W
002474   6e12     movwf	0x12, 0            	MOVWF	r0x12
002476   c010     movff	0x10, 0x6          	MOVFF	r0x10, r0x06
002478   f006
00247a   c011     movff	0x11, 0x7          	MOVFF	r0x11, r0x07
00247c   f007
00247e   c012     movff	0x12, 0x8          	MOVFF	r0x12, r0x08
002480   f008
002482   0efe     movlw	0xfe               	MOVLW	0xfe
002484   2610     addwf	0x10, 0x1, 0       	ADDWF	r0x10, F
002486   0eff     movlw	0xff               	MOVLW	0xff
002488   2211     addwfc	0x11, 0x1, 0      	ADDWFC	r0x11, F
00248a   2212     addwfc	0x12, 0x1, 0      	ADDWFC	r0x12, F
00248c   c010     movff	0x10, 0xfe9        	MOVFF	r0x10, FSR0L
00248e   ffe9
002490   c011     movff	0x11, 0xff3        	MOVFF	r0x11, PRODL
002492   fff3
002494   5012     movf	0x12, 0, 0          	MOVF	r0x12, W
002496   ec2b     call	0x56, 0             	CALL	__gptrget2
002498   f000
00249a   6e10     movwf	0x10, 0            	MOVWF	r0x10
00249c   cff3     movff	0xff3, 0x11        	MOVFF	PRODL, r0x11
00249e   f011
0024a0   6ae5     clrf	0xe5, 0             	CLRF	POSTDEC1
0024a2   0e61     movlw	0x61               	MOVLW	0x61
0024a4   6ee5     movwf	0xe5, 0            	MOVWF	POSTDEC1
0024a6   500c     movf	0xc, 0, 0           	MOVF	r0x0c, W
0024a8   6ee5     movwf	0xe5, 0            	MOVWF	POSTDEC1
0024aa   500b     movf	0xb, 0, 0           	MOVF	r0x0b, W
0024ac   6ee5     movwf	0xe5, 0            	MOVWF	POSTDEC1
0024ae   500e     movf	0xe, 0, 0           	MOVF	r0x0e, W
0024b0   6ee5     movwf	0xe5, 0            	MOVWF	POSTDEC1
0024b2   500d     movf	0xd, 0, 0           	MOVF	r0x0d, W
0024b4   6ee5     movwf	0xe5, 0            	MOVWF	POSTDEC1
0024b6   6ae5     clrf	0xe5, 0             	CLRF	POSTDEC1
0024b8   6ae5     clrf	0xe5, 0             	CLRF	POSTDEC1
0024ba   6ae5     clrf	0xe5, 0             	CLRF	POSTDEC1
0024bc   0e02     movlw	0x2                	MOVLW	0x02
0024be   6ee5     movwf	0xe5, 0            	MOVWF	POSTDEC1
0024c0   5011     movf	0x11, 0, 0          	MOVF	r0x11, W
0024c2   6ee5     movwf	0xe5, 0            	MOVWF	POSTDEC1
0024c4   5010     movf	0x10, 0, 0          	MOVF	r0x10, W
0024c6   6ee5     movwf	0xe5, 0            	MOVWF	POSTDEC1
0024c8   5002     movf	0x2, 0, 0           	MOVF	r0x02, W
0024ca   6ee5     movwf	0xe5, 0            	MOVWF	POSTDEC1
0024cc   5001     movf	0x1, 0, 0           	MOVF	r0x01, W
0024ce   6ee5     movwf	0xe5, 0            	MOVWF	POSTDEC1
0024d0   5000     movf	0, 0, 0             	MOVF	r0x00, W
0024d2   6ee5     movwf	0xe5, 0            	MOVWF	POSTDEC1
0024d4   eca9     call	0x2b52, 0           	CALL	_pprinti
0024d6   f015
0024d8   6e10     movwf	0x10, 0            	MOVWF	r0x10
0024da   cff3     movff	0xff3, 0x11        	MOVFF	PRODL, r0x11
0024dc   f011
0024de   0e0f     movlw	0xf                	MOVLW	0x0f
0024e0   26e1     addwf	0xe1, 0x1, 0       	ADDWF	FSR1L, F
0024e2   5010     movf	0x10, 0, 0          	MOVF	r0x10, W
0024e4   2609     addwf	0x9, 0x1, 0        	ADDWF	r0x09, F
0024e6   5011     movf	0x11, 0, 0          	MOVF	r0x11, W
0024e8   220a     addwfc	0xa, 0x1, 0       	ADDWFC	r0x0a, F
                                           ;	.line	198; /home/regis/Hobbies/Electronique/Projets/PinguinoIDE/X/branches/linux/tools/p8/bin/../share/sdcc/include/pic16/stdio.c	continue;
0024ea   d10a     bra	0x2700               	BRA	_00535_DS_
                                           _00520_DS_:
                                           ;	.line	200; /home/regis/Hobbies/Electronique/Projets/PinguinoIDE/X/branches/linux/tools/p8/bin/../share/sdcc/include/pic16/stdio.c	if (*format == 'o')
0024ec   500f     movf	0xf, 0, 0           	MOVF	r0x0f, W
0024ee   0a6f     xorlw	0x6f               	XORLW	0x6f
0024f0   e001     bz	0x24f4                	BZ	_00594_DS_
0024f2   d044     bra	0x257c               	BRA	_00522_DS_
                                           _00594_DS_:
                                           ;	.line	202; /home/regis/Hobbies/Electronique/Projets/PinguinoIDE/X/branches/linux/tools/p8/bin/../share/sdcc/include/pic16/stdio.c	pc += pprinti(out, va_arg(args, int), 8, 0, width, pad, 'a');
0024f4   5006     movf	0x6, 0, 0           	MOVF	r0x06, W
0024f6   0f02     addlw	0x2                	ADDLW	0x02
0024f8   6e10     movwf	0x10, 0            	MOVWF	r0x10
0024fa   0e00     movlw	0                  	MOVLW	0x00
0024fc   2007     addwfc	0x7, 0, 0         	ADDWFC	r0x07, W
0024fe   6e11     movwf	0x11, 0            	MOVWF	r0x11
002500   0e00     movlw	0                  	MOVLW	0x00
002502   2008     addwfc	0x8, 0, 0         	ADDWFC	r0x08, W
002504   6e12     movwf	0x12, 0            	MOVWF	r0x12
002506   c010     movff	0x10, 0x6          	MOVFF	r0x10, r0x06
002508   f006
00250a   c011     movff	0x11, 0x7          	MOVFF	r0x11, r0x07
00250c   f007
00250e   c012     movff	0x12, 0x8          	MOVFF	r0x12, r0x08
002510   f008
002512   0efe     movlw	0xfe               	MOVLW	0xfe
002514   2610     addwf	0x10, 0x1, 0       	ADDWF	r0x10, F
002516   0eff     movlw	0xff               	MOVLW	0xff
002518   2211     addwfc	0x11, 0x1, 0      	ADDWFC	r0x11, F
00251a   2212     addwfc	0x12, 0x1, 0      	ADDWFC	r0x12, F
00251c   c010     movff	0x10, 0xfe9        	MOVFF	r0x10, FSR0L
00251e   ffe9
002520   c011     movff	0x11, 0xff3        	MOVFF	r0x11, PRODL
002522   fff3
002524   5012     movf	0x12, 0, 0          	MOVF	r0x12, W
002526   ec2b     call	0x56, 0             	CALL	__gptrget2
002528   f000
00252a   6e10     movwf	0x10, 0            	MOVWF	r0x10
00252c   cff3     movff	0xff3, 0x11        	MOVFF	PRODL, r0x11
00252e   f011
002530   6ae5     clrf	0xe5, 0             	CLRF	POSTDEC1
002532   0e61     movlw	0x61               	MOVLW	0x61
002534   6ee5     movwf	0xe5, 0            	MOVWF	POSTDEC1
002536   500c     movf	0xc, 0, 0           	MOVF	r0x0c, W
002538   6ee5     movwf	0xe5, 0            	MOVWF	POSTDEC1
00253a   500b     movf	0xb, 0, 0           	MOVF	r0x0b, W
00253c   6ee5     movwf	0xe5, 0            	MOVWF	POSTDEC1
00253e   500e     movf	0xe, 0, 0           	MOVF	r0x0e, W
002540   6ee5     movwf	0xe5, 0            	MOVWF	POSTDEC1
002542   500d     movf	0xd, 0, 0           	MOVF	r0x0d, W
002544   6ee5     movwf	0xe5, 0            	MOVWF	POSTDEC1
002546   6ae5     clrf	0xe5, 0             	CLRF	POSTDEC1
002548   6ae5     clrf	0xe5, 0             	CLRF	POSTDEC1
00254a   6ae5     clrf	0xe5, 0             	CLRF	POSTDEC1
00254c   0e08     movlw	0x8                	MOVLW	0x08
00254e   6ee5     movwf	0xe5, 0            	MOVWF	POSTDEC1
002550   5011     movf	0x11, 0, 0          	MOVF	r0x11, W
002552   6ee5     movwf	0xe5, 0            	MOVWF	POSTDEC1
002554   5010     movf	0x10, 0, 0          	MOVF	r0x10, W
002556   6ee5     movwf	0xe5, 0            	MOVWF	POSTDEC1
002558   5002     movf	0x2, 0, 0           	MOVF	r0x02, W
00255a   6ee5     movwf	0xe5, 0            	MOVWF	POSTDEC1
00255c   5001     movf	0x1, 0, 0           	MOVF	r0x01, W
00255e   6ee5     movwf	0xe5, 0            	MOVWF	POSTDEC1
002560   5000     movf	0, 0, 0             	MOVF	r0x00, W
002562   6ee5     movwf	0xe5, 0            	MOVWF	POSTDEC1
002564   eca9     call	0x2b52, 0           	CALL	_pprinti
002566   f015
002568   6e10     movwf	0x10, 0            	MOVWF	r0x10
00256a   cff3     movff	0xff3, 0x11        	MOVFF	PRODL, r0x11
00256c   f011
00256e   0e0f     movlw	0xf                	MOVLW	0x0f
002570   26e1     addwf	0xe1, 0x1, 0       	ADDWF	FSR1L, F
002572   5010     movf	0x10, 0, 0          	MOVF	r0x10, W
002574   2609     addwf	0x9, 0x1, 0        	ADDWF	r0x09, F
002576   5011     movf	0x11, 0, 0          	MOVF	r0x11, W
002578   220a     addwfc	0xa, 0x1, 0       	ADDWFC	r0x0a, F
                                           ;	.line	203; /home/regis/Hobbies/Electronique/Projets/PinguinoIDE/X/branches/linux/tools/p8/bin/../share/sdcc/include/pic16/stdio.c	continue;
00257a   d0c2     bra	0x2700               	BRA	_00535_DS_
                                           _00522_DS_:
                                           ;	.line	205; /home/regis/Hobbies/Electronique/Projets/PinguinoIDE/X/branches/linux/tools/p8/bin/../share/sdcc/include/pic16/stdio.c	if (*format == 'u')
00257c   500f     movf	0xf, 0, 0           	MOVF	r0x0f, W
00257e   0a75     xorlw	0x75               	XORLW	0x75
002580   e001     bz	0x2584                	BZ	_00596_DS_
002582   d044     bra	0x260c               	BRA	_00524_DS_
                                           _00596_DS_:
                                           ;	.line	207; /home/regis/Hobbies/Electronique/Projets/PinguinoIDE/X/branches/linux/tools/p8/bin/../share/sdcc/include/pic16/stdio.c	pc += pprinti(out, va_arg(args, int), 10, 0, width, pad, 'a');
002584   5006     movf	0x6, 0, 0           	MOVF	r0x06, W
002586   0f02     addlw	0x2                	ADDLW	0x02
002588   6e10     movwf	0x10, 0            	MOVWF	r0x10
00258a   0e00     movlw	0                  	MOVLW	0x00
00258c   2007     addwfc	0x7, 0, 0         	ADDWFC	r0x07, W
00258e   6e11     movwf	0x11, 0            	MOVWF	r0x11
002590   0e00     movlw	0                  	MOVLW	0x00
002592   2008     addwfc	0x8, 0, 0         	ADDWFC	r0x08, W
002594   6e12     movwf	0x12, 0            	MOVWF	r0x12
002596   c010     movff	0x10, 0x6          	MOVFF	r0x10, r0x06
002598   f006
00259a   c011     movff	0x11, 0x7          	MOVFF	r0x11, r0x07
00259c   f007
00259e   c012     movff	0x12, 0x8          	MOVFF	r0x12, r0x08
0025a0   f008
0025a2   0efe     movlw	0xfe               	MOVLW	0xfe
0025a4   2610     addwf	0x10, 0x1, 0       	ADDWF	r0x10, F
0025a6   0eff     movlw	0xff               	MOVLW	0xff
0025a8   2211     addwfc	0x11, 0x1, 0      	ADDWFC	r0x11, F
0025aa   2212     addwfc	0x12, 0x1, 0      	ADDWFC	r0x12, F
0025ac   c010     movff	0x10, 0xfe9        	MOVFF	r0x10, FSR0L
0025ae   ffe9
0025b0   c011     movff	0x11, 0xff3        	MOVFF	r0x11, PRODL
0025b2   fff3
0025b4   5012     movf	0x12, 0, 0          	MOVF	r0x12, W
0025b6   ec2b     call	0x56, 0             	CALL	__gptrget2
0025b8   f000
0025ba   6e10     movwf	0x10, 0            	MOVWF	r0x10
0025bc   cff3     movff	0xff3, 0x11        	MOVFF	PRODL, r0x11
0025be   f011
0025c0   6ae5     clrf	0xe5, 0             	CLRF	POSTDEC1
0025c2   0e61     movlw	0x61               	MOVLW	0x61
0025c4   6ee5     movwf	0xe5, 0            	MOVWF	POSTDEC1
0025c6   500c     movf	0xc, 0, 0           	MOVF	r0x0c, W
0025c8   6ee5     movwf	0xe5, 0            	MOVWF	POSTDEC1
0025ca   500b     movf	0xb, 0, 0           	MOVF	r0x0b, W
0025cc   6ee5     movwf	0xe5, 0            	MOVWF	POSTDEC1
0025ce   500e     movf	0xe, 0, 0           	MOVF	r0x0e, W
0025d0   6ee5     movwf	0xe5, 0            	MOVWF	POSTDEC1
0025d2   500d     movf	0xd, 0, 0           	MOVF	r0x0d, W
0025d4   6ee5     movwf	0xe5, 0            	MOVWF	POSTDEC1
0025d6   6ae5     clrf	0xe5, 0             	CLRF	POSTDEC1
0025d8   6ae5     clrf	0xe5, 0             	CLRF	POSTDEC1
0025da   6ae5     clrf	0xe5, 0             	CLRF	POSTDEC1
0025dc   0e0a     movlw	0xa                	MOVLW	0x0a
0025de   6ee5     movwf	0xe5, 0            	MOVWF	POSTDEC1
0025e0   5011     movf	0x11, 0, 0          	MOVF	r0x11, W
0025e2   6ee5     movwf	0xe5, 0            	MOVWF	POSTDEC1
0025e4   5010     movf	0x10, 0, 0          	MOVF	r0x10, W
0025e6   6ee5     movwf	0xe5, 0            	MOVWF	POSTDEC1
0025e8   5002     movf	0x2, 0, 0           	MOVF	r0x02, W
0025ea   6ee5     movwf	0xe5, 0            	MOVWF	POSTDEC1
0025ec   5001     movf	0x1, 0, 0           	MOVF	r0x01, W
0025ee   6ee5     movwf	0xe5, 0            	MOVWF	POSTDEC1
0025f0   5000     movf	0, 0, 0             	MOVF	r0x00, W
0025f2   6ee5     movwf	0xe5, 0            	MOVWF	POSTDEC1
0025f4   eca9     call	0x2b52, 0           	CALL	_pprinti
0025f6   f015
0025f8   6e10     movwf	0x10, 0            	MOVWF	r0x10
0025fa   cff3     movff	0xff3, 0x11        	MOVFF	PRODL, r0x11
0025fc   f011
0025fe   0e0f     movlw	0xf                	MOVLW	0x0f
002600   26e1     addwf	0xe1, 0x1, 0       	ADDWF	FSR1L, F
002602   5010     movf	0x10, 0, 0          	MOVF	r0x10, W
002604   2609     addwf	0x9, 0x1, 0        	ADDWF	r0x09, F
002606   5011     movf	0x11, 0, 0          	MOVF	r0x11, W
002608   220a     addwfc	0xa, 0x1, 0       	ADDWFC	r0x0a, F
                                           ;	.line	208; /home/regis/Hobbies/Electronique/Projets/PinguinoIDE/X/branches/linux/tools/p8/bin/../share/sdcc/include/pic16/stdio.c	continue;
00260a   d07a     bra	0x2700               	BRA	_00535_DS_
                                           _00524_DS_:
                                           ;	.line	210; /home/regis/Hobbies/Electronique/Projets/PinguinoIDE/X/branches/linux/tools/p8/bin/../share/sdcc/include/pic16/stdio.c	if (*format == 'c')
00260c   500f     movf	0xf, 0, 0           	MOVF	r0x0f, W
00260e   0a63     xorlw	0x63               	XORLW	0x63
002610   e001     bz	0x2614                	BZ	_00598_DS_
002612   d03e     bra	0x2690               	BRA	_00526_DS_
                                           _00598_DS_:
                                           ;	.line	213; /home/regis/Hobbies/Electronique/Projets/PinguinoIDE/X/branches/linux/tools/p8/bin/../share/sdcc/include/pic16/stdio.c	scr[0] = (char)va_arg(args, int);
002614   5006     movf	0x6, 0, 0           	MOVF	r0x06, W
002616   0f02     addlw	0x2                	ADDLW	0x02
002618   6e10     movwf	0x10, 0            	MOVWF	r0x10
00261a   0e00     movlw	0                  	MOVLW	0x00
00261c   2007     addwfc	0x7, 0, 0         	ADDWFC	r0x07, W
00261e   6e11     movwf	0x11, 0            	MOVWF	r0x11
002620   0e00     movlw	0                  	MOVLW	0x00
002622   2008     addwfc	0x8, 0, 0         	ADDWFC	r0x08, W
002624   6e12     movwf	0x12, 0            	MOVWF	r0x12
002626   c010     movff	0x10, 0x6          	MOVFF	r0x10, r0x06
002628   f006
00262a   c011     movff	0x11, 0x7          	MOVFF	r0x11, r0x07
00262c   f007
00262e   c012     movff	0x12, 0x8          	MOVFF	r0x12, r0x08
002630   f008
002632   0efe     movlw	0xfe               	MOVLW	0xfe
002634   2610     addwf	0x10, 0x1, 0       	ADDWF	r0x10, F
002636   0eff     movlw	0xff               	MOVLW	0xff
002638   2211     addwfc	0x11, 0x1, 0      	ADDWFC	r0x11, F
00263a   2212     addwfc	0x12, 0x1, 0      	ADDWFC	r0x12, F
00263c   c010     movff	0x10, 0xfe9        	MOVFF	r0x10, FSR0L
00263e   ffe9
002640   c011     movff	0x11, 0xff3        	MOVFF	r0x11, PRODL
002642   fff3
002644   5012     movf	0x12, 0, 0          	MOVF	r0x12, W
002646   ec2b     call	0x56, 0             	CALL	__gptrget2
002648   f000
00264a   0102     movlb	0x2                	BANKSEL	_pprint_scr_1_1
00264c   6f95     movwf	0x95, 0x1          	MOVWF	_pprint_scr_1_1, B
                                           ; removed redundant BANKSEL
                                           ;	.line	215; /home/regis/Hobbies/Electronique/Projets/PinguinoIDE/X/branches/linux/tools/p8/bin/../share/sdcc/include/pic16/stdio.c	scr[1] = '\0';
00264e   6b96     clrf	0x96, 0x1           	CLRF	(_pprint_scr_1_1 + 1), B
                                           ;	.line	216; /home/regis/Hobbies/Electronique/Projets/PinguinoIDE/X/branches/linux/tools/p8/bin/../share/sdcc/include/pic16/stdio.c	pc += pprints(out, scr, width, pad);
002650   500c     movf	0xc, 0, 0           	MOVF	r0x0c, W
002652   6ee5     movwf	0xe5, 0            	MOVWF	POSTDEC1
002654   500b     movf	0xb, 0, 0           	MOVF	r0x0b, W
002656   6ee5     movwf	0xe5, 0            	MOVWF	POSTDEC1
002658   500e     movf	0xe, 0, 0           	MOVF	r0x0e, W
00265a   6ee5     movwf	0xe5, 0            	MOVWF	POSTDEC1
00265c   500d     movf	0xd, 0, 0           	MOVF	r0x0d, W
00265e   6ee5     movwf	0xe5, 0            	MOVWF	POSTDEC1
002660   0e80     movlw	0x80               	MOVLW	0x80
002662   6ee5     movwf	0xe5, 0            	MOVWF	POSTDEC1
002664   0e02     movlw	0x2                	MOVLW	HIGH(_pprint_scr_1_1)
002666   6ee5     movwf	0xe5, 0            	MOVWF	POSTDEC1
002668   0e95     movlw	0x95               	MOVLW	LOW(_pprint_scr_1_1)
00266a   6ee5     movwf	0xe5, 0            	MOVWF	POSTDEC1
00266c   5002     movf	0x2, 0, 0           	MOVF	r0x02, W
00266e   6ee5     movwf	0xe5, 0            	MOVWF	POSTDEC1
002670   5001     movf	0x1, 0, 0           	MOVF	r0x01, W
002672   6ee5     movwf	0xe5, 0            	MOVWF	POSTDEC1
002674   5000     movf	0, 0, 0             	MOVF	r0x00, W
002676   6ee5     movwf	0xe5, 0            	MOVWF	POSTDEC1
002678   ec32     call	0x2e64, 0           	CALL	_pprints
00267a   f017
00267c   6e10     movwf	0x10, 0            	MOVWF	r0x10
00267e   cff3     movff	0xff3, 0x11        	MOVFF	PRODL, r0x11
002680   f011
002682   0e0a     movlw	0xa                	MOVLW	0x0a
002684   26e1     addwf	0xe1, 0x1, 0       	ADDWF	FSR1L, F
002686   5010     movf	0x10, 0, 0          	MOVF	r0x10, W
002688   2609     addwf	0x9, 0x1, 0        	ADDWF	r0x09, F
00268a   5011     movf	0x11, 0, 0          	MOVF	r0x11, W
00268c   220a     addwfc	0xa, 0x1, 0       	ADDWFC	r0x0a, F
                                           ;	.line	217; /home/regis/Hobbies/Electronique/Projets/PinguinoIDE/X/branches/linux/tools/p8/bin/../share/sdcc/include/pic16/stdio.c	continue;
00268e   d038     bra	0x2700               	BRA	_00535_DS_
                                           _00526_DS_:
                                           ;	.line	219; /home/regis/Hobbies/Electronique/Projets/PinguinoIDE/X/branches/linux/tools/p8/bin/../share/sdcc/include/pic16/stdio.c	if (*format == 'f')
002690   500f     movf	0xf, 0, 0           	MOVF	r0x0f, W
002692   0a66     xorlw	0x66               	XORLW	0x66
002694   e135     bnz	0x2700               	BNZ	_00535_DS_
                                           ;	.line	221; /home/regis/Hobbies/Electronique/Projets/PinguinoIDE/X/branches/linux/tools/p8/bin/../share/sdcc/include/pic16/stdio.c	pc += pprints(out, "not yet implemented\0", width, pad);
002696   500c     movf	0xc, 0, 0           	MOVF	r0x0c, W
002698   6ee5     movwf	0xe5, 0            	MOVWF	POSTDEC1
00269a   500b     movf	0xb, 0, 0           	MOVF	r0x0b, W
00269c   6ee5     movwf	0xe5, 0            	MOVWF	POSTDEC1
00269e   500e     movf	0xe, 0, 0           	MOVF	r0x0e, W
0026a0   6ee5     movwf	0xe5, 0            	MOVWF	POSTDEC1
0026a2   500d     movf	0xd, 0, 0           	MOVF	r0x0d, W
0026a4   6ee5     movwf	0xe5, 0            	MOVWF	POSTDEC1
0026a6   0e00     movlw	0                  	MOVLW	UPPER(__str_1)
0026a8   6ee5     movwf	0xe5, 0            	MOVWF	POSTDEC1
0026aa   0e37     movlw	0x37               	MOVLW	HIGH(__str_1)
0026ac   6ee5     movwf	0xe5, 0            	MOVWF	POSTDEC1
0026ae   0ed2     movlw	0xd2               	MOVLW	LOW(__str_1)
0026b0   6ee5     movwf	0xe5, 0            	MOVWF	POSTDEC1
0026b2   5002     movf	0x2, 0, 0           	MOVF	r0x02, W
0026b4   6ee5     movwf	0xe5, 0            	MOVWF	POSTDEC1
0026b6   5001     movf	0x1, 0, 0           	MOVF	r0x01, W
0026b8   6ee5     movwf	0xe5, 0            	MOVWF	POSTDEC1
0026ba   5000     movf	0, 0, 0             	MOVF	r0x00, W
0026bc   6ee5     movwf	0xe5, 0            	MOVWF	POSTDEC1
0026be   ec32     call	0x2e64, 0           	CALL	_pprints
0026c0   f017
0026c2   6e0b     movwf	0xb, 0             	MOVWF	r0x0b
0026c4   cff3     movff	0xff3, 0xc         	MOVFF	PRODL, r0x0c
0026c6   f00c
0026c8   0e0a     movlw	0xa                	MOVLW	0x0a
0026ca   26e1     addwf	0xe1, 0x1, 0       	ADDWF	FSR1L, F
0026cc   500b     movf	0xb, 0, 0           	MOVF	r0x0b, W
0026ce   2609     addwf	0x9, 0x1, 0        	ADDWF	r0x09, F
0026d0   500c     movf	0xc, 0, 0           	MOVF	r0x0c, W
0026d2   220a     addwfc	0xa, 0x1, 0       	ADDWFC	r0x0a, F
                                           ;	.line	222; /home/regis/Hobbies/Electronique/Projets/PinguinoIDE/X/branches/linux/tools/p8/bin/../share/sdcc/include/pic16/stdio.c	continue;
0026d4   d015     bra	0x2700               	BRA	_00535_DS_
                                           _00529_DS_:
                                           ;	.line	228; /home/regis/Hobbies/Electronique/Projets/PinguinoIDE/X/branches/linux/tools/p8/bin/../share/sdcc/include/pic16/stdio.c	pprintchar(out, *format);
0026d6   c003     movff	0x3, 0xfe9         	MOVFF	r0x03, FSR0L
0026d8   ffe9
0026da   c004     movff	0x4, 0xff3         	MOVFF	r0x04, PRODL
0026dc   fff3
0026de   5005     movf	0x5, 0, 0           	MOVF	r0x05, W
0026e0   ec29     call	0x52, 0             	CALL	__gptrget1
0026e2   f000
                                           ; #	MOVWF	r0x0b
                                           ; #	MOVF	r0x0b, W
0026e4   6ee5     movwf	0xe5, 0            	MOVWF	POSTDEC1
0026e6   5002     movf	0x2, 0, 0           	MOVF	r0x02, W
0026e8   6ee5     movwf	0xe5, 0            	MOVWF	POSTDEC1
0026ea   5001     movf	0x1, 0, 0           	MOVF	r0x01, W
0026ec   6ee5     movwf	0xe5, 0            	MOVWF	POSTDEC1
0026ee   5000     movf	0, 0, 0             	MOVF	r0x00, W
0026f0   6ee5     movwf	0xe5, 0            	MOVWF	POSTDEC1
0026f2   ec5a     call	0x34b4, 0           	CALL	_pprintchar
0026f4   f01a
0026f6   0e04     movlw	0x4                	MOVLW	0x04
0026f8   26e1     addwf	0xe1, 0x1, 0       	ADDWF	FSR1L, F
                                           ;	.line	229; /home/regis/Hobbies/Electronique/Projets/PinguinoIDE/X/branches/linux/tools/p8/bin/../share/sdcc/include/pic16/stdio.c	++pc;
0026fa   2a09     incf	0x9, 0x1, 0         	INCF	r0x09, F
0026fc   b0d8     btfsc	0xd8, 0, 0         	BTFSC	STATUS, 0
0026fe   2a0a     incf	0xa, 0x1, 0         	INCF	r0x0a, F
                                           _00535_DS_:
                                           ;	.line	147; /home/regis/Hobbies/Electronique/Projets/PinguinoIDE/X/branches/linux/tools/p8/bin/../share/sdcc/include/pic16/stdio.c	for (; *format != 0; ++format)
002700   2a03     incf	0x3, 0x1, 0         	INCF	r0x03, F
002702   b0d8     btfsc	0xd8, 0, 0         	BTFSC	STATUS, 0
002704   2a04     incf	0x4, 0x1, 0         	INCF	r0x04, F
002706   b0d8     btfsc	0xd8, 0, 0         	BTFSC	STATUS, 0
002708   2a05     incf	0x5, 0x1, 0         	INCF	r0x05, F
00270a   ef80     goto	0x2100              	GOTO	_00533_DS_
00270c   f010
                                           _00536_DS_:
                                           ;	.line	232; /home/regis/Hobbies/Electronique/Projets/PinguinoIDE/X/branches/linux/tools/p8/bin/../share/sdcc/include/pic16/stdio.c	if (out) **out = '\0';
00270e   5000     movf	0, 0, 0             	MOVF	r0x00, W
002710   1001     iorwf	0x1, 0, 0          	IORWF	r0x01, W
002712   1002     iorwf	0x2, 0, 0          	IORWF	r0x02, W
002714   e014     bz	0x273e                	BZ	_00538_DS_
002716   c000     movff	0, 0xfe9           	MOVFF	r0x00, FSR0L
002718   ffe9
00271a   c001     movff	0x1, 0xff3         	MOVFF	r0x01, PRODL
00271c   fff3
00271e   5002     movf	0x2, 0, 0           	MOVF	r0x02, W
002720   ec2d     call	0x5a, 0             	CALL	__gptrget3
002722   f000
002724   6e00     movwf	0, 0               	MOVWF	r0x00
002726   cff3     movff	0xff3, 0x1         	MOVFF	PRODL, r0x01
002728   f001
00272a   cff4     movff	0xff4, 0x2         	MOVFF	PRODH, r0x02
00272c   f002
00272e   6ae5     clrf	0xe5, 0             	CLRF	POSTDEC1
002730   c000     movff	0, 0xfe9           	MOVFF	r0x00, FSR0L
002732   ffe9
002734   c001     movff	0x1, 0xff3         	MOVFF	r0x01, PRODL
002736   fff3
002738   5002     movf	0x2, 0, 0           	MOVF	r0x02, W
00273a   ec31     call	0x62, 0             	CALL	__gptrput1
00273c   f000
                                           _00538_DS_:
                                           ;	.line	234; /home/regis/Hobbies/Electronique/Projets/PinguinoIDE/X/branches/linux/tools/p8/bin/../share/sdcc/include/pic16/stdio.c	return pc;
00273e   c00a     movff	0xa, 0xff3         	MOVFF	r0x0a, PRODL
002740   fff3
002742   5009     movf	0x9, 0, 0           	MOVF	r0x09, W
002744   cfe4     movff	0xfe4, 0x13        	MOVFF	PREINC1, r0x13
002746   f013
002748   cfe4     movff	0xfe4, 0x12        	MOVFF	PREINC1, r0x12
00274a   f012
00274c   cfe4     movff	0xfe4, 0x11        	MOVFF	PREINC1, r0x11
00274e   f011
002750   cfe4     movff	0xfe4, 0x10        	MOVFF	PREINC1, r0x10
002752   f010
002754   cfe4     movff	0xfe4, 0xf         	MOVFF	PREINC1, r0x0f
002756   f00f
002758   cfe4     movff	0xfe4, 0xe         	MOVFF	PREINC1, r0x0e
00275a   f00e
00275c   cfe4     movff	0xfe4, 0xd         	MOVFF	PREINC1, r0x0d
00275e   f00d
002760   cfe4     movff	0xfe4, 0xc         	MOVFF	PREINC1, r0x0c
002762   f00c
002764   cfe4     movff	0xfe4, 0xb         	MOVFF	PREINC1, r0x0b
002766   f00b
002768   cfe4     movff	0xfe4, 0xa         	MOVFF	PREINC1, r0x0a
00276a   f00a
00276c   cfe4     movff	0xfe4, 0x9         	MOVFF	PREINC1, r0x09
00276e   f009
002770   cfe4     movff	0xfe4, 0x8         	MOVFF	PREINC1, r0x08
002772   f008
002774   cfe4     movff	0xfe4, 0x7         	MOVFF	PREINC1, r0x07
002776   f007
002778   cfe4     movff	0xfe4, 0x6         	MOVFF	PREINC1, r0x06
00277a   f006
00277c   cfe4     movff	0xfe4, 0x5         	MOVFF	PREINC1, r0x05
00277e   f005
002780   cfe4     movff	0xfe4, 0x4         	MOVFF	PREINC1, r0x04
002782   f004
002784   cfe4     movff	0xfe4, 0x3         	MOVFF	PREINC1, r0x03
002786   f003
002788   cfe4     movff	0xfe4, 0x2         	MOVFF	PREINC1, r0x02
00278a   f002
00278c   cfe4     movff	0xfe4, 0x1         	MOVFF	PREINC1, r0x01
00278e   f001
002790   cfe4     movff	0xfe4, 0           	MOVFF	PREINC1, r0x00
002792   f000
002794   cfe4     movff	0xfe4, 0xfd9       	MOVFF	PREINC1, FSR2L
002796   ffd9
002798   0012     return	0                 	RETURN	
                                           
                                           ; ; Starting pCode block
                                           S_main__pprinti	code
                                           _pprinti:
                                           ;	.line	92; /home/regis/Hobbies/Electronique/Projets/PinguinoIDE/X/branches/linux/tools/p8/bin/../share/sdcc/include/pic16/stdio.c	static int pprinti(char **out, int i, int b, int sg, int width, int pad, int letbase)
002b52   cfd9     movff	0xfd9, 0xfe5       	MOVFF	FSR2L, POSTDEC1
002b54   ffe5
002b56   cfe1     movff	0xfe1, 0xfd9       	MOVFF	FSR1L, FSR2L
002b58   ffd9
002b5a   c000     movff	0, 0xfe5           	MOVFF	r0x00, POSTDEC1
002b5c   ffe5
002b5e   c001     movff	0x1, 0xfe5         	MOVFF	r0x01, POSTDEC1
002b60   ffe5
002b62   c002     movff	0x2, 0xfe5         	MOVFF	r0x02, POSTDEC1
002b64   ffe5
002b66   c003     movff	0x3, 0xfe5         	MOVFF	r0x03, POSTDEC1
002b68   ffe5
002b6a   c004     movff	0x4, 0xfe5         	MOVFF	r0x04, POSTDEC1
002b6c   ffe5
002b6e   c005     movff	0x5, 0xfe5         	MOVFF	r0x05, POSTDEC1
002b70   ffe5
002b72   c006     movff	0x6, 0xfe5         	MOVFF	r0x06, POSTDEC1
002b74   ffe5
002b76   c007     movff	0x7, 0xfe5         	MOVFF	r0x07, POSTDEC1
002b78   ffe5
002b7a   c008     movff	0x8, 0xfe5         	MOVFF	r0x08, POSTDEC1
002b7c   ffe5
002b7e   c009     movff	0x9, 0xfe5         	MOVFF	r0x09, POSTDEC1
002b80   ffe5
002b82   c00a     movff	0xa, 0xfe5         	MOVFF	r0x0a, POSTDEC1
002b84   ffe5
002b86   c00b     movff	0xb, 0xfe5         	MOVFF	r0x0b, POSTDEC1
002b88   ffe5
002b8a   c00c     movff	0xc, 0xfe5         	MOVFF	r0x0c, POSTDEC1
002b8c   ffe5
002b8e   c00d     movff	0xd, 0xfe5         	MOVFF	r0x0d, POSTDEC1
002b90   ffe5
002b92   c00e     movff	0xe, 0xfe5         	MOVFF	r0x0e, POSTDEC1
002b94   ffe5
002b96   c00f     movff	0xf, 0xfe5         	MOVFF	r0x0f, POSTDEC1
002b98   ffe5
002b9a   c010     movff	0x10, 0xfe5        	MOVFF	r0x10, POSTDEC1
002b9c   ffe5
002b9e   c011     movff	0x11, 0xfe5        	MOVFF	r0x11, POSTDEC1
002ba0   ffe5
002ba2   c012     movff	0x12, 0xfe5        	MOVFF	r0x12, POSTDEC1
002ba4   ffe5
002ba6   c013     movff	0x13, 0xfe5        	MOVFF	r0x13, POSTDEC1
002ba8   ffe5
002baa   c014     movff	0x14, 0xfe5        	MOVFF	r0x14, POSTDEC1
002bac   ffe5
002bae   c015     movff	0x15, 0xfe5        	MOVFF	r0x15, POSTDEC1
002bb0   ffe5
002bb2   c016     movff	0x16, 0xfe5        	MOVFF	r0x16, POSTDEC1
002bb4   ffe5
002bb6   c017     movff	0x17, 0xfe5        	MOVFF	r0x17, POSTDEC1
002bb8   ffe5
002bba   c018     movff	0x18, 0xfe5        	MOVFF	r0x18, POSTDEC1
002bbc   ffe5
002bbe   c019     movff	0x19, 0xfe5        	MOVFF	r0x19, POSTDEC1
002bc0   ffe5
002bc2   c01a     movff	0x1a, 0xfe5        	MOVFF	r0x1a, POSTDEC1
002bc4   ffe5
002bc6   0e02     movlw	0x2                	MOVLW	0x02
002bc8   cfdb     movff	0xfdb, 0           	MOVFF	PLUSW2, r0x00
002bca   f000
002bcc   0e03     movlw	0x3                	MOVLW	0x03
002bce   cfdb     movff	0xfdb, 0x1         	MOVFF	PLUSW2, r0x01
002bd0   f001
002bd2   0e04     movlw	0x4                	MOVLW	0x04
002bd4   cfdb     movff	0xfdb, 0x2         	MOVFF	PLUSW2, r0x02
002bd6   f002
002bd8   0e05     movlw	0x5                	MOVLW	0x05
002bda   cfdb     movff	0xfdb, 0x3         	MOVFF	PLUSW2, r0x03
002bdc   f003
002bde   0e06     movlw	0x6                	MOVLW	0x06
002be0   cfdb     movff	0xfdb, 0x4         	MOVFF	PLUSW2, r0x04
002be2   f004
002be4   0e07     movlw	0x7                	MOVLW	0x07
002be6   cfdb     movff	0xfdb, 0x5         	MOVFF	PLUSW2, r0x05
002be8   f005
002bea   0e08     movlw	0x8                	MOVLW	0x08
002bec   cfdb     movff	0xfdb, 0x6         	MOVFF	PLUSW2, r0x06
002bee   f006
002bf0   0e09     movlw	0x9                	MOVLW	0x09
002bf2   cfdb     movff	0xfdb, 0x7         	MOVFF	PLUSW2, r0x07
002bf4   f007
002bf6   0e0a     movlw	0xa                	MOVLW	0x0a
002bf8   cfdb     movff	0xfdb, 0x8         	MOVFF	PLUSW2, r0x08
002bfa   f008
002bfc   0e0b     movlw	0xb                	MOVLW	0x0b
002bfe   cfdb     movff	0xfdb, 0x9         	MOVFF	PLUSW2, r0x09
002c00   f009
002c02   0e0c     movlw	0xc                	MOVLW	0x0c
002c04   cfdb     movff	0xfdb, 0xa         	MOVFF	PLUSW2, r0x0a
002c06   f00a
002c08   0e0d     movlw	0xd                	MOVLW	0x0d
002c0a   cfdb     movff	0xfdb, 0xb         	MOVFF	PLUSW2, r0x0b
002c0c   f00b
002c0e   0e0e     movlw	0xe                	MOVLW	0x0e
002c10   cfdb     movff	0xfdb, 0xc         	MOVFF	PLUSW2, r0x0c
002c12   f00c
002c14   0e0f     movlw	0xf                	MOVLW	0x0f
002c16   cfdb     movff	0xfdb, 0xd         	MOVFF	PLUSW2, r0x0d
002c18   f00d
002c1a   0e10     movlw	0x10               	MOVLW	0x10
002c1c   cfdb     movff	0xfdb, 0xe         	MOVFF	PLUSW2, r0x0e
002c1e   f00e
                                           ;	.line	96; /home/regis/Hobbies/Electronique/Projets/PinguinoIDE/X/branches/linux/tools/p8/bin/../share/sdcc/include/pic16/stdio.c	int t, neg = 0, pc = 0;
002c20   6a0f     clrf	0xf, 0              	CLRF	r0x0f
002c22   6a10     clrf	0x10, 0             	CLRF	r0x10
002c24   6a11     clrf	0x11, 0             	CLRF	r0x11
002c26   6a12     clrf	0x12, 0             	CLRF	r0x12
                                           ;	.line	97; /home/regis/Hobbies/Electronique/Projets/PinguinoIDE/X/branches/linux/tools/p8/bin/../share/sdcc/include/pic16/stdio.c	unsigned int u = i;
002c28   c003     movff	0x3, 0x13          	MOVFF	r0x03, r0x13
002c2a   f013
002c2c   c004     movff	0x4, 0x14          	MOVFF	r0x04, r0x14
002c2e   f014
                                           ;	.line	99; /home/regis/Hobbies/Electronique/Projets/PinguinoIDE/X/branches/linux/tools/p8/bin/../share/sdcc/include/pic16/stdio.c	if (i == 0)
002c30   5003     movf	0x3, 0, 0           	MOVF	r0x03, W
002c32   1004     iorwf	0x4, 0, 0          	IORWF	r0x04, W
002c34   e123     bnz	0x2c7c               	BNZ	_00464_DS_
                                           ;	.line	101; /home/regis/Hobbies/Electronique/Projets/PinguinoIDE/X/branches/linux/tools/p8/bin/../share/sdcc/include/pic16/stdio.c	print_buf[0] = '0';
002c36   0e30     movlw	0x30               	MOVLW	0x30
002c38   0102     movlb	0x2                	BANKSEL	_pprinti_print_buf_1_1
002c3a   6f50     movwf	0x50, 0x1          	MOVWF	_pprinti_print_buf_1_1, B
                                           ; removed redundant BANKSEL
                                           ;	.line	102; /home/regis/Hobbies/Electronique/Projets/PinguinoIDE/X/branches/linux/tools/p8/bin/../share/sdcc/include/pic16/stdio.c	print_buf[1] = '\0';
002c3c   6b51     clrf	0x51, 0x1           	CLRF	(_pprinti_print_buf_1_1 + 1), B
                                           ;	.line	103; /home/regis/Hobbies/Electronique/Projets/PinguinoIDE/X/branches/linux/tools/p8/bin/../share/sdcc/include/pic16/stdio.c	return pprints(out, print_buf, width, pad);
002c3e   500c     movf	0xc, 0, 0           	MOVF	r0x0c, W
002c40   6ee5     movwf	0xe5, 0            	MOVWF	POSTDEC1
002c42   500b     movf	0xb, 0, 0           	MOVF	r0x0b, W
002c44   6ee5     movwf	0xe5, 0            	MOVWF	POSTDEC1
002c46   500a     movf	0xa, 0, 0           	MOVF	r0x0a, W
002c48   6ee5     movwf	0xe5, 0            	MOVWF	POSTDEC1
002c4a   5009     movf	0x9, 0, 0           	MOVF	r0x09, W
002c4c   6ee5     movwf	0xe5, 0            	MOVWF	POSTDEC1
002c4e   0e80     movlw	0x80               	MOVLW	0x80
002c50   6ee5     movwf	0xe5, 0            	MOVWF	POSTDEC1
002c52   0e02     movlw	0x2                	MOVLW	HIGH(_pprinti_print_buf_1_1)
002c54   6ee5     movwf	0xe5, 0            	MOVWF	POSTDEC1
002c56   0e50     movlw	0x50               	MOVLW	LOW(_pprinti_print_buf_1_1)
002c58   6ee5     movwf	0xe5, 0            	MOVWF	POSTDEC1
002c5a   5002     movf	0x2, 0, 0           	MOVF	r0x02, W
002c5c   6ee5     movwf	0xe5, 0            	MOVWF	POSTDEC1
002c5e   5001     movf	0x1, 0, 0           	MOVF	r0x01, W
002c60   6ee5     movwf	0xe5, 0            	MOVWF	POSTDEC1
002c62   5000     movf	0, 0, 0             	MOVF	r0x00, W
002c64   6ee5     movwf	0xe5, 0            	MOVWF	POSTDEC1
002c66   ec32     call	0x2e64, 0           	CALL	_pprints
002c68   f017
002c6a   6e15     movwf	0x15, 0            	MOVWF	r0x15
002c6c   cff3     movff	0xff3, 0x16        	MOVFF	PRODL, r0x16
002c6e   f016
002c70   0e0a     movlw	0xa                	MOVLW	0x0a
002c72   26e1     addwf	0xe1, 0x1, 0       	ADDWF	FSR1L, F
002c74   c016     movff	0x16, 0xff3        	MOVFF	r0x16, PRODL
002c76   fff3
002c78   5015     movf	0x15, 0, 0          	MOVF	r0x15, W
002c7a   d0bb     bra	0x2df2               	BRA	_00480_DS_
                                           _00464_DS_:
                                           ;	.line	106; /home/regis/Hobbies/Electronique/Projets/PinguinoIDE/X/branches/linux/tools/p8/bin/../share/sdcc/include/pic16/stdio.c	if (sg && b == 10 && i < 0)
002c7c   5007     movf	0x7, 0, 0           	MOVF	r0x07, W
002c7e   1008     iorwf	0x8, 0, 0          	IORWF	r0x08, W
002c80   e013     bz	0x2ca8                	BZ	_00466_DS_
002c82   5005     movf	0x5, 0, 0           	MOVF	r0x05, W
002c84   0a0a     xorlw	0xa                	XORLW	0x0a
002c86   e102     bnz	0x2c8c               	BNZ	_00493_DS_
002c88   5006     movf	0x6, 0, 0           	MOVF	r0x06, W
002c8a   e001     bz	0x2c8e                	BZ	_00494_DS_
                                           _00493_DS_:
002c8c   d00d     bra	0x2ca8               	BRA	_00466_DS_
                                           _00494_DS_:
002c8e   80d8     bsf	0xd8, 0, 0           	BSF	STATUS, 0
002c90   ae04     btfss	0x4, 0x7, 0        	BTFSS	r0x04, 7
002c92   90d8     bcf	0xd8, 0, 0           	BCF	STATUS, 0
002c94   e309     bnc	0x2ca8               	BNC	_00466_DS_
                                           ;	.line	108; /home/regis/Hobbies/Electronique/Projets/PinguinoIDE/X/branches/linux/tools/p8/bin/../share/sdcc/include/pic16/stdio.c	neg = 1;
002c96   0e01     movlw	0x1                	MOVLW	0x01
002c98   6e0f     movwf	0xf, 0             	MOVWF	r0x0f
002c9a   6a10     clrf	0x10, 0             	CLRF	r0x10
                                           ;	.line	109; /home/regis/Hobbies/Electronique/Projets/PinguinoIDE/X/branches/linux/tools/p8/bin/../share/sdcc/include/pic16/stdio.c	u = -i;
002c9c   1c04     comf	0x4, 0, 0           	COMF	r0x04, W
002c9e   6e14     movwf	0x14, 0            	MOVWF	r0x14
002ca0   1c03     comf	0x3, 0, 0           	COMF	r0x03, W
002ca2   6e13     movwf	0x13, 0            	MOVWF	r0x13
002ca4   4a13     infsnz	0x13, 0x1, 0      	INFSNZ	r0x13, F
002ca6   2a14     incf	0x14, 0x1, 0        	INCF	r0x14, F
                                           _00466_DS_:
                                           ;	.line	112; /home/regis/Hobbies/Electronique/Projets/PinguinoIDE/X/branches/linux/tools/p8/bin/../share/sdcc/include/pic16/stdio.c	s = print_buf + PRINT_BUF_LEN-1;
002ca8   0e02     movlw	0x2                	MOVLW	HIGH(_pprinti_print_buf_1_1 + 11)
002caa   6e04     movwf	0x4, 0             	MOVWF	r0x04
002cac   0e5b     movlw	0x5b               	MOVLW	LOW(_pprinti_print_buf_1_1 + 11)
002cae   6e03     movwf	0x3, 0             	MOVWF	r0x03
002cb0   0e80     movlw	0x80               	MOVLW	0x80
002cb2   6e07     movwf	0x7, 0             	MOVWF	r0x07
                                           ;	.line	113; /home/regis/Hobbies/Electronique/Projets/PinguinoIDE/X/branches/linux/tools/p8/bin/../share/sdcc/include/pic16/stdio.c	*s = '\0';
002cb4   6ae5     clrf	0xe5, 0             	CLRF	POSTDEC1
002cb6   c003     movff	0x3, 0xfe9         	MOVFF	r0x03, FSR0L
002cb8   ffe9
002cba   c004     movff	0x4, 0xff3         	MOVFF	r0x04, PRODL
002cbc   fff3
002cbe   ec31     call	0x62, 0             	CALL	__gptrput1
002cc0   f000
                                           ;	.line	115; /home/regis/Hobbies/Electronique/Projets/PinguinoIDE/X/branches/linux/tools/p8/bin/../share/sdcc/include/pic16/stdio.c	while (u)
002cc2   500d     movf	0xd, 0, 0           	MOVF	r0x0d, W
002cc4   0fc6     addlw	0xc6               	ADDLW	0xc6
002cc6   6e0d     movwf	0xd, 0             	MOVWF	r0x0d
002cc8   c005     movff	0x5, 0xe           	MOVFF	r0x05, r0x0e
002cca   f00e
002ccc   c006     movff	0x6, 0x15          	MOVFF	r0x06, r0x15
002cce   f015
002cd0   c003     movff	0x3, 0x16          	MOVFF	r0x03, r0x16
002cd2   f016
002cd4   c004     movff	0x4, 0x17          	MOVFF	r0x04, r0x17
002cd6   f017
002cd8   c007     movff	0x7, 0x18          	MOVFF	r0x07, r0x18
002cda   f018
                                           _00471_DS_:
002cdc   5013     movf	0x13, 0, 0          	MOVF	r0x13, W
002cde   1014     iorwf	0x14, 0, 0         	IORWF	r0x14, W
002ce0   e037     bz	0x2d50                	BZ	_00492_DS_
                                           ;	.line	117; /home/regis/Hobbies/Electronique/Projets/PinguinoIDE/X/branches/linux/tools/p8/bin/../share/sdcc/include/pic16/stdio.c	t = u % b;
002ce2   5015     movf	0x15, 0, 0          	MOVF	r0x15, W
002ce4   6ee5     movwf	0xe5, 0            	MOVWF	POSTDEC1
002ce6   500e     movf	0xe, 0, 0           	MOVF	r0x0e, W
002ce8   6ee5     movwf	0xe5, 0            	MOVWF	POSTDEC1
002cea   5014     movf	0x14, 0, 0          	MOVF	r0x14, W
002cec   6ee5     movwf	0xe5, 0            	MOVWF	POSTDEC1
002cee   5013     movf	0x13, 0, 0          	MOVF	r0x13, W
002cf0   6ee5     movwf	0xe5, 0            	MOVWF	POSTDEC1
002cf2   ecf4     call	0x37e8, 0           	CALL	__moduint
002cf4   f01b
002cf6   6e19     movwf	0x19, 0            	MOVWF	r0x19
002cf8   cff3     movff	0xff3, 0x1a        	MOVFF	PRODL, r0x1a
002cfa   f01a
002cfc   0e04     movlw	0x4                	MOVLW	0x04
002cfe   26e1     addwf	0xe1, 0x1, 0       	ADDWF	FSR1L, F
                                           ;	.line	118; /home/regis/Hobbies/Electronique/Projets/PinguinoIDE/X/branches/linux/tools/p8/bin/../share/sdcc/include/pic16/stdio.c	if( t >= 10 )
002d00   501a     movf	0x1a, 0, 0          	MOVF	r0x1a, W
002d02   0f80     addlw	0x80               	ADDLW	0x80
002d04   0f80     addlw	0x80               	ADDLW	0x80
002d06   e102     bnz	0x2d0c               	BNZ	_00496_DS_
002d08   0e0a     movlw	0xa                	MOVLW	0x0a
002d0a   5c19     subwf	0x19, 0, 0         	SUBWF	r0x19, W
                                           _00496_DS_:
002d0c   e302     bnc	0x2d12               	BNC	_00470_DS_
                                           ;	.line	119; /home/regis/Hobbies/Electronique/Projets/PinguinoIDE/X/branches/linux/tools/p8/bin/../share/sdcc/include/pic16/stdio.c	t += letbase - '0' - 10;
002d0e   500d     movf	0xd, 0, 0           	MOVF	r0x0d, W
002d10   2619     addwf	0x19, 0x1, 0       	ADDWF	r0x19, F
                                           _00470_DS_:
                                           ;	.line	120; /home/regis/Hobbies/Electronique/Projets/PinguinoIDE/X/branches/linux/tools/p8/bin/../share/sdcc/include/pic16/stdio.c	*--s = t + '0';
002d12   0eff     movlw	0xff               	MOVLW	0xff
002d14   2616     addwf	0x16, 0x1, 0       	ADDWF	r0x16, F
002d16   2217     addwfc	0x17, 0x1, 0      	ADDWFC	r0x17, F
002d18   2218     addwfc	0x18, 0x1, 0      	ADDWFC	r0x18, F
002d1a   0e30     movlw	0x30               	MOVLW	0x30
002d1c   2619     addwf	0x19, 0x1, 0       	ADDWF	r0x19, F
002d1e   c019     movff	0x19, 0xfe5        	MOVFF	r0x19, POSTDEC1
002d20   ffe5
002d22   c016     movff	0x16, 0xfe9        	MOVFF	r0x16, FSR0L
002d24   ffe9
002d26   c017     movff	0x17, 0xff3        	MOVFF	r0x17, PRODL
002d28   fff3
002d2a   5018     movf	0x18, 0, 0          	MOVF	r0x18, W
002d2c   ec31     call	0x62, 0             	CALL	__gptrput1
002d2e   f000
                                           ;	.line	121; /home/regis/Hobbies/Electronique/Projets/PinguinoIDE/X/branches/linux/tools/p8/bin/../share/sdcc/include/pic16/stdio.c	u /= b;
002d30   5006     movf	0x6, 0, 0           	MOVF	r0x06, W
002d32   6ee5     movwf	0xe5, 0            	MOVWF	POSTDEC1
002d34   5005     movf	0x5, 0, 0           	MOVF	r0x05, W
002d36   6ee5     movwf	0xe5, 0            	MOVWF	POSTDEC1
002d38   5014     movf	0x14, 0, 0          	MOVF	r0x14, W
002d3a   6ee5     movwf	0xe5, 0            	MOVWF	POSTDEC1
002d3c   5013     movf	0x13, 0, 0          	MOVF	r0x13, W
002d3e   6ee5     movwf	0xe5, 0            	MOVWF	POSTDEC1
002d40   ec01     call	0x3a02, 0           	CALL	__divuint
002d42   f01d
002d44   6e13     movwf	0x13, 0            	MOVWF	r0x13
002d46   cff3     movff	0xff3, 0x14        	MOVFF	PRODL, r0x14
002d48   f014
002d4a   0e04     movlw	0x4                	MOVLW	0x04
002d4c   26e1     addwf	0xe1, 0x1, 0       	ADDWF	FSR1L, F
002d4e   d7c6     bra	0x2cdc               	BRA	_00471_DS_
                                           _00492_DS_:
002d50   c016     movff	0x16, 0x3          	MOVFF	r0x16, r0x03
002d52   f003
002d54   c017     movff	0x17, 0x4          	MOVFF	r0x17, r0x04
002d56   f004
002d58   c018     movff	0x18, 0x7          	MOVFF	r0x18, r0x07
002d5a   f007
                                           ;	.line	124; /home/regis/Hobbies/Electronique/Projets/PinguinoIDE/X/branches/linux/tools/p8/bin/../share/sdcc/include/pic16/stdio.c	if (neg)
002d5c   500f     movf	0xf, 0, 0           	MOVF	r0x0f, W
002d5e   1010     iorwf	0x10, 0, 0         	IORWF	r0x10, W
002d60   e026     bz	0x2dae                	BZ	_00479_DS_
                                           ;	.line	126; /home/regis/Hobbies/Electronique/Projets/PinguinoIDE/X/branches/linux/tools/p8/bin/../share/sdcc/include/pic16/stdio.c	if (width && (pad & PAD_ZERO))
002d62   5009     movf	0x9, 0, 0           	MOVF	r0x09, W
002d64   100a     iorwf	0xa, 0, 0          	IORWF	r0x0a, W
002d66   e016     bz	0x2d94                	BZ	_00475_DS_
002d68   a20b     btfss	0xb, 0x1, 0        	BTFSS	r0x0b, 1
002d6a   d014     bra	0x2d94               	BRA	_00475_DS_
                                           ;	.line	128; /home/regis/Hobbies/Electronique/Projets/PinguinoIDE/X/branches/linux/tools/p8/bin/../share/sdcc/include/pic16/stdio.c	pprintchar(out, '-');
002d6c   0e2d     movlw	0x2d               	MOVLW	0x2d
002d6e   6ee5     movwf	0xe5, 0            	MOVWF	POSTDEC1
002d70   5002     movf	0x2, 0, 0           	MOVF	r0x02, W
002d72   6ee5     movwf	0xe5, 0            	MOVWF	POSTDEC1
002d74   5001     movf	0x1, 0, 0           	MOVF	r0x01, W
002d76   6ee5     movwf	0xe5, 0            	MOVWF	POSTDEC1
002d78   5000     movf	0, 0, 0             	MOVF	r0x00, W
002d7a   6ee5     movwf	0xe5, 0            	MOVWF	POSTDEC1
002d7c   ec5a     call	0x34b4, 0           	CALL	_pprintchar
002d7e   f01a
002d80   0e04     movlw	0x4                	MOVLW	0x04
002d82   26e1     addwf	0xe1, 0x1, 0       	ADDWF	FSR1L, F
                                           ;	.line	129; /home/regis/Hobbies/Electronique/Projets/PinguinoIDE/X/branches/linux/tools/p8/bin/../share/sdcc/include/pic16/stdio.c	++pc;
002d84   0e01     movlw	0x1                	MOVLW	0x01
002d86   6e11     movwf	0x11, 0            	MOVWF	r0x11
002d88   6a12     clrf	0x12, 0             	CLRF	r0x12
                                           ;	.line	130; /home/regis/Hobbies/Electronique/Projets/PinguinoIDE/X/branches/linux/tools/p8/bin/../share/sdcc/include/pic16/stdio.c	--width;
002d8a   0eff     movlw	0xff               	MOVLW	0xff
002d8c   2609     addwf	0x9, 0x1, 0        	ADDWF	r0x09, F
002d8e   a0d8     btfss	0xd8, 0, 0         	BTFSS	STATUS, 0
002d90   060a     decf	0xa, 0x1, 0         	DECF	r0x0a, F
002d92   d00d     bra	0x2dae               	BRA	_00479_DS_
                                           _00475_DS_:
                                           ;	.line	134; /home/regis/Hobbies/Electronique/Projets/PinguinoIDE/X/branches/linux/tools/p8/bin/../share/sdcc/include/pic16/stdio.c	*--s = '-';
002d94   0eff     movlw	0xff               	MOVLW	0xff
002d96   2603     addwf	0x3, 0x1, 0        	ADDWF	r0x03, F
002d98   2204     addwfc	0x4, 0x1, 0       	ADDWFC	r0x04, F
002d9a   2207     addwfc	0x7, 0x1, 0       	ADDWFC	r0x07, F
002d9c   0e2d     movlw	0x2d               	MOVLW	0x2d
002d9e   6ee5     movwf	0xe5, 0            	MOVWF	POSTDEC1
002da0   c003     movff	0x3, 0xfe9         	MOVFF	r0x03, FSR0L
002da2   ffe9
002da4   c004     movff	0x4, 0xff3         	MOVFF	r0x04, PRODL
002da6   fff3
002da8   5007     movf	0x7, 0, 0           	MOVF	r0x07, W
002daa   ec31     call	0x62, 0             	CALL	__gptrput1
002dac   f000
                                           _00479_DS_:
                                           ;	.line	138; /home/regis/Hobbies/Electronique/Projets/PinguinoIDE/X/branches/linux/tools/p8/bin/../share/sdcc/include/pic16/stdio.c	return pc + pprints(out, s, width, pad);
002dae   500c     movf	0xc, 0, 0           	MOVF	r0x0c, W
002db0   6ee5     movwf	0xe5, 0            	MOVWF	POSTDEC1
002db2   500b     movf	0xb, 0, 0           	MOVF	r0x0b, W
002db4   6ee5     movwf	0xe5, 0            	MOVWF	POSTDEC1
002db6   500a     movf	0xa, 0, 0           	MOVF	r0x0a, W
002db8   6ee5     movwf	0xe5, 0            	MOVWF	POSTDEC1
002dba   5009     movf	0x9, 0, 0           	MOVF	r0x09, W
002dbc   6ee5     movwf	0xe5, 0            	MOVWF	POSTDEC1
002dbe   5007     movf	0x7, 0, 0           	MOVF	r0x07, W
002dc0   6ee5     movwf	0xe5, 0            	MOVWF	POSTDEC1
002dc2   5004     movf	0x4, 0, 0           	MOVF	r0x04, W
002dc4   6ee5     movwf	0xe5, 0            	MOVWF	POSTDEC1
002dc6   5003     movf	0x3, 0, 0           	MOVF	r0x03, W
002dc8   6ee5     movwf	0xe5, 0            	MOVWF	POSTDEC1
002dca   5002     movf	0x2, 0, 0           	MOVF	r0x02, W
002dcc   6ee5     movwf	0xe5, 0            	MOVWF	POSTDEC1
002dce   5001     movf	0x1, 0, 0           	MOVF	r0x01, W
002dd0   6ee5     movwf	0xe5, 0            	MOVWF	POSTDEC1
002dd2   5000     movf	0, 0, 0             	MOVF	r0x00, W
002dd4   6ee5     movwf	0xe5, 0            	MOVWF	POSTDEC1
002dd6   ec32     call	0x2e64, 0           	CALL	_pprints
002dd8   f017
002dda   6e00     movwf	0, 0               	MOVWF	r0x00
002ddc   cff3     movff	0xff3, 0x1         	MOVFF	PRODL, r0x01
002dde   f001
002de0   0e0a     movlw	0xa                	MOVLW	0x0a
002de2   26e1     addwf	0xe1, 0x1, 0       	ADDWF	FSR1L, F
002de4   5000     movf	0, 0, 0             	MOVF	r0x00, W
002de6   2611     addwf	0x11, 0x1, 0       	ADDWF	r0x11, F
002de8   5001     movf	0x1, 0, 0           	MOVF	r0x01, W
002dea   2212     addwfc	0x12, 0x1, 0      	ADDWFC	r0x12, F
002dec   c012     movff	0x12, 0xff3        	MOVFF	r0x12, PRODL
002dee   fff3
002df0   5011     movf	0x11, 0, 0          	MOVF	r0x11, W
                                           _00480_DS_:
002df2   cfe4     movff	0xfe4, 0x1a        	MOVFF	PREINC1, r0x1a
002df4   f01a
002df6   cfe4     movff	0xfe4, 0x19        	MOVFF	PREINC1, r0x19
002df8   f019
002dfa   cfe4     movff	0xfe4, 0x18        	MOVFF	PREINC1, r0x18
002dfc   f018
002dfe   cfe4     movff	0xfe4, 0x17        	MOVFF	PREINC1, r0x17
002e00   f017
002e02   cfe4     movff	0xfe4, 0x16        	MOVFF	PREINC1, r0x16
002e04   f016
002e06   cfe4     movff	0xfe4, 0x15        	MOVFF	PREINC1, r0x15
002e08   f015
002e0a   cfe4     movff	0xfe4, 0x14        	MOVFF	PREINC1, r0x14
002e0c   f014
002e0e   cfe4     movff	0xfe4, 0x13        	MOVFF	PREINC1, r0x13
002e10   f013
002e12   cfe4     movff	0xfe4, 0x12        	MOVFF	PREINC1, r0x12
002e14   f012
002e16   cfe4     movff	0xfe4, 0x11        	MOVFF	PREINC1, r0x11
002e18   f011
002e1a   cfe4     movff	0xfe4, 0x10        	MOVFF	PREINC1, r0x10
002e1c   f010
002e1e   cfe4     movff	0xfe4, 0xf         	MOVFF	PREINC1, r0x0f
002e20   f00f
002e22   cfe4     movff	0xfe4, 0xe         	MOVFF	PREINC1, r0x0e
002e24   f00e
002e26   cfe4     movff	0xfe4, 0xd         	MOVFF	PREINC1, r0x0d
002e28   f00d
002e2a   cfe4     movff	0xfe4, 0xc         	MOVFF	PREINC1, r0x0c
002e2c   f00c
002e2e   cfe4     movff	0xfe4, 0xb         	MOVFF	PREINC1, r0x0b
002e30   f00b
002e32   cfe4     movff	0xfe4, 0xa         	MOVFF	PREINC1, r0x0a
002e34   f00a
002e36   cfe4     movff	0xfe4, 0x9         	MOVFF	PREINC1, r0x09
002e38   f009
002e3a   cfe4     movff	0xfe4, 0x8         	MOVFF	PREINC1, r0x08
002e3c   f008
002e3e   cfe4     movff	0xfe4, 0x7         	MOVFF	PREINC1, r0x07
002e40   f007
002e42   cfe4     movff	0xfe4, 0x6         	MOVFF	PREINC1, r0x06
002e44   f006
002e46   cfe4     movff	0xfe4, 0x5         	MOVFF	PREINC1, r0x05
002e48   f005
002e4a   cfe4     movff	0xfe4, 0x4         	MOVFF	PREINC1, r0x04
002e4c   f004
002e4e   cfe4     movff	0xfe4, 0x3         	MOVFF	PREINC1, r0x03
002e50   f003
002e52   cfe4     movff	0xfe4, 0x2         	MOVFF	PREINC1, r0x02
002e54   f002
002e56   cfe4     movff	0xfe4, 0x1         	MOVFF	PREINC1, r0x01
002e58   f001
002e5a   cfe4     movff	0xfe4, 0           	MOVFF	PREINC1, r0x00
002e5c   f000
002e5e   cfe4     movff	0xfe4, 0xfd9       	MOVFF	PREINC1, FSR2L
002e60   ffd9
002e62   0012     return	0                 	RETURN	
                                           
                                           ; ; Starting pCode block
                                           S_main__pprints	code
                                           _pprints:
                                           ;	.line	50; /home/regis/Hobbies/Electronique/Projets/PinguinoIDE/X/branches/linux/tools/p8/bin/../share/sdcc/include/pic16/stdio.c	static int pprints(char **out, const char *string, int width, int pad)
002e64   cfd9     movff	0xfd9, 0xfe5       	MOVFF	FSR2L, POSTDEC1
002e66   ffe5
002e68   cfe1     movff	0xfe1, 0xfd9       	MOVFF	FSR1L, FSR2L
002e6a   ffd9
002e6c   c000     movff	0, 0xfe5           	MOVFF	r0x00, POSTDEC1
002e6e   ffe5
002e70   c001     movff	0x1, 0xfe5         	MOVFF	r0x01, POSTDEC1
002e72   ffe5
002e74   c002     movff	0x2, 0xfe5         	MOVFF	r0x02, POSTDEC1
002e76   ffe5
002e78   c003     movff	0x3, 0xfe5         	MOVFF	r0x03, POSTDEC1
002e7a   ffe5
002e7c   c004     movff	0x4, 0xfe5         	MOVFF	r0x04, POSTDEC1
002e7e   ffe5
002e80   c005     movff	0x5, 0xfe5         	MOVFF	r0x05, POSTDEC1
002e82   ffe5
002e84   c006     movff	0x6, 0xfe5         	MOVFF	r0x06, POSTDEC1
002e86   ffe5
002e88   c007     movff	0x7, 0xfe5         	MOVFF	r0x07, POSTDEC1
002e8a   ffe5
002e8c   c008     movff	0x8, 0xfe5         	MOVFF	r0x08, POSTDEC1
002e8e   ffe5
002e90   c009     movff	0x9, 0xfe5         	MOVFF	r0x09, POSTDEC1
002e92   ffe5
002e94   c00a     movff	0xa, 0xfe5         	MOVFF	r0x0a, POSTDEC1
002e96   ffe5
002e98   c00b     movff	0xb, 0xfe5         	MOVFF	r0x0b, POSTDEC1
002e9a   ffe5
002e9c   c00c     movff	0xc, 0xfe5         	MOVFF	r0x0c, POSTDEC1
002e9e   ffe5
002ea0   c00e     movff	0xe, 0xfe5         	MOVFF	r0x0e, POSTDEC1
002ea2   ffe5
002ea4   c00f     movff	0xf, 0xfe5         	MOVFF	r0x0f, POSTDEC1
002ea6   ffe5
002ea8   c010     movff	0x10, 0xfe5        	MOVFF	r0x10, POSTDEC1
002eaa   ffe5
002eac   c011     movff	0x11, 0xfe5        	MOVFF	r0x11, POSTDEC1
002eae   ffe5
002eb0   c012     movff	0x12, 0xfe5        	MOVFF	r0x12, POSTDEC1
002eb2   ffe5
002eb4   c013     movff	0x13, 0xfe5        	MOVFF	r0x13, POSTDEC1
002eb6   ffe5
002eb8   0e02     movlw	0x2                	MOVLW	0x02
002eba   cfdb     movff	0xfdb, 0           	MOVFF	PLUSW2, r0x00
002ebc   f000
002ebe   0e03     movlw	0x3                	MOVLW	0x03
002ec0   cfdb     movff	0xfdb, 0x1         	MOVFF	PLUSW2, r0x01
002ec2   f001
002ec4   0e04     movlw	0x4                	MOVLW	0x04
002ec6   cfdb     movff	0xfdb, 0x2         	MOVFF	PLUSW2, r0x02
002ec8   f002
002eca   0e05     movlw	0x5                	MOVLW	0x05
002ecc   cfdb     movff	0xfdb, 0x3         	MOVFF	PLUSW2, r0x03
002ece   f003
002ed0   0e06     movlw	0x6                	MOVLW	0x06
002ed2   cfdb     movff	0xfdb, 0x4         	MOVFF	PLUSW2, r0x04
002ed4   f004
002ed6   0e07     movlw	0x7                	MOVLW	0x07
002ed8   cfdb     movff	0xfdb, 0x5         	MOVFF	PLUSW2, r0x05
002eda   f005
002edc   0e08     movlw	0x8                	MOVLW	0x08
002ede   cfdb     movff	0xfdb, 0x6         	MOVFF	PLUSW2, r0x06
002ee0   f006
002ee2   0e09     movlw	0x9                	MOVLW	0x09
002ee4   cfdb     movff	0xfdb, 0x7         	MOVFF	PLUSW2, r0x07
002ee6   f007
002ee8   0e0a     movlw	0xa                	MOVLW	0x0a
002eea   cfdb     movff	0xfdb, 0x8         	MOVFF	PLUSW2, r0x08
002eec   f008
002eee   0e0b     movlw	0xb                	MOVLW	0x0b
002ef0   cfdb     movff	0xfdb, 0x9         	MOVFF	PLUSW2, r0x09
002ef2   f009
                                           ;	.line	52; /home/regis/Hobbies/Electronique/Projets/PinguinoIDE/X/branches/linux/tools/p8/bin/../share/sdcc/include/pic16/stdio.c	register int pc = 0;
002ef4   6a0a     clrf	0xa, 0              	CLRF	r0x0a
002ef6   6a0b     clrf	0xb, 0              	CLRF	r0x0b
                                           ;	.line	53; /home/regis/Hobbies/Electronique/Projets/PinguinoIDE/X/branches/linux/tools/p8/bin/../share/sdcc/include/pic16/stdio.c	int padchar = ' ';
002ef8   0e20     movlw	0x20               	MOVLW	0x20
002efa   6e0c     movwf	0xc, 0             	MOVWF	r0x0c
                                           ;	.line	57; /home/regis/Hobbies/Electronique/Projets/PinguinoIDE/X/branches/linux/tools/p8/bin/../share/sdcc/include/pic16/stdio.c	if (width > 0)
002efc   5007     movf	0x7, 0, 0           	MOVF	r0x07, W
002efe   0f80     addlw	0x80               	ADDLW	0x80
002f00   0f80     addlw	0x80               	ADDLW	0x80
002f02   e102     bnz	0x2f08               	BNZ	_00453_DS_
002f04   0e01     movlw	0x1                	MOVLW	0x01
002f06   5c06     subwf	0x6, 0, 0          	SUBWF	r0x06, W
                                           _00453_DS_:
002f08   e330     bnc	0x2f6a               	BNC	_00417_DS_
                                           ;	.line	59; /home/regis/Hobbies/Electronique/Projets/PinguinoIDE/X/branches/linux/tools/p8/bin/../share/sdcc/include/pic16/stdio.c	for (ptr = string; *ptr; ++ptr)
002f0a   6a0e     clrf	0xe, 0              	CLRF	r0x0e
002f0c   6a0f     clrf	0xf, 0              	CLRF	r0x0f
002f0e   c003     movff	0x3, 0x10          	MOVFF	r0x03, r0x10
002f10   f010
002f12   c004     movff	0x4, 0x11          	MOVFF	r0x04, r0x11
002f14   f011
002f16   c005     movff	0x5, 0x12          	MOVFF	r0x05, r0x12
002f18   f012
                                           _00420_DS_:
002f1a   c010     movff	0x10, 0xfe9        	MOVFF	r0x10, FSR0L
002f1c   ffe9
002f1e   c011     movff	0x11, 0xff3        	MOVFF	r0x11, PRODL
002f20   fff3
002f22   5012     movf	0x12, 0, 0          	MOVF	r0x12, W
002f24   ec29     call	0x52, 0             	CALL	__gptrget1
002f26   f000
002f28   6e13     movwf	0x13, 0            	MOVWF	r0x13
002f2a   5013     movf	0x13, 0, 0          	MOVF	r0x13, W
002f2c   e009     bz	0x2f40                	BZ	_00423_DS_
                                           ;	.line	60; /home/regis/Hobbies/Electronique/Projets/PinguinoIDE/X/branches/linux/tools/p8/bin/../share/sdcc/include/pic16/stdio.c	++len;
002f2e   2a0e     incf	0xe, 0x1, 0         	INCF	r0x0e, F
002f30   b0d8     btfsc	0xd8, 0, 0         	BTFSC	STATUS, 0
002f32   2a0f     incf	0xf, 0x1, 0         	INCF	r0x0f, F
                                           ;	.line	59; /home/regis/Hobbies/Electronique/Projets/PinguinoIDE/X/branches/linux/tools/p8/bin/../share/sdcc/include/pic16/stdio.c	for (ptr = string; *ptr; ++ptr)
002f34   2a10     incf	0x10, 0x1, 0        	INCF	r0x10, F
002f36   b0d8     btfsc	0xd8, 0, 0         	BTFSC	STATUS, 0
002f38   2a11     incf	0x11, 0x1, 0        	INCF	r0x11, F
002f3a   b0d8     btfsc	0xd8, 0, 0         	BTFSC	STATUS, 0
002f3c   2a12     incf	0x12, 0x1, 0        	INCF	r0x12, F
002f3e   d7ed     bra	0x2f1a               	BRA	_00420_DS_
                                           _00423_DS_:
                                           ;	.line	61; /home/regis/Hobbies/Electronique/Projets/PinguinoIDE/X/branches/linux/tools/p8/bin/../share/sdcc/include/pic16/stdio.c	if (len >= width)
002f40   500f     movf	0xf, 0, 0           	MOVF	r0x0f, W
002f42   0f80     addlw	0x80               	ADDLW	0x80
002f44   6ef3     movwf	0xf3, 0            	MOVWF	PRODL
002f46   5007     movf	0x7, 0, 0           	MOVF	r0x07, W
002f48   0f80     addlw	0x80               	ADDLW	0x80
002f4a   5cf3     subwf	0xf3, 0, 0         	SUBWF	PRODL, W
002f4c   e102     bnz	0x2f52               	BNZ	_00454_DS_
002f4e   5006     movf	0x6, 0, 0           	MOVF	r0x06, W
002f50   5c0e     subwf	0xe, 0, 0          	SUBWF	r0x0e, W
                                           _00454_DS_:
002f52   e303     bnc	0x2f5a               	BNC	_00412_DS_
                                           ;	.line	62; /home/regis/Hobbies/Electronique/Projets/PinguinoIDE/X/branches/linux/tools/p8/bin/../share/sdcc/include/pic16/stdio.c	width = 0;
002f54   6a06     clrf	0x6, 0              	CLRF	r0x06
002f56   6a07     clrf	0x7, 0              	CLRF	r0x07
002f58   d004     bra	0x2f62               	BRA	_00413_DS_
                                           _00412_DS_:
                                           ;	.line	64; /home/regis/Hobbies/Electronique/Projets/PinguinoIDE/X/branches/linux/tools/p8/bin/../share/sdcc/include/pic16/stdio.c	width -= len;
002f5a   500e     movf	0xe, 0, 0           	MOVF	r0x0e, W
002f5c   5e06     subwf	0x6, 0x1, 0        	SUBWF	r0x06, F
002f5e   500f     movf	0xf, 0, 0           	MOVF	r0x0f, W
002f60   5a07     subwfb	0x7, 0x1, 0       	SUBWFB	r0x07, F
                                           _00413_DS_:
                                           ;	.line	65; /home/regis/Hobbies/Electronique/Projets/PinguinoIDE/X/branches/linux/tools/p8/bin/../share/sdcc/include/pic16/stdio.c	if (pad & PAD_ZERO) padchar = '0';
002f62   a208     btfss	0x8, 0x1, 0        	BTFSS	r0x08, 1
002f64   d002     bra	0x2f6a               	BRA	_00417_DS_
002f66   0e30     movlw	0x30               	MOVLW	0x30
002f68   6e0c     movwf	0xc, 0             	MOVWF	r0x0c
                                           _00417_DS_:
                                           ;	.line	67; /home/regis/Hobbies/Electronique/Projets/PinguinoIDE/X/branches/linux/tools/p8/bin/../share/sdcc/include/pic16/stdio.c	if (!(pad & PAD_RIGHT))
002f6a   b008     btfsc	0x8, 0, 0          	BTFSC	r0x08, 0
002f6c   d029     bra	0x2fc0               	BRA	_00446_DS_
002f6e   6a08     clrf	0x8, 0              	CLRF	r0x08
002f70   6a09     clrf	0x9, 0              	CLRF	r0x09
002f72   c006     movff	0x6, 0xe           	MOVFF	r0x06, r0x0e
002f74   f00e
002f76   c007     movff	0x7, 0xf           	MOVFF	r0x07, r0x0f
002f78   f00f
                                           _00424_DS_:
                                           ;	.line	69; /home/regis/Hobbies/Electronique/Projets/PinguinoIDE/X/branches/linux/tools/p8/bin/../share/sdcc/include/pic16/stdio.c	for ( ; width > 0; --width)
002f7a   500f     movf	0xf, 0, 0           	MOVF	r0x0f, W
002f7c   0f80     addlw	0x80               	ADDLW	0x80
002f7e   0f80     addlw	0x80               	ADDLW	0x80
002f80   e102     bnz	0x2f86               	BNZ	_00457_DS_
002f82   0e01     movlw	0x1                	MOVLW	0x01
002f84   5c0e     subwf	0xe, 0, 0          	SUBWF	r0x0e, W
                                           _00457_DS_:
002f86   e314     bnc	0x2fb0               	BNC	_00450_DS_
                                           ; #	MOVF	r0x0c, W
                                           ; #	MOVWF	r0x10
                                           ; #	MOVF	r0x10, W
                                           ;	.line	71; /home/regis/Hobbies/Electronique/Projets/PinguinoIDE/X/branches/linux/tools/p8/bin/../share/sdcc/include/pic16/stdio.c	pprintchar(out, padchar);
002f88   500c     movf	0xc, 0, 0           	MOVF	r0x0c, W
002f8a   6ee5     movwf	0xe5, 0            	MOVWF	POSTDEC1
002f8c   5002     movf	0x2, 0, 0           	MOVF	r0x02, W
002f8e   6ee5     movwf	0xe5, 0            	MOVWF	POSTDEC1
002f90   5001     movf	0x1, 0, 0           	MOVF	r0x01, W
002f92   6ee5     movwf	0xe5, 0            	MOVWF	POSTDEC1
002f94   5000     movf	0, 0, 0             	MOVF	r0x00, W
002f96   6ee5     movwf	0xe5, 0            	MOVWF	POSTDEC1
002f98   ec5a     call	0x34b4, 0           	CALL	_pprintchar
002f9a   f01a
002f9c   0e04     movlw	0x4                	MOVLW	0x04
002f9e   26e1     addwf	0xe1, 0x1, 0       	ADDWF	FSR1L, F
                                           ;	.line	72; /home/regis/Hobbies/Electronique/Projets/PinguinoIDE/X/branches/linux/tools/p8/bin/../share/sdcc/include/pic16/stdio.c	++pc;
002fa0   2a08     incf	0x8, 0x1, 0         	INCF	r0x08, F
002fa2   b0d8     btfsc	0xd8, 0, 0         	BTFSC	STATUS, 0
002fa4   2a09     incf	0x9, 0x1, 0         	INCF	r0x09, F
                                           ;	.line	69; /home/regis/Hobbies/Electronique/Projets/PinguinoIDE/X/branches/linux/tools/p8/bin/../share/sdcc/include/pic16/stdio.c	for ( ; width > 0; --width)
002fa6   0eff     movlw	0xff               	MOVLW	0xff
002fa8   260e     addwf	0xe, 0x1, 0        	ADDWF	r0x0e, F
002faa   a0d8     btfss	0xd8, 0, 0         	BTFSS	STATUS, 0
002fac   060f     decf	0xf, 0x1, 0         	DECF	r0x0f, F
002fae   d7e5     bra	0x2f7a               	BRA	_00424_DS_
                                           _00450_DS_:
002fb0   c008     movff	0x8, 0xa           	MOVFF	r0x08, r0x0a
002fb2   f00a
002fb4   c009     movff	0x9, 0xb           	MOVFF	r0x09, r0x0b
002fb6   f00b
002fb8   c00e     movff	0xe, 0x6           	MOVFF	r0x0e, r0x06
002fba   f006
002fbc   c00f     movff	0xf, 0x7           	MOVFF	r0x0f, r0x07
002fbe   f007
                                           _00446_DS_:
002fc0   c00a     movff	0xa, 0x8           	MOVFF	r0x0a, r0x08
002fc2   f008
002fc4   c00b     movff	0xb, 0x9           	MOVFF	r0x0b, r0x09
002fc6   f009
                                           _00428_DS_:
                                           ;	.line	75; /home/regis/Hobbies/Electronique/Projets/PinguinoIDE/X/branches/linux/tools/p8/bin/../share/sdcc/include/pic16/stdio.c	for ( ; *string ; ++string)
002fc8   c003     movff	0x3, 0xfe9         	MOVFF	r0x03, FSR0L
002fca   ffe9
002fcc   c004     movff	0x4, 0xff3         	MOVFF	r0x04, PRODL
002fce   fff3
002fd0   5005     movf	0x5, 0, 0           	MOVF	r0x05, W
002fd2   ec29     call	0x52, 0             	CALL	__gptrget1
002fd4   f000
002fd6   6e0a     movwf	0xa, 0             	MOVWF	r0x0a
002fd8   500a     movf	0xa, 0, 0           	MOVF	r0x0a, W
002fda   e015     bz	0x3006                	BZ	_00448_DS_
                                           ;	.line	77; /home/regis/Hobbies/Electronique/Projets/PinguinoIDE/X/branches/linux/tools/p8/bin/../share/sdcc/include/pic16/stdio.c	pprintchar(out, *string);
002fdc   500a     movf	0xa, 0, 0           	MOVF	r0x0a, W
002fde   6ee5     movwf	0xe5, 0            	MOVWF	POSTDEC1
002fe0   5002     movf	0x2, 0, 0           	MOVF	r0x02, W
002fe2   6ee5     movwf	0xe5, 0            	MOVWF	POSTDEC1
002fe4   5001     movf	0x1, 0, 0           	MOVF	r0x01, W
002fe6   6ee5     movwf	0xe5, 0            	MOVWF	POSTDEC1
002fe8   5000     movf	0, 0, 0             	MOVF	r0x00, W
002fea   6ee5     movwf	0xe5, 0            	MOVWF	POSTDEC1
002fec   ec5a     call	0x34b4, 0           	CALL	_pprintchar
002fee   f01a
002ff0   0e04     movlw	0x4                	MOVLW	0x04
002ff2   26e1     addwf	0xe1, 0x1, 0       	ADDWF	FSR1L, F
                                           ;	.line	78; /home/regis/Hobbies/Electronique/Projets/PinguinoIDE/X/branches/linux/tools/p8/bin/../share/sdcc/include/pic16/stdio.c	++pc;
002ff4   2a08     incf	0x8, 0x1, 0         	INCF	r0x08, F
002ff6   b0d8     btfsc	0xd8, 0, 0         	BTFSC	STATUS, 0
002ff8   2a09     incf	0x9, 0x1, 0         	INCF	r0x09, F
                                           ;	.line	75; /home/regis/Hobbies/Electronique/Projets/PinguinoIDE/X/branches/linux/tools/p8/bin/../share/sdcc/include/pic16/stdio.c	for ( ; *string ; ++string)
002ffa   2a03     incf	0x3, 0x1, 0         	INCF	r0x03, F
002ffc   b0d8     btfsc	0xd8, 0, 0         	BTFSC	STATUS, 0
002ffe   2a04     incf	0x4, 0x1, 0         	INCF	r0x04, F
003000   b0d8     btfsc	0xd8, 0, 0         	BTFSC	STATUS, 0
003002   2a05     incf	0x5, 0x1, 0         	INCF	r0x05, F
003004   d7e1     bra	0x2fc8               	BRA	_00428_DS_
                                           _00448_DS_:
003006   c008     movff	0x8, 0x3           	MOVFF	r0x08, r0x03
003008   f003
00300a   c009     movff	0x9, 0x4           	MOVFF	r0x09, r0x04
00300c   f004
00300e   c006     movff	0x6, 0x5           	MOVFF	r0x06, r0x05
003010   f005
003012   c007     movff	0x7, 0x6           	MOVFF	r0x07, r0x06
003014   f006
                                           _00432_DS_:
                                           ;	.line	80; /home/regis/Hobbies/Electronique/Projets/PinguinoIDE/X/branches/linux/tools/p8/bin/../share/sdcc/include/pic16/stdio.c	for ( ; width > 0; --width)
003016   5006     movf	0x6, 0, 0           	MOVF	r0x06, W
003018   0f80     addlw	0x80               	ADDLW	0x80
00301a   0f80     addlw	0x80               	ADDLW	0x80
00301c   e102     bnz	0x3022               	BNZ	_00458_DS_
00301e   0e01     movlw	0x1                	MOVLW	0x01
003020   5c05     subwf	0x5, 0, 0          	SUBWF	r0x05, W
                                           _00458_DS_:
003022   e314     bnc	0x304c               	BNC	_00435_DS_
                                           ; #	MOVF	r0x0c, W
                                           ; #	MOVWF	r0x07
                                           ; #	MOVF	r0x07, W
                                           ;	.line	82; /home/regis/Hobbies/Electronique/Projets/PinguinoIDE/X/branches/linux/tools/p8/bin/../share/sdcc/include/pic16/stdio.c	pprintchar(out, padchar);
003024   500c     movf	0xc, 0, 0           	MOVF	r0x0c, W
003026   6ee5     movwf	0xe5, 0            	MOVWF	POSTDEC1
003028   5002     movf	0x2, 0, 0           	MOVF	r0x02, W
00302a   6ee5     movwf	0xe5, 0            	MOVWF	POSTDEC1
00302c   5001     movf	0x1, 0, 0           	MOVF	r0x01, W
00302e   6ee5     movwf	0xe5, 0            	MOVWF	POSTDEC1
003030   5000     movf	0, 0, 0             	MOVF	r0x00, W
003032   6ee5     movwf	0xe5, 0            	MOVWF	POSTDEC1
003034   ec5a     call	0x34b4, 0           	CALL	_pprintchar
003036   f01a
003038   0e04     movlw	0x4                	MOVLW	0x04
00303a   26e1     addwf	0xe1, 0x1, 0       	ADDWF	FSR1L, F
                                           ;	.line	83; /home/regis/Hobbies/Electronique/Projets/PinguinoIDE/X/branches/linux/tools/p8/bin/../share/sdcc/include/pic16/stdio.c	++pc;
00303c   2a03     incf	0x3, 0x1, 0         	INCF	r0x03, F
00303e   b0d8     btfsc	0xd8, 0, 0         	BTFSC	STATUS, 0
003040   2a04     incf	0x4, 0x1, 0         	INCF	r0x04, F
                                           ;	.line	80; /home/regis/Hobbies/Electronique/Projets/PinguinoIDE/X/branches/linux/tools/p8/bin/../share/sdcc/include/pic16/stdio.c	for ( ; width > 0; --width)
003042   0eff     movlw	0xff               	MOVLW	0xff
003044   2605     addwf	0x5, 0x1, 0        	ADDWF	r0x05, F
003046   a0d8     btfss	0xd8, 0, 0         	BTFSS	STATUS, 0
003048   0606     decf	0x6, 0x1, 0         	DECF	r0x06, F
00304a   d7e5     bra	0x3016               	BRA	_00432_DS_
                                           _00435_DS_:
                                           ;	.line	86; /home/regis/Hobbies/Electronique/Projets/PinguinoIDE/X/branches/linux/tools/p8/bin/../share/sdcc/include/pic16/stdio.c	return pc;
00304c   c004     movff	0x4, 0xff3         	MOVFF	r0x04, PRODL
00304e   fff3
003050   5003     movf	0x3, 0, 0           	MOVF	r0x03, W
003052   cfe4     movff	0xfe4, 0x13        	MOVFF	PREINC1, r0x13
003054   f013
003056   cfe4     movff	0xfe4, 0x12        	MOVFF	PREINC1, r0x12
003058   f012
00305a   cfe4     movff	0xfe4, 0x11        	MOVFF	PREINC1, r0x11
00305c   f011
00305e   cfe4     movff	0xfe4, 0x10        	MOVFF	PREINC1, r0x10
003060   f010
003062   cfe4     movff	0xfe4, 0xf         	MOVFF	PREINC1, r0x0f
003064   f00f
003066   cfe4     movff	0xfe4, 0xe         	MOVFF	PREINC1, r0x0e
003068   f00e
00306a   cfe4     movff	0xfe4, 0xc         	MOVFF	PREINC1, r0x0c
00306c   f00c
00306e   cfe4     movff	0xfe4, 0xb         	MOVFF	PREINC1, r0x0b
003070   f00b
003072   cfe4     movff	0xfe4, 0xa         	MOVFF	PREINC1, r0x0a
003074   f00a
003076   cfe4     movff	0xfe4, 0x9         	MOVFF	PREINC1, r0x09
003078   f009
00307a   cfe4     movff	0xfe4, 0x8         	MOVFF	PREINC1, r0x08
00307c   f008
00307e   cfe4     movff	0xfe4, 0x7         	MOVFF	PREINC1, r0x07
003080   f007
003082   cfe4     movff	0xfe4, 0x6         	MOVFF	PREINC1, r0x06
003084   f006
003086   cfe4     movff	0xfe4, 0x5         	MOVFF	PREINC1, r0x05
003088   f005
00308a   cfe4     movff	0xfe4, 0x4         	MOVFF	PREINC1, r0x04
00308c   f004
00308e   cfe4     movff	0xfe4, 0x3         	MOVFF	PREINC1, r0x03
003090   f003
003092   cfe4     movff	0xfe4, 0x2         	MOVFF	PREINC1, r0x02
003094   f002
003096   cfe4     movff	0xfe4, 0x1         	MOVFF	PREINC1, r0x01
003098   f001
00309a   cfe4     movff	0xfe4, 0           	MOVFF	PREINC1, r0x00
00309c   f000
00309e   cfe4     movff	0xfe4, 0xfd9       	MOVFF	PREINC1, FSR2L
0030a0   ffd9
0030a2   0012     return	0                 	RETURN	
                                           
                                           ; ; Starting pCode block
                                           S_main__pprintchar	code
                                           _pprintchar:
                                           ;	.line	34; /home/regis/Hobbies/Electronique/Projets/PinguinoIDE/X/branches/linux/tools/p8/bin/../share/sdcc/include/pic16/stdio.c	static void pprintchar(char **str, char c)
0034b4   cfd9     movff	0xfd9, 0xfe5       	MOVFF	FSR2L, POSTDEC1
0034b6   ffe5
0034b8   cfe1     movff	0xfe1, 0xfd9       	MOVFF	FSR1L, FSR2L
0034ba   ffd9
0034bc   c000     movff	0, 0xfe5           	MOVFF	r0x00, POSTDEC1
0034be   ffe5
0034c0   c001     movff	0x1, 0xfe5         	MOVFF	r0x01, POSTDEC1
0034c2   ffe5
0034c4   c002     movff	0x2, 0xfe5         	MOVFF	r0x02, POSTDEC1
0034c6   ffe5
0034c8   c003     movff	0x3, 0xfe5         	MOVFF	r0x03, POSTDEC1
0034ca   ffe5
0034cc   c004     movff	0x4, 0xfe5         	MOVFF	r0x04, POSTDEC1
0034ce   ffe5
0034d0   c005     movff	0x5, 0xfe5         	MOVFF	r0x05, POSTDEC1
0034d2   ffe5
0034d4   c006     movff	0x6, 0xfe5         	MOVFF	r0x06, POSTDEC1
0034d6   ffe5
0034d8   0e02     movlw	0x2                	MOVLW	0x02
0034da   cfdb     movff	0xfdb, 0           	MOVFF	PLUSW2, r0x00
0034dc   f000
0034de   0e03     movlw	0x3                	MOVLW	0x03
0034e0   cfdb     movff	0xfdb, 0x1         	MOVFF	PLUSW2, r0x01
0034e2   f001
0034e4   0e04     movlw	0x4                	MOVLW	0x04
0034e6   cfdb     movff	0xfdb, 0x2         	MOVFF	PLUSW2, r0x02
0034e8   f002
0034ea   0e05     movlw	0x5                	MOVLW	0x05
0034ec   cfdb     movff	0xfdb, 0x3         	MOVFF	PLUSW2, r0x03
0034ee   f003
                                           ;	.line	36; /home/regis/Hobbies/Electronique/Projets/PinguinoIDE/X/branches/linux/tools/p8/bin/../share/sdcc/include/pic16/stdio.c	if (str)
0034f0   5000     movf	0, 0, 0             	MOVF	r0x00, W
0034f2   1001     iorwf	0x1, 0, 0          	IORWF	r0x01, W
0034f4   1002     iorwf	0x2, 0, 0          	IORWF	r0x02, W
0034f6   e028     bz	0x3548                	BZ	_00401_DS_
                                           ;	.line	38; /home/regis/Hobbies/Electronique/Projets/PinguinoIDE/X/branches/linux/tools/p8/bin/../share/sdcc/include/pic16/stdio.c	**str = c;
0034f8   c000     movff	0, 0xfe9           	MOVFF	r0x00, FSR0L
0034fa   ffe9
0034fc   c001     movff	0x1, 0xff3         	MOVFF	r0x01, PRODL
0034fe   fff3
003500   5002     movf	0x2, 0, 0           	MOVF	r0x02, W
003502   ec2d     call	0x5a, 0             	CALL	__gptrget3
003504   f000
003506   6e04     movwf	0x4, 0             	MOVWF	r0x04
003508   cff3     movff	0xff3, 0x5         	MOVFF	PRODL, r0x05
00350a   f005
00350c   cff4     movff	0xff4, 0x6         	MOVFF	PRODH, r0x06
00350e   f006
003510   c003     movff	0x3, 0xfe5         	MOVFF	r0x03, POSTDEC1
003512   ffe5
003514   c004     movff	0x4, 0xfe9         	MOVFF	r0x04, FSR0L
003516   ffe9
003518   c005     movff	0x5, 0xff3         	MOVFF	r0x05, PRODL
00351a   fff3
00351c   5006     movf	0x6, 0, 0           	MOVF	r0x06, W
00351e   ec31     call	0x62, 0             	CALL	__gptrput1
003520   f000
                                           ;	.line	39; /home/regis/Hobbies/Electronique/Projets/PinguinoIDE/X/branches/linux/tools/p8/bin/../share/sdcc/include/pic16/stdio.c	++(*str);
003522   2a04     incf	0x4, 0x1, 0         	INCF	r0x04, F
003524   b0d8     btfsc	0xd8, 0, 0         	BTFSC	STATUS, 0
003526   2a05     incf	0x5, 0x1, 0         	INCF	r0x05, F
003528   b0d8     btfsc	0xd8, 0, 0         	BTFSC	STATUS, 0
00352a   2a06     incf	0x6, 0x1, 0         	INCF	r0x06, F
00352c   c004     movff	0x4, 0xfe5         	MOVFF	r0x04, POSTDEC1
00352e   ffe5
003530   c005     movff	0x5, 0xff4         	MOVFF	r0x05, PRODH
003532   fff4
003534   c006     movff	0x6, 0xff6         	MOVFF	r0x06, TBLPTRL
003536   fff6
003538   c000     movff	0, 0xfe9           	MOVFF	r0x00, FSR0L
00353a   ffe9
00353c   c001     movff	0x1, 0xff3         	MOVFF	r0x01, PRODL
00353e   fff3
003540   5002     movf	0x2, 0, 0           	MOVF	r0x02, W
003542   ec35     call	0x6a, 0             	CALL	__gptrput3
003544   f000
003546   d017     bra	0x3576               	BRA	_00403_DS_
                                           _00401_DS_:
                                           ;	.line	43; /home/regis/Hobbies/Electronique/Projets/PinguinoIDE/X/branches/linux/tools/p8/bin/../share/sdcc/include/pic16/stdio.c	pputchar(c);
003548   5003     movf	0x3, 0, 0           	MOVF	r0x03, W
00354a   6ee5     movwf	0xe5, 0            	MOVWF	POSTDEC1
00354c   cff2     movff	0xff2, 0xfe5       	MOVFF	INTCON, POSTDEC1
00354e   ffe5
003550   9ef2     bcf	0xf2, 0x7, 0         	BCF	INTCON, 7
003552   0005     push                     	PUSH	
003554   0e72     movlw	0x72               	MOVLW	LOW(_00406_DS_)
003556   6efd     movwf	0xfd, 0            	MOVWF	TOSL
003558   0e35     movlw	0x35               	MOVLW	HIGH(_00406_DS_)
00355a   6efe     movwf	0xfe, 0            	MOVWF	TOSH
00355c   0e00     movlw	0                  	MOVLW	UPPER(_00406_DS_)
00355e   6eff     movwf	0xff, 0            	MOVWF	TOSU
003560   50e4     movf	0xe4, 0, 0          	MOVF	PREINC1, W
003562   6ef2     movwf	0xf2, 0            	MOVWF	INTCON
003564   c291     movff	0x291, 0xffb       	MOVFF	(_pputchar + 2), PCLATU
003566   fffb
003568   c290     movff	0x290, 0xffa       	MOVFF	(_pputchar + 1), PCLATH
00356a   fffa
00356c   0102     movlb	0x2                	BANKSEL	_pputchar
00356e   518f     movf	0x8f, 0, 0x1        	MOVF	_pputchar, W, B
003570   6ef9     movwf	0xf9, 0            	MOVWF	PCL
                                           _00406_DS_:
003572   0e01     movlw	0x1                	MOVLW	0x01
003574   26e1     addwf	0xe1, 0x1, 0       	ADDWF	FSR1L, F
                                           _00403_DS_:
003576   cfe4     movff	0xfe4, 0x6         	MOVFF	PREINC1, r0x06
003578   f006
00357a   cfe4     movff	0xfe4, 0x5         	MOVFF	PREINC1, r0x05
00357c   f005
00357e   cfe4     movff	0xfe4, 0x4         	MOVFF	PREINC1, r0x04
003580   f004
003582   cfe4     movff	0xfe4, 0x3         	MOVFF	PREINC1, r0x03
003584   f003
003586   cfe4     movff	0xfe4, 0x2         	MOVFF	PREINC1, r0x02
003588   f002
00358a   cfe4     movff	0xfe4, 0x1         	MOVFF	PREINC1, r0x01
00358c   f001
00358e   cfe4     movff	0xfe4, 0           	MOVFF	PREINC1, r0x00
003590   f000
003592   cfe4     movff	0xfe4, 0xfd9       	MOVFF	PREINC1, FSR2L
003594   ffd9
003596   0012     return	0                 	RETURN	
                                           
                                           ; ; Starting pCode block
                                           S_main__I2C_sendAck	code
                                           _I2C_sendAck:
                                           ;	.line	399; /home/regis/Hobbies/Electronique/Projets/PinguinoIDE/X/branches/linux/tools/p8/bin/../share/sdcc/include/pic16/pinguinoi2c.c	SSPCON2bits.ACKDT = 0;
004440   9ac5     bcf	0xc5, 0x5, 0         	BCF	_SSPCON2bits, 5
                                           ;	.line	400; /home/regis/Hobbies/Electronique/Projets/PinguinoIDE/X/branches/linux/tools/p8/bin/../share/sdcc/include/pic16/pinguinoi2c.c	SSPCON2bits.ACKEN = 1;
004442   88c5     bsf	0xc5, 0x4, 0         	BSF	_SSPCON2bits, 4
                                           ;	.line	401; /home/regis/Hobbies/Electronique/Projets/PinguinoIDE/X/branches/linux/tools/p8/bin/../share/sdcc/include/pic16/pinguinoi2c.c	I2C_wait();
004444   ec37     call	0x446e, 0           	CALL	_I2C_wait
004446   f022
004448   0012     return	0                 	RETURN	
                                           
                                           ; ; Starting pCode block
                                           S_main__I2C_sendNack	code
                                           _I2C_sendNack:
                                           ;	.line	387; /home/regis/Hobbies/Electronique/Projets/PinguinoIDE/X/branches/linux/tools/p8/bin/../share/sdcc/include/pic16/pinguinoi2c.c	SSPCON2bits.ACKDT = 1;
00444a   8ac5     bsf	0xc5, 0x5, 0         	BSF	_SSPCON2bits, 5
                                           ;	.line	388; /home/regis/Hobbies/Electronique/Projets/PinguinoIDE/X/branches/linux/tools/p8/bin/../share/sdcc/include/pic16/pinguinoi2c.c	SSPCON2bits.ACKEN = 1;
00444c   88c5     bsf	0xc5, 0x4, 0         	BSF	_SSPCON2bits, 4
                                           ;	.line	389; /home/regis/Hobbies/Electronique/Projets/PinguinoIDE/X/branches/linux/tools/p8/bin/../share/sdcc/include/pic16/pinguinoi2c.c	I2C_wait();
00444e   ec37     call	0x446e, 0           	CALL	_I2C_wait
004450   f022
004452   0012     return	0                 	RETURN	
                                           
                                           ; ; Starting pCode block
                                           S_main__I2C_readAbort	code
                                           _I2C_readAbort:
                                           ;	.line	375; /home/regis/Hobbies/Electronique/Projets/PinguinoIDE/X/branches/linux/tools/p8/bin/../share/sdcc/include/pic16/pinguinoi2c.c	SSPCON1bits.WCOL = 0;
004434   9ec6     bcf	0xc6, 0x7, 0         	BCF	_SSPCON1bits, 7
                                           ;	.line	376; /home/regis/Hobbies/Electronique/Projets/PinguinoIDE/X/branches/linux/tools/p8/bin/../share/sdcc/include/pic16/pinguinoi2c.c	I2C_stop();
004436   ec2f     call	0x445e, 0           	CALL	_I2C_stop
004438   f022
                                           ;	.line	377; /home/regis/Hobbies/Electronique/Projets/PinguinoIDE/X/branches/linux/tools/p8/bin/../share/sdcc/include/pic16/pinguinoi2c.c	I2C_wait();  
00443a   ec37     call	0x446e, 0           	CALL	_I2C_wait
00443c   f022
00443e   0012     return	0                 	RETURN	
                                           
                                           ; ; Starting pCode block
                                           S_main__I2C_waitAck	code
                                           _I2C_waitAck:
                                           ;	.line	357; /home/regis/Hobbies/Electronique/Projets/PinguinoIDE/X/branches/linux/tools/p8/bin/../share/sdcc/include/pic16/pinguinoi2c.c	static u8 I2C_waitAck()
004214   c000     movff	0, 0xfe5           	MOVFF	r0x00, POSTDEC1
004216   ffe5
004218   c001     movff	0x1, 0xfe5         	MOVFF	r0x01, POSTDEC1
00421a   ffe5
                                           ;	.line	360; /home/regis/Hobbies/Electronique/Projets/PinguinoIDE/X/branches/linux/tools/p8/bin/../share/sdcc/include/pic16/pinguinoi2c.c	while(SSPCON2bits.ACKSTAT == 1) 
00421c   6a00     clrf	0, 0                	CLRF	r0x00
                                           _00371_DS_:
00421e   6a01     clrf	0x1, 0              	CLRF	r0x01
004220   bcc5     btfsc	0xc5, 0x6, 0       	BTFSC	_SSPCON2bits, 6
004222   2a01     incf	0x1, 0x1, 0         	INCF	r0x01, F
004224   5001     movf	0x1, 0, 0           	MOVF	r0x01, W
004226   0a01     xorlw	0x1                	XORLW	0x01
004228   e105     bnz	0x4234               	BNZ	_00373_DS_
                                           ;	.line	362; /home/regis/Hobbies/Electronique/Projets/PinguinoIDE/X/branches/linux/tools/p8/bin/../share/sdcc/include/pic16/pinguinoi2c.c	i++;
00422a   2a00     incf	0, 0x1, 0           	INCF	r0x00, F
                                           ;	.line	363; /home/regis/Hobbies/Electronique/Projets/PinguinoIDE/X/branches/linux/tools/p8/bin/../share/sdcc/include/pic16/pinguinoi2c.c	if(i==0) return -1;
00422c   5000     movf	0, 0, 0             	MOVF	r0x00, W
00422e   e1f7     bnz	0x421e               	BNZ	_00371_DS_
004230   68e8     setf	0xe8, 0             	SETF	WREG
004232   d001     bra	0x4236               	BRA	_00374_DS_
                                           _00373_DS_:
                                           ;	.line	365; /home/regis/Hobbies/Electronique/Projets/PinguinoIDE/X/branches/linux/tools/p8/bin/../share/sdcc/include/pic16/pinguinoi2c.c	return 0;
004234   6ae8     clrf	0xe8, 0             	CLRF	WREG
                                           _00374_DS_:
004236   cfe4     movff	0xfe4, 0x1         	MOVFF	PREINC1, r0x01
004238   f001
00423a   cfe4     movff	0xfe4, 0           	MOVFF	PREINC1, r0x00
00423c   f000
00423e   0012     return	0                 	RETURN	
                                           
                                           ; ; Starting pCode block
                                           S_main__I2C_restart	code
                                           _I2C_restart:
                                           ;	.line	348; /home/regis/Hobbies/Electronique/Projets/PinguinoIDE/X/branches/linux/tools/p8/bin/../share/sdcc/include/pic16/pinguinoi2c.c	SSPCON2bits.RSEN=1;
003ff8   82c5     bsf	0xc5, 0x1, 0         	BSF	_SSPCON2bits, 1
                                           ;	.line	349; /home/regis/Hobbies/Electronique/Projets/PinguinoIDE/X/branches/linux/tools/p8/bin/../share/sdcc/include/pic16/pinguinoi2c.c	I2C_wait();
003ffa   ec37     call	0x446e, 0           	CALL	_I2C_wait
003ffc   f022
003ffe   0012     return	0                 	RETURN	
                                           
                                           ; ; Starting pCode block
                                           S_main__I2C_stop	code
                                           _I2C_stop:
                                           ;	.line	337; /home/regis/Hobbies/Electronique/Projets/PinguinoIDE/X/branches/linux/tools/p8/bin/../share/sdcc/include/pic16/pinguinoi2c.c	SSPCON2bits.PEN = 1;
00445e   84c5     bsf	0xc5, 0x2, 0         	BSF	_SSPCON2bits, 2
                                           ;	.line	338; /home/regis/Hobbies/Electronique/Projets/PinguinoIDE/X/branches/linux/tools/p8/bin/../share/sdcc/include/pic16/pinguinoi2c.c	I2C_wait();
004460   ec37     call	0x446e, 0           	CALL	_I2C_wait
004462   f022
004464   0012     return	0                 	RETURN	
                                           
                                           ; ; Starting pCode block
                                           S_main__I2C_start	code
                                           _I2C_start:
                                           ;	.line	326; /home/regis/Hobbies/Electronique/Projets/PinguinoIDE/X/branches/linux/tools/p8/bin/../share/sdcc/include/pic16/pinguinoi2c.c	SSPCON2bits.SEN = 1;
004466   80c5     bsf	0xc5, 0, 0           	BSF	_SSPCON2bits, 0
                                           ;	.line	327; /home/regis/Hobbies/Electronique/Projets/PinguinoIDE/X/branches/linux/tools/p8/bin/../share/sdcc/include/pic16/pinguinoi2c.c	I2C_wait();
004468   ec37     call	0x446e, 0           	CALL	_I2C_wait
00446a   f022
00446c   0012     return	0                 	RETURN	
                                           
                                           ; ; Starting pCode block
                                           S_main__I2C_wait	code
                                           _I2C_wait:
                                           _00346_DS_:
                                           ;	.line	315; /home/regis/Hobbies/Electronique/Projets/PinguinoIDE/X/branches/linux/tools/p8/bin/../share/sdcc/include/pic16/pinguinoi2c.c	while (PIR1bits.SSPIF == 0);
00446e   a69e     btfss	0x9e, 0x3, 0       	BTFSS	_PIR1bits, 3
004470   d7fe     bra	0x446e               	BRA	_00346_DS_
                                           ;	.line	316; /home/regis/Hobbies/Electronique/Projets/PinguinoIDE/X/branches/linux/tools/p8/bin/../share/sdcc/include/pic16/pinguinoi2c.c	PIR1bits.SSPIF = 0;
004472   969e     bcf	0x9e, 0x3, 0         	BCF	_PIR1bits, 3
004474   0012     return	0                 	RETURN	
                                           
                                           ; ; Starting pCode block
                                           S_main__I2C_interrupt	code
                                           _I2C_interrupt:
                                           ;	.line	298; /home/regis/Hobbies/Electronique/Projets/PinguinoIDE/X/branches/linux/tools/p8/bin/../share/sdcc/include/pic16/pinguinoi2c.c	if (PIR1bits.SSPIF)
003f9e   a69e     btfss	0x9e, 0x3, 0       	BTFSS	_PIR1bits, 3
003fa0   d02a     bra	0x3ff6               	BRA	_00336_DS_
                                           ;	.line	300; /home/regis/Hobbies/Electronique/Projets/PinguinoIDE/X/branches/linux/tools/p8/bin/../share/sdcc/include/pic16/pinguinoi2c.c	PIR1bits.SSPIF = 0;
003fa2   969e     bcf	0x9e, 0x3, 0         	BCF	_PIR1bits, 3
                                           ;	.line	301; /home/regis/Hobbies/Electronique/Projets/PinguinoIDE/X/branches/linux/tools/p8/bin/../share/sdcc/include/pic16/pinguinoi2c.c	if (SSPSTATbits.R_W)
003fa4   a4c7     btfss	0xc7, 0x2, 0       	BTFSS	_SSPSTATbits, 2
003fa6   d014     bra	0x3fd0               	BRA	_00332_DS_
                                           ;	.line	302; /home/regis/Hobbies/Electronique/Projets/PinguinoIDE/X/branches/linux/tools/p8/bin/../share/sdcc/include/pic16/pinguinoi2c.c	_i2c_onRequest_function();
003fa8   cff2     movff	0xff2, 0xfe5       	MOVFF	INTCON, POSTDEC1
003faa   ffe5
003fac   9ef2     bcf	0xf2, 0x7, 0         	BCF	INTCON, 7
003fae   0005     push                     	PUSH	
003fb0   0ece     movlw	0xce               	MOVLW	LOW(_00340_DS_)
003fb2   6efd     movwf	0xfd, 0            	MOVWF	TOSL
003fb4   0e3f     movlw	0x3f               	MOVLW	HIGH(_00340_DS_)
003fb6   6efe     movwf	0xfe, 0            	MOVWF	TOSH
003fb8   0e00     movlw	0                  	MOVLW	UPPER(_00340_DS_)
003fba   6eff     movwf	0xff, 0            	MOVWF	TOSU
003fbc   50e4     movf	0xe4, 0, 0          	MOVF	PREINC1, W
003fbe   6ef2     movwf	0xf2, 0            	MOVWF	INTCON
003fc0   c28b     movff	0x28b, 0xffb       	MOVFF	(__i2c_onRequest_function + 2), PCLATU
003fc2   fffb
003fc4   c28a     movff	0x28a, 0xffa       	MOVFF	(__i2c_onRequest_function + 1), PCLATH
003fc6   fffa
003fc8   0102     movlb	0x2                	BANKSEL	__i2c_onRequest_function
003fca   5189     movf	0x89, 0, 0x1        	MOVF	__i2c_onRequest_function, W, B
003fcc   6ef9     movwf	0xf9, 0            	MOVWF	PCL
                                           _00340_DS_:
003fce   d013     bra	0x3ff6               	BRA	_00336_DS_
                                           _00332_DS_:
                                           ;	.line	304; /home/regis/Hobbies/Electronique/Projets/PinguinoIDE/X/branches/linux/tools/p8/bin/../share/sdcc/include/pic16/pinguinoi2c.c	_i2c_onReceive_function();
003fd0   cff2     movff	0xff2, 0xfe5       	MOVFF	INTCON, POSTDEC1
003fd2   ffe5
003fd4   9ef2     bcf	0xf2, 0x7, 0         	BCF	INTCON, 7
003fd6   0005     push                     	PUSH	
003fd8   0ef6     movlw	0xf6               	MOVLW	LOW(_00341_DS_)
003fda   6efd     movwf	0xfd, 0            	MOVWF	TOSL
003fdc   0e3f     movlw	0x3f               	MOVLW	HIGH(_00341_DS_)
003fde   6efe     movwf	0xfe, 0            	MOVWF	TOSH
003fe0   0e00     movlw	0                  	MOVLW	UPPER(_00341_DS_)
003fe2   6eff     movwf	0xff, 0            	MOVWF	TOSU
003fe4   50e4     movf	0xe4, 0, 0          	MOVF	PREINC1, W
003fe6   6ef2     movwf	0xf2, 0            	MOVWF	INTCON
003fe8   c28e     movff	0x28e, 0xffb       	MOVFF	(__i2c_onReceive_function + 2), PCLATU
003fea   fffb
003fec   c28d     movff	0x28d, 0xffa       	MOVFF	(__i2c_onReceive_function + 1), PCLATH
003fee   fffa
003ff0   0102     movlb	0x2                	BANKSEL	__i2c_onReceive_function
003ff2   518c     movf	0x8c, 0, 0x1        	MOVF	__i2c_onReceive_function, W, B
003ff4   6ef9     movwf	0xf9, 0            	MOVWF	PCL
                                           _00341_DS_:
                                           _00336_DS_:
003ff6   0012     return	0                 	RETURN	
                                           
                                           ; ; Starting pCode block
                                           S_main__IC2_OnReceive	code
                                           _IC2_OnReceive:
                                           ;	.line	286; /home/regis/Hobbies/Electronique/Projets/PinguinoIDE/X/branches/linux/tools/p8/bin/../share/sdcc/include/pic16/pinguinoi2c.c	void IC2_OnReceive(i2c_stdout func)
0042a6   cfd9     movff	0xfd9, 0xfe5       	MOVFF	FSR2L, POSTDEC1
0042a8   ffe5
0042aa   cfe1     movff	0xfe1, 0xfd9       	MOVFF	FSR1L, FSR2L
0042ac   ffd9
0042ae   0e02     movlw	0x2                	MOVLW	0x02
0042b0   cfdb     movff	0xfdb, 0x28c       	MOVFF	PLUSW2, __i2c_onReceive_function
0042b2   f28c
0042b4   0e03     movlw	0x3                	MOVLW	0x03
0042b6   cfdb     movff	0xfdb, 0x28d       	MOVFF	PLUSW2, (__i2c_onReceive_function + 1)
0042b8   f28d
0042ba   0e04     movlw	0x4                	MOVLW	0x04
0042bc   cfdb     movff	0xfdb, 0x28e       	MOVFF	PLUSW2, (__i2c_onReceive_function + 2)
0042be   f28e
                                           ;	.line	288; /home/regis/Hobbies/Electronique/Projets/PinguinoIDE/X/branches/linux/tools/p8/bin/../share/sdcc/include/pic16/pinguinoi2c.c	_i2c_onReceive_function = func;
0042c0   cfe4     movff	0xfe4, 0xfd9       	MOVFF	PREINC1, FSR2L
0042c2   ffd9
0042c4   0012     return	0                 	RETURN	
                                           
                                           ; ; Starting pCode block
                                           S_main__I2C_OnRequest	code
                                           _I2C_OnRequest:
                                           ;	.line	276; /home/regis/Hobbies/Electronique/Projets/PinguinoIDE/X/branches/linux/tools/p8/bin/../share/sdcc/include/pic16/pinguinoi2c.c	void I2C_OnRequest(i2c_stdout func)
0042c6   cfd9     movff	0xfd9, 0xfe5       	MOVFF	FSR2L, POSTDEC1
0042c8   ffe5
0042ca   cfe1     movff	0xfe1, 0xfd9       	MOVFF	FSR1L, FSR2L
0042cc   ffd9
0042ce   0e02     movlw	0x2                	MOVLW	0x02
0042d0   cfdb     movff	0xfdb, 0x289       	MOVFF	PLUSW2, __i2c_onRequest_function
0042d2   f289
0042d4   0e03     movlw	0x3                	MOVLW	0x03
0042d6   cfdb     movff	0xfdb, 0x28a       	MOVFF	PLUSW2, (__i2c_onRequest_function + 1)
0042d8   f28a
0042da   0e04     movlw	0x4                	MOVLW	0x04
0042dc   cfdb     movff	0xfdb, 0x28b       	MOVFF	PLUSW2, (__i2c_onRequest_function + 2)
0042de   f28b
                                           ;	.line	278; /home/regis/Hobbies/Electronique/Projets/PinguinoIDE/X/branches/linux/tools/p8/bin/../share/sdcc/include/pic16/pinguinoi2c.c	_i2c_onRequest_function = func;
0042e0   cfe4     movff	0xfe4, 0xfd9       	MOVFF	PREINC1, FSR2L
0042e2   ffd9
0042e4   0012     return	0                 	RETURN	
                                           
                                           ; ; Starting pCode block
                                           S_main__I2C_readchar	code
                                           _I2C_readchar:
                                           ;	.line	266; /home/regis/Hobbies/Electronique/Projets/PinguinoIDE/X/branches/linux/tools/p8/bin/../share/sdcc/include/pic16/pinguinoi2c.c	SSPCON2bits.RCEN = 1;
004454   86c5     bsf	0xc5, 0x3, 0         	BSF	_SSPCON2bits, 3
                                           ;	.line	267; /home/regis/Hobbies/Electronique/Projets/PinguinoIDE/X/branches/linux/tools/p8/bin/../share/sdcc/include/pic16/pinguinoi2c.c	I2C_wait();
004456   ec37     call	0x446e, 0           	CALL	_I2C_wait
004458   f022
                                           ;	.line	268; /home/regis/Hobbies/Electronique/Projets/PinguinoIDE/X/branches/linux/tools/p8/bin/../share/sdcc/include/pic16/pinguinoi2c.c	return (SSPBUF);
00445a   50c9     movf	0xc9, 0, 0          	MOVF	_SSPBUF, W
00445c   0012     return	0                 	RETURN	
                                           
                                           ; ; Starting pCode block
                                           S_main__I2C_writechar	code
                                           _I2C_writechar:
                                           ;	.line	252; /home/regis/Hobbies/Electronique/Projets/PinguinoIDE/X/branches/linux/tools/p8/bin/../share/sdcc/include/pic16/pinguinoi2c.c	u8 I2C_writechar(u8 byte)
0041b4   cfd9     movff	0xfd9, 0xfe5       	MOVFF	FSR2L, POSTDEC1
0041b6   ffe5
0041b8   cfe1     movff	0xfe1, 0xfd9       	MOVFF	FSR1L, FSR2L
0041ba   ffd9
0041bc   c000     movff	0, 0xfe5           	MOVFF	r0x00, POSTDEC1
0041be   ffe5
0041c0   0e02     movlw	0x2                	MOVLW	0x02
0041c2   cfdb     movff	0xfdb, 0xfc9       	MOVFF	PLUSW2, _SSPBUF
0041c4   ffc9
                                           ;	.line	255; /home/regis/Hobbies/Electronique/Projets/PinguinoIDE/X/branches/linux/tools/p8/bin/../share/sdcc/include/pic16/pinguinoi2c.c	I2C_wait();
0041c6   ec37     call	0x446e, 0           	CALL	_I2C_wait
0041c8   f022
                                           ;	.line	256; /home/regis/Hobbies/Electronique/Projets/PinguinoIDE/X/branches/linux/tools/p8/bin/../share/sdcc/include/pic16/pinguinoi2c.c	return (!SSPCON2bits.ACKSTAT);
0041ca   6a00     clrf	0, 0                	CLRF	r0x00
0041cc   bcc5     btfsc	0xc5, 0x6, 0       	BTFSC	_SSPCON2bits, 6
0041ce   2a00     incf	0, 0x1, 0           	INCF	r0x00, F
0041d0   5000     movf	0, 0, 0             	MOVF	r0x00, W
0041d2   80d8     bsf	0xd8, 0, 0           	BSF	STATUS, 0
0041d4   66e8     tstfsz	0xe8, 0           	TSTFSZ	WREG
0041d6   90d8     bcf	0xd8, 0, 0           	BCF	STATUS, 0
0041d8   6a00     clrf	0, 0                	CLRF	r0x00
0041da   3600     rlcf	0, 0x1, 0           	RLCF	r0x00, F
0041dc   5000     movf	0, 0, 0             	MOVF	r0x00, W
0041de   cfe4     movff	0xfe4, 0           	MOVFF	PREINC1, r0x00
0041e0   f000
0041e2   cfe4     movff	0xfe4, 0xfd9       	MOVFF	PREINC1, FSR2L
0041e4   ffd9
0041e6   0012     return	0                 	RETURN	
                                           
                                           ; ; Starting pCode block
                                           S_main__I2C_sendID	code
                                           _I2C_sendID:
                                           ;	.line	208; /home/regis/Hobbies/Electronique/Projets/PinguinoIDE/X/branches/linux/tools/p8/bin/../share/sdcc/include/pic16/pinguinoi2c.c	static void I2C_sendID(u16 DeviceID, u8 r_w)
003598   cfd9     movff	0xfd9, 0xfe5       	MOVFF	FSR2L, POSTDEC1
00359a   ffe5
00359c   cfe1     movff	0xfe1, 0xfd9       	MOVFF	FSR1L, FSR2L
00359e   ffd9
0035a0   c000     movff	0, 0xfe5           	MOVFF	r0x00, POSTDEC1
0035a2   ffe5
0035a4   c001     movff	0x1, 0xfe5         	MOVFF	r0x01, POSTDEC1
0035a6   ffe5
0035a8   c002     movff	0x2, 0xfe5         	MOVFF	r0x02, POSTDEC1
0035aa   ffe5
0035ac   c003     movff	0x3, 0xfe5         	MOVFF	r0x03, POSTDEC1
0035ae   ffe5
0035b0   c004     movff	0x4, 0xfe5         	MOVFF	r0x04, POSTDEC1
0035b2   ffe5
0035b4   c005     movff	0x5, 0xfe5         	MOVFF	r0x05, POSTDEC1
0035b6   ffe5
0035b8   0e02     movlw	0x2                	MOVLW	0x02
0035ba   cfdb     movff	0xfdb, 0           	MOVFF	PLUSW2, r0x00
0035bc   f000
0035be   0e03     movlw	0x3                	MOVLW	0x03
0035c0   cfdb     movff	0xfdb, 0x1         	MOVFF	PLUSW2, r0x01
0035c2   f001
0035c4   0e04     movlw	0x4                	MOVLW	0x04
0035c6   cfdb     movff	0xfdb, 0x2         	MOVFF	PLUSW2, r0x02
0035c8   f002
                                           ;	.line	213; /home/regis/Hobbies/Electronique/Projets/PinguinoIDE/X/branches/linux/tools/p8/bin/../share/sdcc/include/pic16/pinguinoi2c.c	if (DeviceID > 0x00FF)
0035ca   0e01     movlw	0x1                	MOVLW	0x01
0035cc   5c01     subwf	0x1, 0, 0          	SUBWF	r0x01, W
0035ce   e102     bnz	0x35d4               	BNZ	_00292_DS_
0035d0   0e00     movlw	0                  	MOVLW	0x00
0035d2   5c00     subwf	0, 0, 0            	SUBWF	r0x00, W
                                           _00292_DS_:
0035d4   e328     bnc	0x3626               	BNC	_00284_DS_
                                           ;	.line	215; /home/regis/Hobbies/Electronique/Projets/PinguinoIDE/X/branches/linux/tools/p8/bin/../share/sdcc/include/pic16/pinguinoi2c.c	temp = (DeviceID >> 7) & 0x06;	// set A9 and A8 to temp.bit2 and temp.bit1
0035d6   3400     rlcf	0, 0, 0             	RLCF	r0x00, W
0035d8   3401     rlcf	0x1, 0, 0           	RLCF	r0x01, W
0035da   6e03     movwf	0x3, 0             	MOVWF	r0x03
0035dc   0e06     movlw	0x6                	MOVLW	0x06
0035de   1603     andwf	0x3, 0x1, 0        	ANDWF	r0x03, F
                                           ;	.line	216; /home/regis/Hobbies/Electronique/Projets/PinguinoIDE/X/branches/linux/tools/p8/bin/../share/sdcc/include/pic16/pinguinoi2c.c	temp = temp | 0xF0 | r_w;			// set DeviceID address Hi format = 11110(A9A8)(R/W)
0035e0   0ef0     movlw	0xf0               	MOVLW	0xf0
0035e2   1003     iorwf	0x3, 0, 0          	IORWF	r0x03, W
                                           ; #	MOVWF	r0x04
                                           ; #	MOVF	r0x02, W
                                           ; #	IORWF	r0x04, W
0035e4   1002     iorwf	0x2, 0, 0          	IORWF	r0x02, W
0035e6   6e03     movwf	0x3, 0             	MOVWF	r0x03
                                           ;	.line	217; /home/regis/Hobbies/Electronique/Projets/PinguinoIDE/X/branches/linux/tools/p8/bin/../share/sdcc/include/pic16/pinguinoi2c.c	I2C_start();
0035e8   ec33     call	0x4466, 0           	CALL	_I2C_start
0035ea   f022
                                           ;	.line	218; /home/regis/Hobbies/Electronique/Projets/PinguinoIDE/X/branches/linux/tools/p8/bin/../share/sdcc/include/pic16/pinguinoi2c.c	if (I2C_writechar(temp) != 1)
0035ec   5003     movf	0x3, 0, 0           	MOVF	r0x03, W
0035ee   6ee5     movwf	0xe5, 0            	MOVWF	POSTDEC1
0035f0   ecda     call	0x41b4, 0           	CALL	_I2C_writechar
0035f2   f020
0035f4   2ae1     incf	0xe1, 0x1, 0        	INCF	FSR1L, F
0035f6   0a01     xorlw	0x1                	XORLW	0x01
0035f8   e02c     bz	0x3652                	BZ	_00286_DS_
                                           _00273_DS_:
                                           ;	.line	221; /home/regis/Hobbies/Electronique/Projets/PinguinoIDE/X/branches/linux/tools/p8/bin/../share/sdcc/include/pic16/pinguinoi2c.c	I2C_restart();
0035fa   ecfc     call	0x3ff8, 0           	CALL	_I2C_restart
0035fc   f01f
                                           ;	.line	222; /home/regis/Hobbies/Electronique/Projets/PinguinoIDE/X/branches/linux/tools/p8/bin/../share/sdcc/include/pic16/pinguinoi2c.c	} while ( I2C_writechar(temp) != 1);
0035fe   5003     movf	0x3, 0, 0           	MOVF	r0x03, W
003600   6ee5     movwf	0xe5, 0            	MOVWF	POSTDEC1
003602   ecda     call	0x41b4, 0           	CALL	_I2C_writechar
003604   f020
003606   2ae1     incf	0xe1, 0x1, 0        	INCF	FSR1L, F
003608   0a01     xorlw	0x1                	XORLW	0x01
00360a   e1f7     bnz	0x35fa               	BNZ	_00273_DS_
                                           ;	.line	223; /home/regis/Hobbies/Electronique/Projets/PinguinoIDE/X/branches/linux/tools/p8/bin/../share/sdcc/include/pic16/pinguinoi2c.c	temp = (DeviceID << 1 & 0xFE) | r_w;
00360c   5000     movf	0, 0, 0             	MOVF	r0x00, W
00360e   6e04     movwf	0x4, 0             	MOVWF	r0x04
003610   4404     rlncf	0x4, 0, 0          	RLNCF	r0x04, W
003612   0bfe     andlw	0xfe               	ANDLW	0xfe
003614   6e05     movwf	0x5, 0             	MOVWF	r0x05
003616   0efe     movlw	0xfe               	MOVLW	0xfe
003618   1405     andwf	0x5, 0, 0          	ANDWF	r0x05, W
                                           ; #	MOVWF	r0x04
                                           ; #	MOVF	r0x02, W
                                           ; #	IORWF	r0x04, W
00361a   1002     iorwf	0x2, 0, 0          	IORWF	r0x02, W
                                           ; #	MOVWF	r0x03
                                           ; #	MOVF	r0x03, W
                                           ;	.line	224; /home/regis/Hobbies/Electronique/Projets/PinguinoIDE/X/branches/linux/tools/p8/bin/../share/sdcc/include/pic16/pinguinoi2c.c	I2C_writechar(temp);
00361c   6ee5     movwf	0xe5, 0            	MOVWF	POSTDEC1
00361e   ecda     call	0x41b4, 0           	CALL	_I2C_writechar
003620   f020
003622   2ae1     incf	0xe1, 0x1, 0        	INCF	FSR1L, F
003624   d016     bra	0x3652               	BRA	_00286_DS_
                                           _00284_DS_:
                                           ;	.line	230; /home/regis/Hobbies/Electronique/Projets/PinguinoIDE/X/branches/linux/tools/p8/bin/../share/sdcc/include/pic16/pinguinoi2c.c	temp = DeviceID;// << 1 & 0b11111110;
003626   5000     movf	0, 0, 0             	MOVF	r0x00, W
003628   6e03     movwf	0x3, 0             	MOVWF	r0x03
                                           ;	.line	231; /home/regis/Hobbies/Electronique/Projets/PinguinoIDE/X/branches/linux/tools/p8/bin/../share/sdcc/include/pic16/pinguinoi2c.c	temp = temp | r_w;
00362a   5002     movf	0x2, 0, 0           	MOVF	r0x02, W
00362c   1203     iorwf	0x3, 0x1, 0        	IORWF	r0x03, F
                                           ;	.line	232; /home/regis/Hobbies/Electronique/Projets/PinguinoIDE/X/branches/linux/tools/p8/bin/../share/sdcc/include/pic16/pinguinoi2c.c	I2C_start();
00362e   ec33     call	0x4466, 0           	CALL	_I2C_start
003630   f022
                                           ;	.line	233; /home/regis/Hobbies/Electronique/Projets/PinguinoIDE/X/branches/linux/tools/p8/bin/../share/sdcc/include/pic16/pinguinoi2c.c	if (I2C_writechar(temp) != 1)
003632   5003     movf	0x3, 0, 0           	MOVF	r0x03, W
003634   6ee5     movwf	0xe5, 0            	MOVWF	POSTDEC1
003636   ecda     call	0x41b4, 0           	CALL	_I2C_writechar
003638   f020
00363a   2ae1     incf	0xe1, 0x1, 0        	INCF	FSR1L, F
00363c   0a01     xorlw	0x1                	XORLW	0x01
00363e   e009     bz	0x3652                	BZ	_00286_DS_
                                           _00278_DS_:
                                           ;	.line	236; /home/regis/Hobbies/Electronique/Projets/PinguinoIDE/X/branches/linux/tools/p8/bin/../share/sdcc/include/pic16/pinguinoi2c.c	I2C_restart();
003640   ecfc     call	0x3ff8, 0           	CALL	_I2C_restart
003642   f01f
                                           ;	.line	237; /home/regis/Hobbies/Electronique/Projets/PinguinoIDE/X/branches/linux/tools/p8/bin/../share/sdcc/include/pic16/pinguinoi2c.c	} while (I2C_writechar(temp) != 1);
003644   5003     movf	0x3, 0, 0           	MOVF	r0x03, W
003646   6ee5     movwf	0xe5, 0            	MOVWF	POSTDEC1
003648   ecda     call	0x41b4, 0           	CALL	_I2C_writechar
00364a   f020
00364c   2ae1     incf	0xe1, 0x1, 0        	INCF	FSR1L, F
00364e   0a01     xorlw	0x1                	XORLW	0x01
003650   e1f7     bnz	0x3640               	BNZ	_00278_DS_
                                           _00286_DS_:
003652   cfe4     movff	0xfe4, 0x5         	MOVFF	PREINC1, r0x05
003654   f005
003656   cfe4     movff	0xfe4, 0x4         	MOVFF	PREINC1, r0x04
003658   f004
00365a   cfe4     movff	0xfe4, 0x3         	MOVFF	PREINC1, r0x03
00365c   f003
00365e   cfe4     movff	0xfe4, 0x2         	MOVFF	PREINC1, r0x02
003660   f002
003662   cfe4     movff	0xfe4, 0x1         	MOVFF	PREINC1, r0x01
003664   f001
003666   cfe4     movff	0xfe4, 0           	MOVFF	PREINC1, r0x00
003668   f000
00366a   cfe4     movff	0xfe4, 0xfd9       	MOVFF	PREINC1, FSR2L
00366c   ffd9
00366e   0012     return	0                 	RETURN	
                                           
                                           ; ; Starting pCode block
                                           S_main__I2C_get	code
                                           _I2C_get:
                                           ;	.line	178; /home/regis/Hobbies/Electronique/Projets/PinguinoIDE/X/branches/linux/tools/p8/bin/../share/sdcc/include/pic16/pinguinoi2c.c	u8 I2C_get(u8 address)
004138   cfd9     movff	0xfd9, 0xfe5       	MOVFF	FSR2L, POSTDEC1
00413a   ffe5
00413c   cfe1     movff	0xfe1, 0xfd9       	MOVFF	FSR1L, FSR2L
00413e   ffd9
004140   c000     movff	0, 0xfe5           	MOVFF	r0x00, POSTDEC1
004142   ffe5
004144   0e02     movlw	0x2                	MOVLW	0x02
004146   cfdb     movff	0xfdb, 0           	MOVFF	PLUSW2, r0x00
004148   f000
                                           ;	.line	182; /home/regis/Hobbies/Electronique/Projets/PinguinoIDE/X/branches/linux/tools/p8/bin/../share/sdcc/include/pic16/pinguinoi2c.c	I2C_sendID(address, I2C_READ);
00414a   0e01     movlw	0x1                	MOVLW	0x01
00414c   6ee5     movwf	0xe5, 0            	MOVWF	POSTDEC1
00414e   6ae5     clrf	0xe5, 0             	CLRF	POSTDEC1
004150   5000     movf	0, 0, 0             	MOVF	r0x00, W
004152   6ee5     movwf	0xe5, 0            	MOVWF	POSTDEC1
004154   eccc     call	0x3598, 0           	CALL	_I2C_sendID
004156   f01a
004158   0e03     movlw	0x3                	MOVLW	0x03
00415a   26e1     addwf	0xe1, 0x1, 0       	ADDWF	FSR1L, F
                                           ;	.line	183; /home/regis/Hobbies/Electronique/Projets/PinguinoIDE/X/branches/linux/tools/p8/bin/../share/sdcc/include/pic16/pinguinoi2c.c	byte = I2C_readchar();
00415c   ec2a     call	0x4454, 0           	CALL	_I2C_readchar
00415e   f022
004160   6e00     movwf	0, 0               	MOVWF	r0x00
                                           ;	.line	184; /home/regis/Hobbies/Electronique/Projets/PinguinoIDE/X/branches/linux/tools/p8/bin/../share/sdcc/include/pic16/pinguinoi2c.c	I2C_sendNack();
004162   ec25     call	0x444a, 0           	CALL	_I2C_sendNack
004164   f022
                                           ;	.line	185; /home/regis/Hobbies/Electronique/Projets/PinguinoIDE/X/branches/linux/tools/p8/bin/../share/sdcc/include/pic16/pinguinoi2c.c	I2C_stop();
004166   ec2f     call	0x445e, 0           	CALL	_I2C_stop
004168   f022
                                           ;	.line	186; /home/regis/Hobbies/Electronique/Projets/PinguinoIDE/X/branches/linux/tools/p8/bin/../share/sdcc/include/pic16/pinguinoi2c.c	return (byte);
00416a   5000     movf	0, 0, 0             	MOVF	r0x00, W
00416c   cfe4     movff	0xfe4, 0           	MOVFF	PREINC1, r0x00
00416e   f000
004170   cfe4     movff	0xfe4, 0xfd9       	MOVFF	PREINC1, FSR2L
004172   ffd9
004174   0012     return	0                 	RETURN	
                                           
                                           ; ; Starting pCode block
                                           S_main__I2C_send	code
                                           _I2C_send:
                                           ;	.line	165; /home/regis/Hobbies/Electronique/Projets/PinguinoIDE/X/branches/linux/tools/p8/bin/../share/sdcc/include/pic16/pinguinoi2c.c	u8 I2C_send(u8 address, u8 byte)
00404e   cfd9     movff	0xfd9, 0xfe5       	MOVFF	FSR2L, POSTDEC1
004050   ffe5
004052   cfe1     movff	0xfe1, 0xfd9       	MOVFF	FSR1L, FSR2L
004054   ffd9
004056   c000     movff	0, 0xfe5           	MOVFF	r0x00, POSTDEC1
004058   ffe5
00405a   c001     movff	0x1, 0xfe5         	MOVFF	r0x01, POSTDEC1
00405c   ffe5
00405e   0e02     movlw	0x2                	MOVLW	0x02
004060   cfdb     movff	0xfdb, 0           	MOVFF	PLUSW2, r0x00
004062   f000
004064   0e03     movlw	0x3                	MOVLW	0x03
004066   cfdb     movff	0xfdb, 0x1         	MOVFF	PLUSW2, r0x01
004068   f001
                                           ;	.line	167; /home/regis/Hobbies/Electronique/Projets/PinguinoIDE/X/branches/linux/tools/p8/bin/../share/sdcc/include/pic16/pinguinoi2c.c	I2C_sendID(address, I2C_WRITE);
00406a   6ae5     clrf	0xe5, 0             	CLRF	POSTDEC1
00406c   6ae5     clrf	0xe5, 0             	CLRF	POSTDEC1
00406e   5000     movf	0, 0, 0             	MOVF	r0x00, W
004070   6ee5     movwf	0xe5, 0            	MOVWF	POSTDEC1
004072   eccc     call	0x3598, 0           	CALL	_I2C_sendID
004074   f01a
004076   0e03     movlw	0x3                	MOVLW	0x03
004078   26e1     addwf	0xe1, 0x1, 0       	ADDWF	FSR1L, F
                                           ;	.line	168; /home/regis/Hobbies/Electronique/Projets/PinguinoIDE/X/branches/linux/tools/p8/bin/../share/sdcc/include/pic16/pinguinoi2c.c	if (I2C_writechar(byte) == 0) return (0);
00407a   5001     movf	0x1, 0, 0           	MOVF	r0x01, W
00407c   6ee5     movwf	0xe5, 0            	MOVWF	POSTDEC1
00407e   ecda     call	0x41b4, 0           	CALL	_I2C_writechar
004080   f020
004082   6e00     movwf	0, 0               	MOVWF	r0x00
004084   2ae1     incf	0xe1, 0x1, 0        	INCF	FSR1L, F
004086   5000     movf	0, 0, 0             	MOVF	r0x00, W
004088   e102     bnz	0x408e               	BNZ	_00262_DS_
00408a   6ae8     clrf	0xe8, 0             	CLRF	WREG
00408c   d003     bra	0x4094               	BRA	_00263_DS_
                                           _00262_DS_:
                                           ;	.line	169; /home/regis/Hobbies/Electronique/Projets/PinguinoIDE/X/branches/linux/tools/p8/bin/../share/sdcc/include/pic16/pinguinoi2c.c	I2C_stop();
00408e   ec2f     call	0x445e, 0           	CALL	_I2C_stop
004090   f022
                                           ;	.line	170; /home/regis/Hobbies/Electronique/Projets/PinguinoIDE/X/branches/linux/tools/p8/bin/../share/sdcc/include/pic16/pinguinoi2c.c	return (1);
004092   0e01     movlw	0x1                	MOVLW	0x01
                                           _00263_DS_:
004094   cfe4     movff	0xfe4, 0x1         	MOVFF	PREINC1, r0x01
004096   f001
004098   cfe4     movff	0xfe4, 0           	MOVFF	PREINC1, r0x00
00409a   f000
00409c   cfe4     movff	0xfe4, 0xfd9       	MOVFF	PREINC1, FSR2L
00409e   ffd9
0040a0   0012     return	0                 	RETURN	
                                           
                                           ; ; Starting pCode block
                                           S_main__I2C_init	code
                                           _I2C_init:
                                           ;	.line	118; /home/regis/Hobbies/Electronique/Projets/PinguinoIDE/X/branches/linux/tools/p8/bin/../share/sdcc/include/pic16/pinguinoi2c.c	void I2C_init(u8 mode, u16 sspadd)
003da4   cfd9     movff	0xfd9, 0xfe5       	MOVFF	FSR2L, POSTDEC1
003da6   ffe5
003da8   cfe1     movff	0xfe1, 0xfd9       	MOVFF	FSR1L, FSR2L
003daa   ffd9
003dac   c000     movff	0, 0xfe5           	MOVFF	r0x00, POSTDEC1
003dae   ffe5
003db0   c001     movff	0x1, 0xfe5         	MOVFF	r0x01, POSTDEC1
003db2   ffe5
003db4   c002     movff	0x2, 0xfe5         	MOVFF	r0x02, POSTDEC1
003db6   ffe5
003db8   0e02     movlw	0x2                	MOVLW	0x02
003dba   cfdb     movff	0xfdb, 0           	MOVFF	PLUSW2, r0x00
003dbc   f000
003dbe   0e03     movlw	0x3                	MOVLW	0x03
003dc0   cfdb     movff	0xfdb, 0x1         	MOVFF	PLUSW2, r0x01
003dc2   f001
003dc4   0e04     movlw	0x4                	MOVLW	0x04
003dc6   cfdb     movff	0xfdb, 0x2         	MOVFF	PLUSW2, r0x02
003dc8   f002
                                           ;	.line	121; /home/regis/Hobbies/Electronique/Projets/PinguinoIDE/X/branches/linux/tools/p8/bin/../share/sdcc/include/pic16/pinguinoi2c.c	TRISBbits.TRISB0 = INPUT;			// SDA = INPUT
003dca   8093     bsf	0x93, 0, 0           	BSF	_TRISBbits, 0
                                           ;	.line	122; /home/regis/Hobbies/Electronique/Projets/PinguinoIDE/X/branches/linux/tools/p8/bin/../share/sdcc/include/pic16/pinguinoi2c.c	TRISBbits.TRISB1 = INPUT;			// SCL = INPUT
003dcc   8293     bsf	0x93, 0x1, 0         	BSF	_TRISBbits, 1
                                           ;	.line	123; /home/regis/Hobbies/Electronique/Projets/PinguinoIDE/X/branches/linux/tools/p8/bin/../share/sdcc/include/pic16/pinguinoi2c.c	switch (mode)
003dce   5000     movf	0, 0, 0             	MOVF	r0x00, W
003dd0   e00d     bz	0x3dec                	BZ	_00237_DS_
003dd2   5000     movf	0, 0, 0             	MOVF	r0x00, W
003dd4   0a01     xorlw	0x1                	XORLW	0x01
003dd6   e10a     bnz	0x3dec               	BNZ	_00237_DS_
                                           ;	.line	126; /home/regis/Hobbies/Electronique/Projets/PinguinoIDE/X/branches/linux/tools/p8/bin/../share/sdcc/include/pic16/pinguinoi2c.c	intUsed[INT_SSP] = INT_USED;
003dd8   0e01     movlw	0x1                	MOVLW	0x01
003dda   0102     movlb	0x2                	BANKSEL	(_intUsed + 19)
003ddc   6f4f     movwf	0x4f, 0x1          	MOVWF	(_intUsed + 19), B
                                           ;	.line	128; /home/regis/Hobbies/Electronique/Projets/PinguinoIDE/X/branches/linux/tools/p8/bin/../share/sdcc/include/pic16/pinguinoi2c.c	INTCONbits.PEIE=1;
003dde   8cf2     bsf	0xf2, 0x6, 0         	BSF	_INTCONbits, 6
                                           ;	.line	129; /home/regis/Hobbies/Electronique/Projets/PinguinoIDE/X/branches/linux/tools/p8/bin/../share/sdcc/include/pic16/pinguinoi2c.c	INTCONbits.GIE=1;
003de0   8ef2     bsf	0xf2, 0x7, 0         	BSF	_INTCONbits, 7
                                           ;	.line	130; /home/regis/Hobbies/Electronique/Projets/PinguinoIDE/X/branches/linux/tools/p8/bin/../share/sdcc/include/pic16/pinguinoi2c.c	SSPCON1 = 0b00101110;		// Slave mode,  7-bit address with Start and Stop bit interrupts enabled
003de2   0e2e     movlw	0x2e               	MOVLW	0x2e
003de4   6ec6     movwf	0xc6, 0            	MOVWF	_SSPCON1
                                           ;	.line	133; /home/regis/Hobbies/Electronique/Projets/PinguinoIDE/X/branches/linux/tools/p8/bin/../share/sdcc/include/pic16/pinguinoi2c.c	SSPADD = sspadd;				// Slave 7-bit address
003de6   5001     movf	0x1, 0, 0           	MOVF	r0x01, W
003de8   6ec8     movwf	0xc8, 0            	MOVWF	_SSPADD
                                           ;	.line	136; /home/regis/Hobbies/Electronique/Projets/PinguinoIDE/X/branches/linux/tools/p8/bin/../share/sdcc/include/pic16/pinguinoi2c.c	break;
003dea   d013     bra	0x3e12               	BRA	_00242_DS_
                                           _00237_DS_:
                                           ;	.line	139; /home/regis/Hobbies/Electronique/Projets/PinguinoIDE/X/branches/linux/tools/p8/bin/../share/sdcc/include/pic16/pinguinoi2c.c	SSPCON1 = 0b00101000;		// Master Mode, clock = FOSC/(4 * (SSPADD + 1))
003dec   0e28     movlw	0x28               	MOVLW	0x28
003dee   6ec6     movwf	0xc6, 0            	MOVWF	_SSPCON1
                                           ;	.line	141; /home/regis/Hobbies/Electronique/Projets/PinguinoIDE/X/branches/linux/tools/p8/bin/../share/sdcc/include/pic16/pinguinoi2c.c	switch (sspadd)
003df0   5001     movf	0x1, 0, 0           	MOVF	r0x01, W
003df2   e102     bnz	0x3df8               	BNZ	_00254_DS_
003df4   5002     movf	0x2, 0, 0           	MOVF	r0x02, W
003df6   e009     bz	0x3e0a                	BZ	_00240_DS_
                                           _00254_DS_:
003df8   5001     movf	0x1, 0, 0           	MOVF	r0x01, W
003dfa   0a01     xorlw	0x1                	XORLW	0x01
003dfc   e102     bnz	0x3e02               	BNZ	_00255_DS_
003dfe   5002     movf	0x2, 0, 0           	MOVF	r0x02, W
003e00   e001     bz	0x3e04                	BZ	_00256_DS_
                                           _00255_DS_:
003e02   d003     bra	0x3e0a               	BRA	_00240_DS_
                                           _00256_DS_:
                                           ;	.line	145; /home/regis/Hobbies/Electronique/Projets/PinguinoIDE/X/branches/linux/tools/p8/bin/../share/sdcc/include/pic16/pinguinoi2c.c	SSPSTAT = 0b00000000;		// Slew Mode On
003e04   6ac7     clrf	0xc7, 0             	CLRF	_SSPSTAT
                                           ;	.line	146; /home/regis/Hobbies/Electronique/Projets/PinguinoIDE/X/branches/linux/tools/p8/bin/../share/sdcc/include/pic16/pinguinoi2c.c	SSPADD = 29;					// 400kHz = FOSC/(4 * (SSPADD + 1))
003e06   0e1d     movlw	0x1d               	MOVLW	0x1d
003e08   6ec8     movwf	0xc8, 0            	MOVWF	_SSPADD
                                           _00240_DS_:
                                           ;	.line	150; /home/regis/Hobbies/Electronique/Projets/PinguinoIDE/X/branches/linux/tools/p8/bin/../share/sdcc/include/pic16/pinguinoi2c.c	SSPSTAT = 0b10000000;		// Slew Mode Off
003e0a   0e80     movlw	0x80               	MOVLW	0x80
003e0c   6ec7     movwf	0xc7, 0            	MOVWF	_SSPSTAT
                                           ;	.line	151; /home/regis/Hobbies/Electronique/Projets/PinguinoIDE/X/branches/linux/tools/p8/bin/../share/sdcc/include/pic16/pinguinoi2c.c	SSPADD = 119;					// 100kHz = FOSC/(4 * (SSPADD + 1))
003e0e   0e77     movlw	0x77               	MOVLW	0x77
003e10   6ec8     movwf	0xc8, 0            	MOVWF	_SSPADD
                                           _00242_DS_:
                                           ;	.line	155; /home/regis/Hobbies/Electronique/Projets/PinguinoIDE/X/branches/linux/tools/p8/bin/../share/sdcc/include/pic16/pinguinoi2c.c	SSPCON2 = 0;
003e12   6ac5     clrf	0xc5, 0             	CLRF	_SSPCON2
                                           ;	.line	156; /home/regis/Hobbies/Electronique/Projets/PinguinoIDE/X/branches/linux/tools/p8/bin/../share/sdcc/include/pic16/pinguinoi2c.c	PIR1bits.SSPIF = 0;
003e14   969e     bcf	0x9e, 0x3, 0         	BCF	_PIR1bits, 3
                                           ;	.line	157; /home/regis/Hobbies/Electronique/Projets/PinguinoIDE/X/branches/linux/tools/p8/bin/../share/sdcc/include/pic16/pinguinoi2c.c	PIR2bits.BCLIF = 0;
003e16   96a1     bcf	0xa1, 0x3, 0         	BCF	_PIR2bits, 3
003e18   cfe4     movff	0xfe4, 0x2         	MOVFF	PREINC1, r0x02
003e1a   f002
003e1c   cfe4     movff	0xfe4, 0x1         	MOVFF	PREINC1, r0x01
003e1e   f001
003e20   cfe4     movff	0xfe4, 0           	MOVFF	PREINC1, r0x00
003e22   f000
003e24   cfe4     movff	0xfe4, 0xfd9       	MOVFF	PREINC1, FSR2L
003e26   ffd9
003e28   0012     return	0                 	RETURN	
                                           
                                           ; ; Starting pCode block
                                           S_main__I2C_slave	code
                                           _I2C_slave:
                                           ;	.line	102; /home/regis/Hobbies/Electronique/Projets/PinguinoIDE/X/branches/linux/tools/p8/bin/../share/sdcc/include/pic16/pinguinoi2c.c	void I2C_slave(u16 DeviceID)   
004176   cfd9     movff	0xfd9, 0xfe5       	MOVFF	FSR2L, POSTDEC1
004178   ffe5
00417a   cfe1     movff	0xfe1, 0xfd9       	MOVFF	FSR1L, FSR2L
00417c   ffd9
00417e   c000     movff	0, 0xfe5           	MOVFF	r0x00, POSTDEC1
004180   ffe5
004182   c001     movff	0x1, 0xfe5         	MOVFF	r0x01, POSTDEC1
004184   ffe5
004186   0e02     movlw	0x2                	MOVLW	0x02
004188   cfdb     movff	0xfdb, 0           	MOVFF	PLUSW2, r0x00
00418a   f000
00418c   0e03     movlw	0x3                	MOVLW	0x03
00418e   cfdb     movff	0xfdb, 0x1         	MOVFF	PLUSW2, r0x01
004190   f001
                                           ;	.line	104; /home/regis/Hobbies/Electronique/Projets/PinguinoIDE/X/branches/linux/tools/p8/bin/../share/sdcc/include/pic16/pinguinoi2c.c	I2C_init(I2C_SLAVE_MODE, DeviceID);
004192   5001     movf	0x1, 0, 0           	MOVF	r0x01, W
004194   6ee5     movwf	0xe5, 0            	MOVWF	POSTDEC1
004196   5000     movf	0, 0, 0             	MOVF	r0x00, W
004198   6ee5     movwf	0xe5, 0            	MOVWF	POSTDEC1
00419a   0e01     movlw	0x1                	MOVLW	0x01
00419c   6ee5     movwf	0xe5, 0            	MOVWF	POSTDEC1
00419e   ecd2     call	0x3da4, 0           	CALL	_I2C_init
0041a0   f01e
0041a2   0e03     movlw	0x3                	MOVLW	0x03
0041a4   26e1     addwf	0xe1, 0x1, 0       	ADDWF	FSR1L, F
0041a6   cfe4     movff	0xfe4, 0x1         	MOVFF	PREINC1, r0x01
0041a8   f001
0041aa   cfe4     movff	0xfe4, 0           	MOVFF	PREINC1, r0x00
0041ac   f000
0041ae   cfe4     movff	0xfe4, 0xfd9       	MOVFF	PREINC1, FSR2L
0041b0   ffd9
0041b2   0012     return	0                 	RETURN	
                                           
                                           ; ; Starting pCode block
                                           S_main__I2C_master	code
                                           _I2C_master:
                                           ;	.line	99; /home/regis/Hobbies/Electronique/Projets/PinguinoIDE/X/branches/linux/tools/p8/bin/../share/sdcc/include/pic16/pinguinoi2c.c	I2C_init(I2C_MASTER_MODE, I2C_SLEW_OFF);
004354   0e00     movlw	0                  	MOVLW	0x00
004356   6ae5     clrf	0xe5, 0             	CLRF	POSTDEC1
004358   6ae5     clrf	0xe5, 0             	CLRF	POSTDEC1
00435a   6ae5     clrf	0xe5, 0             	CLRF	POSTDEC1
00435c   ecd2     call	0x3da4, 0           	CALL	_I2C_init
00435e   f01e
004360   0e03     movlw	0x3                	MOVLW	0x03
004362   26e1     addwf	0xe1, 0x1, 0       	ADDWF	FSR1L, F
004364   0012     return	0                 	RETURN	
                                           
                                           ; ; Starting pCode block
                                           S_main__userinterrupt	code
                                           _userinterrupt:
                                           ;	.line	967; /home/regis/Hobbies/Electronique/Projets/PinguinoIDE/X/branches/linux/tools/p8/bin/../share/sdcc/include/pic16/interrupt.c	void userinterrupt()
003b54   c000     movff	0, 0xfe5           	MOVFF	r0x00, POSTDEC1
003b56   ffe5
003b58   c001     movff	0x1, 0xfe5         	MOVFF	r0x01, POSTDEC1
003b5a   ffe5
003b5c   c002     movff	0x2, 0xfe5         	MOVFF	r0x02, POSTDEC1
003b5e   ffe5
003b60   c003     movff	0x3, 0xfe5         	MOVFF	r0x03, POSTDEC1
003b62   ffe5
                                           ;	.line	991; /home/regis/Hobbies/Electronique/Projets/PinguinoIDE/X/branches/linux/tools/p8/bin/../share/sdcc/include/pic16/interrupt.c	if (INTCONbits.TMR0IE && INTCONbits.TMR0IF)
003b64   aaf2     btfss	0xf2, 0x5, 0       	BTFSS	_INTCONbits, 5
003b66   d039     bra	0x3bda               	BRA	_00212_DS_
003b68   a4f2     btfss	0xf2, 0x2, 0       	BTFSS	_INTCONbits, 2
003b6a   d037     bra	0x3bda               	BRA	_00212_DS_
                                           ;	.line	993; /home/regis/Hobbies/Electronique/Projets/PinguinoIDE/X/branches/linux/tools/p8/bin/../share/sdcc/include/pic16/interrupt.c	T0CONbits.TMR0ON = OFF;
003b6c   9ed5     bcf	0xd5, 0x7, 0         	BCF	_T0CONbits, 7
                                           ;	.line	994; /home/regis/Hobbies/Electronique/Projets/PinguinoIDE/X/branches/linux/tools/p8/bin/../share/sdcc/include/pic16/interrupt.c	TMR0H = preloadH[INT_TMR0];
003b6e   c281     movff	0x281, 0xfd7       	MOVFF	_preloadH, _TMR0H
003b70   ffd7
                                           ;	.line	995; /home/regis/Hobbies/Electronique/Projets/PinguinoIDE/X/branches/linux/tools/p8/bin/../share/sdcc/include/pic16/interrupt.c	TMR0L = preloadL[INT_TMR0];
003b72   c285     movff	0x285, 0xfd6       	MOVFF	_preloadL, _TMR0L
003b74   ffd6
                                           ;	.line	996; /home/regis/Hobbies/Electronique/Projets/PinguinoIDE/X/branches/linux/tools/p8/bin/../share/sdcc/include/pic16/interrupt.c	INTCONbits.TMR0IF = 0;
003b76   94f2     bcf	0xf2, 0x2, 0         	BCF	_INTCONbits, 2
                                           ;	.line	997; /home/regis/Hobbies/Electronique/Projets/PinguinoIDE/X/branches/linux/tools/p8/bin/../share/sdcc/include/pic16/interrupt.c	if (intCount[INT_TMR0]++ >= intCountLimit[INT_TMR0])
003b78   c25c     movff	0x25c, 0           	MOVFF	_intCount, r0x00
003b7a   f000
003b7c   c25d     movff	0x25d, 0x1         	MOVFF	(_intCount + 1), r0x01
003b7e   f001
003b80   5000     movf	0, 0, 0             	MOVF	r0x00, W
003b82   0f01     addlw	0x1                	ADDLW	0x01
003b84   6e02     movwf	0x2, 0             	MOVWF	r0x02
003b86   0e00     movlw	0                  	MOVLW	0x00
003b88   2001     addwfc	0x1, 0, 0         	ADDWFC	r0x01, W
003b8a   6e03     movwf	0x3, 0             	MOVWF	r0x03
003b8c   5002     movf	0x2, 0, 0           	MOVF	r0x02, W
003b8e   0102     movlb	0x2                	BANKSEL	_intCount
003b90   6f5c     movwf	0x5c, 0x1          	MOVWF	_intCount, B
003b92   5003     movf	0x3, 0, 0           	MOVF	r0x03, W
                                           ; removed redundant BANKSEL
003b94   6f5d     movwf	0x5d, 0x1          	MOVWF	(_intCount + 1), B
003b96   0102     movlb	0x2                	BANKSEL	(_intCountLimit + 1)
003b98   5165     movf	0x65, 0, 0x1        	MOVF	(_intCountLimit + 1), W, B
003b9a   5c01     subwf	0x1, 0, 0          	SUBWF	r0x01, W
003b9c   e102     bnz	0x3ba2               	BNZ	_00219_DS_
                                           ; removed redundant BANKSEL
003b9e   5164     movf	0x64, 0, 0x1        	MOVF	_intCountLimit, W, B
003ba0   5c00     subwf	0, 0, 0            	SUBWF	r0x00, W
                                           _00219_DS_:
003ba2   e31b     bnc	0x3bda               	BNC	_00212_DS_
003ba4   0102     movlb	0x2                	BANKSEL	_intCount
                                           ;	.line	999; /home/regis/Hobbies/Electronique/Projets/PinguinoIDE/X/branches/linux/tools/p8/bin/../share/sdcc/include/pic16/interrupt.c	intCount[INT_TMR0] = 0;
003ba6   6b5c     clrf	0x5c, 0x1           	CLRF	_intCount, B
                                           ; removed redundant BANKSEL
003ba8   6b5d     clrf	0x5d, 0x1           	CLRF	(_intCount + 1), B
                                           ;	.line	1000; /home/regis/Hobbies/Electronique/Projets/PinguinoIDE/X/branches/linux/tools/p8/bin/../share/sdcc/include/pic16/interrupt.c	intFunction[INT_TMR0]();
003baa   c200     movff	0x200, 0           	MOVFF	_intFunction, r0x00
003bac   f000
003bae   c201     movff	0x201, 0x1         	MOVFF	(_intFunction + 1), r0x01
003bb0   f001
003bb2   c202     movff	0x202, 0x2         	MOVFF	(_intFunction + 2), r0x02
003bb4   f002
003bb6   cff2     movff	0xff2, 0xfe5       	MOVFF	INTCON, POSTDEC1
003bb8   ffe5
003bba   9ef2     bcf	0xf2, 0x7, 0         	BCF	INTCON, 7
003bbc   0005     push                     	PUSH	
003bbe   0eda     movlw	0xda               	MOVLW	LOW(_00220_DS_)
003bc0   6efd     movwf	0xfd, 0            	MOVWF	TOSL
003bc2   0e3b     movlw	0x3b               	MOVLW	HIGH(_00220_DS_)
003bc4   6efe     movwf	0xfe, 0            	MOVWF	TOSH
003bc6   0e00     movlw	0                  	MOVLW	UPPER(_00220_DS_)
003bc8   6eff     movwf	0xff, 0            	MOVWF	TOSU
003bca   50e4     movf	0xe4, 0, 0          	MOVF	PREINC1, W
003bcc   6ef2     movwf	0xf2, 0            	MOVWF	INTCON
003bce   c002     movff	0x2, 0xffb         	MOVFF	r0x02, PCLATU
003bd0   fffb
003bd2   c001     movff	0x1, 0xffa         	MOVFF	r0x01, PCLATH
003bd4   fffa
003bd6   5000     movf	0, 0, 0             	MOVF	r0x00, W
003bd8   6ef9     movwf	0xf9, 0            	MOVWF	PCL
                                           _00220_DS_:
                                           _00212_DS_:
                                           ;	.line	1131; /home/regis/Hobbies/Electronique/Projets/PinguinoIDE/X/branches/linux/tools/p8/bin/../share/sdcc/include/pic16/interrupt.c	int_start();
003bda   ec3f     call	0x447e, 0           	CALL	_int_start
003bdc   f022
003bde   cfe4     movff	0xfe4, 0x3         	MOVFF	PREINC1, r0x03
003be0   f003
003be2   cfe4     movff	0xfe4, 0x2         	MOVFF	PREINC1, r0x02
003be4   f002
003be6   cfe4     movff	0xfe4, 0x1         	MOVFF	PREINC1, r0x01
003be8   f001
003bea   cfe4     movff	0xfe4, 0           	MOVFF	PREINC1, r0x00
003bec   f000
003bee   0012     return	0                 	RETURN	
                                           
                                           ; ; Starting pCode block
                                           S_main__userhighinterrupt	code
                                           _userhighinterrupt:
                                           ;	.line	957; /home/regis/Hobbies/Electronique/Projets/PinguinoIDE/X/branches/linux/tools/p8/bin/../share/sdcc/include/pic16/interrupt.c	}
00448e   0012     return	0                 	RETURN	
                                           
                                           ; ; Starting pCode block
                                           S_main__OnTimer0	code
                                           _OnTimer0:
                                           ;	.line	360; /home/regis/Hobbies/Electronique/Projets/PinguinoIDE/X/branches/linux/tools/p8/bin/../share/sdcc/include/pic16/interrupt.c	void OnTimer0(callback func, u8 timediv, u16 delay)
0030a4   cfd9     movff	0xfd9, 0xfe5       	MOVFF	FSR2L, POSTDEC1
0030a6   ffe5
0030a8   cfe1     movff	0xfe1, 0xfd9       	MOVFF	FSR1L, FSR2L
0030aa   ffd9
0030ac   c000     movff	0, 0xfe5           	MOVFF	r0x00, POSTDEC1
0030ae   ffe5
0030b0   c001     movff	0x1, 0xfe5         	MOVFF	r0x01, POSTDEC1
0030b2   ffe5
0030b4   c002     movff	0x2, 0xfe5         	MOVFF	r0x02, POSTDEC1
0030b6   ffe5
0030b8   c003     movff	0x3, 0xfe5         	MOVFF	r0x03, POSTDEC1
0030ba   ffe5
0030bc   c004     movff	0x4, 0xfe5         	MOVFF	r0x04, POSTDEC1
0030be   ffe5
0030c0   c005     movff	0x5, 0xfe5         	MOVFF	r0x05, POSTDEC1
0030c2   ffe5
0030c4   c006     movff	0x6, 0xfe5         	MOVFF	r0x06, POSTDEC1
0030c6   ffe5
0030c8   0e02     movlw	0x2                	MOVLW	0x02
0030ca   cfdb     movff	0xfdb, 0           	MOVFF	PLUSW2, r0x00
0030cc   f000
0030ce   0e03     movlw	0x3                	MOVLW	0x03
0030d0   cfdb     movff	0xfdb, 0x1         	MOVFF	PLUSW2, r0x01
0030d2   f001
0030d4   0e04     movlw	0x4                	MOVLW	0x04
0030d6   cfdb     movff	0xfdb, 0x2         	MOVFF	PLUSW2, r0x02
0030d8   f002
0030da   0e05     movlw	0x5                	MOVLW	0x05
0030dc   cfdb     movff	0xfdb, 0x3         	MOVFF	PLUSW2, r0x03
0030de   f003
0030e0   0e06     movlw	0x6                	MOVLW	0x06
0030e2   cfdb     movff	0xfdb, 0x4         	MOVFF	PLUSW2, r0x04
0030e4   f004
0030e6   0e07     movlw	0x7                	MOVLW	0x07
0030e8   cfdb     movff	0xfdb, 0x5         	MOVFF	PLUSW2, r0x05
0030ea   f005
                                           ;	.line	362; /home/regis/Hobbies/Electronique/Projets/PinguinoIDE/X/branches/linux/tools/p8/bin/../share/sdcc/include/pic16/interrupt.c	u8 _t0con = 0;
0030ec   6a06     clrf	0x6, 0              	CLRF	r0x06
0030ee   0102     movlb	0x2                	BANKSEL	_intUsed
                                           ;	.line	364; /home/regis/Hobbies/Electronique/Projets/PinguinoIDE/X/branches/linux/tools/p8/bin/../share/sdcc/include/pic16/interrupt.c	if (intUsed[INT_TMR0] == INT_NOT_USED)
0030f0   513c     movf	0x3c, 0, 0x1        	MOVF	_intUsed, W, B
0030f2   a4d8     btfss	0xd8, 0x2, 0       	BTFSS	STATUS, 2
0030f4   d05d     bra	0x31b0               	BRA	_00192_DS_
                                           ;	.line	366; /home/regis/Hobbies/Electronique/Projets/PinguinoIDE/X/branches/linux/tools/p8/bin/../share/sdcc/include/pic16/interrupt.c	intUsed[INT_TMR0] = INT_USED;
0030f6   0e01     movlw	0x1                	MOVLW	0x01
                                           ; removed redundant BANKSEL
0030f8   6f3c     movwf	0x3c, 0x1          	MOVWF	_intUsed, B
0030fa   0102     movlb	0x2                	BANKSEL	_intCount
                                           ;	.line	367; /home/regis/Hobbies/Electronique/Projets/PinguinoIDE/X/branches/linux/tools/p8/bin/../share/sdcc/include/pic16/interrupt.c	intCount[INT_TMR0] = 0;
0030fc   6b5c     clrf	0x5c, 0x1           	CLRF	_intCount, B
                                           ; removed redundant BANKSEL
0030fe   6b5d     clrf	0x5d, 0x1           	CLRF	(_intCount + 1), B
                                           ;	.line	368; /home/regis/Hobbies/Electronique/Projets/PinguinoIDE/X/branches/linux/tools/p8/bin/../share/sdcc/include/pic16/interrupt.c	intCountLimit[INT_TMR0] = delay;
003100   5004     movf	0x4, 0, 0           	MOVF	r0x04, W
003102   0102     movlb	0x2                	BANKSEL	_intCountLimit
003104   6f64     movwf	0x64, 0x1          	MOVWF	_intCountLimit, B
003106   5005     movf	0x5, 0, 0           	MOVF	r0x05, W
                                           ; removed redundant BANKSEL
003108   6f65     movwf	0x65, 0x1          	MOVWF	(_intCountLimit + 1), B
                                           ;	.line	369; /home/regis/Hobbies/Electronique/Projets/PinguinoIDE/X/branches/linux/tools/p8/bin/../share/sdcc/include/pic16/interrupt.c	intFunction[INT_TMR0] = func;
00310a   5000     movf	0, 0, 0             	MOVF	r0x00, W
00310c   0102     movlb	0x2                	BANKSEL	_intFunction
00310e   6f00     movwf	0, 0x1             	MOVWF	_intFunction, B
003110   5001     movf	0x1, 0, 0           	MOVF	r0x01, W
                                           ; removed redundant BANKSEL
003112   6f01     movwf	0x1, 0x1           	MOVWF	(_intFunction + 1), B
003114   5002     movf	0x2, 0, 0           	MOVF	r0x02, W
                                           ; removed redundant BANKSEL
003116   6f02     movwf	0x2, 0x1           	MOVWF	(_intFunction + 2), B
                                           ;	.line	371; /home/regis/Hobbies/Electronique/Projets/PinguinoIDE/X/branches/linux/tools/p8/bin/../share/sdcc/include/pic16/interrupt.c	switch(timediv)
003118   0e01     movlw	0x1                	MOVLW	0x01
00311a   5c03     subwf	0x3, 0, 0          	SUBWF	r0x03, W
00311c   a0d8     btfss	0xd8, 0, 0         	BTFSS	STATUS, 0
00311e   d03f     bra	0x319e               	BRA	_00189_DS_
003120   0e04     movlw	0x4                	MOVLW	0x04
003122   5c03     subwf	0x3, 0, 0          	SUBWF	r0x03, W
003124   b0d8     btfsc	0xd8, 0, 0         	BTFSC	STATUS, 0
003126   d03b     bra	0x319e               	BRA	_00189_DS_
003128   0603     decf	0x3, 0x1, 0         	DECF	r0x03, F
00312a   c007     movff	0x7, 0xfe5         	MOVFF	r0x07, POSTDEC1
00312c   ffe5
00312e   c008     movff	0x8, 0xfe5         	MOVFF	r0x08, POSTDEC1
003130   ffe5
003132   6a08     clrf	0x8, 0              	CLRF	r0x08
003134   3403     rlcf	0x3, 0, 0           	RLCF	r0x03, W
003136   3608     rlcf	0x8, 0x1, 0         	RLCF	r0x08, F
003138   34e8     rlcf	0xe8, 0, 0          	RLCF	WREG, W
00313a   3608     rlcf	0x8, 0x1, 0         	RLCF	r0x08, F
00313c   0bfc     andlw	0xfc               	ANDLW	0xfc
00313e   6e07     movwf	0x7, 0             	MOVWF	r0x07
003140   0e00     movlw	0                  	MOVLW	UPPER(_00199_DS_)
003142   6efb     movwf	0xfb, 0            	MOVWF	PCLATU
003144   0e31     movlw	0x31               	MOVLW	HIGH(_00199_DS_)
003146   6efa     movwf	0xfa, 0            	MOVWF	PCLATH
003148   0e60     movlw	0x60               	MOVLW	LOW(_00199_DS_)
00314a   2607     addwf	0x7, 0x1, 0        	ADDWF	r0x07, F
00314c   5008     movf	0x8, 0, 0           	MOVF	r0x08, W
00314e   22fa     addwfc	0xfa, 0x1, 0      	ADDWFC	PCLATH, F
003150   b0d8     btfsc	0xd8, 0, 0         	BTFSC	STATUS, 0
003152   2afb     incf	0xfb, 0x1, 0        	INCF	PCLATU, F
003154   5007     movf	0x7, 0, 0           	MOVF	r0x07, W
003156   cfe4     movff	0xfe4, 0x8         	MOVFF	PREINC1, r0x08
003158   f008
00315a   cfe4     movff	0xfe4, 0x7         	MOVFF	PREINC1, r0x07
00315c   f007
00315e   6ef9     movwf	0xf9, 0            	MOVWF	PCL
                                           _00199_DS_:
003160   efb6     goto	0x316c              	GOTO	_00186_DS_
003162   f018
003164   efbe     goto	0x317c              	GOTO	_00187_DS_
003166   f018
003168   efc7     goto	0x318e              	GOTO	_00188_DS_
00316a   f018
                                           _00186_DS_:
00316c   0102     movlb	0x2                	BANKSEL	_preloadH
                                           ;	.line	375; /home/regis/Hobbies/Electronique/Projets/PinguinoIDE/X/branches/linux/tools/p8/bin/../share/sdcc/include/pic16/interrupt.c	preloadH[INT_TMR0] = high8(0xFFFF - 12);
00316e   6981     setf	0x81, 0x1           	SETF	_preloadH, B
                                           ;	.line	376; /home/regis/Hobbies/Electronique/Projets/PinguinoIDE/X/branches/linux/tools/p8/bin/../share/sdcc/include/pic16/interrupt.c	preloadL[INT_TMR0] =  low8(0xFFFF - 12);
003170   0ef3     movlw	0xf3               	MOVLW	0xf3
003172   0102     movlb	0x2                	BANKSEL	_preloadL
003174   6f85     movwf	0x85, 0x1          	MOVWF	_preloadL, B
                                           ;	.line	377; /home/regis/Hobbies/Electronique/Projets/PinguinoIDE/X/branches/linux/tools/p8/bin/../share/sdcc/include/pic16/interrupt.c	_t0con = T0_OFF & T0_16BIT & T0_CLK & T0_PS_OFF;
003176   0e1f     movlw	0x1f               	MOVLW	0x1f
003178   6e06     movwf	0x6, 0             	MOVWF	r0x06
                                           ;	.line	378; /home/regis/Hobbies/Electronique/Projets/PinguinoIDE/X/branches/linux/tools/p8/bin/../share/sdcc/include/pic16/interrupt.c	break;
00317a   d011     bra	0x319e               	BRA	_00189_DS_
                                           _00187_DS_:
                                           ;	.line	382; /home/regis/Hobbies/Electronique/Projets/PinguinoIDE/X/branches/linux/tools/p8/bin/../share/sdcc/include/pic16/interrupt.c	preloadH[INT_TMR0] = high8(0xFFFF - 1500);
00317c   0efa     movlw	0xfa               	MOVLW	0xfa
00317e   0102     movlb	0x2                	BANKSEL	_preloadH
003180   6f81     movwf	0x81, 0x1          	MOVWF	_preloadH, B
                                           ;	.line	383; /home/regis/Hobbies/Electronique/Projets/PinguinoIDE/X/branches/linux/tools/p8/bin/../share/sdcc/include/pic16/interrupt.c	preloadL[INT_TMR0] =  low8(0xFFFF - 1500);
003182   0e23     movlw	0x23               	MOVLW	0x23
003184   0102     movlb	0x2                	BANKSEL	_preloadL
003186   6f85     movwf	0x85, 0x1          	MOVWF	_preloadL, B
                                           ;	.line	384; /home/regis/Hobbies/Electronique/Projets/PinguinoIDE/X/branches/linux/tools/p8/bin/../share/sdcc/include/pic16/interrupt.c	_t0con = T0_OFF & T0_16BIT & T0_CLK & T0_PS_ON & T0_PS_1_8;
003188   0e12     movlw	0x12               	MOVLW	0x12
00318a   6e06     movwf	0x6, 0             	MOVWF	r0x06
                                           ;	.line	385; /home/regis/Hobbies/Electronique/Projets/PinguinoIDE/X/branches/linux/tools/p8/bin/../share/sdcc/include/pic16/interrupt.c	break;
00318c   d008     bra	0x319e               	BRA	_00189_DS_
                                           _00188_DS_:
                                           ;	.line	389; /home/regis/Hobbies/Electronique/Projets/PinguinoIDE/X/branches/linux/tools/p8/bin/../share/sdcc/include/pic16/interrupt.c	preloadH[INT_TMR0] = high8(0xFFFF - 46875);
00318e   0e48     movlw	0x48               	MOVLW	0x48
003190   0102     movlb	0x2                	BANKSEL	_preloadH
003192   6f81     movwf	0x81, 0x1          	MOVWF	_preloadH, B
                                           ;	.line	390; /home/regis/Hobbies/Electronique/Projets/PinguinoIDE/X/branches/linux/tools/p8/bin/../share/sdcc/include/pic16/interrupt.c	preloadL[INT_TMR0] =  low8(0xFFFF - 46875);
003194   0ee4     movlw	0xe4               	MOVLW	0xe4
003196   0102     movlb	0x2                	BANKSEL	_preloadL
003198   6f85     movwf	0x85, 0x1          	MOVWF	_preloadL, B
                                           ;	.line	391; /home/regis/Hobbies/Electronique/Projets/PinguinoIDE/X/branches/linux/tools/p8/bin/../share/sdcc/include/pic16/interrupt.c	_t0con = T0_OFF & T0_16BIT & T0_CLK & T0_PS_ON & T0_PS_1_256;
00319a   0e17     movlw	0x17               	MOVLW	0x17
00319c   6e06     movwf	0x6, 0             	MOVWF	r0x06
                                           _00189_DS_:
                                           ;	.line	395; /home/regis/Hobbies/Electronique/Projets/PinguinoIDE/X/branches/linux/tools/p8/bin/../share/sdcc/include/pic16/interrupt.c	INTCON2bits.TMR0IP = INT_LOW_PRIORITY;
00319e   94f1     bcf	0xf1, 0x2, 0         	BCF	_INTCON2bits, 2
                                           ;	.line	396; /home/regis/Hobbies/Electronique/Projets/PinguinoIDE/X/branches/linux/tools/p8/bin/../share/sdcc/include/pic16/interrupt.c	INTCONbits.TMR0IE = INT_ENABLE;
0031a0   8af2     bsf	0xf2, 0x5, 0         	BSF	_INTCONbits, 5
                                           ;	.line	397; /home/regis/Hobbies/Electronique/Projets/PinguinoIDE/X/branches/linux/tools/p8/bin/../share/sdcc/include/pic16/interrupt.c	INTCONbits.TMR0IF = 0;
0031a2   94f2     bcf	0xf2, 0x2, 0         	BCF	_INTCONbits, 2
                                           ;	.line	398; /home/regis/Hobbies/Electronique/Projets/PinguinoIDE/X/branches/linux/tools/p8/bin/../share/sdcc/include/pic16/interrupt.c	TMR0H = preloadH[INT_TMR0];
0031a4   c281     movff	0x281, 0xfd7       	MOVFF	_preloadH, _TMR0H
0031a6   ffd7
                                           ;	.line	399; /home/regis/Hobbies/Electronique/Projets/PinguinoIDE/X/branches/linux/tools/p8/bin/../share/sdcc/include/pic16/interrupt.c	TMR0L = preloadL[INT_TMR0];
0031a8   c285     movff	0x285, 0xfd6       	MOVFF	_preloadL, _TMR0L
0031aa   ffd6
                                           ;	.line	400; /home/regis/Hobbies/Electronique/Projets/PinguinoIDE/X/branches/linux/tools/p8/bin/../share/sdcc/include/pic16/interrupt.c	T0CON = _t0con;
0031ac   c006     movff	0x6, 0xfd5         	MOVFF	r0x06, _T0CON
0031ae   ffd5
                                           _00192_DS_:
0031b0   cfe4     movff	0xfe4, 0x6         	MOVFF	PREINC1, r0x06
0031b2   f006
0031b4   cfe4     movff	0xfe4, 0x5         	MOVFF	PREINC1, r0x05
0031b6   f005
0031b8   cfe4     movff	0xfe4, 0x4         	MOVFF	PREINC1, r0x04
0031ba   f004
0031bc   cfe4     movff	0xfe4, 0x3         	MOVFF	PREINC1, r0x03
0031be   f003
0031c0   cfe4     movff	0xfe4, 0x2         	MOVFF	PREINC1, r0x02
0031c2   f002
0031c4   cfe4     movff	0xfe4, 0x1         	MOVFF	PREINC1, r0x01
0031c6   f001
0031c8   cfe4     movff	0xfe4, 0           	MOVFF	PREINC1, r0x00
0031ca   f000
0031cc   cfe4     movff	0xfe4, 0xfd9       	MOVFF	PREINC1, FSR2L
0031ce   ffd9
0031d0   0012     return	0                 	RETURN	
                                           
                                           ; ; Starting pCode block
                                           S_main__int_stop	code
                                           _int_stop:
                                           ;	.line	333; /home/regis/Hobbies/Electronique/Projets/PinguinoIDE/X/branches/linux/tools/p8/bin/../share/sdcc/include/pic16/interrupt.c	T0CONbits.TMR0ON = OFF;
00447a   9ed5     bcf	0xd5, 0x7, 0         	BCF	_T0CONbits, 7
00447c   0012     return	0                 	RETURN	
                                           
                                           ; ; Starting pCode block
                                           S_main__int_start	code
                                           _int_start:
                                           ;	.line	307; /home/regis/Hobbies/Electronique/Projets/PinguinoIDE/X/branches/linux/tools/p8/bin/../share/sdcc/include/pic16/interrupt.c	T0CONbits.TMR0ON = ON;
00447e   8ed5     bsf	0xd5, 0x7, 0         	BSF	_T0CONbits, 7
004480   0012     return	0                 	RETURN	
                                           
                                           ; ; Starting pCode block
                                           S_main__int_init	code
                                           _int_init:
                                           ;	.line	285; /home/regis/Hobbies/Electronique/Projets/PinguinoIDE/X/branches/linux/tools/p8/bin/../share/sdcc/include/pic16/interrupt.c	void int_init()
004240   c000     movff	0, 0xfe5           	MOVFF	r0x00, POSTDEC1
004242   ffe5
                                           ;	.line	289; /home/regis/Hobbies/Electronique/Projets/PinguinoIDE/X/branches/linux/tools/p8/bin/../share/sdcc/include/pic16/interrupt.c	RCONbits.IPEN = 1;					// Enable HP/LP interrupts
004244   8ed0     bsf	0xd0, 0x7, 0         	BSF	_RCONbits, 7
                                           ;	.line	290; /home/regis/Hobbies/Electronique/Projets/PinguinoIDE/X/branches/linux/tools/p8/bin/../share/sdcc/include/pic16/interrupt.c	INTCONbits.GIEH = 1;				// Enable HP interrupts
004246   8ef2     bsf	0xf2, 0x7, 0         	BSF	_INTCONbits, 7
                                           ;	.line	291; /home/regis/Hobbies/Electronique/Projets/PinguinoIDE/X/branches/linux/tools/p8/bin/../share/sdcc/include/pic16/interrupt.c	INTCONbits.GIEL = 1;				// Enable LP interrupts
004248   8cf2     bsf	0xf2, 0x6, 0         	BSF	_INTCONbits, 6
                                           ;	.line	293; /home/regis/Hobbies/Electronique/Projets/PinguinoIDE/X/branches/linux/tools/p8/bin/../share/sdcc/include/pic16/interrupt.c	for (i = 0; i < INT_NUM; i++)		// Disable all interrupts
00424a   6a00     clrf	0, 0                	CLRF	r0x00
                                           _00162_DS_:
00424c   0e14     movlw	0x14               	MOVLW	0x14
00424e   5c00     subwf	0, 0, 0            	SUBWF	r0x00, W
004250   e207     bc	0x4260                	BC	_00166_DS_
                                           ;	.line	294; /home/regis/Hobbies/Electronique/Projets/PinguinoIDE/X/branches/linux/tools/p8/bin/../share/sdcc/include/pic16/interrupt.c	detachInterrupt(i);
004252   5000     movf	0, 0, 0             	MOVF	r0x00, W
004254   6ee5     movwf	0xe5, 0            	MOVWF	POSTDEC1
004256   ece9     call	0x31d2, 0           	CALL	_detachInterrupt
004258   f018
00425a   2ae1     incf	0xe1, 0x1, 0        	INCF	FSR1L, F
                                           ;	.line	293; /home/regis/Hobbies/Electronique/Projets/PinguinoIDE/X/branches/linux/tools/p8/bin/../share/sdcc/include/pic16/interrupt.c	for (i = 0; i < INT_NUM; i++)		// Disable all interrupts
00425c   2a00     incf	0, 0x1, 0           	INCF	r0x00, F
00425e   d7f6     bra	0x424c               	BRA	_00162_DS_
                                           _00166_DS_:
004260   cfe4     movff	0xfe4, 0           	MOVFF	PREINC1, r0x00
004262   f000
004264   0012     return	0                 	RETURN	
                                           
                                           ; ; Starting pCode block
                                           S_main__detachInterrupt	code
                                           _detachInterrupt:
                                           ;	.line	207; /home/regis/Hobbies/Electronique/Projets/PinguinoIDE/X/branches/linux/tools/p8/bin/../share/sdcc/include/pic16/interrupt.c	void detachInterrupt(u8 inter)
0031d2   cfd9     movff	0xfd9, 0xfe5       	MOVFF	FSR2L, POSTDEC1
0031d4   ffe5
0031d6   cfe1     movff	0xfe1, 0xfd9       	MOVFF	FSR1L, FSR2L
0031d8   ffd9
0031da   c000     movff	0, 0xfe5           	MOVFF	r0x00, POSTDEC1
0031dc   ffe5
0031de   c001     movff	0x1, 0xfe5         	MOVFF	r0x01, POSTDEC1
0031e0   ffe5
0031e2   c002     movff	0x2, 0xfe5         	MOVFF	r0x02, POSTDEC1
0031e4   ffe5
0031e6   0e02     movlw	0x2                	MOVLW	0x02
0031e8   cfdb     movff	0xfdb, 0           	MOVFF	PLUSW2, r0x00
0031ea   f000
                                           ;	.line	209; /home/regis/Hobbies/Electronique/Projets/PinguinoIDE/X/branches/linux/tools/p8/bin/../share/sdcc/include/pic16/interrupt.c	intUsed[inter] = INT_NOT_USED;	// This interrupt is no longer used
0031ec   0e3c     movlw	0x3c               	MOVLW	LOW(_intUsed)
0031ee   2400     addwf	0, 0, 0            	ADDWF	r0x00, W
0031f0   6e01     movwf	0x1, 0             	MOVWF	r0x01
0031f2   6a02     clrf	0x2, 0              	CLRF	r0x02
0031f4   0e02     movlw	0x2                	MOVLW	HIGH(_intUsed)
0031f6   2202     addwfc	0x2, 0x1, 0       	ADDWFC	r0x02, F
0031f8   c001     movff	0x1, 0xfe9         	MOVFF	r0x01, FSR0L
0031fa   ffe9
0031fc   c002     movff	0x2, 0xfea         	MOVFF	r0x02, FSR0H
0031fe   ffea
003200   6aef     clrf	0xef, 0             	CLRF	INDF0
                                           ;	.line	211; /home/regis/Hobbies/Electronique/Projets/PinguinoIDE/X/branches/linux/tools/p8/bin/../share/sdcc/include/pic16/interrupt.c	switch(inter)
003202   0e13     movlw	0x13               	MOVLW	0x13
003204   5c00     subwf	0, 0, 0            	SUBWF	r0x00, W
003206   b0d8     btfsc	0xd8, 0, 0         	BTFSC	STATUS, 0
003208   d066     bra	0x32d6               	BRA	_00153_DS_
00320a   c003     movff	0x3, 0xfe5         	MOVFF	r0x03, POSTDEC1
00320c   ffe5
00320e   c004     movff	0x4, 0xfe5         	MOVFF	r0x04, POSTDEC1
003210   ffe5
003212   6a04     clrf	0x4, 0              	CLRF	r0x04
003214   3400     rlcf	0, 0, 0             	RLCF	r0x00, W
003216   3604     rlcf	0x4, 0x1, 0         	RLCF	r0x04, F
003218   34e8     rlcf	0xe8, 0, 0          	RLCF	WREG, W
00321a   3604     rlcf	0x4, 0x1, 0         	RLCF	r0x04, F
00321c   0bfc     andlw	0xfc               	ANDLW	0xfc
00321e   6e03     movwf	0x3, 0             	MOVWF	r0x03
003220   0e00     movlw	0                  	MOVLW	UPPER(_00157_DS_)
003222   6efb     movwf	0xfb, 0            	MOVWF	PCLATU
003224   0e32     movlw	0x32               	MOVLW	HIGH(_00157_DS_)
003226   6efa     movwf	0xfa, 0            	MOVWF	PCLATH
003228   0e40     movlw	0x40               	MOVLW	LOW(_00157_DS_)
00322a   2603     addwf	0x3, 0x1, 0        	ADDWF	r0x03, F
00322c   5004     movf	0x4, 0, 0           	MOVF	r0x04, W
00322e   22fa     addwfc	0xfa, 0x1, 0      	ADDWFC	PCLATH, F
003230   b0d8     btfsc	0xd8, 0, 0         	BTFSC	STATUS, 0
003232   2afb     incf	0xfb, 0x1, 0        	INCF	PCLATU, F
003234   5003     movf	0x3, 0, 0           	MOVF	r0x03, W
003236   cfe4     movff	0xfe4, 0x4         	MOVFF	PREINC1, r0x04
003238   f004
00323a   cfe4     movff	0xfe4, 0x3         	MOVFF	PREINC1, r0x03
00323c   f003
00323e   6ef9     movwf	0xf9, 0            	MOVWF	PCL
                                           _00157_DS_:
003240   ef4c     goto	0x3298              	GOTO	_00136_DS_
003242   f019
003244   ef4e     goto	0x329c              	GOTO	_00137_DS_
003246   f019
003248   ef50     goto	0x32a0              	GOTO	_00138_DS_
00324a   f019
00324c   ef52     goto	0x32a4              	GOTO	_00139_DS_
00324e   f019
003250   ef46     goto	0x328c              	GOTO	_00133_DS_
003252   f019
003254   ef48     goto	0x3290              	GOTO	_00134_DS_
003256   f019
003258   ef4a     goto	0x3294              	GOTO	_00135_DS_
00325a   f019
00325c   ef54     goto	0x32a8              	GOTO	_00140_DS_
00325e   f019
003260   ef5e     goto	0x32bc              	GOTO	_00145_DS_
003262   f019
003264   ef60     goto	0x32c0              	GOTO	_00146_DS_
003266   f019
003268   ef64     goto	0x32c8              	GOTO	_00148_DS_
00326a   f019
00326c   ef5a     goto	0x32b4              	GOTO	_00143_DS_
00326e   f019
003270   ef5c     goto	0x32b8              	GOTO	_00144_DS_
003272   f019
003274   ef58     goto	0x32b0              	GOTO	_00142_DS_
003276   f019
003278   ef62     goto	0x32c4              	GOTO	_00147_DS_
00327a   f019
00327c   ef66     goto	0x32cc              	GOTO	_00149_DS_
00327e   f019
003280   ef6a     goto	0x32d4              	GOTO	_00151_DS_
003282   f019
003284   ef68     goto	0x32d0              	GOTO	_00150_DS_
003286   f019
003288   ef56     goto	0x32ac              	GOTO	_00141_DS_
00328a   f019
                                           _00133_DS_:
                                           ;	.line	214; /home/regis/Hobbies/Electronique/Projets/PinguinoIDE/X/branches/linux/tools/p8/bin/../share/sdcc/include/pic16/interrupt.c	INTCONbits.INT0IE = INT_DISABLE;
00328c   98f2     bcf	0xf2, 0x4, 0         	BCF	_INTCONbits, 4
                                           ;	.line	215; /home/regis/Hobbies/Electronique/Projets/PinguinoIDE/X/branches/linux/tools/p8/bin/../share/sdcc/include/pic16/interrupt.c	break;
00328e   d023     bra	0x32d6               	BRA	_00153_DS_
                                           _00134_DS_:
                                           ;	.line	217; /home/regis/Hobbies/Electronique/Projets/PinguinoIDE/X/branches/linux/tools/p8/bin/../share/sdcc/include/pic16/interrupt.c	INTCON3bits.INT1IE = INT_DISABLE;
003290   96f0     bcf	0xf0, 0x3, 0         	BCF	_INTCON3bits, 3
                                           ;	.line	218; /home/regis/Hobbies/Electronique/Projets/PinguinoIDE/X/branches/linux/tools/p8/bin/../share/sdcc/include/pic16/interrupt.c	break;
003292   d021     bra	0x32d6               	BRA	_00153_DS_
                                           _00135_DS_:
                                           ;	.line	220; /home/regis/Hobbies/Electronique/Projets/PinguinoIDE/X/branches/linux/tools/p8/bin/../share/sdcc/include/pic16/interrupt.c	INTCON3bits.INT2IE = INT_DISABLE;
003294   98f0     bcf	0xf0, 0x4, 0         	BCF	_INTCON3bits, 4
                                           ;	.line	221; /home/regis/Hobbies/Electronique/Projets/PinguinoIDE/X/branches/linux/tools/p8/bin/../share/sdcc/include/pic16/interrupt.c	break;
003296   d01f     bra	0x32d6               	BRA	_00153_DS_
                                           _00136_DS_:
                                           ;	.line	223; /home/regis/Hobbies/Electronique/Projets/PinguinoIDE/X/branches/linux/tools/p8/bin/../share/sdcc/include/pic16/interrupt.c	INTCONbits.TMR0IE = INT_DISABLE;
003298   9af2     bcf	0xf2, 0x5, 0         	BCF	_INTCONbits, 5
                                           ;	.line	224; /home/regis/Hobbies/Electronique/Projets/PinguinoIDE/X/branches/linux/tools/p8/bin/../share/sdcc/include/pic16/interrupt.c	break;
00329a   d01d     bra	0x32d6               	BRA	_00153_DS_
                                           _00137_DS_:
                                           ;	.line	226; /home/regis/Hobbies/Electronique/Projets/PinguinoIDE/X/branches/linux/tools/p8/bin/../share/sdcc/include/pic16/interrupt.c	PIE1bits.TMR1IE = INT_DISABLE;
00329c   909d     bcf	0x9d, 0, 0           	BCF	_PIE1bits, 0
                                           ;	.line	227; /home/regis/Hobbies/Electronique/Projets/PinguinoIDE/X/branches/linux/tools/p8/bin/../share/sdcc/include/pic16/interrupt.c	break;
00329e   d01b     bra	0x32d6               	BRA	_00153_DS_
                                           _00138_DS_:
                                           ;	.line	229; /home/regis/Hobbies/Electronique/Projets/PinguinoIDE/X/branches/linux/tools/p8/bin/../share/sdcc/include/pic16/interrupt.c	PIE1bits.TMR2IE = INT_DISABLE;
0032a0   929d     bcf	0x9d, 0x1, 0         	BCF	_PIE1bits, 1
                                           ;	.line	230; /home/regis/Hobbies/Electronique/Projets/PinguinoIDE/X/branches/linux/tools/p8/bin/../share/sdcc/include/pic16/interrupt.c	break;
0032a2   d019     bra	0x32d6               	BRA	_00153_DS_
                                           _00139_DS_:
                                           ;	.line	232; /home/regis/Hobbies/Electronique/Projets/PinguinoIDE/X/branches/linux/tools/p8/bin/../share/sdcc/include/pic16/interrupt.c	PIE2bits.TMR3IE = INT_DISABLE;
0032a4   92a0     bcf	0xa0, 0x1, 0         	BCF	_PIE2bits, 1
                                           ;	.line	233; /home/regis/Hobbies/Electronique/Projets/PinguinoIDE/X/branches/linux/tools/p8/bin/../share/sdcc/include/pic16/interrupt.c	break;
0032a6   d017     bra	0x32d6               	BRA	_00153_DS_
                                           _00140_DS_:
                                           ;	.line	235; /home/regis/Hobbies/Electronique/Projets/PinguinoIDE/X/branches/linux/tools/p8/bin/../share/sdcc/include/pic16/interrupt.c	INTCONbits.RBIE = INT_DISABLE;
0032a8   96f2     bcf	0xf2, 0x3, 0         	BCF	_INTCONbits, 3
                                           ;	.line	236; /home/regis/Hobbies/Electronique/Projets/PinguinoIDE/X/branches/linux/tools/p8/bin/../share/sdcc/include/pic16/interrupt.c	break;
0032aa   d015     bra	0x32d6               	BRA	_00153_DS_
                                           _00141_DS_:
                                           ;	.line	238; /home/regis/Hobbies/Electronique/Projets/PinguinoIDE/X/branches/linux/tools/p8/bin/../share/sdcc/include/pic16/interrupt.c	PIE2bits.USBIE = INT_DISABLE;
0032ac   9aa0     bcf	0xa0, 0x5, 0         	BCF	_PIE2bits, 5
                                           ;	.line	239; /home/regis/Hobbies/Electronique/Projets/PinguinoIDE/X/branches/linux/tools/p8/bin/../share/sdcc/include/pic16/interrupt.c	break;
0032ae   d013     bra	0x32d6               	BRA	_00153_DS_
                                           _00142_DS_:
                                           ;	.line	241; /home/regis/Hobbies/Electronique/Projets/PinguinoIDE/X/branches/linux/tools/p8/bin/../share/sdcc/include/pic16/interrupt.c	PIE1bits.ADIE = INT_DISABLE;
0032b0   9c9d     bcf	0x9d, 0x6, 0         	BCF	_PIE1bits, 6
                                           ;	.line	242; /home/regis/Hobbies/Electronique/Projets/PinguinoIDE/X/branches/linux/tools/p8/bin/../share/sdcc/include/pic16/interrupt.c	break;
0032b2   d011     bra	0x32d6               	BRA	_00153_DS_
                                           _00143_DS_:
                                           ;	.line	244; /home/regis/Hobbies/Electronique/Projets/PinguinoIDE/X/branches/linux/tools/p8/bin/../share/sdcc/include/pic16/interrupt.c	PIE1bits.RCIE = INT_DISABLE;
0032b4   9a9d     bcf	0x9d, 0x5, 0         	BCF	_PIE1bits, 5
                                           ;	.line	245; /home/regis/Hobbies/Electronique/Projets/PinguinoIDE/X/branches/linux/tools/p8/bin/../share/sdcc/include/pic16/interrupt.c	break;
0032b6   d00f     bra	0x32d6               	BRA	_00153_DS_
                                           _00144_DS_:
                                           ;	.line	247; /home/regis/Hobbies/Electronique/Projets/PinguinoIDE/X/branches/linux/tools/p8/bin/../share/sdcc/include/pic16/interrupt.c	PIE1bits.TXIE = INT_DISABLE;
0032b8   989d     bcf	0x9d, 0x4, 0         	BCF	_PIE1bits, 4
                                           ;	.line	248; /home/regis/Hobbies/Electronique/Projets/PinguinoIDE/X/branches/linux/tools/p8/bin/../share/sdcc/include/pic16/interrupt.c	break;
0032ba   d00d     bra	0x32d6               	BRA	_00153_DS_
                                           _00145_DS_:
                                           ;	.line	250; /home/regis/Hobbies/Electronique/Projets/PinguinoIDE/X/branches/linux/tools/p8/bin/../share/sdcc/include/pic16/interrupt.c	PIE1bits.CCP1IE = INT_DISABLE;
0032bc   949d     bcf	0x9d, 0x2, 0         	BCF	_PIE1bits, 2
                                           ;	.line	251; /home/regis/Hobbies/Electronique/Projets/PinguinoIDE/X/branches/linux/tools/p8/bin/../share/sdcc/include/pic16/interrupt.c	break;
0032be   d00b     bra	0x32d6               	BRA	_00153_DS_
                                           _00146_DS_:
                                           ;	.line	253; /home/regis/Hobbies/Electronique/Projets/PinguinoIDE/X/branches/linux/tools/p8/bin/../share/sdcc/include/pic16/interrupt.c	PIE2bits.CCP2IE = INT_DISABLE;
0032c0   90a0     bcf	0xa0, 0, 0           	BCF	_PIE2bits, 0
                                           ;	.line	254; /home/regis/Hobbies/Electronique/Projets/PinguinoIDE/X/branches/linux/tools/p8/bin/../share/sdcc/include/pic16/interrupt.c	break;
0032c2   d009     bra	0x32d6               	BRA	_00153_DS_
                                           _00147_DS_:
                                           ;	.line	256; /home/regis/Hobbies/Electronique/Projets/PinguinoIDE/X/branches/linux/tools/p8/bin/../share/sdcc/include/pic16/interrupt.c	PIE2bits.OSCFIE = INT_DISABLE;
0032c4   9ea0     bcf	0xa0, 0x7, 0         	BCF	_PIE2bits, 7
                                           ;	.line	257; /home/regis/Hobbies/Electronique/Projets/PinguinoIDE/X/branches/linux/tools/p8/bin/../share/sdcc/include/pic16/interrupt.c	break;
0032c6   d007     bra	0x32d6               	BRA	_00153_DS_
                                           _00148_DS_:
                                           ;	.line	259; /home/regis/Hobbies/Electronique/Projets/PinguinoIDE/X/branches/linux/tools/p8/bin/../share/sdcc/include/pic16/interrupt.c	PIE2bits.CMIE = INT_DISABLE;
0032c8   9ca0     bcf	0xa0, 0x6, 0         	BCF	_PIE2bits, 6
                                           ;	.line	260; /home/regis/Hobbies/Electronique/Projets/PinguinoIDE/X/branches/linux/tools/p8/bin/../share/sdcc/include/pic16/interrupt.c	break;
0032ca   d005     bra	0x32d6               	BRA	_00153_DS_
                                           _00149_DS_:
                                           ;	.line	262; /home/regis/Hobbies/Electronique/Projets/PinguinoIDE/X/branches/linux/tools/p8/bin/../share/sdcc/include/pic16/interrupt.c	PIE2bits.EEIE = INT_DISABLE;
0032cc   98a0     bcf	0xa0, 0x4, 0         	BCF	_PIE2bits, 4
                                           ;	.line	263; /home/regis/Hobbies/Electronique/Projets/PinguinoIDE/X/branches/linux/tools/p8/bin/../share/sdcc/include/pic16/interrupt.c	break;
0032ce   d003     bra	0x32d6               	BRA	_00153_DS_
                                           _00150_DS_:
                                           ;	.line	265; /home/regis/Hobbies/Electronique/Projets/PinguinoIDE/X/branches/linux/tools/p8/bin/../share/sdcc/include/pic16/interrupt.c	PIE2bits.BCLIE = INT_DISABLE;
0032d0   96a0     bcf	0xa0, 0x3, 0         	BCF	_PIE2bits, 3
                                           ;	.line	266; /home/regis/Hobbies/Electronique/Projets/PinguinoIDE/X/branches/linux/tools/p8/bin/../share/sdcc/include/pic16/interrupt.c	break;
0032d2   d001     bra	0x32d6               	BRA	_00153_DS_
                                           _00151_DS_:
                                           ;	.line	268; /home/regis/Hobbies/Electronique/Projets/PinguinoIDE/X/branches/linux/tools/p8/bin/../share/sdcc/include/pic16/interrupt.c	PIE2bits.HLVDIE = INT_DISABLE;
0032d4   94a0     bcf	0xa0, 0x2, 0         	BCF	_PIE2bits, 2
                                           _00153_DS_:
                                           ;	.line	275; /home/regis/Hobbies/Electronique/Projets/PinguinoIDE/X/branches/linux/tools/p8/bin/../share/sdcc/include/pic16/interrupt.c	}
0032d6   cfe4     movff	0xfe4, 0x2         	MOVFF	PREINC1, r0x02
0032d8   f002
0032da   cfe4     movff	0xfe4, 0x1         	MOVFF	PREINC1, r0x01
0032dc   f001
0032de   cfe4     movff	0xfe4, 0           	MOVFF	PREINC1, r0x00
0032e0   f000
0032e2   cfe4     movff	0xfe4, 0xfd9       	MOVFF	PREINC1, FSR2L
0032e4   ffd9
0032e6   0012     return	0                 	RETURN	
                                           
                                           ; ; Starting pCode block
                                           S_main__Delayus	code
                                           _Delayus:
                                           ;	.line	16; /home/regis/Hobbies/Electronique/Projets/PinguinoIDE/X/branches/linux/tools/p8/bin/../share/sdcc/include/pic16/arduinodelay.c	void Delayus(int microsecondes)
0040a2   cfd9     movff	0xfd9, 0xfe5       	MOVFF	FSR2L, POSTDEC1
0040a4   ffe5
0040a6   cfe1     movff	0xfe1, 0xfd9       	MOVFF	FSR1L, FSR2L
0040a8   ffd9
0040aa   c000     movff	0, 0xfe5           	MOVFF	r0x00, POSTDEC1
0040ac   ffe5
0040ae   c001     movff	0x1, 0xfe5         	MOVFF	r0x01, POSTDEC1
0040b0   ffe5
0040b2   c002     movff	0x2, 0xfe5         	MOVFF	r0x02, POSTDEC1
0040b4   ffe5
0040b6   c003     movff	0x3, 0xfe5         	MOVFF	r0x03, POSTDEC1
0040b8   ffe5
0040ba   0e02     movlw	0x2                	MOVLW	0x02
0040bc   cfdb     movff	0xfdb, 0           	MOVFF	PLUSW2, r0x00
0040be   f000
0040c0   0e03     movlw	0x3                	MOVLW	0x03
0040c2   cfdb     movff	0xfdb, 0x1         	MOVFF	PLUSW2, r0x01
0040c4   f001
                                           ;	.line	20; /home/regis/Hobbies/Electronique/Projets/PinguinoIDE/X/branches/linux/tools/p8/bin/../share/sdcc/include/pic16/arduinodelay.c	for (i=0;i<microsecondes;i++);
0040c6   6a02     clrf	0x2, 0              	CLRF	r0x02
0040c8   6a03     clrf	0x3, 0              	CLRF	r0x03
                                           _00119_DS_:
0040ca   5001     movf	0x1, 0, 0           	MOVF	r0x01, W
0040cc   5c03     subwf	0x3, 0, 0          	SUBWF	r0x03, W
0040ce   e102     bnz	0x40d4               	BNZ	_00128_DS_
0040d0   5000     movf	0, 0, 0             	MOVF	r0x00, W
0040d2   5c02     subwf	0x2, 0, 0          	SUBWF	r0x02, W
                                           _00128_DS_:
0040d4   e204     bc	0x40de                	BC	_00123_DS_
0040d6   2a02     incf	0x2, 0x1, 0         	INCF	r0x02, F
0040d8   b0d8     btfsc	0xd8, 0, 0         	BTFSC	STATUS, 0
0040da   2a03     incf	0x3, 0x1, 0         	INCF	r0x03, F
0040dc   d7f6     bra	0x40ca               	BRA	_00119_DS_
                                           _00123_DS_:
0040de   cfe4     movff	0xfe4, 0x3         	MOVFF	PREINC1, r0x03
0040e0   f003
0040e2   cfe4     movff	0xfe4, 0x2         	MOVFF	PREINC1, r0x02
0040e4   f002
0040e6   cfe4     movff	0xfe4, 0x1         	MOVFF	PREINC1, r0x01
0040e8   f001
0040ea   cfe4     movff	0xfe4, 0           	MOVFF	PREINC1, r0x00
0040ec   f000
0040ee   cfe4     movff	0xfe4, 0xfd9       	MOVFF	PREINC1, FSR2L
0040f0   ffd9
0040f2   0012     return	0                 	RETURN	
                                           
                                           ; ; Starting pCode block
                                           S_main__Delayms	code
                                           _Delayms:
                                           ;	.line	9; /home/regis/Hobbies/Electronique/Projets/PinguinoIDE/X/branches/linux/tools/p8/bin/../share/sdcc/include/pic16/arduinodelay.c	void Delayms(unsigned long milliseconde)
00372e   cfd9     movff	0xfd9, 0xfe5       	MOVFF	FSR2L, POSTDEC1
003730   ffe5
003732   cfe1     movff	0xfe1, 0xfd9       	MOVFF	FSR1L, FSR2L
003734   ffd9
003736   c000     movff	0, 0xfe5           	MOVFF	r0x00, POSTDEC1
003738   ffe5
00373a   c001     movff	0x1, 0xfe5         	MOVFF	r0x01, POSTDEC1
00373c   ffe5
00373e   c002     movff	0x2, 0xfe5         	MOVFF	r0x02, POSTDEC1
003740   ffe5
003742   c003     movff	0x3, 0xfe5         	MOVFF	r0x03, POSTDEC1
003744   ffe5
003746   c004     movff	0x4, 0xfe5         	MOVFF	r0x04, POSTDEC1
003748   ffe5
00374a   c005     movff	0x5, 0xfe5         	MOVFF	r0x05, POSTDEC1
00374c   ffe5
00374e   c006     movff	0x6, 0xfe5         	MOVFF	r0x06, POSTDEC1
003750   ffe5
003752   c007     movff	0x7, 0xfe5         	MOVFF	r0x07, POSTDEC1
003754   ffe5
003756   0e02     movlw	0x2                	MOVLW	0x02
003758   cfdb     movff	0xfdb, 0           	MOVFF	PLUSW2, r0x00
00375a   f000
00375c   0e03     movlw	0x3                	MOVLW	0x03
00375e   cfdb     movff	0xfdb, 0x1         	MOVFF	PLUSW2, r0x01
003760   f001
003762   0e04     movlw	0x4                	MOVLW	0x04
003764   cfdb     movff	0xfdb, 0x2         	MOVFF	PLUSW2, r0x02
003766   f002
003768   0e05     movlw	0x5                	MOVLW	0x05
00376a   cfdb     movff	0xfdb, 0x3         	MOVFF	PLUSW2, r0x03
00376c   f003
                                           ;	.line	13; /home/regis/Hobbies/Electronique/Projets/PinguinoIDE/X/branches/linux/tools/p8/bin/../share/sdcc/include/pic16/arduinodelay.c	for (i=0;i<milliseconde;i++) delay10ktcy(1);
00376e   6a04     clrf	0x4, 0              	CLRF	r0x04
003770   6a05     clrf	0x5, 0              	CLRF	r0x05
003772   6a06     clrf	0x6, 0              	CLRF	r0x06
003774   6a07     clrf	0x7, 0              	CLRF	r0x07
                                           _00105_DS_:
003776   5003     movf	0x3, 0, 0           	MOVF	r0x03, W
003778   5c07     subwf	0x7, 0, 0          	SUBWF	r0x07, W
00377a   e108     bnz	0x378c               	BNZ	_00114_DS_
00377c   5002     movf	0x2, 0, 0           	MOVF	r0x02, W
00377e   5c06     subwf	0x6, 0, 0          	SUBWF	r0x06, W
003780   e105     bnz	0x378c               	BNZ	_00114_DS_
003782   5001     movf	0x1, 0, 0           	MOVF	r0x01, W
003784   5c05     subwf	0x5, 0, 0          	SUBWF	r0x05, W
003786   e102     bnz	0x378c               	BNZ	_00114_DS_
003788   5000     movf	0, 0, 0             	MOVF	r0x00, W
00378a   5c04     subwf	0x4, 0, 0          	SUBWF	r0x04, W
                                           _00114_DS_:
00378c   e20b     bc	0x37a4                	BC	_00109_DS_
00378e   0e01     movlw	0x1                	MOVLW	0x01
003790   ec37     call	0x6e, 0             	CALL	_delay10ktcy
003792   f000
003794   2a04     incf	0x4, 0x1, 0         	INCF	r0x04, F
003796   b0d8     btfsc	0xd8, 0, 0         	BTFSC	STATUS, 0
003798   2a05     incf	0x5, 0x1, 0         	INCF	r0x05, F
00379a   b0d8     btfsc	0xd8, 0, 0         	BTFSC	STATUS, 0
00379c   2a06     incf	0x6, 0x1, 0         	INCF	r0x06, F
00379e   b0d8     btfsc	0xd8, 0, 0         	BTFSC	STATUS, 0
0037a0   2a07     incf	0x7, 0x1, 0         	INCF	r0x07, F
0037a2   d7e9     bra	0x3776               	BRA	_00105_DS_
                                           _00109_DS_:
0037a4   cfe4     movff	0xfe4, 0x7         	MOVFF	PREINC1, r0x07
0037a6   f007
0037a8   cfe4     movff	0xfe4, 0x6         	MOVFF	PREINC1, r0x06
0037aa   f006
0037ac   cfe4     movff	0xfe4, 0x5         	MOVFF	PREINC1, r0x05
0037ae   f005
0037b0   cfe4     movff	0xfe4, 0x4         	MOVFF	PREINC1, r0x04
0037b2   f004
0037b4   cfe4     movff	0xfe4, 0x3         	MOVFF	PREINC1, r0x03
0037b6   f003
0037b8   cfe4     movff	0xfe4, 0x2         	MOVFF	PREINC1, r0x02
0037ba   f002
0037bc   cfe4     movff	0xfe4, 0x1         	MOVFF	PREINC1, r0x01
0037be   f001
0037c0   cfe4     movff	0xfe4, 0           	MOVFF	PREINC1, r0x00
0037c2   f000
0037c4   cfe4     movff	0xfe4, 0xfd9       	MOVFF	PREINC1, FSR2L
0037c6   ffd9
0037c8   0012     return	0                 	RETURN	
                                           
                                           ; ; Starting pCode block
                                           __str_0:
0037ca   6e28     movwf	0x28, 0            	DB	0x28, 0x6e, 0x75, 0x6c, 0x6c, 0x29, 0x00
0037cc   6c75     negf	0x75, 0             
0037ce   296c     incf	0x6c, 0, 0x1        
0037d0   0000     nop                      
                                           ; ; Starting pCode block
                                           __str_1:
0037d2   6f6e     movwf	0x6e, 0x1          	DB	0x6e, 0x6f, 0x74, 0x20, 0x79, 0x65, 0x74, 0x20, 0x69, 0x6d, 0x70, 0x6c
0037d4   2074     addwfc	0x74, 0, 0        
0037d6   6579     cpfsgt	0x79, 0x1         
0037d8   2074     addwfc	0x74, 0, 0        
0037da   6d69     negf	0x69, 0x1           
0037dc   6c70     negf	0x70, 0             
0037de   6d65     negf	0x65, 0x1           	DB	0x65, 0x6d, 0x65, 0x6e, 0x74, 0x65, 0x64, 0x00, 0x00
0037e0   6e65     movwf	0x65, 0            
0037e2   6574     cpfsgt	0x74, 0x1         
0037e4   0064     dw	0x64  ;unknown opcode 
0037e6   0000     nop                      
                                           ; ; Starting pCode block for Ival
                                           	code
                                           _car0:
002ab6   0a04     xorlw	0x4                	DB	0x04, 0x0a, 0x0e, 0x01, 0x0f, 0x11, 0x0f, 0x00
002ab8   010e     movlb	0xe                
002aba   110f     iorwf	0xf, 0, 0x1        
002abc   000f     tblwt	+*                 
                                           ; ; Starting pCode block for Ival
                                           _car1:
002abe   0204     mulwf	0x4, 0             	DB	0x04, 0x02, 0x0e, 0x01, 0x0f, 0x11, 0x0f, 0x00
002ac0   010e     movlb	0xe                
002ac2   110f     iorwf	0xf, 0, 0x1        
002ac4   000f     tblwt	+*                 
                                           ; ; Starting pCode block for Ival
                                           _car2:
002ac6   100e     iorwf	0xe, 0, 0          	DB	0x0e, 0x10, 0x10, 0x11, 0x0e, 0x04, 0x0c, 0x00
002ac8   1110     iorwf	0x10, 0, 0x1       
002aca   040e     decf	0xe, 0, 0           
002acc   000c     tblwt	*                  
                                           ; ; Starting pCode block for Ival
                                           _car3:
002ace   0804     sublw	0x4                	DB	0x04, 0x08, 0x0e, 0x11, 0x1f, 0x10, 0x0e, 0x00
002ad0   110e     iorwf	0xe, 0, 0x1        
002ad2   101f     iorwf	0x1f, 0, 0         
002ad4   000e     tblwt	*-                 
                                           ; ; Starting pCode block for Ival
                                           _car4:
002ad6   0204     mulwf	0x4, 0             	DB	0x04, 0x02, 0x0e, 0x11, 0x1f, 0x10, 0x0e, 0x00
002ad8   110e     iorwf	0xe, 0, 0x1        
002ada   101f     iorwf	0x1f, 0, 0         
002adc   000e     tblwt	*-                 
                                           ; ; Starting pCode block for Ival
                                           _car5:
002ade   0a04     xorlw	0x4                	DB	0x04, 0x0a, 0x0e, 0x11, 0x1f, 0x10, 0x0e, 0x00
002ae0   110e     iorwf	0xe, 0, 0x1        
002ae2   101f     iorwf	0x1f, 0, 0         
002ae4   000e     tblwt	*-                 
                                           ; ; Starting pCode block for Ival
                                           _car6:
002ae6   000a     tblrd	*-                 	DB	0x0a, 0x00, 0x0e, 0x11, 0x1f, 0x10, 0x0e, 0x00
002ae8   110e     iorwf	0xe, 0, 0x1        
002aea   101f     iorwf	0x1f, 0, 0         
002aec   000e     tblwt	*-                 
                                           ; ; Starting pCode block for Ival
                                           _car7:
002aee   0807     sublw	0x7                	DB	0x07, 0x08, 0x1e, 0x08, 0x1e, 0x08, 0x07, 0x00
002af0   081e     sublw	0x1e               
002af2   081e     sublw	0x1e               
002af4   0007     daw                      
                                           ; ; Starting pCode block for Ival
                                           _car8:
002af6   0a04     xorlw	0x4                	DB	0x04, 0x0a, 0x0c, 0x04, 0x04, 0x04, 0x0e, 0x00
002af8   040c     decf	0xc, 0, 0           
002afa   0404     decf	0x4, 0, 0           
002afc   000e     tblwt	*-                 
                                           ; ; Starting pCode block for Ival
                                           _car9:
002afe   000a     tblrd	*-                 	DB	0x0a, 0x00, 0x0c, 0x04, 0x04, 0x04, 0x0e, 0x00
002b00   040c     decf	0xc, 0, 0           
002b02   0404     decf	0x4, 0, 0           
002b04   000e     tblwt	*-                 
                                           ; ; Starting pCode block for Ival
                                           _car10:
002b06   0a04     xorlw	0x4                	DB	0x04, 0x0a, 0x0e, 0x11, 0x11, 0x11, 0x0e, 0x00
002b08   110e     iorwf	0xe, 0, 0x1        
002b0a   1111     iorwf	0x11, 0, 0x1       
002b0c   000e     tblwt	*-                 
                                           ; ; Starting pCode block for Ival
                                           _car11:
002b0e   0204     mulwf	0x4, 0             	DB	0x04, 0x02, 0x11, 0x11, 0x11, 0x13, 0x0d, 0x00
002b10   1111     iorwf	0x11, 0, 0x1       
002b12   1311     iorwf	0x11, 0x1, 0x1     
002b14   000d     tblwt	*+                 
                                           ; ; Starting pCode block for Ival
                                           _car12:
002b16   0a04     xorlw	0x4                	DB	0x04, 0x0a, 0x11, 0x11, 0x11, 0x13, 0x0d, 0x00
002b18   1111     iorwf	0x11, 0, 0x1       
002b1a   1311     iorwf	0x11, 0x1, 0x1     
002b1c   000d     tblwt	*+                 
                                           ; ; Starting pCode block
                                           __str_2:
002b1e   3025     rrcf	0x25, 0, 0          	DB	0x25, 0x30, 0x32, 0x75, 0x3a, 0x25, 0x30, 0x32, 0x75, 0x3a, 0x25, 0x30
002b20   7532     btg	0x32, 0x2, 0x1       
002b22   253a     addwf	0x3a, 0, 0x1       
002b24   3230     rrcf	0x30, 0x1, 0        
002b26   3a75     swapf	0x75, 0x1, 0       
002b28   3025     rrcf	0x25, 0, 0          
002b2a   7532     btg	0x32, 0x2, 0x1       	DB	0x32, 0x75, 0x00
002b2c   0000     nop                      
                                           ; ; Starting pCode block
                                           __str_3:
002b2e   2020     addwfc	0x20, 0, 0        	DB	0x20, 0x20, 0x20, 0x6c, 0x63, 0x64, 0x69, 0x32, 0x63, 0x20, 0x64, 0x65
002b30   6c20     negf	0x20, 0             
002b32   6463     cpfsgt	0x63, 0           
002b34   3269     rrcf	0x69, 0x1, 0        
002b36   2063     addwfc	0x63, 0, 0        
002b38   6564     cpfsgt	0x64, 0x1         
002b3a   6f6d     movwf	0x6d, 0x1          	DB	0x6d, 0x6f, 0x20, 0x20, 0x00
002b3c   2020     addwfc	0x20, 0, 0        
002b3e   0000     nop                      
                                           ; ; Starting pCode block
                                           __str_4:
002b40   5220     movf	0x20, 0x1, 0        	DB	0x20, 0x52, 0x65, 0x67, 0x69, 0x73, 0x20, 0x42, 0x6c, 0x61, 0x6e, 0x63
002b42   6765     tstfsz	0x65, 0x1         
002b44   7369     btg	0x69, 0x1, 0x1       
002b46   4220     rrncf	0x20, 0x1, 0       
002b48   616c     cpfslt	0x6c, 0x1         
002b4a   636e     cpfseq	0x6e, 0x1         
002b4c   6f68     movwf	0x68, 0x1          	DB	0x68, 0x6f, 0x74, 0x20, 0x00
002b4e   2074     addwfc	0x74, 0, 0        
002b50   0000     nop                      
                                           
                                           
                                           ; Statistics:
                                           ; code size:	 7842 (0x1ea2) bytes ( 5.98%)
                                           ;           	 3921 (0x0f51) words
                                           ; udata size:	  150 (0x0096) bytes ( 8.37%)
                                           ; access size:	   27 (0x001b) bytes
                                           
                                           
                                           	end
