gplink-0.13.7 beta
Copyright (c) 1998-2005 gputils project
Listing File Generated: 4-6-2012  11:23:32
 
 
Address  Value    Disassembly              Source
-------  -----    -----------              ------
                                           ;--------------------------------------------------------
                                           ; File Created by SDCC : free open source ANSI-C Compiler
                                           ; Version 2.9.0 #5416 (Aug  9 2009) (UNIX)
                                           ; This file was generated Fri Apr  6 11:23:32 2012
                                           ;--------------------------------------------------------
                                           ; PIC16 port for the Microchip 16-bit core micros
                                           ;--------------------------------------------------------
                                           	list	p=18f2550
                                           
                                           	radix dec
                                           
                                           ;--------------------------------------------------------
                                           ; public variables in this module
                                           ;--------------------------------------------------------
                                           	global _loopvar
                                           	global _phase
                                           	global _needreordering
                                           	global _timingindex
                                           	global _timedivision
                                           	global _timings
                                           	global _activatedservos
                                           	global _servovalues
                                           	global _maxminpos
                                           	global _position
                                           	global _Delayms
                                           	global _Delayus
                                           	global _servos_init
                                           	global _ServoAttach
                                           	global _ServoDetach
                                           	global _ServoWrite
                                           	global _ServoRead
                                           	global _ServoMinimumPulse
                                           	global _ServoMaximumPulse
                                           	global _servos_interrupt
                                           	global _epap_in
                                           	global _epap_out
                                           	global _epapin_init
                                           	global _epapout_init
                                           	global _setup
                                           	global _loop
                                           	global _pinguino_main
                                           	global _high_priority_isr
                                           	global _low_priority_isr
                                           	global _servomasks
                                           
                                           ;--------------------------------------------------------
                                           ; extern variables in this module
                                           ;--------------------------------------------------------
                                           	extern _SPPDATAbits
                                           	extern _SPPCFGbits
                                           	extern _SPPEPSbits
                                           	extern _SPPCONbits
                                           	extern _UFRMLbits
                                           	extern _UFRMHbits
                                           	extern _UIRbits
                                           	extern _UIEbits
                                           	extern _UEIRbits
                                           	extern _UEIEbits
                                           	extern _USTATbits
                                           	extern _UCONbits
                                           	extern _UADDRbits
                                           	extern _UCFGbits
                                           	extern _UEP0bits
                                           	extern _UEP1bits
                                           	extern _UEP2bits
                                           	extern _UEP3bits
                                           	extern _UEP4bits
                                           	extern _UEP5bits
                                           	extern _UEP6bits
                                           	extern _UEP7bits
                                           	extern _UEP8bits
                                           	extern _UEP9bits
                                           	extern _UEP10bits
                                           	extern _UEP11bits
                                           	extern _UEP12bits
                                           	extern _UEP13bits
                                           	extern _UEP14bits
                                           	extern _UEP15bits
                                           	extern _PORTAbits
                                           	extern _PORTBbits
                                           	extern _PORTCbits
                                           	extern _PORTDbits
                                           	extern _PORTEbits
                                           	extern _LATAbits
                                           	extern _LATBbits
                                           	extern _LATCbits
                                           	extern _LATDbits
                                           	extern _LATEbits
                                           	extern _TRISAbits
                                           	extern _TRISBbits
                                           	extern _TRISCbits
                                           	extern _TRISDbits
                                           	extern _TRISEbits
                                           	extern _OSCTUNEbits
                                           	extern _PIE1bits
                                           	extern _PIR1bits
                                           	extern _IPR1bits
                                           	extern _PIE2bits
                                           	extern _PIR2bits
                                           	extern _IPR2bits
                                           	extern _EECON1bits
                                           	extern _RCSTAbits
                                           	extern _TXSTAbits
                                           	extern _T3CONbits
                                           	extern _CMCONbits
                                           	extern _CVRCONbits
                                           	extern _ECCP1ASbits
                                           	extern _ECCP1DELbits
                                           	extern _BAUDCONbits
                                           	extern _CCP2CONbits
                                           	extern _CCP1CONbits
                                           	extern _ADCON2bits
                                           	extern _ADCON1bits
                                           	extern _ADCON0bits
                                           	extern _SSPCON2bits
                                           	extern _SSPCON1bits
                                           	extern _SSPSTATbits
                                           	extern _T2CONbits
                                           	extern _T1CONbits
                                           	extern _RCONbits
                                           	extern _WDTCONbits
                                           	extern _HLVDCONbits
                                           	extern _OSCCONbits
                                           	extern _T0CONbits
                                           	extern _STATUSbits
                                           	extern _FSR2Hbits
                                           	extern _BSRbits
                                           	extern _FSR1Hbits
                                           	extern _FSR0Hbits
                                           	extern _INTCON3bits
                                           	extern _INTCON2bits
                                           	extern _INTCONbits
                                           	extern _TBLPTRUbits
                                           	extern _PCLATHbits
                                           	extern _PCLATUbits
                                           	extern _STKPTRbits
                                           	extern _TOSUbits
                                           	extern _usb_device_state
                                           	extern _usb_active_cfg
                                           	extern _usb_active_alt_setting
                                           	extern _SPPDATA
                                           	extern _SPPCFG
                                           	extern _SPPEPS
                                           	extern _SPPCON
                                           	extern _UFRML
                                           	extern _UFRMH
                                           	extern _UIR
                                           	extern _UIE
                                           	extern _UEIR
                                           	extern _UEIE
                                           	extern _USTAT
                                           	extern _UCON
                                           	extern _UADDR
                                           	extern _UCFG
                                           	extern _UEP0
                                           	extern _UEP1
                                           	extern _UEP2
                                           	extern _UEP3
                                           	extern _UEP4
                                           	extern _UEP5
                                           	extern _UEP6
                                           	extern _UEP7
                                           	extern _UEP8
                                           	extern _UEP9
                                           	extern _UEP10
                                           	extern _UEP11
                                           	extern _UEP12
                                           	extern _UEP13
                                           	extern _UEP14
                                           	extern _UEP15
                                           	extern _PORTA
                                           	extern _PORTB
                                           	extern _PORTC
                                           	extern _PORTD
                                           	extern _PORTE
                                           	extern _LATA
                                           	extern _LATB
                                           	extern _LATC
                                           	extern _LATD
                                           	extern _LATE
                                           	extern _TRISA
                                           	extern _TRISB
                                           	extern _TRISC
                                           	extern _TRISD
                                           	extern _TRISE
                                           	extern _OSCTUNE
                                           	extern _PIE1
                                           	extern _PIR1
                                           	extern _IPR1
                                           	extern _PIE2
                                           	extern _PIR2
                                           	extern _IPR2
                                           	extern _EECON1
                                           	extern _EECON2
                                           	extern _EEDATA
                                           	extern _EEADR
                                           	extern _RCSTA
                                           	extern _TXSTA
                                           	extern _TXREG
                                           	extern _RCREG
                                           	extern _SPBRG
                                           	extern _SPBRGH
                                           	extern _T3CON
                                           	extern _TMR3L
                                           	extern _TMR3H
                                           	extern _CMCON
                                           	extern _CVRCON
                                           	extern _ECCP1AS
                                           	extern _ECCP1DEL
                                           	extern _BAUDCON
                                           	extern _CCP2CON
                                           	extern _CCPR2L
                                           	extern _CCPR2H
                                           	extern _CCP1CON
                                           	extern _CCPR1L
                                           	extern _CCPR1H
                                           	extern _ADCON2
                                           	extern _ADCON1
                                           	extern _ADCON0
                                           	extern _ADRESL
                                           	extern _ADRESH
                                           	extern _SSPCON2
                                           	extern _SSPCON1
                                           	extern _SSPSTAT
                                           	extern _SSPADD
                                           	extern _SSPBUF
                                           	extern _T2CON
                                           	extern _PR2
                                           	extern _TMR2
                                           	extern _T1CON
                                           	extern _TMR1L
                                           	extern _TMR1H
                                           	extern _RCON
                                           	extern _WDTCON
                                           	extern _HLVDCON
                                           	extern _OSCCON
                                           	extern _T0CON
                                           	extern _TMR0L
                                           	extern _TMR0H
                                           	extern _STATUS
                                           	extern _FSR2L
                                           	extern _FSR2H
                                           	extern _PLUSW2
                                           	extern _PREINC2
                                           	extern _POSTDEC2
                                           	extern _POSTINC2
                                           	extern _INDF2
                                           	extern _BSR
                                           	extern _FSR1L
                                           	extern _FSR1H
                                           	extern _PLUSW1
                                           	extern _PREINC1
                                           	extern _POSTDEC1
                                           	extern _POSTINC1
                                           	extern _INDF1
                                           	extern _WREG
                                           	extern _FSR0L
                                           	extern _FSR0H
                                           	extern _PLUSW0
                                           	extern _PREINC0
                                           	extern _POSTDEC0
                                           	extern _POSTINC0
                                           	extern _INDF0
                                           	extern _INTCON3
                                           	extern _INTCON2
                                           	extern _INTCON
                                           	extern _PRODL
                                           	extern _PRODH
                                           	extern _TABLAT
                                           	extern _TBLPTRL
                                           	extern _TBLPTRH
                                           	extern _TBLPTRU
                                           	extern _PCL
                                           	extern _PCLATH
                                           	extern _PCLATU
                                           	extern _STKPTR
                                           	extern _TOSL
                                           	extern _TOSH
                                           	extern _TOSU
                                           	extern _delay10ktcy
                                           	extern ___uchar2fs
                                           	extern ___fsdiv
                                           	extern ___fsmul
                                           	extern ___fsgt
                                           	extern ___fsadd
                                           	extern ___fs2uchar
                                           	extern __divsint
                                           ;--------------------------------------------------------
                                           ;	Equates to used internal registers
                                           ;--------------------------------------------------------
                                           STATUS	equ	0xfd8
                                           PCLATH	equ	0xffa
                                           PCLATU	equ	0xffb
                                           WREG	equ	0xfe8
                                           BSR	equ	0xfe0
                                           TBLPTRL	equ	0xff6
                                           TBLPTRH	equ	0xff7
                                           TBLPTRU	equ	0xff8
                                           TABLAT	equ	0xff5
                                           FSR0L	equ	0xfe9
                                           FSR0H	equ	0xfea
                                           FSR1L	equ	0xfe1
                                           FSR2L	equ	0xfd9
                                           INDF0	equ	0xfef
                                           POSTDEC1	equ	0xfe5
                                           PREINC1	equ	0xfe4
                                           PLUSW2	equ	0xfdb
                                           PRODL	equ	0xff3
                                           PRODH	equ	0xff4
                                           
                                           
                                           	idata
                                           _phase	db	0x00
                                           _needreordering	db	0x00
                                           _timedivision	db	0x00
                                           _activatedservos	db	0x00, 0x00, 0x00
                                           _position	db	0x01
                                           
                                           
                                           ; Internal registers
                                           .registers	udata_ovr	0x0000
                                           r0x00	res	1
                                           r0x01	res	1
                                           r0x02	res	1
                                           r0x03	res	1
                                           r0x04	res	1
                                           r0x05	res	1
                                           r0x06	res	1
                                           r0x07	res	1
                                           r0x08	res	1
                                           r0x09	res	1
                                           
                                           udata_main_0	udata
                                           _loopvar	res	1
                                           
                                           udata_main_1	udata
                                           _servovalues	res	18
                                           
                                           udata_main_2	udata
                                           _timingindex	res	1
                                           
                                           udata_main_3	udata
                                           _timings	res	72
                                           
                                           udata_main_4	udata
                                           _SortServoTimings_mascaratotal_1_1	res	3
                                           
                                           udata_main_5	udata
                                           _maxminpos	res	36
                                           
                                           ;--------------------------------------------------------
                                           ; global & static initialisations
                                           ;--------------------------------------------------------
                                           ; ; Starting pCode block
                                           S_main__high_priority_isr	code	0X002020
                                           _high_priority_isr:
                                           ;	.line	130; /home/jesuscarlos/Programming_box/Pinguino/Pinguino32X_20120405/svn/trunk/source/main.c	void high_priority_isr(void) interrupt
002020   cfe8     movff	0xfe8, 0xfe5       	MOVFF	WREG, POSTDEC1
002022   ffe5
002024   cfd8     movff	0xfd8, 0xfe5       	MOVFF	STATUS, POSTDEC1
002026   ffe5
002028   cfe0     movff	0xfe0, 0xfe5       	MOVFF	BSR, POSTDEC1
00202a   ffe5
00202c   cff3     movff	0xff3, 0xfe5       	MOVFF	PRODL, POSTDEC1
00202e   ffe5
002030   cff4     movff	0xff4, 0xfe5       	MOVFF	PRODH, POSTDEC1
002032   ffe5
002034   cfe9     movff	0xfe9, 0xfe5       	MOVFF	FSR0L, POSTDEC1
002036   ffe5
002038   cfea     movff	0xfea, 0xfe5       	MOVFF	FSR0H, POSTDEC1
00203a   ffe5
00203c   cffa     movff	0xffa, 0xfe5       	MOVFF	PCLATH, POSTDEC1
00203e   ffe5
002040   cffb     movff	0xffb, 0xfe5       	MOVFF	PCLATU, POSTDEC1
002042   ffe5
                                           ;	.line	185; /home/jesuscarlos/Programming_box/Pinguino/Pinguino32X_20120405/svn/trunk/source/main.c	servos_interrupt();
002044   eca4     call	0x4148, 0           	CALL	_servos_interrupt
002046   f020
002048   cfe4     movff	0xfe4, 0xffb       	MOVFF	PREINC1, PCLATU
00204a   fffb
00204c   cfe4     movff	0xfe4, 0xffa       	MOVFF	PREINC1, PCLATH
00204e   fffa
002050   cfe4     movff	0xfe4, 0xfea       	MOVFF	PREINC1, FSR0H
002052   ffea
002054   cfe4     movff	0xfe4, 0xfe9       	MOVFF	PREINC1, FSR0L
002056   ffe9
002058   cfe4     movff	0xfe4, 0xff4       	MOVFF	PREINC1, PRODH
00205a   fff4
00205c   cfe4     movff	0xfe4, 0xff3       	MOVFF	PREINC1, PRODL
00205e   fff3
002060   cfe4     movff	0xfe4, 0xfe0       	MOVFF	PREINC1, BSR
002062   ffe0
002064   cfe4     movff	0xfe4, 0xfd8       	MOVFF	PREINC1, STATUS
002066   ffd8
002068   cfe4     movff	0xfe4, 0xfe8       	MOVFF	PREINC1, WREG
00206a   ffe8
00206c   0010     retfie	0                 	RETFIE	
                                           
                                           ; ; Starting pCode block
                                           S_main__low_priority_isr	code	0X004000
                                           _low_priority_isr:
                                           ;	.line	194; /home/jesuscarlos/Programming_box/Pinguino/Pinguino32X_20120405/svn/trunk/source/main.c	void low_priority_isr(void) interrupt
004000   cfe8     movff	0xfe8, 0xfe5       	MOVFF	WREG, POSTDEC1
004002   ffe5
004004   cfd8     movff	0xfd8, 0xfe5       	MOVFF	STATUS, POSTDEC1
004006   ffe5
004008   cfe0     movff	0xfe0, 0xfe5       	MOVFF	BSR, POSTDEC1
00400a   ffe5
00400c   cff3     movff	0xff3, 0xfe5       	MOVFF	PRODL, POSTDEC1
00400e   ffe5
004010   cff4     movff	0xff4, 0xfe5       	MOVFF	PRODH, POSTDEC1
004012   ffe5
004014   cfe9     movff	0xfe9, 0xfe5       	MOVFF	FSR0L, POSTDEC1
004016   ffe5
004018   cfea     movff	0xfea, 0xfe5       	MOVFF	FSR0H, POSTDEC1
00401a   ffe5
00401c   cffa     movff	0xffa, 0xfe5       	MOVFF	PCLATH, POSTDEC1
00401e   ffe5
004020   cffb     movff	0xffb, 0xfe5       	MOVFF	PCLATU, POSTDEC1
004022   ffe5
                                           ;	.line	199; /home/jesuscarlos/Programming_box/Pinguino/Pinguino32X_20120405/svn/trunk/source/main.c	}
004024   cfe4     movff	0xfe4, 0xffb       	MOVFF	PREINC1, PCLATU
004026   fffb
004028   cfe4     movff	0xfe4, 0xffa       	MOVFF	PREINC1, PCLATH
00402a   fffa
00402c   cfe4     movff	0xfe4, 0xfea       	MOVFF	PREINC1, FSR0H
00402e   ffea
004030   cfe4     movff	0xfe4, 0xfe9       	MOVFF	PREINC1, FSR0L
004032   ffe9
004034   cfe4     movff	0xfe4, 0xff4       	MOVFF	PREINC1, PRODH
004036   fff4
004038   cfe4     movff	0xfe4, 0xff3       	MOVFF	PREINC1, PRODL
00403a   fff3
00403c   cfe4     movff	0xfe4, 0xfe0       	MOVFF	PREINC1, BSR
00403e   ffe0
004040   cfe4     movff	0xfe4, 0xfd8       	MOVFF	PREINC1, STATUS
004042   ffd8
004044   cfe4     movff	0xfe4, 0xfe8       	MOVFF	PREINC1, WREG
004046   ffe8
004048   0010     retfie	0                 	RETFIE	
                                           
                                           ; I code from now on!
                                           ; ; Starting pCode block
                                           S_main__pinguino_main	code
                                           _pinguino_main:
                                           ;	.line	58; /home/jesuscarlos/Programming_box/Pinguino/Pinguino32X_20120405/svn/trunk/source/main.c	PIE1 = 0;
00423c   6a9d     clrf	0x9d, 0             	CLRF	_PIE1
                                           ;	.line	59; /home/jesuscarlos/Programming_box/Pinguino/Pinguino32X_20120405/svn/trunk/source/main.c	PIE2 = 0;
00423e   6aa0     clrf	0xa0, 0             	CLRF	_PIE2
                                           ;	.line	60; /home/jesuscarlos/Programming_box/Pinguino/Pinguino32X_20120405/svn/trunk/source/main.c	ADCON1 = 0b00001111;				// AN0 to AN12 Digital I/O
004240   0e0f     movlw	0xf                	MOVLW	0x0f
004242   6ec1     movwf	0xc1, 0            	MOVWF	_ADCON1
                                           ;	.line	72; /home/jesuscarlos/Programming_box/Pinguino/Pinguino32X_20120405/svn/trunk/source/main.c	setup();
004244   ec04     call	0x4208, 0           	CALL	_setup
004246   f021
                                           ;	.line	87; /home/jesuscarlos/Programming_box/Pinguino/Pinguino32X_20120405/svn/trunk/source/main.c	servos_init();
004248   ec7f     call	0x40fe, 0           	CALL	_servos_init
00424a   f020
                                           ;	.line	115; /home/jesuscarlos/Programming_box/Pinguino/Pinguino32X_20120405/svn/trunk/source/main.c	INTCONbits.PEIE = 1;
00424c   8cf2     bsf	0xf2, 0x6, 0         	BSF	_INTCONbits, 6
                                           ;	.line	116; /home/jesuscarlos/Programming_box/Pinguino/Pinguino32X_20120405/svn/trunk/source/main.c	INTCONbits.GIE  = 1;
00424e   8ef2     bsf	0xf2, 0x7, 0         	BSF	_INTCONbits, 7
                                           _00406_DS_:
                                           ;	.line	124; /home/jesuscarlos/Programming_box/Pinguino/Pinguino32X_20120405/svn/trunk/source/main.c	loop();
004250   ecea     call	0x41d4, 0           	CALL	_loop
004252   f020
004254   d7fd     bra	0x4250               	BRA	_00406_DS_
004256   0012     return	0                 	RETURN	
                                           
                                           ; ; Starting pCode block
                                           S_main__loop	code
                                           _loop:
0041d4   0102     movlb	0x2                	BANKSEL	_position
                                           ;	.line	29; /home/jesuscarlos/Programming_box/Pinguino/Pinguino32X_20120405/svn/trunk/source/user.c	ServoWrite(13,position);
0041d6   5185     movf	0x85, 0, 0x1        	MOVF	_position, W, B
0041d8   6ee5     movwf	0xe5, 0            	MOVWF	POSTDEC1
0041da   0e0d     movlw	0xd                	MOVLW	0x0d
0041dc   6ee5     movwf	0xe5, 0            	MOVWF	POSTDEC1
0041de   eca5     call	0x334a, 0           	CALL	_ServoWrite
0041e0   f019
0041e2   0e02     movlw	0x2                	MOVLW	0x02
0041e4   26e1     addwf	0xe1, 0x1, 0       	ADDWF	FSR1L, F
                                           ;	.line	30; /home/jesuscarlos/Programming_box/Pinguino/Pinguino32X_20120405/svn/trunk/source/user.c	Delayms(500);
0041e6   6ae5     clrf	0xe5, 0             	CLRF	POSTDEC1
0041e8   6ae5     clrf	0xe5, 0             	CLRF	POSTDEC1
0041ea   0e01     movlw	0x1                	MOVLW	0x01
0041ec   6ee5     movwf	0xe5, 0            	MOVWF	POSTDEC1
0041ee   0ef4     movlw	0xf4               	MOVLW	0xf4
0041f0   6ee5     movwf	0xe5, 0            	MOVWF	POSTDEC1
0041f2   ec87     call	0x3d0e, 0           	CALL	_Delayms
0041f4   f01e
0041f6   0e04     movlw	0x4                	MOVLW	0x04
0041f8   26e1     addwf	0xe1, 0x1, 0       	ADDWF	FSR1L, F
0041fa   0102     movlb	0x2                	BANKSEL	_position
                                           ;	.line	31; /home/jesuscarlos/Programming_box/Pinguino/Pinguino32X_20120405/svn/trunk/source/user.c	position++;
0041fc   2b85     incf	0x85, 0x1, 0x1      	INCF	_position, F, B
                                           ;	.line	32; /home/jesuscarlos/Programming_box/Pinguino/Pinguino32X_20120405/svn/trunk/source/user.c	if(position>180) position=0;
0041fe   0eb5     movlw	0xb5               	MOVLW	0xb5
                                           ; #	SUBWF	_position, W, B
                                           ; #	BTFSS	STATUS, 0
                                           ; #	GOTO	_00397_DS_
                                           ; #	CLRF	_position, B
                                           ; #	MOVFF	PREINC1, FSR2L
                                           ; removed redundant BANKSEL
004200   5d85     subwf	0x85, 0, 0x1       	SUBWF	_position, W, B
004202   e301     bnc	0x4206               	BNC	_10418_DS_
                                           ; removed redundant BANKSEL
004204   6b85     clrf	0x85, 0x1           	CLRF	_position, B
                                           _10418_DS_:
004206   0012     return	0                 	RETURN	
                                           
                                           ; ; Starting pCode block
                                           S_main__setup	code
                                           _setup:
                                           ;	.line	22; /home/jesuscarlos/Programming_box/Pinguino/Pinguino32X_20120405/svn/trunk/source/user.c	ServoAttach(13);
004208   0e0d     movlw	0xd                	MOVLW	0x0d
00420a   6ee5     movwf	0xe5, 0            	MOVWF	POSTDEC1
00420c   ecf1     call	0x39e2, 0           	CALL	_ServoAttach
00420e   f01c
004210   2ae1     incf	0xe1, 0x1, 0        	INCF	FSR1L, F
                                           ;	.line	23; /home/jesuscarlos/Programming_box/Pinguino/Pinguino32X_20120405/svn/trunk/source/user.c	ServoMaximumPulse(13,2500);  
004212   0e09     movlw	0x9                	MOVLW	0x09
004214   6ee5     movwf	0xe5, 0            	MOVWF	POSTDEC1
004216   0ec4     movlw	0xc4               	MOVLW	0xc4
004218   6ee5     movwf	0xe5, 0            	MOVWF	POSTDEC1
00421a   0e0d     movlw	0xd                	MOVLW	0x0d
00421c   6ee5     movwf	0xe5, 0            	MOVWF	POSTDEC1
00421e   ec21     call	0x3e42, 0           	CALL	_ServoMaximumPulse
004220   f01f
004222   0e03     movlw	0x3                	MOVLW	0x03
004224   26e1     addwf	0xe1, 0x1, 0       	ADDWF	FSR1L, F
                                           ;	.line	24; /home/jesuscarlos/Programming_box/Pinguino/Pinguino32X_20120405/svn/trunk/source/user.c	ServoMaximumPulse(13,500);   
004226   0e01     movlw	0x1                	MOVLW	0x01
004228   6ee5     movwf	0xe5, 0            	MOVWF	POSTDEC1
00422a   0ef4     movlw	0xf4               	MOVLW	0xf4
00422c   6ee5     movwf	0xe5, 0            	MOVWF	POSTDEC1
00422e   0e0d     movlw	0xd                	MOVLW	0x0d
004230   6ee5     movwf	0xe5, 0            	MOVWF	POSTDEC1
004232   ec21     call	0x3e42, 0           	CALL	_ServoMaximumPulse
004234   f01f
004236   0e03     movlw	0x3                	MOVLW	0x03
004238   26e1     addwf	0xe1, 0x1, 0       	ADDWF	FSR1L, F
00423a   0012     return	0                 	RETURN	
                                           
                                           ; ; Starting pCode block
                                           S_main__epapout_init	code
                                           _epapout_init:
                                           ;	.line	46; /home/jesuscarlos/Programming_box/Pinguino/Pinguino32X_20120405/svn/trunk/source/main.c	void epapout_init() { return; }
003ffe   0012     return	0                 	RETURN	
                                           
                                           ; ; Starting pCode block
                                           S_main__epapin_init	code
                                           _epapin_init:
                                           ;	.line	45; /home/jesuscarlos/Programming_box/Pinguino/Pinguino32X_20120405/svn/trunk/source/main.c	void epapin_init() { return; }
004286   0012     return	0                 	RETURN	
                                           
                                           ; ; Starting pCode block
                                           S_main__epap_out	code
                                           _epap_out:
                                           ;	.line	44; /home/jesuscarlos/Programming_box/Pinguino/Pinguino32X_20120405/svn/trunk/source/main.c	void epap_out() { return; }
004288   0012     return	0                 	RETURN	
                                           
                                           ; ; Starting pCode block
                                           S_main__epap_in	code
                                           _epap_in:
                                           ;	.line	43; /home/jesuscarlos/Programming_box/Pinguino/Pinguino32X_20120405/svn/trunk/source/main.c	void epap_in() { return; }
00428a   0012     return	0                 	RETURN	
                                           
                                           ; ; Starting pCode block
                                           S_main__servos_interrupt	code
                                           _servos_interrupt:
                                           ;	.line	1043; /home/jesuscarlos/Programming_box/Pinguino/Pinguino32X_20120405/svn/trunk/p8/include/pinguino/libraries/servos.c	if (PIR1bits.TMR1IF) {
004148   a09e     btfss	0x9e, 0, 0         	BTFSS	_PIR1bits, 0
00414a   d020     bra	0x418c               	BRA	_00365_DS_
                                           ;	.line	1044; /home/jesuscarlos/Programming_box/Pinguino/Pinguino32X_20120405/svn/trunk/p8/include/pinguino/libraries/servos.c	PIR1bits.TMR1IF=0;
00414c   909e     bcf	0x9e, 0, 0           	BCF	_PIR1bits, 0
                                           ;	.line	1045; /home/jesuscarlos/Programming_box/Pinguino/Pinguino32X_20120405/svn/trunk/p8/include/pinguino/libraries/servos.c	T1CON=0x00;
00414e   6acd     clrf	0xcd, 0             	CLRF	_T1CON
004150   0102     movlb	0x2                	BANKSEL	_phase
                                           ;	.line	1046; /home/jesuscarlos/Programming_box/Pinguino/Pinguino32X_20120405/svn/trunk/p8/include/pinguino/libraries/servos.c	if (phase) {
004152   517f     movf	0x7f, 0, 0x1        	MOVF	_phase, W, B
004154   e00b     bz	0x416c                	BZ	_00361_DS_
                                           ;	.line	1048; /home/jesuscarlos/Programming_box/Pinguino/Pinguino32X_20120405/svn/trunk/p8/include/pinguino/libraries/servos.c	ServosPulseUp();
004156   ecf8     call	0x3ff0, 0           	CALL	_ServosPulseUp
004158   f01f
                                           ;	.line	1051; /home/jesuscarlos/Programming_box/Pinguino/Pinguino32X_20120405/svn/trunk/p8/include/pinguino/libraries/servos.c	TMR1H= 0xe8;
00415a   0ee8     movlw	0xe8               	MOVLW	0xe8
00415c   6ecf     movwf	0xcf, 0            	MOVWF	_TMR1H
                                           ;	.line	1052; /home/jesuscarlos/Programming_box/Pinguino/Pinguino32X_20120405/svn/trunk/p8/include/pinguino/libraries/servos.c	TMR1L= 0x59;
00415e   0e59     movlw	0x59               	MOVLW	0x59
004160   6ece     movwf	0xce, 0            	MOVWF	_TMR1L
                                           ;	.line	1054; /home/jesuscarlos/Programming_box/Pinguino/Pinguino32X_20120405/svn/trunk/p8/include/pinguino/libraries/servos.c	T1CON=1;
004162   0e01     movlw	0x1                	MOVLW	0x01
004164   6ecd     movwf	0xcd, 0            	MOVWF	_T1CON
004166   0102     movlb	0x2                	BANKSEL	_phase
                                           ;	.line	1055; /home/jesuscarlos/Programming_box/Pinguino/Pinguino32X_20120405/svn/trunk/p8/include/pinguino/libraries/servos.c	phase = 0;
004168   6b7f     clrf	0x7f, 0x1           	CLRF	_phase, B
00416a   d010     bra	0x418c               	BRA	_00365_DS_
                                           _00361_DS_:
                                           ;	.line	1060; /home/jesuscarlos/Programming_box/Pinguino/Pinguino32X_20120405/svn/trunk/p8/include/pinguino/libraries/servos.c	ServosPulseDown();
00416c   eccb     call	0x3b96, 0           	CALL	_ServosPulseDown
00416e   f01d
                                           ;	.line	1067; /home/jesuscarlos/Programming_box/Pinguino/Pinguino32X_20120405/svn/trunk/p8/include/pinguino/libraries/servos.c	TMR1H= 0x32;
004170   0e32     movlw	0x32               	MOVLW	0x32
004172   6ecf     movwf	0xcf, 0            	MOVWF	_TMR1H
                                           ;	.line	1068; /home/jesuscarlos/Programming_box/Pinguino/Pinguino32X_20120405/svn/trunk/p8/include/pinguino/libraries/servos.c	TMR1L= 0xeb;
004174   0eeb     movlw	0xeb               	MOVLW	0xeb
004176   6ece     movwf	0xce, 0            	MOVWF	_TMR1L
                                           ; #	MOVF	_needreordering, W, B
                                           ; #	BTFSC	STATUS, 2
                                           ; #	GOTO	_00359_DS_
                                           ; #	CALL	_SortServoTimings
                                           ; #	MOVLW	0x21
004178   0102     movlb	0x2                	BANKSEL	_needreordering
                                           ;	.line	1070; /home/jesuscarlos/Programming_box/Pinguino/Pinguino32X_20120405/svn/trunk/p8/include/pinguino/libraries/servos.c	if (needreordering)	
00417a   5180     movf	0x80, 0, 0x1        	MOVF	_needreordering, W, B
                                           ;	.line	1071; /home/jesuscarlos/Programming_box/Pinguino/Pinguino32X_20120405/svn/trunk/p8/include/pinguino/libraries/servos.c	SortServoTimings();  // This takes more than 1 ms, but it's call only if needed.
00417c   a4d8     btfss	0xd8, 0x2, 0       	BTFSS	STATUS, 2
                                           ;	.line	1072; /home/jesuscarlos/Programming_box/Pinguino/Pinguino32X_20120405/svn/trunk/p8/include/pinguino/libraries/servos.c	T1CON= ( 1 | 2 << 4 ) ; // activate timer1 and prescaler = 1:4
00417e   ec37     call	0x206e, 0           	CALL	_SortServoTimings
004180   f010
004182   0e21     movlw	0x21               	MOVLW	0x21
004184   6ecd     movwf	0xcd, 0            	MOVWF	_T1CON
                                           ;	.line	1073; /home/jesuscarlos/Programming_box/Pinguino/Pinguino32X_20120405/svn/trunk/p8/include/pinguino/libraries/servos.c	phase = 1;  //This indicates that after next interrupt it will start the servos cycle.
004186   0e01     movlw	0x1                	MOVLW	0x01
004188   0102     movlb	0x2                	BANKSEL	_phase
00418a   6f7f     movwf	0x7f, 0x1          	MOVWF	_phase, B
                                           _00365_DS_:
                                           ;	.line	1076; /home/jesuscarlos/Programming_box/Pinguino/Pinguino32X_20120405/svn/trunk/p8/include/pinguino/libraries/servos.c	return;
00418c   0012     return	0                 	RETURN	
                                           
                                           ; ; Starting pCode block
                                           S_main__ServoMaximumPulse	code
                                           _ServoMaximumPulse:
                                           ;	.line	1020; /home/jesuscarlos/Programming_box/Pinguino/Pinguino32X_20120405/svn/trunk/p8/include/pinguino/libraries/servos.c	void ServoMaximumPulse(unsigned char servo,int max_microseconds)
003e42   cfd9     movff	0xfd9, 0xfe5       	MOVFF	FSR2L, POSTDEC1
003e44   ffe5
003e46   cfe1     movff	0xfe1, 0xfd9       	MOVFF	FSR1L, FSR2L
003e48   ffd9
003e4a   c000     movff	0, 0xfe5           	MOVFF	r0x00, POSTDEC1
003e4c   ffe5
003e4e   c001     movff	0x1, 0xfe5         	MOVFF	r0x01, POSTDEC1
003e50   ffe5
003e52   c002     movff	0x2, 0xfe5         	MOVFF	r0x02, POSTDEC1
003e54   ffe5
003e56   0e02     movlw	0x2                	MOVLW	0x02
003e58   cfdb     movff	0xfdb, 0           	MOVFF	PLUSW2, r0x00
003e5a   f000
003e5c   0e03     movlw	0x3                	MOVLW	0x03
003e5e   cfdb     movff	0xfdb, 0x1         	MOVFF	PLUSW2, r0x01
003e60   f001
003e62   0e04     movlw	0x4                	MOVLW	0x04
003e64   cfdb     movff	0xfdb, 0x2         	MOVFF	PLUSW2, r0x02
003e66   f002
                                           ;	.line	1025; /home/jesuscarlos/Programming_box/Pinguino/Pinguino32X_20120405/svn/trunk/p8/include/pinguino/libraries/servos.c	if(servo>=PIC18F2550_pins)        
003e68   0e12     movlw	0x12               	MOVLW	0x12
                                           ; #	SUBWF	r0x00, W
                                           ; #	BTFSS	STATUS, 0
                                           ; #	GOTO	_00343_DS_
                                           ; #	GOTO	_00347_DS_
                                           ; #	MOVF	r0x02, W
                                           ;	.line	1026; /home/jesuscarlos/Programming_box/Pinguino/Pinguino32X_20120405/svn/trunk/p8/include/pinguino/libraries/servos.c	return;
003e6a   5c00     subwf	0, 0, 0            	SUBWF	r0x00, W
                                           ;	.line	1028; /home/jesuscarlos/Programming_box/Pinguino/Pinguino32X_20120405/svn/trunk/p8/include/pinguino/libraries/servos.c	if((max_microseconds<500) || (max_microseconds>2500))
003e6c   e22a     bc	0x3ec2                	BC	_00347_DS_
003e6e   5002     movf	0x2, 0, 0           	MOVF	r0x02, W
003e70   0f80     addlw	0x80               	ADDLW	0x80
003e72   0f7f     addlw	0x7f               	ADDLW	0x7f
003e74   e102     bnz	0x3e7a               	BNZ	_00352_DS_
003e76   0ef4     movlw	0xf4               	MOVLW	0xf4
003e78   5c01     subwf	0x1, 0, 0          	SUBWF	r0x01, W
                                           _00352_DS_:
003e7a   e323     bnc	0x3ec2               	BNC	_00347_DS_
003e7c   5002     movf	0x2, 0, 0           	MOVF	r0x02, W
003e7e   0f80     addlw	0x80               	ADDLW	0x80
003e80   0f77     addlw	0x77               	ADDLW	0x77
003e82   e102     bnz	0x3e88               	BNZ	_00353_DS_
003e84   0ec5     movlw	0xc5               	MOVLW	0xc5
003e86   5c01     subwf	0x1, 0, 0          	SUBWF	r0x01, W
                                           _00353_DS_:
003e88   e301     bnc	0x3e8c               	BNC	_00345_DS_
                                           _00344_DS_:
                                           ;	.line	1029; /home/jesuscarlos/Programming_box/Pinguino/Pinguino32X_20120405/svn/trunk/p8/include/pinguino/libraries/servos.c	return;
003e8a   d01b     bra	0x3ec2               	BRA	_00347_DS_
                                           _00345_DS_:
                                           ;	.line	1032; /home/jesuscarlos/Programming_box/Pinguino/Pinguino32X_20120405/svn/trunk/p8/include/pinguino/libraries/servos.c	final_max=(max_microseconds-500+1)/8;
003e8c   0e0d     movlw	0xd                	MOVLW	0x0d
003e8e   2601     addwf	0x1, 0x1, 0        	ADDWF	r0x01, F
003e90   0efe     movlw	0xfe               	MOVLW	0xfe
003e92   2202     addwfc	0x2, 0x1, 0       	ADDWFC	r0x02, F
003e94   6ae5     clrf	0xe5, 0             	CLRF	POSTDEC1
003e96   0e08     movlw	0x8                	MOVLW	0x08
003e98   6ee5     movwf	0xe5, 0            	MOVWF	POSTDEC1
003e9a   5002     movf	0x2, 0, 0           	MOVF	r0x02, W
003e9c   6ee5     movwf	0xe5, 0            	MOVWF	POSTDEC1
003e9e   5001     movf	0x1, 0, 0           	MOVF	r0x01, W
003ea0   6ee5     movwf	0xe5, 0            	MOVWF	POSTDEC1
003ea2   ecfe     call	0x37fc, 0           	CALL	__divsint
003ea4   f01b
003ea6   6e01     movwf	0x1, 0             	MOVWF	r0x01
003ea8   0e04     movlw	0x4                	MOVLW	0x04
003eaa   26e1     addwf	0xe1, 0x1, 0       	ADDWF	FSR1L, F
                                           ;	.line	1035; /home/jesuscarlos/Programming_box/Pinguino/Pinguino32X_20120405/svn/trunk/p8/include/pinguino/libraries/servos.c	maxminpos[1][servo]=final_max; 
003eac   6a02     clrf	0x2, 0              	CLRF	r0x02
003eae   0e5a     movlw	0x5a               	MOVLW	LOW(_maxminpos + 18)
003eb0   2600     addwf	0, 0x1, 0          	ADDWF	r0x00, F
003eb2   0e02     movlw	0x2                	MOVLW	HIGH(_maxminpos + 18)
003eb4   2202     addwfc	0x2, 0x1, 0       	ADDWFC	r0x02, F
003eb6   c000     movff	0, 0xfe9           	MOVFF	r0x00, FSR0L
003eb8   ffe9
003eba   c002     movff	0x2, 0xfea         	MOVFF	r0x02, FSR0H
003ebc   ffea
003ebe   c001     movff	0x1, 0xfef         	MOVFF	r0x01, INDF0
003ec0   ffef
                                           _00347_DS_:
003ec2   cfe4     movff	0xfe4, 0x2         	MOVFF	PREINC1, r0x02
003ec4   f002
003ec6   cfe4     movff	0xfe4, 0x1         	MOVFF	PREINC1, r0x01
003ec8   f001
003eca   cfe4     movff	0xfe4, 0           	MOVFF	PREINC1, r0x00
003ecc   f000
003ece   cfe4     movff	0xfe4, 0xfd9       	MOVFF	PREINC1, FSR2L
003ed0   ffd9
003ed2   0012     return	0                 	RETURN	
                                           
                                           ; ; Starting pCode block
                                           S_main__ServoMinimumPulse	code
                                           _ServoMinimumPulse:
                                           ;	.line	1001; /home/jesuscarlos/Programming_box/Pinguino/Pinguino32X_20120405/svn/trunk/p8/include/pinguino/libraries/servos.c	void ServoMinimumPulse(unsigned char servo,int min_microseconds)
003ed4   cfd9     movff	0xfd9, 0xfe5       	MOVFF	FSR2L, POSTDEC1
003ed6   ffe5
003ed8   cfe1     movff	0xfe1, 0xfd9       	MOVFF	FSR1L, FSR2L
003eda   ffd9
003edc   c000     movff	0, 0xfe5           	MOVFF	r0x00, POSTDEC1
003ede   ffe5
003ee0   c001     movff	0x1, 0xfe5         	MOVFF	r0x01, POSTDEC1
003ee2   ffe5
003ee4   c002     movff	0x2, 0xfe5         	MOVFF	r0x02, POSTDEC1
003ee6   ffe5
003ee8   0e02     movlw	0x2                	MOVLW	0x02
003eea   cfdb     movff	0xfdb, 0           	MOVFF	PLUSW2, r0x00
003eec   f000
003eee   0e03     movlw	0x3                	MOVLW	0x03
003ef0   cfdb     movff	0xfdb, 0x1         	MOVFF	PLUSW2, r0x01
003ef2   f001
003ef4   0e04     movlw	0x4                	MOVLW	0x04
003ef6   cfdb     movff	0xfdb, 0x2         	MOVFF	PLUSW2, r0x02
003ef8   f002
                                           ;	.line	1006; /home/jesuscarlos/Programming_box/Pinguino/Pinguino32X_20120405/svn/trunk/p8/include/pinguino/libraries/servos.c	if(servo>=PIC18F2550_pins)        
003efa   0e12     movlw	0x12               	MOVLW	0x12
                                           ; #	SUBWF	r0x00, W
                                           ; #	BTFSS	STATUS, 0
                                           ; #	GOTO	_00327_DS_
                                           ; #	GOTO	_00331_DS_
                                           ; #	MOVF	r0x02, W
                                           ;	.line	1007; /home/jesuscarlos/Programming_box/Pinguino/Pinguino32X_20120405/svn/trunk/p8/include/pinguino/libraries/servos.c	return;
003efc   5c00     subwf	0, 0, 0            	SUBWF	r0x00, W
                                           ;	.line	1009; /home/jesuscarlos/Programming_box/Pinguino/Pinguino32X_20120405/svn/trunk/p8/include/pinguino/libraries/servos.c	if((min_microseconds<500) || (min_microseconds>2500))
003efe   e22a     bc	0x3f54                	BC	_00331_DS_
003f00   5002     movf	0x2, 0, 0           	MOVF	r0x02, W
003f02   0f80     addlw	0x80               	ADDLW	0x80
003f04   0f7f     addlw	0x7f               	ADDLW	0x7f
003f06   e102     bnz	0x3f0c               	BNZ	_00336_DS_
003f08   0ef4     movlw	0xf4               	MOVLW	0xf4
003f0a   5c01     subwf	0x1, 0, 0          	SUBWF	r0x01, W
                                           _00336_DS_:
003f0c   e323     bnc	0x3f54               	BNC	_00331_DS_
003f0e   5002     movf	0x2, 0, 0           	MOVF	r0x02, W
003f10   0f80     addlw	0x80               	ADDLW	0x80
003f12   0f77     addlw	0x77               	ADDLW	0x77
003f14   e102     bnz	0x3f1a               	BNZ	_00337_DS_
003f16   0ec5     movlw	0xc5               	MOVLW	0xc5
003f18   5c01     subwf	0x1, 0, 0          	SUBWF	r0x01, W
                                           _00337_DS_:
003f1a   e301     bnc	0x3f1e               	BNC	_00329_DS_
                                           _00328_DS_:
                                           ;	.line	1010; /home/jesuscarlos/Programming_box/Pinguino/Pinguino32X_20120405/svn/trunk/p8/include/pinguino/libraries/servos.c	return;
003f1c   d01b     bra	0x3f54               	BRA	_00331_DS_
                                           _00329_DS_:
                                           ;	.line	1013; /home/jesuscarlos/Programming_box/Pinguino/Pinguino32X_20120405/svn/trunk/p8/include/pinguino/libraries/servos.c	final_min=(min_microseconds-500+1)/8;
003f1e   0e0d     movlw	0xd                	MOVLW	0x0d
003f20   2601     addwf	0x1, 0x1, 0        	ADDWF	r0x01, F
003f22   0efe     movlw	0xfe               	MOVLW	0xfe
003f24   2202     addwfc	0x2, 0x1, 0       	ADDWFC	r0x02, F
003f26   6ae5     clrf	0xe5, 0             	CLRF	POSTDEC1
003f28   0e08     movlw	0x8                	MOVLW	0x08
003f2a   6ee5     movwf	0xe5, 0            	MOVWF	POSTDEC1
003f2c   5002     movf	0x2, 0, 0           	MOVF	r0x02, W
003f2e   6ee5     movwf	0xe5, 0            	MOVWF	POSTDEC1
003f30   5001     movf	0x1, 0, 0           	MOVF	r0x01, W
003f32   6ee5     movwf	0xe5, 0            	MOVWF	POSTDEC1
003f34   ecfe     call	0x37fc, 0           	CALL	__divsint
003f36   f01b
003f38   6e01     movwf	0x1, 0             	MOVWF	r0x01
003f3a   0e04     movlw	0x4                	MOVLW	0x04
003f3c   26e1     addwf	0xe1, 0x1, 0       	ADDWF	FSR1L, F
                                           ;	.line	1016; /home/jesuscarlos/Programming_box/Pinguino/Pinguino32X_20120405/svn/trunk/p8/include/pinguino/libraries/servos.c	maxminpos[0][servo]=final_min; 
003f3e   6a02     clrf	0x2, 0              	CLRF	r0x02
003f40   0e48     movlw	0x48               	MOVLW	LOW(_maxminpos)
003f42   2600     addwf	0, 0x1, 0          	ADDWF	r0x00, F
003f44   0e02     movlw	0x2                	MOVLW	HIGH(_maxminpos)
003f46   2202     addwfc	0x2, 0x1, 0       	ADDWFC	r0x02, F
003f48   c000     movff	0, 0xfe9           	MOVFF	r0x00, FSR0L
003f4a   ffe9
003f4c   c002     movff	0x2, 0xfea         	MOVFF	r0x02, FSR0H
003f4e   ffea
003f50   c001     movff	0x1, 0xfef         	MOVFF	r0x01, INDF0
003f52   ffef
                                           _00331_DS_:
003f54   cfe4     movff	0xfe4, 0x2         	MOVFF	PREINC1, r0x02
003f56   f002
003f58   cfe4     movff	0xfe4, 0x1         	MOVFF	PREINC1, r0x01
003f5a   f001
003f5c   cfe4     movff	0xfe4, 0           	MOVFF	PREINC1, r0x00
003f5e   f000
003f60   cfe4     movff	0xfe4, 0xfd9       	MOVFF	PREINC1, FSR2L
003f62   ffd9
003f64   0012     return	0                 	RETURN	
                                           
                                           ; ; Starting pCode block
                                           S_main__ServoRead	code
                                           _ServoRead:
                                           ;	.line	993; /home/jesuscarlos/Programming_box/Pinguino/Pinguino32X_20120405/svn/trunk/p8/include/pinguino/libraries/servos.c	unsigned char ServoRead(uchar servo)
00418e   cfd9     movff	0xfd9, 0xfe5       	MOVFF	FSR2L, POSTDEC1
004190   ffe5
004192   cfe1     movff	0xfe1, 0xfd9       	MOVFF	FSR1L, FSR2L
004194   ffd9
004196   c000     movff	0, 0xfe5           	MOVFF	r0x00, POSTDEC1
004198   ffe5
00419a   c001     movff	0x1, 0xfe5         	MOVFF	r0x01, POSTDEC1
00419c   ffe5
00419e   0e02     movlw	0x2                	MOVLW	0x02
0041a0   cfdb     movff	0xfdb, 0           	MOVFF	PLUSW2, r0x00
0041a2   f000
                                           ;	.line	995; /home/jesuscarlos/Programming_box/Pinguino/Pinguino32X_20120405/svn/trunk/p8/include/pinguino/libraries/servos.c	if(servo>=PIC18F2550_pins)        // test if numservo is valid
0041a4   0e12     movlw	0x12               	MOVLW	0x12
0041a6   5c00     subwf	0, 0, 0            	SUBWF	r0x00, W
0041a8   e302     bnc	0x41ae               	BNC	_00317_DS_
                                           ;	.line	996; /home/jesuscarlos/Programming_box/Pinguino/Pinguino32X_20120405/svn/trunk/p8/include/pinguino/libraries/servos.c	return 0;
0041aa   6ae8     clrf	0xe8, 0             	CLRF	WREG
0041ac   d00c     bra	0x41c6               	BRA	_00318_DS_
                                           _00317_DS_:
                                           ;	.line	997; /home/jesuscarlos/Programming_box/Pinguino/Pinguino32X_20120405/svn/trunk/p8/include/pinguino/libraries/servos.c	return servovalues[servo];
0041ae   6a01     clrf	0x1, 0              	CLRF	r0x01
0041b0   0e6c     movlw	0x6c               	MOVLW	LOW(_servovalues)
0041b2   2600     addwf	0, 0x1, 0          	ADDWF	r0x00, F
0041b4   0e02     movlw	0x2                	MOVLW	HIGH(_servovalues)
0041b6   2201     addwfc	0x1, 0x1, 0       	ADDWFC	r0x01, F
0041b8   c000     movff	0, 0xfe9           	MOVFF	r0x00, FSR0L
0041ba   ffe9
0041bc   c001     movff	0x1, 0xfea         	MOVFF	r0x01, FSR0H
0041be   ffea
0041c0   cfef     movff	0xfef, 0           	MOVFF	INDF0, r0x00
0041c2   f000
0041c4   5000     movf	0, 0, 0             	MOVF	r0x00, W
                                           _00318_DS_:
0041c6   cfe4     movff	0xfe4, 0x1         	MOVFF	PREINC1, r0x01
0041c8   f001
0041ca   cfe4     movff	0xfe4, 0           	MOVFF	PREINC1, r0x00
0041cc   f000
0041ce   cfe4     movff	0xfe4, 0xfd9       	MOVFF	PREINC1, FSR2L
0041d0   ffd9
0041d2   0012     return	0                 	RETURN	
                                           
                                           ; ; Starting pCode block
                                           S_main__ServoWrite	code
                                           _ServoWrite:
                                           ;	.line	964; /home/jesuscarlos/Programming_box/Pinguino/Pinguino32X_20120405/svn/trunk/p8/include/pinguino/libraries/servos.c	void ServoWrite(unsigned char servo,unsigned char degrees)
00334a   cfd9     movff	0xfd9, 0xfe5       	MOVFF	FSR2L, POSTDEC1
00334c   ffe5
00334e   cfe1     movff	0xfe1, 0xfd9       	MOVFF	FSR1L, FSR2L
003350   ffd9
003352   c000     movff	0, 0xfe5           	MOVFF	r0x00, POSTDEC1
003354   ffe5
003356   c001     movff	0x1, 0xfe5         	MOVFF	r0x01, POSTDEC1
003358   ffe5
00335a   c002     movff	0x2, 0xfe5         	MOVFF	r0x02, POSTDEC1
00335c   ffe5
00335e   c003     movff	0x3, 0xfe5         	MOVFF	r0x03, POSTDEC1
003360   ffe5
003362   c004     movff	0x4, 0xfe5         	MOVFF	r0x04, POSTDEC1
003364   ffe5
003366   c005     movff	0x5, 0xfe5         	MOVFF	r0x05, POSTDEC1
003368   ffe5
00336a   c006     movff	0x6, 0xfe5         	MOVFF	r0x06, POSTDEC1
00336c   ffe5
00336e   c007     movff	0x7, 0xfe5         	MOVFF	r0x07, POSTDEC1
003370   ffe5
003372   c008     movff	0x8, 0xfe5         	MOVFF	r0x08, POSTDEC1
003374   ffe5
003376   c009     movff	0x9, 0xfe5         	MOVFF	r0x09, POSTDEC1
003378   ffe5
00337a   0e02     movlw	0x2                	MOVLW	0x02
00337c   cfdb     movff	0xfdb, 0           	MOVFF	PLUSW2, r0x00
00337e   f000
003380   0e03     movlw	0x3                	MOVLW	0x03
003382   cfdb     movff	0xfdb, 0x1         	MOVFF	PLUSW2, r0x01
003384   f001
                                           ;	.line	971; /home/jesuscarlos/Programming_box/Pinguino/Pinguino32X_20120405/svn/trunk/p8/include/pinguino/libraries/servos.c	if(servo>=PIC18F2550_pins) {
003386   0e12     movlw	0x12               	MOVLW	0x12
                                           ; #	SUBWF	r0x00, W
                                           ; #	BTFSS	STATUS, 0
                                           ; #	GOTO	_00300_DS_
                                           ; #	GOTO	_00303_DS_
                                           ; #	MOVLW	0xb5
                                           ;	.line	972; /home/jesuscarlos/Programming_box/Pinguino/Pinguino32X_20120405/svn/trunk/p8/include/pinguino/libraries/servos.c	return;
003388   5c00     subwf	0, 0, 0            	SUBWF	r0x00, W
                                           ;	.line	975; /home/jesuscarlos/Programming_box/Pinguino/Pinguino32X_20120405/svn/trunk/p8/include/pinguino/libraries/servos.c	if(degrees>180) {
00338a   b0d8     btfsc	0xd8, 0, 0         	BTFSC	STATUS, 0
00338c   d0d2     bra	0x3532               	BRA	_00303_DS_
00338e   0eb5     movlw	0xb5               	MOVLW	0xb5
003390   5c01     subwf	0x1, 0, 0          	SUBWF	r0x01, W
003392   e302     bnc	0x3398               	BNC	_00302_DS_
                                           ;	.line	976; /home/jesuscarlos/Programming_box/Pinguino/Pinguino32X_20120405/svn/trunk/p8/include/pinguino/libraries/servos.c	degrees=180;
003394   0eb4     movlw	0xb4               	MOVLW	0xb4
003396   6e01     movwf	0x1, 0             	MOVWF	r0x01
                                           _00302_DS_:
                                           ;	.line	980; /home/jesuscarlos/Programming_box/Pinguino/Pinguino32X_20120405/svn/trunk/p8/include/pinguino/libraries/servos.c	difference = (maxminpos[1][servo]-maxminpos[0][servo]);
003398   0e5a     movlw	0x5a               	MOVLW	LOW(_maxminpos + 18)
00339a   2400     addwf	0, 0, 0            	ADDWF	r0x00, W
00339c   6e02     movwf	0x2, 0             	MOVWF	r0x02
00339e   6a03     clrf	0x3, 0              	CLRF	r0x03
0033a0   0e02     movlw	0x2                	MOVLW	HIGH(_maxminpos + 18)
0033a2   2203     addwfc	0x3, 0x1, 0       	ADDWFC	r0x03, F
0033a4   0e48     movlw	0x48               	MOVLW	LOW(_maxminpos)
0033a6   2400     addwf	0, 0, 0            	ADDWF	r0x00, W
0033a8   6e04     movwf	0x4, 0             	MOVWF	r0x04
0033aa   6a05     clrf	0x5, 0              	CLRF	r0x05
0033ac   0e02     movlw	0x2                	MOVLW	HIGH(_maxminpos)
0033ae   2205     addwfc	0x5, 0x1, 0       	ADDWFC	r0x05, F
0033b0   c004     movff	0x4, 0xfe9         	MOVFF	r0x04, FSR0L
0033b2   ffe9
0033b4   c005     movff	0x5, 0xfea         	MOVFF	r0x05, FSR0H
0033b6   ffea
0033b8   cfef     movff	0xfef, 0x4         	MOVFF	INDF0, r0x04
0033ba   f004
0033bc   c002     movff	0x2, 0xfe9         	MOVFF	r0x02, FSR0L
0033be   ffe9
0033c0   c003     movff	0x3, 0xfea         	MOVFF	r0x03, FSR0H
0033c2   ffea
0033c4   cfef     movff	0xfef, 0x2         	MOVFF	INDF0, r0x02
0033c6   f002
0033c8   5004     movf	0x4, 0, 0           	MOVF	r0x04, W
0033ca   5e02     subwf	0x2, 0x1, 0        	SUBWF	r0x02, F
                                           ;	.line	981; /home/jesuscarlos/Programming_box/Pinguino/Pinguino32X_20120405/svn/trunk/p8/include/pinguino/libraries/servos.c	ticksperdegree = ((float)difference/180);
0033cc   5002     movf	0x2, 0, 0           	MOVF	r0x02, W
0033ce   6ee5     movwf	0xe5, 0            	MOVWF	POSTDEC1
0033d0   ec25     call	0x404a, 0           	CALL	___uchar2fs
0033d2   f020
0033d4   6e02     movwf	0x2, 0             	MOVWF	r0x02
0033d6   cff3     movff	0xff3, 0x3         	MOVFF	PRODL, r0x03
0033d8   f003
0033da   cff4     movff	0xff4, 0x5         	MOVFF	PRODH, r0x05
0033dc   f005
0033de   cfe9     movff	0xfe9, 0x6         	MOVFF	FSR0L, r0x06
0033e0   f006
0033e2   2ae1     incf	0xe1, 0x1, 0        	INCF	FSR1L, F
0033e4   0e43     movlw	0x43               	MOVLW	0x43
0033e6   6ee5     movwf	0xe5, 0            	MOVWF	POSTDEC1
0033e8   0e34     movlw	0x34               	MOVLW	0x34
0033ea   6ee5     movwf	0xe5, 0            	MOVWF	POSTDEC1
0033ec   6ae5     clrf	0xe5, 0             	CLRF	POSTDEC1
0033ee   6ae5     clrf	0xe5, 0             	CLRF	POSTDEC1
0033f0   5006     movf	0x6, 0, 0           	MOVF	r0x06, W
0033f2   6ee5     movwf	0xe5, 0            	MOVWF	POSTDEC1
0033f4   5005     movf	0x5, 0, 0           	MOVF	r0x05, W
0033f6   6ee5     movwf	0xe5, 0            	MOVWF	POSTDEC1
0033f8   5003     movf	0x3, 0, 0           	MOVF	r0x03, W
0033fa   6ee5     movwf	0xe5, 0            	MOVWF	POSTDEC1
0033fc   5002     movf	0x2, 0, 0           	MOVF	r0x02, W
0033fe   6ee5     movwf	0xe5, 0            	MOVWF	POSTDEC1
003400   ec46     call	0x2c8c, 0           	CALL	___fsdiv
003402   f016
003404   6e02     movwf	0x2, 0             	MOVWF	r0x02
003406   cff3     movff	0xff3, 0x3         	MOVFF	PRODL, r0x03
003408   f003
00340a   cff4     movff	0xff4, 0x5         	MOVFF	PRODH, r0x05
00340c   f005
00340e   cfe9     movff	0xfe9, 0x6         	MOVFF	FSR0L, r0x06
003410   f006
003412   0e08     movlw	0x8                	MOVLW	0x08
003414   26e1     addwf	0xe1, 0x1, 0       	ADDWF	FSR1L, F
                                           ;	.line	982; /home/jesuscarlos/Programming_box/Pinguino/Pinguino32X_20120405/svn/trunk/p8/include/pinguino/libraries/servos.c	value = abs(degrees*ticksperdegree) + maxminpos[0][servo];
003416   5001     movf	0x1, 0, 0           	MOVF	r0x01, W
003418   6ee5     movwf	0xe5, 0            	MOVWF	POSTDEC1
00341a   ec25     call	0x404a, 0           	CALL	___uchar2fs
00341c   f020
00341e   6e01     movwf	0x1, 0             	MOVWF	r0x01
003420   cff3     movff	0xff3, 0x7         	MOVFF	PRODL, r0x07
003422   f007
003424   cff4     movff	0xff4, 0x8         	MOVFF	PRODH, r0x08
003426   f008
003428   cfe9     movff	0xfe9, 0x9         	MOVFF	FSR0L, r0x09
00342a   f009
00342c   2ae1     incf	0xe1, 0x1, 0        	INCF	FSR1L, F
00342e   5006     movf	0x6, 0, 0           	MOVF	r0x06, W
003430   6ee5     movwf	0xe5, 0            	MOVWF	POSTDEC1
003432   5005     movf	0x5, 0, 0           	MOVF	r0x05, W
003434   6ee5     movwf	0xe5, 0            	MOVWF	POSTDEC1
003436   5003     movf	0x3, 0, 0           	MOVF	r0x03, W
003438   6ee5     movwf	0xe5, 0            	MOVWF	POSTDEC1
00343a   5002     movf	0x2, 0, 0           	MOVF	r0x02, W
00343c   6ee5     movwf	0xe5, 0            	MOVWF	POSTDEC1
00343e   5009     movf	0x9, 0, 0           	MOVF	r0x09, W
003440   6ee5     movwf	0xe5, 0            	MOVWF	POSTDEC1
003442   5008     movf	0x8, 0, 0           	MOVF	r0x08, W
003444   6ee5     movwf	0xe5, 0            	MOVWF	POSTDEC1
003446   5007     movf	0x7, 0, 0           	MOVF	r0x07, W
003448   6ee5     movwf	0xe5, 0            	MOVWF	POSTDEC1
00344a   5001     movf	0x1, 0, 0           	MOVF	r0x01, W
00344c   6ee5     movwf	0xe5, 0            	MOVWF	POSTDEC1
00344e   ec62     call	0x28c4, 0           	CALL	___fsmul
003450   f014
003452   6e01     movwf	0x1, 0             	MOVWF	r0x01
003454   cff3     movff	0xff3, 0x2         	MOVFF	PRODL, r0x02
003456   f002
003458   cff4     movff	0xff4, 0x3         	MOVFF	PRODH, r0x03
00345a   f003
00345c   cfe9     movff	0xfe9, 0x5         	MOVFF	FSR0L, r0x05
00345e   f005
003460   0e08     movlw	0x8                	MOVLW	0x08
003462   26e1     addwf	0xe1, 0x1, 0       	ADDWF	FSR1L, F
003464   6ae5     clrf	0xe5, 0             	CLRF	POSTDEC1
003466   6ae5     clrf	0xe5, 0             	CLRF	POSTDEC1
003468   6ae5     clrf	0xe5, 0             	CLRF	POSTDEC1
00346a   6ae5     clrf	0xe5, 0             	CLRF	POSTDEC1
00346c   5005     movf	0x5, 0, 0           	MOVF	r0x05, W
00346e   6ee5     movwf	0xe5, 0            	MOVWF	POSTDEC1
003470   5003     movf	0x3, 0, 0           	MOVF	r0x03, W
003472   6ee5     movwf	0xe5, 0            	MOVWF	POSTDEC1
003474   5002     movf	0x2, 0, 0           	MOVF	r0x02, W
003476   6ee5     movwf	0xe5, 0            	MOVWF	POSTDEC1
003478   5001     movf	0x1, 0, 0           	MOVF	r0x01, W
00347a   6ee5     movwf	0xe5, 0            	MOVWF	POSTDEC1
00347c   ec6e     call	0x36dc, 0           	CALL	___fsgt
00347e   f01b
003480   6e06     movwf	0x6, 0             	MOVWF	r0x06
003482   0e08     movlw	0x8                	MOVLW	0x08
003484   26e1     addwf	0xe1, 0x1, 0       	ADDWF	FSR1L, F
003486   5006     movf	0x6, 0, 0           	MOVF	r0x06, W
003488   e009     bz	0x349c                	BZ	_00305_DS_
00348a   c001     movff	0x1, 0x6           	MOVFF	r0x01, r0x06
00348c   f006
00348e   c002     movff	0x2, 0x7           	MOVFF	r0x02, r0x07
003490   f007
003492   c003     movff	0x3, 0x8           	MOVFF	r0x03, r0x08
003494   f008
003496   c005     movff	0x5, 0x9           	MOVFF	r0x05, r0x09
003498   f009
00349a   d009     bra	0x34ae               	BRA	_00306_DS_
                                           _00305_DS_:
00349c   c001     movff	0x1, 0x6           	MOVFF	r0x01, r0x06
00349e   f006
0034a0   c002     movff	0x2, 0x7           	MOVFF	r0x02, r0x07
0034a2   f007
0034a4   c003     movff	0x3, 0x8           	MOVFF	r0x03, r0x08
0034a6   f008
0034a8   c005     movff	0x5, 0x9           	MOVFF	r0x05, r0x09
0034aa   f009
0034ac   7e09     btg	0x9, 0x7, 0          	BTG	r0x09, 7
                                           _00306_DS_:
0034ae   5004     movf	0x4, 0, 0           	MOVF	r0x04, W
0034b0   6ee5     movwf	0xe5, 0            	MOVWF	POSTDEC1
0034b2   ec25     call	0x404a, 0           	CALL	___uchar2fs
0034b4   f020
0034b6   6e01     movwf	0x1, 0             	MOVWF	r0x01
0034b8   cff3     movff	0xff3, 0x2         	MOVFF	PRODL, r0x02
0034ba   f002
0034bc   cff4     movff	0xff4, 0x3         	MOVFF	PRODH, r0x03
0034be   f003
0034c0   cfe9     movff	0xfe9, 0x4         	MOVFF	FSR0L, r0x04
0034c2   f004
0034c4   2ae1     incf	0xe1, 0x1, 0        	INCF	FSR1L, F
0034c6   5004     movf	0x4, 0, 0           	MOVF	r0x04, W
0034c8   6ee5     movwf	0xe5, 0            	MOVWF	POSTDEC1
0034ca   5003     movf	0x3, 0, 0           	MOVF	r0x03, W
0034cc   6ee5     movwf	0xe5, 0            	MOVWF	POSTDEC1
0034ce   5002     movf	0x2, 0, 0           	MOVF	r0x02, W
0034d0   6ee5     movwf	0xe5, 0            	MOVWF	POSTDEC1
0034d2   5001     movf	0x1, 0, 0           	MOVF	r0x01, W
0034d4   6ee5     movwf	0xe5, 0            	MOVWF	POSTDEC1
0034d6   5009     movf	0x9, 0, 0           	MOVF	r0x09, W
0034d8   6ee5     movwf	0xe5, 0            	MOVWF	POSTDEC1
0034da   5008     movf	0x8, 0, 0           	MOVF	r0x08, W
0034dc   6ee5     movwf	0xe5, 0            	MOVWF	POSTDEC1
0034de   5007     movf	0x7, 0, 0           	MOVF	r0x07, W
0034e0   6ee5     movwf	0xe5, 0            	MOVWF	POSTDEC1
0034e2   5006     movf	0x6, 0, 0           	MOVF	r0x06, W
0034e4   6ee5     movwf	0xe5, 0            	MOVWF	POSTDEC1
0034e6   ec68     call	0x24d0, 0           	CALL	___fsadd
0034e8   f012
0034ea   6e01     movwf	0x1, 0             	MOVWF	r0x01
0034ec   cff3     movff	0xff3, 0x2         	MOVFF	PRODL, r0x02
0034ee   f002
0034f0   cff4     movff	0xff4, 0x3         	MOVFF	PRODH, r0x03
0034f2   f003
0034f4   cfe9     movff	0xfe9, 0x4         	MOVFF	FSR0L, r0x04
0034f6   f004
0034f8   0e08     movlw	0x8                	MOVLW	0x08
0034fa   26e1     addwf	0xe1, 0x1, 0       	ADDWF	FSR1L, F
0034fc   5004     movf	0x4, 0, 0           	MOVF	r0x04, W
0034fe   6ee5     movwf	0xe5, 0            	MOVWF	POSTDEC1
003500   5003     movf	0x3, 0, 0           	MOVF	r0x03, W
003502   6ee5     movwf	0xe5, 0            	MOVWF	POSTDEC1
003504   5002     movf	0x2, 0, 0           	MOVF	r0x02, W
003506   6ee5     movwf	0xe5, 0            	MOVWF	POSTDEC1
003508   5001     movf	0x1, 0, 0           	MOVF	r0x01, W
00350a   6ee5     movwf	0xe5, 0            	MOVWF	POSTDEC1
00350c   ecb3     call	0x3f66, 0           	CALL	___fs2uchar
00350e   f01f
003510   6e01     movwf	0x1, 0             	MOVWF	r0x01
003512   0e04     movlw	0x4                	MOVLW	0x04
003514   26e1     addwf	0xe1, 0x1, 0       	ADDWF	FSR1L, F
                                           ;	.line	987; /home/jesuscarlos/Programming_box/Pinguino/Pinguino32X_20120405/svn/trunk/p8/include/pinguino/libraries/servos.c	servovalues[servo]= value;
003516   6a02     clrf	0x2, 0              	CLRF	r0x02
003518   0e6c     movlw	0x6c               	MOVLW	LOW(_servovalues)
00351a   2600     addwf	0, 0x1, 0          	ADDWF	r0x00, F
00351c   0e02     movlw	0x2                	MOVLW	HIGH(_servovalues)
00351e   2202     addwfc	0x2, 0x1, 0       	ADDWFC	r0x02, F
003520   c000     movff	0, 0xfe9           	MOVFF	r0x00, FSR0L
003522   ffe9
003524   c002     movff	0x2, 0xfea         	MOVFF	r0x02, FSR0H
003526   ffea
003528   c001     movff	0x1, 0xfef         	MOVFF	r0x01, INDF0
00352a   ffef
                                           ;	.line	989; /home/jesuscarlos/Programming_box/Pinguino/Pinguino32X_20120405/svn/trunk/p8/include/pinguino/libraries/servos.c	needreordering=1;  // This indicates servo timings must be reordered.
00352c   0e01     movlw	0x1                	MOVLW	0x01
00352e   0102     movlb	0x2                	BANKSEL	_needreordering
003530   6f80     movwf	0x80, 0x1          	MOVWF	_needreordering, B
                                           _00303_DS_:
003532   cfe4     movff	0xfe4, 0x9         	MOVFF	PREINC1, r0x09
003534   f009
003536   cfe4     movff	0xfe4, 0x8         	MOVFF	PREINC1, r0x08
003538   f008
00353a   cfe4     movff	0xfe4, 0x7         	MOVFF	PREINC1, r0x07
00353c   f007
00353e   cfe4     movff	0xfe4, 0x6         	MOVFF	PREINC1, r0x06
003540   f006
003542   cfe4     movff	0xfe4, 0x5         	MOVFF	PREINC1, r0x05
003544   f005
003546   cfe4     movff	0xfe4, 0x4         	MOVFF	PREINC1, r0x04
003548   f004
00354a   cfe4     movff	0xfe4, 0x3         	MOVFF	PREINC1, r0x03
00354c   f003
00354e   cfe4     movff	0xfe4, 0x2         	MOVFF	PREINC1, r0x02
003550   f002
003552   cfe4     movff	0xfe4, 0x1         	MOVFF	PREINC1, r0x01
003554   f001
003556   cfe4     movff	0xfe4, 0           	MOVFF	PREINC1, r0x00
003558   f000
00355a   cfe4     movff	0xfe4, 0xfd9       	MOVFF	PREINC1, FSR2L
00355c   ffd9
00355e   0012     return	0                 	RETURN	
                                           
                                           ; ; Starting pCode block
                                           S_main__ServoDetach	code
                                           _ServoDetach:
                                           ;	.line	949; /home/jesuscarlos/Programming_box/Pinguino/Pinguino32X_20120405/svn/trunk/p8/include/pinguino/libraries/servos.c	void ServoDetach(uchar pin)
003ac2   cfd9     movff	0xfd9, 0xfe5       	MOVFF	FSR2L, POSTDEC1
003ac4   ffe5
003ac6   cfe1     movff	0xfe1, 0xfd9       	MOVFF	FSR1L, FSR2L
003ac8   ffd9
003aca   c000     movff	0, 0xfe5           	MOVFF	r0x00, POSTDEC1
003acc   ffe5
003ace   c001     movff	0x1, 0xfe5         	MOVFF	r0x01, POSTDEC1
003ad0   ffe5
003ad2   c002     movff	0x2, 0xfe5         	MOVFF	r0x02, POSTDEC1
003ad4   ffe5
003ad6   c003     movff	0x3, 0xfe5         	MOVFF	r0x03, POSTDEC1
003ad8   ffe5
003ada   0e02     movlw	0x2                	MOVLW	0x02
003adc   cfdb     movff	0xfdb, 0           	MOVFF	PLUSW2, r0x00
003ade   f000
                                           ;	.line	951; /home/jesuscarlos/Programming_box/Pinguino/Pinguino32X_20120405/svn/trunk/p8/include/pinguino/libraries/servos.c	if(pin>=PIC18F2550_pins) return;
003ae0   0e12     movlw	0x12               	MOVLW	0x12
                                           ; #	SUBWF	r0x00, W
                                           ; #	BTFSS	STATUS, 0
                                           ; #	GOTO	_00279_DS_
                                           ; #	GOTO	_00286_DS_
                                           ; #	MOVLW	0x08
                                           ;	.line	953; /home/jesuscarlos/Programming_box/Pinguino/Pinguino32X_20120405/svn/trunk/p8/include/pinguino/libraries/servos.c	if(pin<8){
003ae2   5c00     subwf	0, 0, 0            	SUBWF	r0x00, W
003ae4   b0d8     btfsc	0xd8, 0, 0         	BTFSC	STATUS, 0
003ae6   d04c     bra	0x3b80               	BRA	_00286_DS_
003ae8   0e08     movlw	0x8                	MOVLW	0x08
003aea   5c00     subwf	0, 0, 0            	SUBWF	r0x00, W
003aec   e218     bc	0x3b1e                	BC	_00284_DS_
                                           ;	.line	954; /home/jesuscarlos/Programming_box/Pinguino/Pinguino32X_20120405/svn/trunk/p8/include/pinguino/libraries/servos.c	activatedservos[MaskPort_B] = activatedservos[MaskPort_B] ^ servomasks[pin];
003aee   0e38     movlw	0x38               	MOVLW	LOW(_servomasks)
003af0   2400     addwf	0, 0, 0            	ADDWF	r0x00, W
003af2   6e01     movwf	0x1, 0             	MOVWF	r0x01
003af4   6a02     clrf	0x2, 0              	CLRF	r0x02
003af6   0e33     movlw	0x33               	MOVLW	HIGH(_servomasks)
003af8   2202     addwfc	0x2, 0x1, 0       	ADDWFC	r0x02, F
003afa   6a03     clrf	0x3, 0              	CLRF	r0x03
003afc   0e00     movlw	0                  	MOVLW	UPPER(_servomasks)
003afe   2203     addwfc	0x3, 0x1, 0       	ADDWFC	r0x03, F
003b00   c001     movff	0x1, 0xff6         	MOVFF	r0x01, TBLPTRL
003b02   fff6
003b04   c002     movff	0x2, 0xff7         	MOVFF	r0x02, TBLPTRH
003b06   fff7
003b08   c003     movff	0x3, 0xff8         	MOVFF	r0x03, TBLPTRU
003b0a   fff8
003b0c   0009     tblrd	*+                 	TBLRD*+	
003b0e   cff5     movff	0xff5, 0x1         	MOVFF	TABLAT, r0x01
003b10   f001
003b12   0102     movlb	0x2                	BANKSEL	_activatedservos
003b14   5182     movf	0x82, 0, 0x1        	MOVF	_activatedservos, W, B
003b16   1a01     xorwf	0x1, 0x1, 0        	XORWF	r0x01, F
003b18   5001     movf	0x1, 0, 0           	MOVF	r0x01, W
                                           ; removed redundant BANKSEL
003b1a   6f82     movwf	0x82, 0x1          	MOVWF	_activatedservos, B
003b1c   d031     bra	0x3b80               	BRA	_00286_DS_
                                           _00284_DS_:
                                           ;	.line	955; /home/jesuscarlos/Programming_box/Pinguino/Pinguino32X_20120405/svn/trunk/p8/include/pinguino/libraries/servos.c	} else if (pin>12) {
003b1e   0e0d     movlw	0xd                	MOVLW	0x0d
003b20   5c00     subwf	0, 0, 0            	SUBWF	r0x00, W
003b22   e318     bnc	0x3b54               	BNC	_00281_DS_
                                           ;	.line	956; /home/jesuscarlos/Programming_box/Pinguino/Pinguino32X_20120405/svn/trunk/p8/include/pinguino/libraries/servos.c	activatedservos[MaskPort_A] = activatedservos[MaskPort_A] ^ servomasks[pin];
003b24   0e38     movlw	0x38               	MOVLW	LOW(_servomasks)
003b26   2400     addwf	0, 0, 0            	ADDWF	r0x00, W
003b28   6e01     movwf	0x1, 0             	MOVWF	r0x01
003b2a   6a02     clrf	0x2, 0              	CLRF	r0x02
003b2c   0e33     movlw	0x33               	MOVLW	HIGH(_servomasks)
003b2e   2202     addwfc	0x2, 0x1, 0       	ADDWFC	r0x02, F
003b30   6a03     clrf	0x3, 0              	CLRF	r0x03
003b32   0e00     movlw	0                  	MOVLW	UPPER(_servomasks)
003b34   2203     addwfc	0x3, 0x1, 0       	ADDWFC	r0x03, F
003b36   c001     movff	0x1, 0xff6         	MOVFF	r0x01, TBLPTRL
003b38   fff6
003b3a   c002     movff	0x2, 0xff7         	MOVFF	r0x02, TBLPTRH
003b3c   fff7
003b3e   c003     movff	0x3, 0xff8         	MOVFF	r0x03, TBLPTRU
003b40   fff8
003b42   0009     tblrd	*+                 	TBLRD*+	
003b44   cff5     movff	0xff5, 0x1         	MOVFF	TABLAT, r0x01
003b46   f001
003b48   0102     movlb	0x2                	BANKSEL	(_activatedservos + 2)
003b4a   5184     movf	0x84, 0, 0x1        	MOVF	(_activatedservos + 2), W, B
003b4c   1a01     xorwf	0x1, 0x1, 0        	XORWF	r0x01, F
003b4e   5001     movf	0x1, 0, 0           	MOVF	r0x01, W
                                           ; removed redundant BANKSEL
003b50   6f84     movwf	0x84, 0x1          	MOVWF	(_activatedservos + 2), B
003b52   d016     bra	0x3b80               	BRA	_00286_DS_
                                           _00281_DS_:
                                           ;	.line	958; /home/jesuscarlos/Programming_box/Pinguino/Pinguino32X_20120405/svn/trunk/p8/include/pinguino/libraries/servos.c	activatedservos[MaskPort_C] = activatedservos[MaskPort_C] ^ servomasks[pin];
003b54   6a01     clrf	0x1, 0              	CLRF	r0x01
003b56   6a02     clrf	0x2, 0              	CLRF	r0x02
003b58   0e38     movlw	0x38               	MOVLW	LOW(_servomasks)
003b5a   2600     addwf	0, 0x1, 0          	ADDWF	r0x00, F
003b5c   0e33     movlw	0x33               	MOVLW	HIGH(_servomasks)
003b5e   2201     addwfc	0x1, 0x1, 0       	ADDWFC	r0x01, F
003b60   0e00     movlw	0                  	MOVLW	UPPER(_servomasks)
003b62   2202     addwfc	0x2, 0x1, 0       	ADDWFC	r0x02, F
003b64   c000     movff	0, 0xff6           	MOVFF	r0x00, TBLPTRL
003b66   fff6
003b68   c001     movff	0x1, 0xff7         	MOVFF	r0x01, TBLPTRH
003b6a   fff7
003b6c   c002     movff	0x2, 0xff8         	MOVFF	r0x02, TBLPTRU
003b6e   fff8
003b70   0009     tblrd	*+                 	TBLRD*+	
003b72   cff5     movff	0xff5, 0           	MOVFF	TABLAT, r0x00
003b74   f000
003b76   0102     movlb	0x2                	BANKSEL	(_activatedservos + 1)
003b78   5183     movf	0x83, 0, 0x1        	MOVF	(_activatedservos + 1), W, B
003b7a   1a00     xorwf	0, 0x1, 0          	XORWF	r0x00, F
003b7c   5000     movf	0, 0, 0             	MOVF	r0x00, W
                                           ; removed redundant BANKSEL
003b7e   6f83     movwf	0x83, 0x1          	MOVWF	(_activatedservos + 1), B
                                           _00286_DS_:
003b80   cfe4     movff	0xfe4, 0x3         	MOVFF	PREINC1, r0x03
003b82   f003
003b84   cfe4     movff	0xfe4, 0x2         	MOVFF	PREINC1, r0x02
003b86   f002
003b88   cfe4     movff	0xfe4, 0x1         	MOVFF	PREINC1, r0x01
003b8a   f001
003b8c   cfe4     movff	0xfe4, 0           	MOVFF	PREINC1, r0x00
003b8e   f000
003b90   cfe4     movff	0xfe4, 0xfd9       	MOVFF	PREINC1, FSR2L
003b92   ffd9
003b94   0012     return	0                 	RETURN	
                                           
                                           ; ; Starting pCode block
                                           S_main__ServoAttach	code
                                           _ServoAttach:
                                           ;	.line	929; /home/jesuscarlos/Programming_box/Pinguino/Pinguino32X_20120405/svn/trunk/p8/include/pinguino/libraries/servos.c	void ServoAttach(uchar pin)
0039e2   cfd9     movff	0xfd9, 0xfe5       	MOVFF	FSR2L, POSTDEC1
0039e4   ffe5
0039e6   cfe1     movff	0xfe1, 0xfd9       	MOVFF	FSR1L, FSR2L
0039e8   ffd9
0039ea   c000     movff	0, 0xfe5           	MOVFF	r0x00, POSTDEC1
0039ec   ffe5
0039ee   c001     movff	0x1, 0xfe5         	MOVFF	r0x01, POSTDEC1
0039f0   ffe5
0039f2   c002     movff	0x2, 0xfe5         	MOVFF	r0x02, POSTDEC1
0039f4   ffe5
0039f6   c003     movff	0x3, 0xfe5         	MOVFF	r0x03, POSTDEC1
0039f8   ffe5
0039fa   0e02     movlw	0x2                	MOVLW	0x02
0039fc   cfdb     movff	0xfdb, 0           	MOVFF	PLUSW2, r0x00
0039fe   f000
                                           ;	.line	931; /home/jesuscarlos/Programming_box/Pinguino/Pinguino32X_20120405/svn/trunk/p8/include/pinguino/libraries/servos.c	if(pin>=PIC18F2550_pins) return;
003a00   0e12     movlw	0x12               	MOVLW	0x12
                                           ; #	SUBWF	r0x00, W
                                           ; #	BTFSS	STATUS, 0
                                           ; #	GOTO	_00257_DS_
                                           ; #	GOTO	_00264_DS_
                                           ; #	MOVLW	0x08
                                           ;	.line	933; /home/jesuscarlos/Programming_box/Pinguino/Pinguino32X_20120405/svn/trunk/p8/include/pinguino/libraries/servos.c	if(pin<8){
003a02   5c00     subwf	0, 0, 0            	SUBWF	r0x00, W
003a04   b0d8     btfsc	0xd8, 0, 0         	BTFSC	STATUS, 0
003a06   d052     bra	0x3aac               	BRA	_00264_DS_
003a08   0e08     movlw	0x8                	MOVLW	0x08
003a0a   5c00     subwf	0, 0, 0            	SUBWF	r0x00, W
003a0c   e21a     bc	0x3a42                	BC	_00262_DS_
                                           ;	.line	934; /home/jesuscarlos/Programming_box/Pinguino/Pinguino32X_20120405/svn/trunk/p8/include/pinguino/libraries/servos.c	activatedservos[MaskPort_B] = activatedservos[MaskPort_B] | servomasks[pin];  // list pin as servo driver.
003a0e   0e38     movlw	0x38               	MOVLW	LOW(_servomasks)
003a10   2400     addwf	0, 0, 0            	ADDWF	r0x00, W
003a12   6e01     movwf	0x1, 0             	MOVWF	r0x01
003a14   6a02     clrf	0x2, 0              	CLRF	r0x02
003a16   0e33     movlw	0x33               	MOVLW	HIGH(_servomasks)
003a18   2202     addwfc	0x2, 0x1, 0       	ADDWFC	r0x02, F
003a1a   6a03     clrf	0x3, 0              	CLRF	r0x03
003a1c   0e00     movlw	0                  	MOVLW	UPPER(_servomasks)
003a1e   2203     addwfc	0x3, 0x1, 0       	ADDWFC	r0x03, F
003a20   c001     movff	0x1, 0xff6         	MOVFF	r0x01, TBLPTRL
003a22   fff6
003a24   c002     movff	0x2, 0xff7         	MOVFF	r0x02, TBLPTRH
003a26   fff7
003a28   c003     movff	0x3, 0xff8         	MOVFF	r0x03, TBLPTRU
003a2a   fff8
003a2c   0009     tblrd	*+                 	TBLRD*+	
003a2e   cff5     movff	0xff5, 0x1         	MOVFF	TABLAT, r0x01
003a30   f001
003a32   5001     movf	0x1, 0, 0           	MOVF	r0x01, W
003a34   0102     movlb	0x2                	BANKSEL	_activatedservos
003a36   1182     iorwf	0x82, 0, 0x1       	IORWF	_activatedservos, W, B
                                           ; #	MOVWF	r0x02
                                           ; #	MOVF	r0x02, W
003a38   6f82     movwf	0x82, 0x1          	MOVWF	_activatedservos, B
                                           ;	.line	935; /home/jesuscarlos/Programming_box/Pinguino/Pinguino32X_20120405/svn/trunk/p8/include/pinguino/libraries/servos.c	TRISB = TRISB & (255 - servomasks[pin]); // set as output pin
003a3a   5001     movf	0x1, 0, 0           	MOVF	r0x01, W
003a3c   08ff     sublw	0xff               	SUBLW	0xff
                                           ; #	MOVWF	r0x01
                                           ; #	MOVF	r0x01, W
003a3e   1693     andwf	0x93, 0x1, 0       	ANDWF	_TRISB, F
003a40   d035     bra	0x3aac               	BRA	_00264_DS_
                                           _00262_DS_:
                                           ;	.line	936; /home/jesuscarlos/Programming_box/Pinguino/Pinguino32X_20120405/svn/trunk/p8/include/pinguino/libraries/servos.c	} else if (pin>12) {
003a42   0e0d     movlw	0xd                	MOVLW	0x0d
003a44   5c00     subwf	0, 0, 0            	SUBWF	r0x00, W
003a46   e31a     bnc	0x3a7c               	BNC	_00259_DS_
                                           ;	.line	937; /home/jesuscarlos/Programming_box/Pinguino/Pinguino32X_20120405/svn/trunk/p8/include/pinguino/libraries/servos.c	activatedservos[MaskPort_A] = activatedservos[MaskPort_A] | servomasks[pin];  // list pin as servo driver.
003a48   0e38     movlw	0x38               	MOVLW	LOW(_servomasks)
003a4a   2400     addwf	0, 0, 0            	ADDWF	r0x00, W
003a4c   6e01     movwf	0x1, 0             	MOVWF	r0x01
003a4e   6a02     clrf	0x2, 0              	CLRF	r0x02
003a50   0e33     movlw	0x33               	MOVLW	HIGH(_servomasks)
003a52   2202     addwfc	0x2, 0x1, 0       	ADDWFC	r0x02, F
003a54   6a03     clrf	0x3, 0              	CLRF	r0x03
003a56   0e00     movlw	0                  	MOVLW	UPPER(_servomasks)
003a58   2203     addwfc	0x3, 0x1, 0       	ADDWFC	r0x03, F
003a5a   c001     movff	0x1, 0xff6         	MOVFF	r0x01, TBLPTRL
003a5c   fff6
003a5e   c002     movff	0x2, 0xff7         	MOVFF	r0x02, TBLPTRH
003a60   fff7
003a62   c003     movff	0x3, 0xff8         	MOVFF	r0x03, TBLPTRU
003a64   fff8
003a66   0009     tblrd	*+                 	TBLRD*+	
003a68   cff5     movff	0xff5, 0x1         	MOVFF	TABLAT, r0x01
003a6a   f001
003a6c   5001     movf	0x1, 0, 0           	MOVF	r0x01, W
003a6e   0102     movlb	0x2                	BANKSEL	(_activatedservos + 2)
003a70   1184     iorwf	0x84, 0, 0x1       	IORWF	(_activatedservos + 2), W, B
                                           ; #	MOVWF	r0x02
                                           ; #	MOVF	r0x02, W
003a72   6f84     movwf	0x84, 0x1          	MOVWF	(_activatedservos + 2), B
                                           ;	.line	938; /home/jesuscarlos/Programming_box/Pinguino/Pinguino32X_20120405/svn/trunk/p8/include/pinguino/libraries/servos.c	TRISA = TRISA & (255 - servomasks[pin]); // set as output pin
003a74   5001     movf	0x1, 0, 0           	MOVF	r0x01, W
003a76   08ff     sublw	0xff               	SUBLW	0xff
                                           ; #	MOVWF	r0x01
                                           ; #	MOVF	r0x01, W
003a78   1692     andwf	0x92, 0x1, 0       	ANDWF	_TRISA, F
003a7a   d018     bra	0x3aac               	BRA	_00264_DS_
                                           _00259_DS_:
                                           ;	.line	940; /home/jesuscarlos/Programming_box/Pinguino/Pinguino32X_20120405/svn/trunk/p8/include/pinguino/libraries/servos.c	activatedservos[MaskPort_C] = activatedservos[MaskPort_C] | servomasks[pin];  // list pin as servo driver.
003a7c   6a01     clrf	0x1, 0              	CLRF	r0x01
003a7e   6a02     clrf	0x2, 0              	CLRF	r0x02
003a80   0e38     movlw	0x38               	MOVLW	LOW(_servomasks)
003a82   2600     addwf	0, 0x1, 0          	ADDWF	r0x00, F
003a84   0e33     movlw	0x33               	MOVLW	HIGH(_servomasks)
003a86   2201     addwfc	0x1, 0x1, 0       	ADDWFC	r0x01, F
003a88   0e00     movlw	0                  	MOVLW	UPPER(_servomasks)
003a8a   2202     addwfc	0x2, 0x1, 0       	ADDWFC	r0x02, F
003a8c   c000     movff	0, 0xff6           	MOVFF	r0x00, TBLPTRL
003a8e   fff6
003a90   c001     movff	0x1, 0xff7         	MOVFF	r0x01, TBLPTRH
003a92   fff7
003a94   c002     movff	0x2, 0xff8         	MOVFF	r0x02, TBLPTRU
003a96   fff8
003a98   0009     tblrd	*+                 	TBLRD*+	
003a9a   cff5     movff	0xff5, 0           	MOVFF	TABLAT, r0x00
003a9c   f000
003a9e   5000     movf	0, 0, 0             	MOVF	r0x00, W
003aa0   0102     movlb	0x2                	BANKSEL	(_activatedservos + 1)
003aa2   1183     iorwf	0x83, 0, 0x1       	IORWF	(_activatedservos + 1), W, B
                                           ; #	MOVWF	r0x01
                                           ; #	MOVF	r0x01, W
003aa4   6f83     movwf	0x83, 0x1          	MOVWF	(_activatedservos + 1), B
                                           ;	.line	941; /home/jesuscarlos/Programming_box/Pinguino/Pinguino32X_20120405/svn/trunk/p8/include/pinguino/libraries/servos.c	TRISC = TRISC & (255 - servomasks[pin]); // set as output pin
003aa6   5000     movf	0, 0, 0             	MOVF	r0x00, W
003aa8   08ff     sublw	0xff               	SUBLW	0xff
                                           ; #	MOVWF	r0x00
                                           ; #	MOVF	r0x00, W
003aaa   1694     andwf	0x94, 0x1, 0       	ANDWF	_TRISC, F
                                           _00264_DS_:
003aac   cfe4     movff	0xfe4, 0x3         	MOVFF	PREINC1, r0x03
003aae   f003
003ab0   cfe4     movff	0xfe4, 0x2         	MOVFF	PREINC1, r0x02
003ab2   f002
003ab4   cfe4     movff	0xfe4, 0x1         	MOVFF	PREINC1, r0x01
003ab6   f001
003ab8   cfe4     movff	0xfe4, 0           	MOVFF	PREINC1, r0x00
003aba   f000
003abc   cfe4     movff	0xfe4, 0xfd9       	MOVFF	PREINC1, FSR2L
003abe   ffd9
003ac0   0012     return	0                 	RETURN	
                                           
                                           ; ; Starting pCode block
                                           S_main__SortServoTimings	code
                                           _SortServoTimings:
                                           ;	.line	845; /home/jesuscarlos/Programming_box/Pinguino/Pinguino32X_20120405/svn/trunk/p8/include/pinguino/libraries/servos.c	static void SortServoTimings()
00206e   c000     movff	0, 0xfe5           	MOVFF	r0x00, POSTDEC1
002070   ffe5
002072   c001     movff	0x1, 0xfe5         	MOVFF	r0x01, POSTDEC1
002074   ffe5
002076   c002     movff	0x2, 0xfe5         	MOVFF	r0x02, POSTDEC1
002078   ffe5
00207a   c003     movff	0x3, 0xfe5         	MOVFF	r0x03, POSTDEC1
00207c   ffe5
00207e   c004     movff	0x4, 0xfe5         	MOVFF	r0x04, POSTDEC1
002080   ffe5
002082   c005     movff	0x5, 0xfe5         	MOVFF	r0x05, POSTDEC1
002084   ffe5
002086   c006     movff	0x6, 0xfe5         	MOVFF	r0x06, POSTDEC1
002088   ffe5
00208a   c007     movff	0x7, 0xfe5         	MOVFF	r0x07, POSTDEC1
00208c   ffe5
00208e   c008     movff	0x8, 0xfe5         	MOVFF	r0x08, POSTDEC1
002090   ffe5
002092   c009     movff	0x9, 0xfe5         	MOVFF	r0x09, POSTDEC1
002094   ffe5
002096   0102     movlb	0x2                	BANKSEL	_SortServoTimings_mascaratotal_1_1
                                           ;	.line	852; /home/jesuscarlos/Programming_box/Pinguino/Pinguino32X_20120405/svn/trunk/p8/include/pinguino/libraries/servos.c	uchar mascaratotal[3]={0x00,0x00,0x00};
002098   6bce     clrf	0xce, 0x1           	CLRF	_SortServoTimings_mascaratotal_1_1, B
                                           ; removed redundant BANKSEL
00209a   6bcf     clrf	0xcf, 0x1           	CLRF	(_SortServoTimings_mascaratotal_1_1 + 1), B
                                           ; removed redundant BANKSEL
00209c   6bd0     clrf	0xd0, 0x1           	CLRF	(_SortServoTimings_mascaratotal_1_1 + 2), B
                                           ;	.line	855; /home/jesuscarlos/Programming_box/Pinguino/Pinguino32X_20120405/svn/trunk/p8/include/pinguino/libraries/servos.c	for(t=0;t<PIC18F2550_pins;t++){
00209e   6a00     clrf	0, 0                	CLRF	r0x00
                                           _00203_DS_:
0020a0   0e12     movlw	0x12               	MOVLW	0x12
0020a2   5c00     subwf	0, 0, 0            	SUBWF	r0x00, W
0020a4   e22e     bc	0x2102                	BC	_00206_DS_
                                           ;	.line	856; /home/jesuscarlos/Programming_box/Pinguino/Pinguino32X_20120405/svn/trunk/p8/include/pinguino/libraries/servos.c	timings[timevalue][t]=255;
0020a6   0e36     movlw	0x36               	MOVLW	LOW(_timings + 54)
0020a8   2400     addwf	0, 0, 0            	ADDWF	r0x00, W
0020aa   6e01     movwf	0x1, 0             	MOVWF	r0x01
0020ac   6a02     clrf	0x2, 0              	CLRF	r0x02
0020ae   0e02     movlw	0x2                	MOVLW	HIGH(_timings + 54)
0020b0   2202     addwfc	0x2, 0x1, 0       	ADDWFC	r0x02, F
0020b2   c001     movff	0x1, 0xfe9         	MOVFF	r0x01, FSR0L
0020b4   ffe9
0020b6   c002     movff	0x2, 0xfea         	MOVFF	r0x02, FSR0H
0020b8   ffea
0020ba   68ef     setf	0xef, 0             	SETF	INDF0
                                           ;	.line	857; /home/jesuscarlos/Programming_box/Pinguino/Pinguino32X_20120405/svn/trunk/p8/include/pinguino/libraries/servos.c	timings[MaskPort_B][t]=0x00;
0020bc   0e00     movlw	0                  	MOVLW	LOW(_timings)
0020be   2400     addwf	0, 0, 0            	ADDWF	r0x00, W
0020c0   6e01     movwf	0x1, 0             	MOVWF	r0x01
0020c2   6a02     clrf	0x2, 0              	CLRF	r0x02
0020c4   0e02     movlw	0x2                	MOVLW	HIGH(_timings)
0020c6   2202     addwfc	0x2, 0x1, 0       	ADDWFC	r0x02, F
0020c8   c001     movff	0x1, 0xfe9         	MOVFF	r0x01, FSR0L
0020ca   ffe9
0020cc   c002     movff	0x2, 0xfea         	MOVFF	r0x02, FSR0H
0020ce   ffea
0020d0   6aef     clrf	0xef, 0             	CLRF	INDF0
                                           ;	.line	858; /home/jesuscarlos/Programming_box/Pinguino/Pinguino32X_20120405/svn/trunk/p8/include/pinguino/libraries/servos.c	timings[MaskPort_C][t]=0x00;
0020d2   0e12     movlw	0x12               	MOVLW	LOW(_timings + 18)
0020d4   2400     addwf	0, 0, 0            	ADDWF	r0x00, W
0020d6   6e01     movwf	0x1, 0             	MOVWF	r0x01
0020d8   6a02     clrf	0x2, 0              	CLRF	r0x02
0020da   0e02     movlw	0x2                	MOVLW	HIGH(_timings + 18)
0020dc   2202     addwfc	0x2, 0x1, 0       	ADDWFC	r0x02, F
0020de   c001     movff	0x1, 0xfe9         	MOVFF	r0x01, FSR0L
0020e0   ffe9
0020e2   c002     movff	0x2, 0xfea         	MOVFF	r0x02, FSR0H
0020e4   ffea
0020e6   6aef     clrf	0xef, 0             	CLRF	INDF0
                                           ;	.line	859; /home/jesuscarlos/Programming_box/Pinguino/Pinguino32X_20120405/svn/trunk/p8/include/pinguino/libraries/servos.c	timings[MaskPort_A][t]=0x00;
0020e8   0e24     movlw	0x24               	MOVLW	LOW(_timings + 36)
0020ea   2400     addwf	0, 0, 0            	ADDWF	r0x00, W
0020ec   6e01     movwf	0x1, 0             	MOVWF	r0x01
0020ee   6a02     clrf	0x2, 0              	CLRF	r0x02
0020f0   0e02     movlw	0x2                	MOVLW	HIGH(_timings + 36)
0020f2   2202     addwfc	0x2, 0x1, 0       	ADDWFC	r0x02, F
0020f4   c001     movff	0x1, 0xfe9         	MOVFF	r0x01, FSR0L
0020f6   ffe9
0020f8   c002     movff	0x2, 0xfea         	MOVFF	r0x02, FSR0H
0020fa   ffea
0020fc   6aef     clrf	0xef, 0             	CLRF	INDF0
                                           ;	.line	855; /home/jesuscarlos/Programming_box/Pinguino/Pinguino32X_20120405/svn/trunk/p8/include/pinguino/libraries/servos.c	for(t=0;t<PIC18F2550_pins;t++){
0020fe   2a00     incf	0, 0x1, 0           	INCF	r0x00, F
002100   d7cf     bra	0x20a0               	BRA	_00203_DS_
                                           _00206_DS_:
                                           ;	.line	862; /home/jesuscarlos/Programming_box/Pinguino/Pinguino32X_20120405/svn/trunk/p8/include/pinguino/libraries/servos.c	totalservos=0;
002102   6a00     clrf	0, 0                	CLRF	r0x00
                                           ;	.line	864; /home/jesuscarlos/Programming_box/Pinguino/Pinguino32X_20120405/svn/trunk/p8/include/pinguino/libraries/servos.c	while(totalservos<PIC18F2550_pins) {
002104   6a01     clrf	0x1, 0              	CLRF	r0x01
                                           _00200_DS_:
002106   0e12     movlw	0x12               	MOVLW	0x12
002108   5c00     subwf	0, 0, 0            	SUBWF	r0x00, W
00210a   b0d8     btfsc	0xd8, 0, 0         	BTFSC	STATUS, 0
00210c   d1ca     bra	0x24a2               	BRA	_00202_DS_
                                           ;	.line	865; /home/jesuscarlos/Programming_box/Pinguino/Pinguino32X_20120405/svn/trunk/p8/include/pinguino/libraries/servos.c	numservos=1;
00210e   0e01     movlw	0x1                	MOVLW	0x01
002110   6e02     movwf	0x2, 0             	MOVWF	r0x02
                                           ;	.line	866; /home/jesuscarlos/Programming_box/Pinguino/Pinguino32X_20120405/svn/trunk/p8/include/pinguino/libraries/servos.c	for(s=0;s<PIC18F2550_pins;s++) { 
002112   6a03     clrf	0x3, 0              	CLRF	r0x03
                                           _00207_DS_:
002114   0e12     movlw	0x12               	MOVLW	0x12
002116   5c03     subwf	0x3, 0, 0          	SUBWF	r0x03, W
002118   b0d8     btfsc	0xd8, 0, 0         	BTFSC	STATUS, 0
00211a   d18e     bra	0x2438               	BRA	_00210_DS_
                                           ;	.line	868; /home/jesuscarlos/Programming_box/Pinguino/Pinguino32X_20120405/svn/trunk/p8/include/pinguino/libraries/servos.c	if (s<8){
00211c   0e08     movlw	0x8                	MOVLW	0x08
00211e   5c03     subwf	0x3, 0, 0          	SUBWF	r0x03, W
002120   b0d8     btfsc	0xd8, 0, 0         	BTFSC	STATUS, 0
002122   d082     bra	0x2228               	BRA	_00198_DS_
                                           ;	.line	869; /home/jesuscarlos/Programming_box/Pinguino/Pinguino32X_20120405/svn/trunk/p8/include/pinguino/libraries/servos.c	if (servomasks[s] & mascaratotal[MaskPort_B] & activatedservos[MaskPort_B]){
002124   0e38     movlw	0x38               	MOVLW	LOW(_servomasks)
002126   2403     addwf	0x3, 0, 0          	ADDWF	r0x03, W
002128   6e04     movwf	0x4, 0             	MOVWF	r0x04
00212a   6a05     clrf	0x5, 0              	CLRF	r0x05
00212c   0e33     movlw	0x33               	MOVLW	HIGH(_servomasks)
00212e   2205     addwfc	0x5, 0x1, 0       	ADDWFC	r0x05, F
002130   6a06     clrf	0x6, 0              	CLRF	r0x06
002132   0e00     movlw	0                  	MOVLW	UPPER(_servomasks)
002134   2206     addwfc	0x6, 0x1, 0       	ADDWFC	r0x06, F
002136   c004     movff	0x4, 0xff6         	MOVFF	r0x04, TBLPTRL
002138   fff6
00213a   c005     movff	0x5, 0xff7         	MOVFF	r0x05, TBLPTRH
00213c   fff7
00213e   c006     movff	0x6, 0xff8         	MOVFF	r0x06, TBLPTRU
002140   fff8
002142   0009     tblrd	*+                 	TBLRD*+	
002144   cff5     movff	0xff5, 0x4         	MOVFF	TABLAT, r0x04
002146   f004
002148   0102     movlb	0x2                	BANKSEL	_SortServoTimings_mascaratotal_1_1
00214a   51ce     movf	0xce, 0, 0x1        	MOVF	_SortServoTimings_mascaratotal_1_1, W, B
00214c   1404     andwf	0x4, 0, 0          	ANDWF	r0x04, W
00214e   6e05     movwf	0x5, 0             	MOVWF	r0x05
002150   0102     movlb	0x2                	BANKSEL	_activatedservos
002152   5182     movf	0x82, 0, 0x1        	MOVF	_activatedservos, W, B
002154   1605     andwf	0x5, 0x1, 0        	ANDWF	r0x05, F
002156   5005     movf	0x5, 0, 0           	MOVF	r0x05, W
002158   a4d8     btfss	0xd8, 0x2, 0       	BTFSS	STATUS, 2
00215a   d16c     bra	0x2434               	BRA	_00209_DS_
                                           ;	.line	871; /home/jesuscarlos/Programming_box/Pinguino/Pinguino32X_20120405/svn/trunk/p8/include/pinguino/libraries/servos.c	else if (servovalues[s] < timings[timevalue][t]){
00215c   0e6c     movlw	0x6c               	MOVLW	LOW(_servovalues)
00215e   2403     addwf	0x3, 0, 0          	ADDWF	r0x03, W
002160   6e05     movwf	0x5, 0             	MOVWF	r0x05
002162   6a06     clrf	0x6, 0              	CLRF	r0x06
002164   0e02     movlw	0x2                	MOVLW	HIGH(_servovalues)
002166   2206     addwfc	0x6, 0x1, 0       	ADDWFC	r0x06, F
002168   c005     movff	0x5, 0xfe9         	MOVFF	r0x05, FSR0L
00216a   ffe9
00216c   c006     movff	0x6, 0xfea         	MOVFF	r0x06, FSR0H
00216e   ffea
002170   cfef     movff	0xfef, 0x5         	MOVFF	INDF0, r0x05
002172   f005
002174   0e36     movlw	0x36               	MOVLW	LOW(_timings + 54)
002176   2401     addwf	0x1, 0, 0          	ADDWF	r0x01, W
002178   6e06     movwf	0x6, 0             	MOVWF	r0x06
00217a   6a07     clrf	0x7, 0              	CLRF	r0x07
00217c   0e02     movlw	0x2                	MOVLW	HIGH(_timings + 54)
00217e   2207     addwfc	0x7, 0x1, 0       	ADDWFC	r0x07, F
002180   c006     movff	0x6, 0xfe9         	MOVFF	r0x06, FSR0L
002182   ffe9
002184   c007     movff	0x7, 0xfea         	MOVFF	r0x07, FSR0H
002186   ffea
002188   cfef     movff	0xfef, 0x8         	MOVFF	INDF0, r0x08
00218a   f008
00218c   5008     movf	0x8, 0, 0           	MOVF	r0x08, W
00218e   5c05     subwf	0x5, 0, 0          	SUBWF	r0x05, W
002190   e22b     bc	0x21e8                	BC	_00173_DS_
                                           ;	.line	872; /home/jesuscarlos/Programming_box/Pinguino/Pinguino32X_20120405/svn/trunk/p8/include/pinguino/libraries/servos.c	timings[timevalue][t]=servovalues[s];
002192   c006     movff	0x6, 0xfe9         	MOVFF	r0x06, FSR0L
002194   ffe9
002196   c007     movff	0x7, 0xfea         	MOVFF	r0x07, FSR0H
002198   ffea
00219a   c005     movff	0x5, 0xfef         	MOVFF	r0x05, INDF0
00219c   ffef
                                           ;	.line	873; /home/jesuscarlos/Programming_box/Pinguino/Pinguino32X_20120405/svn/trunk/p8/include/pinguino/libraries/servos.c	timings[MaskPort_B][t]=servomasks[s];
00219e   0e00     movlw	0                  	MOVLW	LOW(_timings)
0021a0   2401     addwf	0x1, 0, 0          	ADDWF	r0x01, W
0021a2   6e08     movwf	0x8, 0             	MOVWF	r0x08
0021a4   6a09     clrf	0x9, 0              	CLRF	r0x09
0021a6   0e02     movlw	0x2                	MOVLW	HIGH(_timings)
0021a8   2209     addwfc	0x9, 0x1, 0       	ADDWFC	r0x09, F
0021aa   c008     movff	0x8, 0xfe9         	MOVFF	r0x08, FSR0L
0021ac   ffe9
0021ae   c009     movff	0x9, 0xfea         	MOVFF	r0x09, FSR0H
0021b0   ffea
0021b2   c004     movff	0x4, 0xfef         	MOVFF	r0x04, INDF0
0021b4   ffef
                                           ;	.line	874; /home/jesuscarlos/Programming_box/Pinguino/Pinguino32X_20120405/svn/trunk/p8/include/pinguino/libraries/servos.c	timings[MaskPort_C][t]=0x00;
0021b6   0e12     movlw	0x12               	MOVLW	LOW(_timings + 18)
0021b8   2401     addwf	0x1, 0, 0          	ADDWF	r0x01, W
0021ba   6e08     movwf	0x8, 0             	MOVWF	r0x08
0021bc   6a09     clrf	0x9, 0              	CLRF	r0x09
0021be   0e02     movlw	0x2                	MOVLW	HIGH(_timings + 18)
0021c0   2209     addwfc	0x9, 0x1, 0       	ADDWFC	r0x09, F
0021c2   c008     movff	0x8, 0xfe9         	MOVFF	r0x08, FSR0L
0021c4   ffe9
0021c6   c009     movff	0x9, 0xfea         	MOVFF	r0x09, FSR0H
0021c8   ffea
0021ca   6aef     clrf	0xef, 0             	CLRF	INDF0
                                           ;	.line	875; /home/jesuscarlos/Programming_box/Pinguino/Pinguino32X_20120405/svn/trunk/p8/include/pinguino/libraries/servos.c	timings[MaskPort_A][t]=0x00;
0021cc   0e24     movlw	0x24               	MOVLW	LOW(_timings + 36)
0021ce   2401     addwf	0x1, 0, 0          	ADDWF	r0x01, W
0021d0   6e08     movwf	0x8, 0             	MOVWF	r0x08
0021d2   6a09     clrf	0x9, 0              	CLRF	r0x09
0021d4   0e02     movlw	0x2                	MOVLW	HIGH(_timings + 36)
0021d6   2209     addwfc	0x9, 0x1, 0       	ADDWFC	r0x09, F
0021d8   c008     movff	0x8, 0xfe9         	MOVFF	r0x08, FSR0L
0021da   ffe9
0021dc   c009     movff	0x9, 0xfea         	MOVFF	r0x09, FSR0H
0021de   ffea
0021e0   6aef     clrf	0xef, 0             	CLRF	INDF0
                                           ;	.line	876; /home/jesuscarlos/Programming_box/Pinguino/Pinguino32X_20120405/svn/trunk/p8/include/pinguino/libraries/servos.c	numservos=1;
0021e2   0e01     movlw	0x1                	MOVLW	0x01
0021e4   6e02     movwf	0x2, 0             	MOVWF	r0x02
0021e6   d126     bra	0x2434               	BRA	_00209_DS_
                                           _00173_DS_:
                                           ;	.line	878; /home/jesuscarlos/Programming_box/Pinguino/Pinguino32X_20120405/svn/trunk/p8/include/pinguino/libraries/servos.c	else if (servovalues[s] == timings[timevalue][t]){
0021e8   c006     movff	0x6, 0xfe9         	MOVFF	r0x06, FSR0L
0021ea   ffe9
0021ec   c007     movff	0x7, 0xfea         	MOVFF	r0x07, FSR0H
0021ee   ffea
0021f0   cfef     movff	0xfef, 0x6         	MOVFF	INDF0, r0x06
0021f2   f006
0021f4   5005     movf	0x5, 0, 0           	MOVF	r0x05, W
0021f6   1806     xorwf	0x6, 0, 0          	XORWF	r0x06, W
0021f8   e001     bz	0x21fc                	BZ	_00240_DS_
0021fa   d11c     bra	0x2434               	BRA	_00209_DS_
                                           _00240_DS_:
                                           ;	.line	879; /home/jesuscarlos/Programming_box/Pinguino/Pinguino32X_20120405/svn/trunk/p8/include/pinguino/libraries/servos.c	timings[MaskPort_B][t] |= servomasks[s];
0021fc   0e00     movlw	0                  	MOVLW	LOW(_timings)
0021fe   2401     addwf	0x1, 0, 0          	ADDWF	r0x01, W
002200   6e05     movwf	0x5, 0             	MOVWF	r0x05
002202   6a06     clrf	0x6, 0              	CLRF	r0x06
002204   0e02     movlw	0x2                	MOVLW	HIGH(_timings)
002206   2206     addwfc	0x6, 0x1, 0       	ADDWFC	r0x06, F
002208   c005     movff	0x5, 0xfe9         	MOVFF	r0x05, FSR0L
00220a   ffe9
00220c   c006     movff	0x6, 0xfea         	MOVFF	r0x06, FSR0H
00220e   ffea
002210   cfef     movff	0xfef, 0x7         	MOVFF	INDF0, r0x07
002212   f007
002214   5007     movf	0x7, 0, 0           	MOVF	r0x07, W
002216   1204     iorwf	0x4, 0x1, 0        	IORWF	r0x04, F
002218   c005     movff	0x5, 0xfe9         	MOVFF	r0x05, FSR0L
00221a   ffe9
00221c   c006     movff	0x6, 0xfea         	MOVFF	r0x06, FSR0H
00221e   ffea
002220   c004     movff	0x4, 0xfef         	MOVFF	r0x04, INDF0
002222   ffef
                                           ;	.line	880; /home/jesuscarlos/Programming_box/Pinguino/Pinguino32X_20120405/svn/trunk/p8/include/pinguino/libraries/servos.c	numservos++;
002224   2a02     incf	0x2, 0x1, 0         	INCF	r0x02, F
002226   d106     bra	0x2434               	BRA	_00209_DS_
                                           _00198_DS_:
                                           ;	.line	884; /home/jesuscarlos/Programming_box/Pinguino/Pinguino32X_20120405/svn/trunk/p8/include/pinguino/libraries/servos.c	else if (s>12){
002228   0e0d     movlw	0xd                	MOVLW	0x0d
00222a   5c03     subwf	0x3, 0, 0          	SUBWF	r0x03, W
00222c   a0d8     btfss	0xd8, 0, 0         	BTFSS	STATUS, 0
00222e   d082     bra	0x2334               	BRA	_00195_DS_
                                           ;	.line	885; /home/jesuscarlos/Programming_box/Pinguino/Pinguino32X_20120405/svn/trunk/p8/include/pinguino/libraries/servos.c	if (servomasks[s] & mascaratotal[MaskPort_A] & activatedservos[MaskPort_A]){
002230   0e38     movlw	0x38               	MOVLW	LOW(_servomasks)
002232   2403     addwf	0x3, 0, 0          	ADDWF	r0x03, W
002234   6e04     movwf	0x4, 0             	MOVWF	r0x04
002236   6a05     clrf	0x5, 0              	CLRF	r0x05
002238   0e33     movlw	0x33               	MOVLW	HIGH(_servomasks)
00223a   2205     addwfc	0x5, 0x1, 0       	ADDWFC	r0x05, F
00223c   6a06     clrf	0x6, 0              	CLRF	r0x06
00223e   0e00     movlw	0                  	MOVLW	UPPER(_servomasks)
002240   2206     addwfc	0x6, 0x1, 0       	ADDWFC	r0x06, F
002242   c004     movff	0x4, 0xff6         	MOVFF	r0x04, TBLPTRL
002244   fff6
002246   c005     movff	0x5, 0xff7         	MOVFF	r0x05, TBLPTRH
002248   fff7
00224a   c006     movff	0x6, 0xff8         	MOVFF	r0x06, TBLPTRU
00224c   fff8
00224e   0009     tblrd	*+                 	TBLRD*+	
002250   cff5     movff	0xff5, 0x4         	MOVFF	TABLAT, r0x04
002252   f004
002254   0102     movlb	0x2                	BANKSEL	(_SortServoTimings_mascaratotal_1_1 + 2)
002256   51d0     movf	0xd0, 0, 0x1        	MOVF	(_SortServoTimings_mascaratotal_1_1 + 2), W, B
002258   1404     andwf	0x4, 0, 0          	ANDWF	r0x04, W
00225a   6e05     movwf	0x5, 0             	MOVWF	r0x05
00225c   0102     movlb	0x2                	BANKSEL	(_activatedservos + 2)
00225e   5184     movf	0x84, 0, 0x1        	MOVF	(_activatedservos + 2), W, B
002260   1605     andwf	0x5, 0x1, 0        	ANDWF	r0x05, F
002262   5005     movf	0x5, 0, 0           	MOVF	r0x05, W
002264   a4d8     btfss	0xd8, 0x2, 0       	BTFSS	STATUS, 2
002266   d0e6     bra	0x2434               	BRA	_00209_DS_
                                           ;	.line	887; /home/jesuscarlos/Programming_box/Pinguino/Pinguino32X_20120405/svn/trunk/p8/include/pinguino/libraries/servos.c	else if (servovalues[s] < timings[timevalue][t]){
002268   0e6c     movlw	0x6c               	MOVLW	LOW(_servovalues)
00226a   2403     addwf	0x3, 0, 0          	ADDWF	r0x03, W
00226c   6e05     movwf	0x5, 0             	MOVWF	r0x05
00226e   6a06     clrf	0x6, 0              	CLRF	r0x06
002270   0e02     movlw	0x2                	MOVLW	HIGH(_servovalues)
002272   2206     addwfc	0x6, 0x1, 0       	ADDWFC	r0x06, F
002274   c005     movff	0x5, 0xfe9         	MOVFF	r0x05, FSR0L
002276   ffe9
002278   c006     movff	0x6, 0xfea         	MOVFF	r0x06, FSR0H
00227a   ffea
00227c   cfef     movff	0xfef, 0x5         	MOVFF	INDF0, r0x05
00227e   f005
002280   0e36     movlw	0x36               	MOVLW	LOW(_timings + 54)
002282   2401     addwf	0x1, 0, 0          	ADDWF	r0x01, W
002284   6e06     movwf	0x6, 0             	MOVWF	r0x06
002286   6a07     clrf	0x7, 0              	CLRF	r0x07
002288   0e02     movlw	0x2                	MOVLW	HIGH(_timings + 54)
00228a   2207     addwfc	0x7, 0x1, 0       	ADDWFC	r0x07, F
00228c   c006     movff	0x6, 0xfe9         	MOVFF	r0x06, FSR0L
00228e   ffe9
002290   c007     movff	0x7, 0xfea         	MOVFF	r0x07, FSR0H
002292   ffea
002294   cfef     movff	0xfef, 0x8         	MOVFF	INDF0, r0x08
002296   f008
002298   5008     movf	0x8, 0, 0           	MOVF	r0x08, W
00229a   5c05     subwf	0x5, 0, 0          	SUBWF	r0x05, W
00229c   e22b     bc	0x22f4                	BC	_00181_DS_
                                           ;	.line	888; /home/jesuscarlos/Programming_box/Pinguino/Pinguino32X_20120405/svn/trunk/p8/include/pinguino/libraries/servos.c	timings[timevalue][t]=servovalues[s];
00229e   c006     movff	0x6, 0xfe9         	MOVFF	r0x06, FSR0L
0022a0   ffe9
0022a2   c007     movff	0x7, 0xfea         	MOVFF	r0x07, FSR0H
0022a4   ffea
0022a6   c005     movff	0x5, 0xfef         	MOVFF	r0x05, INDF0
0022a8   ffef
                                           ;	.line	889; /home/jesuscarlos/Programming_box/Pinguino/Pinguino32X_20120405/svn/trunk/p8/include/pinguino/libraries/servos.c	timings[MaskPort_B][t]=0x00;
0022aa   0e00     movlw	0                  	MOVLW	LOW(_timings)
0022ac   2401     addwf	0x1, 0, 0          	ADDWF	r0x01, W
0022ae   6e08     movwf	0x8, 0             	MOVWF	r0x08
0022b0   6a09     clrf	0x9, 0              	CLRF	r0x09
0022b2   0e02     movlw	0x2                	MOVLW	HIGH(_timings)
0022b4   2209     addwfc	0x9, 0x1, 0       	ADDWFC	r0x09, F
0022b6   c008     movff	0x8, 0xfe9         	MOVFF	r0x08, FSR0L
0022b8   ffe9
0022ba   c009     movff	0x9, 0xfea         	MOVFF	r0x09, FSR0H
0022bc   ffea
0022be   6aef     clrf	0xef, 0             	CLRF	INDF0
                                           ;	.line	890; /home/jesuscarlos/Programming_box/Pinguino/Pinguino32X_20120405/svn/trunk/p8/include/pinguino/libraries/servos.c	timings[MaskPort_C][t]=0x00;
0022c0   0e12     movlw	0x12               	MOVLW	LOW(_timings + 18)
0022c2   2401     addwf	0x1, 0, 0          	ADDWF	r0x01, W
0022c4   6e08     movwf	0x8, 0             	MOVWF	r0x08
0022c6   6a09     clrf	0x9, 0              	CLRF	r0x09
0022c8   0e02     movlw	0x2                	MOVLW	HIGH(_timings + 18)
0022ca   2209     addwfc	0x9, 0x1, 0       	ADDWFC	r0x09, F
0022cc   c008     movff	0x8, 0xfe9         	MOVFF	r0x08, FSR0L
0022ce   ffe9
0022d0   c009     movff	0x9, 0xfea         	MOVFF	r0x09, FSR0H
0022d2   ffea
0022d4   6aef     clrf	0xef, 0             	CLRF	INDF0
                                           ;	.line	891; /home/jesuscarlos/Programming_box/Pinguino/Pinguino32X_20120405/svn/trunk/p8/include/pinguino/libraries/servos.c	timings[MaskPort_A][t]=servomasks[s];
0022d6   0e24     movlw	0x24               	MOVLW	LOW(_timings + 36)
0022d8   2401     addwf	0x1, 0, 0          	ADDWF	r0x01, W
0022da   6e08     movwf	0x8, 0             	MOVWF	r0x08
0022dc   6a09     clrf	0x9, 0              	CLRF	r0x09
0022de   0e02     movlw	0x2                	MOVLW	HIGH(_timings + 36)
0022e0   2209     addwfc	0x9, 0x1, 0       	ADDWFC	r0x09, F
0022e2   c008     movff	0x8, 0xfe9         	MOVFF	r0x08, FSR0L
0022e4   ffe9
0022e6   c009     movff	0x9, 0xfea         	MOVFF	r0x09, FSR0H
0022e8   ffea
0022ea   c004     movff	0x4, 0xfef         	MOVFF	r0x04, INDF0
0022ec   ffef
                                           ;	.line	892; /home/jesuscarlos/Programming_box/Pinguino/Pinguino32X_20120405/svn/trunk/p8/include/pinguino/libraries/servos.c	numservos=1;
0022ee   0e01     movlw	0x1                	MOVLW	0x01
0022f0   6e02     movwf	0x2, 0             	MOVWF	r0x02
0022f2   d0a0     bra	0x2434               	BRA	_00209_DS_
                                           _00181_DS_:
                                           ;	.line	894; /home/jesuscarlos/Programming_box/Pinguino/Pinguino32X_20120405/svn/trunk/p8/include/pinguino/libraries/servos.c	else if (servovalues[s] == timings[timevalue][t]){
0022f4   c006     movff	0x6, 0xfe9         	MOVFF	r0x06, FSR0L
0022f6   ffe9
0022f8   c007     movff	0x7, 0xfea         	MOVFF	r0x07, FSR0H
0022fa   ffea
0022fc   cfef     movff	0xfef, 0x6         	MOVFF	INDF0, r0x06
0022fe   f006
002300   5005     movf	0x5, 0, 0           	MOVF	r0x05, W
002302   1806     xorwf	0x6, 0, 0          	XORWF	r0x06, W
002304   e001     bz	0x2308                	BZ	_00246_DS_
002306   d096     bra	0x2434               	BRA	_00209_DS_
                                           _00246_DS_:
                                           ;	.line	895; /home/jesuscarlos/Programming_box/Pinguino/Pinguino32X_20120405/svn/trunk/p8/include/pinguino/libraries/servos.c	timings[MaskPort_A][t] |= servomasks[s];
002308   0e24     movlw	0x24               	MOVLW	LOW(_timings + 36)
00230a   2401     addwf	0x1, 0, 0          	ADDWF	r0x01, W
00230c   6e05     movwf	0x5, 0             	MOVWF	r0x05
00230e   6a06     clrf	0x6, 0              	CLRF	r0x06
002310   0e02     movlw	0x2                	MOVLW	HIGH(_timings + 36)
002312   2206     addwfc	0x6, 0x1, 0       	ADDWFC	r0x06, F
002314   c005     movff	0x5, 0xfe9         	MOVFF	r0x05, FSR0L
002316   ffe9
002318   c006     movff	0x6, 0xfea         	MOVFF	r0x06, FSR0H
00231a   ffea
00231c   cfef     movff	0xfef, 0x7         	MOVFF	INDF0, r0x07
00231e   f007
002320   5007     movf	0x7, 0, 0           	MOVF	r0x07, W
002322   1204     iorwf	0x4, 0x1, 0        	IORWF	r0x04, F
002324   c005     movff	0x5, 0xfe9         	MOVFF	r0x05, FSR0L
002326   ffe9
002328   c006     movff	0x6, 0xfea         	MOVFF	r0x06, FSR0H
00232a   ffea
00232c   c004     movff	0x4, 0xfef         	MOVFF	r0x04, INDF0
00232e   ffef
                                           ;	.line	896; /home/jesuscarlos/Programming_box/Pinguino/Pinguino32X_20120405/svn/trunk/p8/include/pinguino/libraries/servos.c	numservos++;
002330   2a02     incf	0x2, 0x1, 0         	INCF	r0x02, F
002332   d080     bra	0x2434               	BRA	_00209_DS_
                                           _00195_DS_:
                                           ;	.line	901; /home/jesuscarlos/Programming_box/Pinguino/Pinguino32X_20120405/svn/trunk/p8/include/pinguino/libraries/servos.c	if (servomasks[s] & mascaratotal[MaskPort_C] & activatedservos[MaskPort_C]){ 
002334   0e38     movlw	0x38               	MOVLW	LOW(_servomasks)
002336   2403     addwf	0x3, 0, 0          	ADDWF	r0x03, W
002338   6e04     movwf	0x4, 0             	MOVWF	r0x04
00233a   6a05     clrf	0x5, 0              	CLRF	r0x05
00233c   0e33     movlw	0x33               	MOVLW	HIGH(_servomasks)
00233e   2205     addwfc	0x5, 0x1, 0       	ADDWFC	r0x05, F
002340   6a06     clrf	0x6, 0              	CLRF	r0x06
002342   0e00     movlw	0                  	MOVLW	UPPER(_servomasks)
002344   2206     addwfc	0x6, 0x1, 0       	ADDWFC	r0x06, F
002346   c004     movff	0x4, 0xff6         	MOVFF	r0x04, TBLPTRL
002348   fff6
00234a   c005     movff	0x5, 0xff7         	MOVFF	r0x05, TBLPTRH
00234c   fff7
00234e   c006     movff	0x6, 0xff8         	MOVFF	r0x06, TBLPTRU
002350   fff8
002352   0009     tblrd	*+                 	TBLRD*+	
002354   cff5     movff	0xff5, 0x4         	MOVFF	TABLAT, r0x04
002356   f004
002358   0102     movlb	0x2                	BANKSEL	(_SortServoTimings_mascaratotal_1_1 + 1)
00235a   51cf     movf	0xcf, 0, 0x1        	MOVF	(_SortServoTimings_mascaratotal_1_1 + 1), W, B
00235c   1404     andwf	0x4, 0, 0          	ANDWF	r0x04, W
00235e   6e05     movwf	0x5, 0             	MOVWF	r0x05
002360   0102     movlb	0x2                	BANKSEL	(_activatedservos + 1)
002362   5183     movf	0x83, 0, 0x1        	MOVF	(_activatedservos + 1), W, B
002364   1605     andwf	0x5, 0x1, 0        	ANDWF	r0x05, F
002366   5005     movf	0x5, 0, 0           	MOVF	r0x05, W
002368   a4d8     btfss	0xd8, 0x2, 0       	BTFSS	STATUS, 2
00236a   d064     bra	0x2434               	BRA	_00209_DS_
                                           ;	.line	903; /home/jesuscarlos/Programming_box/Pinguino/Pinguino32X_20120405/svn/trunk/p8/include/pinguino/libraries/servos.c	else if (servovalues[s] < timings[timevalue][t]){
00236c   0e6c     movlw	0x6c               	MOVLW	LOW(_servovalues)
00236e   2403     addwf	0x3, 0, 0          	ADDWF	r0x03, W
002370   6e05     movwf	0x5, 0             	MOVWF	r0x05
002372   6a06     clrf	0x6, 0              	CLRF	r0x06
002374   0e02     movlw	0x2                	MOVLW	HIGH(_servovalues)
002376   2206     addwfc	0x6, 0x1, 0       	ADDWFC	r0x06, F
002378   c005     movff	0x5, 0xfe9         	MOVFF	r0x05, FSR0L
00237a   ffe9
00237c   c006     movff	0x6, 0xfea         	MOVFF	r0x06, FSR0H
00237e   ffea
002380   cfef     movff	0xfef, 0x5         	MOVFF	INDF0, r0x05
002382   f005
002384   0e36     movlw	0x36               	MOVLW	LOW(_timings + 54)
002386   2401     addwf	0x1, 0, 0          	ADDWF	r0x01, W
002388   6e06     movwf	0x6, 0             	MOVWF	r0x06
00238a   6a07     clrf	0x7, 0              	CLRF	r0x07
00238c   0e02     movlw	0x2                	MOVLW	HIGH(_timings + 54)
00238e   2207     addwfc	0x7, 0x1, 0       	ADDWFC	r0x07, F
002390   c006     movff	0x6, 0xfe9         	MOVFF	r0x06, FSR0L
002392   ffe9
002394   c007     movff	0x7, 0xfea         	MOVFF	r0x07, FSR0H
002396   ffea
002398   cfef     movff	0xfef, 0x8         	MOVFF	INDF0, r0x08
00239a   f008
00239c   5008     movf	0x8, 0, 0           	MOVF	r0x08, W
00239e   5c05     subwf	0x5, 0, 0          	SUBWF	r0x05, W
0023a0   e22b     bc	0x23f8                	BC	_00189_DS_
                                           ;	.line	904; /home/jesuscarlos/Programming_box/Pinguino/Pinguino32X_20120405/svn/trunk/p8/include/pinguino/libraries/servos.c	timings[timevalue][t]=servovalues[s];
0023a2   c006     movff	0x6, 0xfe9         	MOVFF	r0x06, FSR0L
0023a4   ffe9
0023a6   c007     movff	0x7, 0xfea         	MOVFF	r0x07, FSR0H
0023a8   ffea
0023aa   c005     movff	0x5, 0xfef         	MOVFF	r0x05, INDF0
0023ac   ffef
                                           ;	.line	905; /home/jesuscarlos/Programming_box/Pinguino/Pinguino32X_20120405/svn/trunk/p8/include/pinguino/libraries/servos.c	timings[MaskPort_B][t]=0x00;
0023ae   0e00     movlw	0                  	MOVLW	LOW(_timings)
0023b0   2401     addwf	0x1, 0, 0          	ADDWF	r0x01, W
0023b2   6e08     movwf	0x8, 0             	MOVWF	r0x08
0023b4   6a09     clrf	0x9, 0              	CLRF	r0x09
0023b6   0e02     movlw	0x2                	MOVLW	HIGH(_timings)
0023b8   2209     addwfc	0x9, 0x1, 0       	ADDWFC	r0x09, F
0023ba   c008     movff	0x8, 0xfe9         	MOVFF	r0x08, FSR0L
0023bc   ffe9
0023be   c009     movff	0x9, 0xfea         	MOVFF	r0x09, FSR0H
0023c0   ffea
0023c2   6aef     clrf	0xef, 0             	CLRF	INDF0
                                           ;	.line	906; /home/jesuscarlos/Programming_box/Pinguino/Pinguino32X_20120405/svn/trunk/p8/include/pinguino/libraries/servos.c	timings[MaskPort_C][t]=servomasks[s];
0023c4   0e12     movlw	0x12               	MOVLW	LOW(_timings + 18)
0023c6   2401     addwf	0x1, 0, 0          	ADDWF	r0x01, W
0023c8   6e08     movwf	0x8, 0             	MOVWF	r0x08
0023ca   6a09     clrf	0x9, 0              	CLRF	r0x09
0023cc   0e02     movlw	0x2                	MOVLW	HIGH(_timings + 18)
0023ce   2209     addwfc	0x9, 0x1, 0       	ADDWFC	r0x09, F
0023d0   c008     movff	0x8, 0xfe9         	MOVFF	r0x08, FSR0L
0023d2   ffe9
0023d4   c009     movff	0x9, 0xfea         	MOVFF	r0x09, FSR0H
0023d6   ffea
0023d8   c004     movff	0x4, 0xfef         	MOVFF	r0x04, INDF0
0023da   ffef
                                           ;	.line	907; /home/jesuscarlos/Programming_box/Pinguino/Pinguino32X_20120405/svn/trunk/p8/include/pinguino/libraries/servos.c	timings[MaskPort_A][t]=0x00;
0023dc   0e24     movlw	0x24               	MOVLW	LOW(_timings + 36)
0023de   2401     addwf	0x1, 0, 0          	ADDWF	r0x01, W
0023e0   6e08     movwf	0x8, 0             	MOVWF	r0x08
0023e2   6a09     clrf	0x9, 0              	CLRF	r0x09
0023e4   0e02     movlw	0x2                	MOVLW	HIGH(_timings + 36)
0023e6   2209     addwfc	0x9, 0x1, 0       	ADDWFC	r0x09, F
0023e8   c008     movff	0x8, 0xfe9         	MOVFF	r0x08, FSR0L
0023ea   ffe9
0023ec   c009     movff	0x9, 0xfea         	MOVFF	r0x09, FSR0H
0023ee   ffea
0023f0   6aef     clrf	0xef, 0             	CLRF	INDF0
                                           ;	.line	908; /home/jesuscarlos/Programming_box/Pinguino/Pinguino32X_20120405/svn/trunk/p8/include/pinguino/libraries/servos.c	numservos=1;
0023f2   0e01     movlw	0x1                	MOVLW	0x01
0023f4   6e02     movwf	0x2, 0             	MOVWF	r0x02
0023f6   d01e     bra	0x2434               	BRA	_00209_DS_
                                           _00189_DS_:
                                           ;	.line	910; /home/jesuscarlos/Programming_box/Pinguino/Pinguino32X_20120405/svn/trunk/p8/include/pinguino/libraries/servos.c	else if (servovalues[s] == timings [timevalue][t]){
0023f8   c006     movff	0x6, 0xfe9         	MOVFF	r0x06, FSR0L
0023fa   ffe9
0023fc   c007     movff	0x7, 0xfea         	MOVFF	r0x07, FSR0H
0023fe   ffea
002400   cfef     movff	0xfef, 0x6         	MOVFF	INDF0, r0x06
002402   f006
002404   5005     movf	0x5, 0, 0           	MOVF	r0x05, W
002406   1806     xorwf	0x6, 0, 0          	XORWF	r0x06, W
002408   e115     bnz	0x2434               	BNZ	_00209_DS_
                                           ;	.line	911; /home/jesuscarlos/Programming_box/Pinguino/Pinguino32X_20120405/svn/trunk/p8/include/pinguino/libraries/servos.c	timings[MaskPort_C][t] |= servomasks[s];
00240a   0e12     movlw	0x12               	MOVLW	LOW(_timings + 18)
00240c   2401     addwf	0x1, 0, 0          	ADDWF	r0x01, W
00240e   6e05     movwf	0x5, 0             	MOVWF	r0x05
002410   6a06     clrf	0x6, 0              	CLRF	r0x06
002412   0e02     movlw	0x2                	MOVLW	HIGH(_timings + 18)
002414   2206     addwfc	0x6, 0x1, 0       	ADDWFC	r0x06, F
002416   c005     movff	0x5, 0xfe9         	MOVFF	r0x05, FSR0L
002418   ffe9
00241a   c006     movff	0x6, 0xfea         	MOVFF	r0x06, FSR0H
00241c   ffea
00241e   cfef     movff	0xfef, 0x7         	MOVFF	INDF0, r0x07
002420   f007
002422   5007     movf	0x7, 0, 0           	MOVF	r0x07, W
002424   1204     iorwf	0x4, 0x1, 0        	IORWF	r0x04, F
002426   c005     movff	0x5, 0xfe9         	MOVFF	r0x05, FSR0L
002428   ffe9
00242a   c006     movff	0x6, 0xfea         	MOVFF	r0x06, FSR0H
00242c   ffea
00242e   c004     movff	0x4, 0xfef         	MOVFF	r0x04, INDF0
002430   ffef
                                           ;	.line	912; /home/jesuscarlos/Programming_box/Pinguino/Pinguino32X_20120405/svn/trunk/p8/include/pinguino/libraries/servos.c	numservos++;
002432   2a02     incf	0x2, 0x1, 0         	INCF	r0x02, F
                                           _00209_DS_:
                                           ;	.line	866; /home/jesuscarlos/Programming_box/Pinguino/Pinguino32X_20120405/svn/trunk/p8/include/pinguino/libraries/servos.c	for(s=0;s<PIC18F2550_pins;s++) { 
002434   2a03     incf	0x3, 0x1, 0         	INCF	r0x03, F
002436   d66e     bra	0x2114               	BRA	_00207_DS_
                                           _00210_DS_:
                                           ;	.line	917; /home/jesuscarlos/Programming_box/Pinguino/Pinguino32X_20120405/svn/trunk/p8/include/pinguino/libraries/servos.c	mascaratotal[MaskPort_B] |= timings[MaskPort_B][t];
002438   0e00     movlw	0                  	MOVLW	LOW(_timings)
00243a   2401     addwf	0x1, 0, 0          	ADDWF	r0x01, W
00243c   6e03     movwf	0x3, 0             	MOVWF	r0x03
00243e   6a04     clrf	0x4, 0              	CLRF	r0x04
002440   0e02     movlw	0x2                	MOVLW	HIGH(_timings)
002442   2204     addwfc	0x4, 0x1, 0       	ADDWFC	r0x04, F
002444   c003     movff	0x3, 0xfe9         	MOVFF	r0x03, FSR0L
002446   ffe9
002448   c004     movff	0x4, 0xfea         	MOVFF	r0x04, FSR0H
00244a   ffea
00244c   cfef     movff	0xfef, 0x3         	MOVFF	INDF0, r0x03
00244e   f003
002450   0102     movlb	0x2                	BANKSEL	_SortServoTimings_mascaratotal_1_1
002452   51ce     movf	0xce, 0, 0x1        	MOVF	_SortServoTimings_mascaratotal_1_1, W, B
002454   1203     iorwf	0x3, 0x1, 0        	IORWF	r0x03, F
002456   5003     movf	0x3, 0, 0           	MOVF	r0x03, W
                                           ; removed redundant BANKSEL
002458   6fce     movwf	0xce, 0x1          	MOVWF	_SortServoTimings_mascaratotal_1_1, B
                                           ;	.line	918; /home/jesuscarlos/Programming_box/Pinguino/Pinguino32X_20120405/svn/trunk/p8/include/pinguino/libraries/servos.c	mascaratotal[MaskPort_C] |= timings[MaskPort_C][t];
00245a   0e12     movlw	0x12               	MOVLW	LOW(_timings + 18)
00245c   2401     addwf	0x1, 0, 0          	ADDWF	r0x01, W
00245e   6e03     movwf	0x3, 0             	MOVWF	r0x03
002460   6a04     clrf	0x4, 0              	CLRF	r0x04
002462   0e02     movlw	0x2                	MOVLW	HIGH(_timings + 18)
002464   2204     addwfc	0x4, 0x1, 0       	ADDWFC	r0x04, F
002466   c003     movff	0x3, 0xfe9         	MOVFF	r0x03, FSR0L
002468   ffe9
00246a   c004     movff	0x4, 0xfea         	MOVFF	r0x04, FSR0H
00246c   ffea
00246e   cfef     movff	0xfef, 0x3         	MOVFF	INDF0, r0x03
002470   f003
                                           ; removed redundant BANKSEL
002472   51cf     movf	0xcf, 0, 0x1        	MOVF	(_SortServoTimings_mascaratotal_1_1 + 1), W, B
002474   1203     iorwf	0x3, 0x1, 0        	IORWF	r0x03, F
002476   5003     movf	0x3, 0, 0           	MOVF	r0x03, W
                                           ; removed redundant BANKSEL
002478   6fcf     movwf	0xcf, 0x1          	MOVWF	(_SortServoTimings_mascaratotal_1_1 + 1), B
                                           ;	.line	919; /home/jesuscarlos/Programming_box/Pinguino/Pinguino32X_20120405/svn/trunk/p8/include/pinguino/libraries/servos.c	mascaratotal[MaskPort_A] |= timings[MaskPort_A][t];
00247a   0e24     movlw	0x24               	MOVLW	LOW(_timings + 36)
00247c   2401     addwf	0x1, 0, 0          	ADDWF	r0x01, W
00247e   6e03     movwf	0x3, 0             	MOVWF	r0x03
002480   6a04     clrf	0x4, 0              	CLRF	r0x04
002482   0e02     movlw	0x2                	MOVLW	HIGH(_timings + 36)
002484   2204     addwfc	0x4, 0x1, 0       	ADDWFC	r0x04, F
002486   c003     movff	0x3, 0xfe9         	MOVFF	r0x03, FSR0L
002488   ffe9
00248a   c004     movff	0x4, 0xfea         	MOVFF	r0x04, FSR0H
00248c   ffea
00248e   cfef     movff	0xfef, 0x3         	MOVFF	INDF0, r0x03
002490   f003
                                           ; removed redundant BANKSEL
002492   51d0     movf	0xd0, 0, 0x1        	MOVF	(_SortServoTimings_mascaratotal_1_1 + 2), W, B
002494   1203     iorwf	0x3, 0x1, 0        	IORWF	r0x03, F
002496   5003     movf	0x3, 0, 0           	MOVF	r0x03, W
                                           ; removed redundant BANKSEL
002498   6fd0     movwf	0xd0, 0x1          	MOVWF	(_SortServoTimings_mascaratotal_1_1 + 2), B
                                           ;	.line	920; /home/jesuscarlos/Programming_box/Pinguino/Pinguino32X_20120405/svn/trunk/p8/include/pinguino/libraries/servos.c	totalservos += numservos;
00249a   5002     movf	0x2, 0, 0           	MOVF	r0x02, W
00249c   2600     addwf	0, 0x1, 0          	ADDWF	r0x00, F
                                           ;	.line	921; /home/jesuscarlos/Programming_box/Pinguino/Pinguino32X_20120405/svn/trunk/p8/include/pinguino/libraries/servos.c	t++;
00249e   2a01     incf	0x1, 0x1, 0         	INCF	r0x01, F
0024a0   d632     bra	0x2106               	BRA	_00200_DS_
                                           _00202_DS_:
0024a2   0102     movlb	0x2                	BANKSEL	_needreordering
                                           ;	.line	924; /home/jesuscarlos/Programming_box/Pinguino/Pinguino32X_20120405/svn/trunk/p8/include/pinguino/libraries/servos.c	needreordering=0;  // This indicates that servo timings is ordered.	
0024a4   6b80     clrf	0x80, 0x1           	CLRF	_needreordering, B
0024a6   cfe4     movff	0xfe4, 0x9         	MOVFF	PREINC1, r0x09
0024a8   f009
0024aa   cfe4     movff	0xfe4, 0x8         	MOVFF	PREINC1, r0x08
0024ac   f008
0024ae   cfe4     movff	0xfe4, 0x7         	MOVFF	PREINC1, r0x07
0024b0   f007
0024b2   cfe4     movff	0xfe4, 0x6         	MOVFF	PREINC1, r0x06
0024b4   f006
0024b6   cfe4     movff	0xfe4, 0x5         	MOVFF	PREINC1, r0x05
0024b8   f005
0024ba   cfe4     movff	0xfe4, 0x4         	MOVFF	PREINC1, r0x04
0024bc   f004
0024be   cfe4     movff	0xfe4, 0x3         	MOVFF	PREINC1, r0x03
0024c0   f003
0024c2   cfe4     movff	0xfe4, 0x2         	MOVFF	PREINC1, r0x02
0024c4   f002
0024c6   cfe4     movff	0xfe4, 0x1         	MOVFF	PREINC1, r0x01
0024c8   f001
0024ca   cfe4     movff	0xfe4, 0           	MOVFF	PREINC1, r0x00
0024cc   f000
0024ce   0012     return	0                 	RETURN	
                                           
                                           ; ; Starting pCode block
                                           S_main__ServosPulseUp	code
                                           _ServosPulseUp:
                                           ;	.line	839; /home/jesuscarlos/Programming_box/Pinguino/Pinguino32X_20120405/svn/trunk/p8/include/pinguino/libraries/servos.c	PORTB = activatedservos[MaskPort_B] & 0xFF;
003ff0   c282     movff	0x282, 0xf81       	MOVFF	_activatedservos, _PORTB
003ff2   ff81
                                           ;	.line	840; /home/jesuscarlos/Programming_box/Pinguino/Pinguino32X_20120405/svn/trunk/p8/include/pinguino/libraries/servos.c	PORTC = activatedservos[MaskPort_C] & 0xFF;
003ff4   c283     movff	0x283, 0xf82       	MOVFF	(_activatedservos + 1), _PORTC
003ff6   ff82
                                           ;	.line	841; /home/jesuscarlos/Programming_box/Pinguino/Pinguino32X_20120405/svn/trunk/p8/include/pinguino/libraries/servos.c	PORTA = activatedservos[MaskPort_A] & 0xFF;	
003ff8   c284     movff	0x284, 0xf80       	MOVFF	(_activatedservos + 2), _PORTA
003ffa   ff80
003ffc   0012     return	0                 	RETURN	
                                           
                                           ; ; Starting pCode block
                                           S_main__ServosPulseDown	code
                                           _ServosPulseDown:
                                           ;	.line	805; /home/jesuscarlos/Programming_box/Pinguino/Pinguino32X_20120405/svn/trunk/p8/include/pinguino/libraries/servos.c	static void ServosPulseDown()
003b96   cfd9     movff	0xfd9, 0xfe5       	MOVFF	FSR2L, POSTDEC1
003b98   ffe5
003b9a   cfe1     movff	0xfe1, 0xfd9       	MOVFF	FSR1L, FSR2L
003b9c   ffd9
003b9e   c000     movff	0, 0xfe5           	MOVFF	r0x00, POSTDEC1
003ba0   ffe5
003ba2   c001     movff	0x1, 0xfe5         	MOVFF	r0x01, POSTDEC1
003ba4   ffe5
003ba6   0102     movlb	0x2                	BANKSEL	_timingindex
                                           ;	.line	807; /home/jesuscarlos/Programming_box/Pinguino/Pinguino32X_20120405/svn/trunk/p8/include/pinguino/libraries/servos.c	timingindex = 0;
003ba8   6bda     clrf	0xda, 0x1           	CLRF	_timingindex, B
003baa   0102     movlb	0x2                	BANKSEL	_timedivision
                                           ;	.line	809; /home/jesuscarlos/Programming_box/Pinguino/Pinguino32X_20120405/svn/trunk/p8/include/pinguino/libraries/servos.c	for(timedivision=0;timedivision < 251;timedivision++){
003bac   6b81     clrf	0x81, 0x1           	CLRF	_timedivision, B
                                           _00149_DS_:
003bae   0efb     movlw	0xfb               	MOVLW	0xfb
003bb0   0102     movlb	0x2                	BANKSEL	_timedivision
003bb2   5d81     subwf	0x81, 0, 0x1       	SUBWF	_timedivision, W, B
003bb4   b0d8     btfsc	0xd8, 0, 0         	BTFSC	STATUS, 0
003bb6   d04f     bra	0x3c56               	BRA	_00153_DS_
                                           ;	.line	810; /home/jesuscarlos/Programming_box/Pinguino/Pinguino32X_20120405/svn/trunk/p8/include/pinguino/libraries/servos.c	if (timings[timevalue][timingindex] == timedivision){
003bb8   c2da     movff	0x2da, 0           	MOVFF	_timingindex, r0x00
003bba   f000
003bbc   6a01     clrf	0x1, 0              	CLRF	r0x01
003bbe   0e36     movlw	0x36               	MOVLW	LOW(_timings + 54)
003bc0   2600     addwf	0, 0x1, 0          	ADDWF	r0x00, F
003bc2   0e02     movlw	0x2                	MOVLW	HIGH(_timings + 54)
003bc4   2201     addwfc	0x1, 0x1, 0       	ADDWFC	r0x01, F
003bc6   c000     movff	0, 0xfe9           	MOVFF	r0x00, FSR0L
003bc8   ffe9
003bca   c001     movff	0x1, 0xfea         	MOVFF	r0x01, FSR0H
003bcc   ffea
003bce   cfef     movff	0xfef, 0           	MOVFF	INDF0, r0x00
003bd0   f000
003bd2   5000     movf	0, 0, 0             	MOVF	r0x00, W
                                           ; removed redundant BANKSEL
003bd4   1981     xorwf	0x81, 0, 0x1       	XORWF	_timedivision, W, B
003bd6   e12f     bnz	0x3c36               	BNZ	_00148_DS_
                                           ;	.line	811; /home/jesuscarlos/Programming_box/Pinguino/Pinguino32X_20120405/svn/trunk/p8/include/pinguino/libraries/servos.c	PORTB = PORTB ^ timings[MaskPort_B][timingindex];
003bd8   c2da     movff	0x2da, 0           	MOVFF	_timingindex, r0x00
003bda   f000
003bdc   6a01     clrf	0x1, 0              	CLRF	r0x01
003bde   0e00     movlw	0                  	MOVLW	LOW(_timings)
003be0   2600     addwf	0, 0x1, 0          	ADDWF	r0x00, F
003be2   0e02     movlw	0x2                	MOVLW	HIGH(_timings)
003be4   2201     addwfc	0x1, 0x1, 0       	ADDWFC	r0x01, F
003be6   c000     movff	0, 0xfe9           	MOVFF	r0x00, FSR0L
003be8   ffe9
003bea   c001     movff	0x1, 0xfea         	MOVFF	r0x01, FSR0H
003bec   ffea
003bee   cfef     movff	0xfef, 0           	MOVFF	INDF0, r0x00
003bf0   f000
003bf2   5000     movf	0, 0, 0             	MOVF	r0x00, W
003bf4   1a81     xorwf	0x81, 0x1, 0       	XORWF	_PORTB, F
                                           ;	.line	812; /home/jesuscarlos/Programming_box/Pinguino/Pinguino32X_20120405/svn/trunk/p8/include/pinguino/libraries/servos.c	PORTC = PORTC ^ timings[MaskPort_C][timingindex];
003bf6   c2da     movff	0x2da, 0           	MOVFF	_timingindex, r0x00
003bf8   f000
003bfa   6a01     clrf	0x1, 0              	CLRF	r0x01
003bfc   0e12     movlw	0x12               	MOVLW	LOW(_timings + 18)
003bfe   2600     addwf	0, 0x1, 0          	ADDWF	r0x00, F
003c00   0e02     movlw	0x2                	MOVLW	HIGH(_timings + 18)
003c02   2201     addwfc	0x1, 0x1, 0       	ADDWFC	r0x01, F
003c04   c000     movff	0, 0xfe9           	MOVFF	r0x00, FSR0L
003c06   ffe9
003c08   c001     movff	0x1, 0xfea         	MOVFF	r0x01, FSR0H
003c0a   ffea
003c0c   cfef     movff	0xfef, 0           	MOVFF	INDF0, r0x00
003c0e   f000
003c10   5000     movf	0, 0, 0             	MOVF	r0x00, W
003c12   1a82     xorwf	0x82, 0x1, 0       	XORWF	_PORTC, F
                                           ;	.line	813; /home/jesuscarlos/Programming_box/Pinguino/Pinguino32X_20120405/svn/trunk/p8/include/pinguino/libraries/servos.c	PORTA = PORTA ^ timings[MaskPort_A][timingindex];
003c14   c2da     movff	0x2da, 0           	MOVFF	_timingindex, r0x00
003c16   f000
003c18   6a01     clrf	0x1, 0              	CLRF	r0x01
003c1a   0e24     movlw	0x24               	MOVLW	LOW(_timings + 36)
003c1c   2600     addwf	0, 0x1, 0          	ADDWF	r0x00, F
003c1e   0e02     movlw	0x2                	MOVLW	HIGH(_timings + 36)
003c20   2201     addwfc	0x1, 0x1, 0       	ADDWFC	r0x01, F
003c22   c000     movff	0, 0xfe9           	MOVFF	r0x00, FSR0L
003c24   ffe9
003c26   c001     movff	0x1, 0xfea         	MOVFF	r0x01, FSR0H
003c28   ffea
003c2a   cfef     movff	0xfef, 0           	MOVFF	INDF0, r0x00
003c2c   f000
003c2e   5000     movf	0, 0, 0             	MOVF	r0x00, W
003c30   1a80     xorwf	0x80, 0x1, 0       	XORWF	_PORTA, F
003c32   0102     movlb	0x2                	BANKSEL	_timingindex
                                           ;	.line	814; /home/jesuscarlos/Programming_box/Pinguino/Pinguino32X_20120405/svn/trunk/p8/include/pinguino/libraries/servos.c	timingindex++;
003c34   2bda     incf	0xda, 0x1, 0x1      	INCF	_timingindex, F, B
                                           _00148_DS_:
003c36   0e06     movlw	0x6                	movlw 6
003c38   6fd9     movwf	0xd9, 0x1          	movwf _loopvar
                                           bucle:
003c3a   0000     nop                      	NOP
003c3c   0000     nop                      	NOP
003c3e   0000     nop                      	NOP
003c40   0000     nop                      	NOP
003c42   0000     nop                      	NOP
003c44   0000     nop                      	NOP
003c46   0000     nop                      	NOP
003c48   0000     nop                      	NOP
003c4a   2fd9     decfsz	0xd9, 0x1, 0x1    	decfsz _loopvar,1
003c4c   ef1d     goto	0x3c3a              	goto bucle
003c4e   f01e
                                           	
003c50   0102     movlb	0x2                	BANKSEL	_timedivision
                                           ;	.line	809; /home/jesuscarlos/Programming_box/Pinguino/Pinguino32X_20120405/svn/trunk/p8/include/pinguino/libraries/servos.c	for(timedivision=0;timedivision < 251;timedivision++){
003c52   2b81     incf	0x81, 0x1, 0x1      	INCF	_timedivision, F, B
003c54   d7ac     bra	0x3bae               	BRA	_00149_DS_
                                           _00153_DS_:
003c56   cfe4     movff	0xfe4, 0x1         	MOVFF	PREINC1, r0x01
003c58   f001
003c5a   cfe4     movff	0xfe4, 0           	MOVFF	PREINC1, r0x00
003c5c   f000
003c5e   cfe4     movff	0xfe4, 0xfd9       	MOVFF	PREINC1, FSR2L
003c60   ffd9
003c62   0012     return	0                 	RETURN	
                                           
                                           ; ; Starting pCode block
                                           S_main__servos_init	code
                                           _servos_init:
                                           ;	.line	782; /home/jesuscarlos/Programming_box/Pinguino/Pinguino32X_20120405/svn/trunk/p8/include/pinguino/libraries/servos.c	void servos_init()
0040fe   c000     movff	0, 0xfe5           	MOVFF	r0x00, POSTDEC1
004100   ffe5
004102   c001     movff	0x1, 0xfe5         	MOVFF	r0x01, POSTDEC1
004104   ffe5
004106   c002     movff	0x2, 0xfe5         	MOVFF	r0x02, POSTDEC1
004108   ffe5
                                           ;	.line	786; /home/jesuscarlos/Programming_box/Pinguino/Pinguino32X_20120405/svn/trunk/p8/include/pinguino/libraries/servos.c	for(a=0;a<PIC18F2550_pins;a++) {
00410a   6a00     clrf	0, 0                	CLRF	r0x00
                                           _00133_DS_:
00410c   0e12     movlw	0x12               	MOVLW	0x12
00410e   5c00     subwf	0, 0, 0            	SUBWF	r0x00, W
004110   e20d     bc	0x412c                	BC	_00136_DS_
                                           ;	.line	787; /home/jesuscarlos/Programming_box/Pinguino/Pinguino32X_20120405/svn/trunk/p8/include/pinguino/libraries/servos.c	servovalues[a]=255;
004112   0e6c     movlw	0x6c               	MOVLW	LOW(_servovalues)
004114   2400     addwf	0, 0, 0            	ADDWF	r0x00, W
004116   6e01     movwf	0x1, 0             	MOVWF	r0x01
004118   6a02     clrf	0x2, 0              	CLRF	r0x02
00411a   0e02     movlw	0x2                	MOVLW	HIGH(_servovalues)
00411c   2202     addwfc	0x2, 0x1, 0       	ADDWFC	r0x02, F
00411e   c001     movff	0x1, 0xfe9         	MOVFF	r0x01, FSR0L
004120   ffe9
004122   c002     movff	0x2, 0xfea         	MOVFF	r0x02, FSR0H
004124   ffea
004126   68ef     setf	0xef, 0             	SETF	INDF0
                                           ;	.line	786; /home/jesuscarlos/Programming_box/Pinguino/Pinguino32X_20120405/svn/trunk/p8/include/pinguino/libraries/servos.c	for(a=0;a<PIC18F2550_pins;a++) {
004128   2a00     incf	0, 0x1, 0           	INCF	r0x00, F
00412a   d7f0     bra	0x410c               	BRA	_00133_DS_
                                           _00136_DS_:
                                           ;	.line	791; /home/jesuscarlos/Programming_box/Pinguino/Pinguino32X_20120405/svn/trunk/p8/include/pinguino/libraries/servos.c	TMR1H=0xFF;
00412c   68cf     setf	0xcf, 0             	SETF	_TMR1H
                                           ;	.line	792; /home/jesuscarlos/Programming_box/Pinguino/Pinguino32X_20120405/svn/trunk/p8/include/pinguino/libraries/servos.c	TMR1L=0x00;
00412e   6ace     clrf	0xce, 0             	CLRF	_TMR1L
                                           ;	.line	794; /home/jesuscarlos/Programming_box/Pinguino/Pinguino32X_20120405/svn/trunk/p8/include/pinguino/libraries/servos.c	T1CON=0x01;
004130   0e01     movlw	0x1                	MOVLW	0x01
004132   6ecd     movwf	0xcd, 0            	MOVWF	_T1CON
                                           ;	.line	796; /home/jesuscarlos/Programming_box/Pinguino/Pinguino32X_20120405/svn/trunk/p8/include/pinguino/libraries/servos.c	PIE1bits.TMR1IE=1;
004134   809d     bsf	0x9d, 0, 0           	BSF	_PIE1bits, 0
                                           ;	.line	798; /home/jesuscarlos/Programming_box/Pinguino/Pinguino32X_20120405/svn/trunk/p8/include/pinguino/libraries/servos.c	INTCONbits.PEIE=1;
004136   8cf2     bsf	0xf2, 0x6, 0         	BSF	_INTCONbits, 6
                                           ;	.line	800; /home/jesuscarlos/Programming_box/Pinguino/Pinguino32X_20120405/svn/trunk/p8/include/pinguino/libraries/servos.c	INTCONbits.GIE=1;
004138   8ef2     bsf	0xf2, 0x7, 0         	BSF	_INTCONbits, 7
00413a   cfe4     movff	0xfe4, 0x2         	MOVFF	PREINC1, r0x02
00413c   f002
00413e   cfe4     movff	0xfe4, 0x1         	MOVFF	PREINC1, r0x01
004140   f001
004142   cfe4     movff	0xfe4, 0           	MOVFF	PREINC1, r0x00
004144   f000
004146   0012     return	0                 	RETURN	
                                           
                                           ; ; Starting pCode block
                                           S_main__Delayus	code
                                           _Delayus:
                                           ;	.line	16; /home/jesuscarlos/Programming_box/Pinguino/Pinguino32X_20120405/svn/trunk/p8/include/pinguino/core/delay.c	void Delayus(int microsecondes)
0040ac   cfd9     movff	0xfd9, 0xfe5       	MOVFF	FSR2L, POSTDEC1
0040ae   ffe5
0040b0   cfe1     movff	0xfe1, 0xfd9       	MOVFF	FSR1L, FSR2L
0040b2   ffd9
0040b4   c000     movff	0, 0xfe5           	MOVFF	r0x00, POSTDEC1
0040b6   ffe5
0040b8   c001     movff	0x1, 0xfe5         	MOVFF	r0x01, POSTDEC1
0040ba   ffe5
0040bc   c002     movff	0x2, 0xfe5         	MOVFF	r0x02, POSTDEC1
0040be   ffe5
0040c0   c003     movff	0x3, 0xfe5         	MOVFF	r0x03, POSTDEC1
0040c2   ffe5
0040c4   0e02     movlw	0x2                	MOVLW	0x02
0040c6   cfdb     movff	0xfdb, 0           	MOVFF	PLUSW2, r0x00
0040c8   f000
0040ca   0e03     movlw	0x3                	MOVLW	0x03
0040cc   cfdb     movff	0xfdb, 0x1         	MOVFF	PLUSW2, r0x01
0040ce   f001
                                           ;	.line	20; /home/jesuscarlos/Programming_box/Pinguino/Pinguino32X_20120405/svn/trunk/p8/include/pinguino/core/delay.c	for (i=0;i<microsecondes;i++);
0040d0   6a02     clrf	0x2, 0              	CLRF	r0x02
0040d2   6a03     clrf	0x3, 0              	CLRF	r0x03
                                           _00119_DS_:
0040d4   5001     movf	0x1, 0, 0           	MOVF	r0x01, W
0040d6   5c03     subwf	0x3, 0, 0          	SUBWF	r0x03, W
0040d8   e102     bnz	0x40de               	BNZ	_00128_DS_
0040da   5000     movf	0, 0, 0             	MOVF	r0x00, W
0040dc   5c02     subwf	0x2, 0, 0          	SUBWF	r0x02, W
                                           _00128_DS_:
0040de   e204     bc	0x40e8                	BC	_00123_DS_
0040e0   2a02     incf	0x2, 0x1, 0         	INCF	r0x02, F
0040e2   b0d8     btfsc	0xd8, 0, 0         	BTFSC	STATUS, 0
0040e4   2a03     incf	0x3, 0x1, 0         	INCF	r0x03, F
0040e6   d7f6     bra	0x40d4               	BRA	_00119_DS_
                                           _00123_DS_:
0040e8   cfe4     movff	0xfe4, 0x3         	MOVFF	PREINC1, r0x03
0040ea   f003
0040ec   cfe4     movff	0xfe4, 0x2         	MOVFF	PREINC1, r0x02
0040ee   f002
0040f0   cfe4     movff	0xfe4, 0x1         	MOVFF	PREINC1, r0x01
0040f2   f001
0040f4   cfe4     movff	0xfe4, 0           	MOVFF	PREINC1, r0x00
0040f6   f000
0040f8   cfe4     movff	0xfe4, 0xfd9       	MOVFF	PREINC1, FSR2L
0040fa   ffd9
0040fc   0012     return	0                 	RETURN	
                                           
                                           ; ; Starting pCode block
                                           S_main__Delayms	code
                                           _Delayms:
                                           ;	.line	9; /home/jesuscarlos/Programming_box/Pinguino/Pinguino32X_20120405/svn/trunk/p8/include/pinguino/core/delay.c	void Delayms(unsigned long milliseconde)
003d0e   cfd9     movff	0xfd9, 0xfe5       	MOVFF	FSR2L, POSTDEC1
003d10   ffe5
003d12   cfe1     movff	0xfe1, 0xfd9       	MOVFF	FSR1L, FSR2L
003d14   ffd9
003d16   c000     movff	0, 0xfe5           	MOVFF	r0x00, POSTDEC1
003d18   ffe5
003d1a   c001     movff	0x1, 0xfe5         	MOVFF	r0x01, POSTDEC1
003d1c   ffe5
003d1e   c002     movff	0x2, 0xfe5         	MOVFF	r0x02, POSTDEC1
003d20   ffe5
003d22   c003     movff	0x3, 0xfe5         	MOVFF	r0x03, POSTDEC1
003d24   ffe5
003d26   c004     movff	0x4, 0xfe5         	MOVFF	r0x04, POSTDEC1
003d28   ffe5
003d2a   c005     movff	0x5, 0xfe5         	MOVFF	r0x05, POSTDEC1
003d2c   ffe5
003d2e   c006     movff	0x6, 0xfe5         	MOVFF	r0x06, POSTDEC1
003d30   ffe5
003d32   c007     movff	0x7, 0xfe5         	MOVFF	r0x07, POSTDEC1
003d34   ffe5
003d36   0e02     movlw	0x2                	MOVLW	0x02
003d38   cfdb     movff	0xfdb, 0           	MOVFF	PLUSW2, r0x00
003d3a   f000
003d3c   0e03     movlw	0x3                	MOVLW	0x03
003d3e   cfdb     movff	0xfdb, 0x1         	MOVFF	PLUSW2, r0x01
003d40   f001
003d42   0e04     movlw	0x4                	MOVLW	0x04
003d44   cfdb     movff	0xfdb, 0x2         	MOVFF	PLUSW2, r0x02
003d46   f002
003d48   0e05     movlw	0x5                	MOVLW	0x05
003d4a   cfdb     movff	0xfdb, 0x3         	MOVFF	PLUSW2, r0x03
003d4c   f003
                                           ;	.line	13; /home/jesuscarlos/Programming_box/Pinguino/Pinguino32X_20120405/svn/trunk/p8/include/pinguino/core/delay.c	for (i=0;i<milliseconde;i++) delay10ktcy(1);
003d4e   6a04     clrf	0x4, 0              	CLRF	r0x04
003d50   6a05     clrf	0x5, 0              	CLRF	r0x05
003d52   6a06     clrf	0x6, 0              	CLRF	r0x06
003d54   6a07     clrf	0x7, 0              	CLRF	r0x07
                                           _00105_DS_:
003d56   5003     movf	0x3, 0, 0           	MOVF	r0x03, W
003d58   5c07     subwf	0x7, 0, 0          	SUBWF	r0x07, W
003d5a   e108     bnz	0x3d6c               	BNZ	_00114_DS_
003d5c   5002     movf	0x2, 0, 0           	MOVF	r0x02, W
003d5e   5c06     subwf	0x6, 0, 0          	SUBWF	r0x06, W
003d60   e105     bnz	0x3d6c               	BNZ	_00114_DS_
003d62   5001     movf	0x1, 0, 0           	MOVF	r0x01, W
003d64   5c05     subwf	0x5, 0, 0          	SUBWF	r0x05, W
003d66   e102     bnz	0x3d6c               	BNZ	_00114_DS_
003d68   5000     movf	0, 0, 0             	MOVF	r0x00, W
003d6a   5c04     subwf	0x4, 0, 0          	SUBWF	r0x04, W
                                           _00114_DS_:
003d6c   e20b     bc	0x3d84                	BC	_00109_DS_
003d6e   0e01     movlw	0x1                	MOVLW	0x01
003d70   ec37     call	0x6e, 0             	CALL	_delay10ktcy
003d72   f000
003d74   2a04     incf	0x4, 0x1, 0         	INCF	r0x04, F
003d76   b0d8     btfsc	0xd8, 0, 0         	BTFSC	STATUS, 0
003d78   2a05     incf	0x5, 0x1, 0         	INCF	r0x05, F
003d7a   b0d8     btfsc	0xd8, 0, 0         	BTFSC	STATUS, 0
003d7c   2a06     incf	0x6, 0x1, 0         	INCF	r0x06, F
003d7e   b0d8     btfsc	0xd8, 0, 0         	BTFSC	STATUS, 0
003d80   2a07     incf	0x7, 0x1, 0         	INCF	r0x07, F
003d82   d7e9     bra	0x3d56               	BRA	_00105_DS_
                                           _00109_DS_:
003d84   cfe4     movff	0xfe4, 0x7         	MOVFF	PREINC1, r0x07
003d86   f007
003d88   cfe4     movff	0xfe4, 0x6         	MOVFF	PREINC1, r0x06
003d8a   f006
003d8c   cfe4     movff	0xfe4, 0x5         	MOVFF	PREINC1, r0x05
003d8e   f005
003d90   cfe4     movff	0xfe4, 0x4         	MOVFF	PREINC1, r0x04
003d92   f004
003d94   cfe4     movff	0xfe4, 0x3         	MOVFF	PREINC1, r0x03
003d96   f003
003d98   cfe4     movff	0xfe4, 0x2         	MOVFF	PREINC1, r0x02
003d9a   f002
003d9c   cfe4     movff	0xfe4, 0x1         	MOVFF	PREINC1, r0x01
003d9e   f001
003da0   cfe4     movff	0xfe4, 0           	MOVFF	PREINC1, r0x00
003da2   f000
003da4   cfe4     movff	0xfe4, 0xfd9       	MOVFF	PREINC1, FSR2L
003da6   ffd9
003da8   0012     return	0                 	RETURN	
                                           
                                           ; ; Starting pCode block for Ival
                                           	code
                                           _servomasks:
003338   0201     mulwf	0x1, 0             	DB	0x01, 0x02, 0x04, 0x08, 0x10, 0x20, 0x40, 0x80, 0x40, 0x80, 0x01, 0x02
00333a   0804     sublw	0x4                
00333c   2010     addwfc	0x10, 0, 0        
00333e   8040     bsf	0x40, 0, 0           
003340   8040     bsf	0x40, 0, 0           
003342   0201     mulwf	0x1, 0             
003344   0104     movlb	0x4                	DB	0x04, 0x01, 0x02, 0x04, 0x08, 0x20
003346   0402     decf	0x2, 0, 0           
003348   2008     addwfc	0x8, 0, 0         
                                           
                                           
                                           ; Statistics:
                                           ; code size:	 3356 (0x0d1c) bytes ( 2.56%)
                                           ;           	 1678 (0x068e) words
                                           ; udata size:	  131 (0x0083) bytes ( 7.31%)
                                           ; access size:	   10 (0x000a) bytes
                                           
                                           
                                           	end
