Archive member included because of file (symbol)

/home/fazzi/dev/Pinguino-svn/pinguino32/trunk/linux/p32/bin/../lib/gcc/mips-elf/4.5.2/../../../../mips-elf/lib/libm.a(lib_a-wf_pow.o)
                              /tmp/ccASVfed.o (powf)
/home/fazzi/dev/Pinguino-svn/pinguino32/trunk/linux/p32/bin/../lib/gcc/mips-elf/4.5.2/../../../../mips-elf/lib/libm.a(lib_a-ef_pow.o)
                              /home/fazzi/dev/Pinguino-svn/pinguino32/trunk/linux/p32/bin/../lib/gcc/mips-elf/4.5.2/../../../../mips-elf/lib/libm.a(lib_a-wf_pow.o) (__ieee754_powf)
/home/fazzi/dev/Pinguino-svn/pinguino32/trunk/linux/p32/bin/../lib/gcc/mips-elf/4.5.2/../../../../mips-elf/lib/libm.a(lib_a-ef_sqrt.o)
                              /home/fazzi/dev/Pinguino-svn/pinguino32/trunk/linux/p32/bin/../lib/gcc/mips-elf/4.5.2/../../../../mips-elf/lib/libm.a(lib_a-ef_pow.o) (__ieee754_sqrtf)
/home/fazzi/dev/Pinguino-svn/pinguino32/trunk/linux/p32/bin/../lib/gcc/mips-elf/4.5.2/../../../../mips-elf/lib/libm.a(lib_a-sf_fabs.o)
                              /home/fazzi/dev/Pinguino-svn/pinguino32/trunk/linux/p32/bin/../lib/gcc/mips-elf/4.5.2/../../../../mips-elf/lib/libm.a(lib_a-ef_pow.o) (fabsf)
/home/fazzi/dev/Pinguino-svn/pinguino32/trunk/linux/p32/bin/../lib/gcc/mips-elf/4.5.2/../../../../mips-elf/lib/libm.a(lib_a-sf_finite.o)
                              /home/fazzi/dev/Pinguino-svn/pinguino32/trunk/linux/p32/bin/../lib/gcc/mips-elf/4.5.2/../../../../mips-elf/lib/libm.a(lib_a-wf_pow.o) (finitef)
/home/fazzi/dev/Pinguino-svn/pinguino32/trunk/linux/p32/bin/../lib/gcc/mips-elf/4.5.2/../../../../mips-elf/lib/libm.a(lib_a-sf_isnan.o)
                              /home/fazzi/dev/Pinguino-svn/pinguino32/trunk/linux/p32/bin/../lib/gcc/mips-elf/4.5.2/../../../../mips-elf/lib/libm.a(lib_a-wf_pow.o) (isnanf)
/home/fazzi/dev/Pinguino-svn/pinguino32/trunk/linux/p32/bin/../lib/gcc/mips-elf/4.5.2/../../../../mips-elf/lib/libm.a(lib_a-sf_nan.o)
                              /home/fazzi/dev/Pinguino-svn/pinguino32/trunk/linux/p32/bin/../lib/gcc/mips-elf/4.5.2/../../../../mips-elf/lib/libm.a(lib_a-ef_pow.o) (nanf)
/home/fazzi/dev/Pinguino-svn/pinguino32/trunk/linux/p32/bin/../lib/gcc/mips-elf/4.5.2/../../../../mips-elf/lib/libm.a(lib_a-sf_scalbn.o)
                              /home/fazzi/dev/Pinguino-svn/pinguino32/trunk/linux/p32/bin/../lib/gcc/mips-elf/4.5.2/../../../../mips-elf/lib/libm.a(lib_a-ef_pow.o) (scalbnf)
/home/fazzi/dev/Pinguino-svn/pinguino32/trunk/linux/p32/bin/../lib/gcc/mips-elf/4.5.2/../../../../mips-elf/lib/libm.a(lib_a-s_lib_ver.o)
                              /home/fazzi/dev/Pinguino-svn/pinguino32/trunk/linux/p32/bin/../lib/gcc/mips-elf/4.5.2/../../../../mips-elf/lib/libm.a(lib_a-wf_pow.o) (__fdlib_version)
/home/fazzi/dev/Pinguino-svn/pinguino32/trunk/linux/p32/bin/../lib/gcc/mips-elf/4.5.2/../../../../mips-elf/lib/libm.a(lib_a-s_matherr.o)
                              /home/fazzi/dev/Pinguino-svn/pinguino32/trunk/linux/p32/bin/../lib/gcc/mips-elf/4.5.2/../../../../mips-elf/lib/libm.a(lib_a-wf_pow.o) (matherr)
/home/fazzi/dev/Pinguino-svn/pinguino32/trunk/linux/p32/bin/../lib/gcc/mips-elf/4.5.2/../../../../mips-elf/lib/libm.a(lib_a-s_rint.o)
                              /home/fazzi/dev/Pinguino-svn/pinguino32/trunk/linux/p32/bin/../lib/gcc/mips-elf/4.5.2/../../../../mips-elf/lib/libm.a(lib_a-wf_pow.o) (rint)
/home/fazzi/dev/Pinguino-svn/pinguino32/trunk/linux/p32/bin/../lib/gcc/mips-elf/4.5.2/../../../../mips-elf/lib/libm.a(lib_a-sf_copysign.o)
                              /home/fazzi/dev/Pinguino-svn/pinguino32/trunk/linux/p32/bin/../lib/gcc/mips-elf/4.5.2/../../../../mips-elf/lib/libm.a(lib_a-sf_scalbn.o) (copysignf)
/home/fazzi/dev/Pinguino-svn/pinguino32/trunk/linux/p32/bin/../lib/gcc/mips-elf/4.5.2/soft-float/el/libgcc.a(_addsub_sf.o)
                              /home/fazzi/dev/Pinguino-svn/pinguino32/trunk/linux/p32/bin/../lib/gcc/mips-elf/4.5.2/../../../../mips-elf/lib/libm.a(lib_a-ef_pow.o) (__addsf3)
/home/fazzi/dev/Pinguino-svn/pinguino32/trunk/linux/p32/bin/../lib/gcc/mips-elf/4.5.2/soft-float/el/libgcc.a(_mul_sf.o)
                              /tmp/ccASVfed.o (__mulsf3)
/home/fazzi/dev/Pinguino-svn/pinguino32/trunk/linux/p32/bin/../lib/gcc/mips-elf/4.5.2/soft-float/el/libgcc.a(_div_sf.o)
                              /tmp/ccASVfed.o (__divsf3)
/home/fazzi/dev/Pinguino-svn/pinguino32/trunk/linux/p32/bin/../lib/gcc/mips-elf/4.5.2/soft-float/el/libgcc.a(_eq_sf.o)
                              /home/fazzi/dev/Pinguino-svn/pinguino32/trunk/linux/p32/bin/../lib/gcc/mips-elf/4.5.2/../../../../mips-elf/lib/libm.a(lib_a-wf_pow.o) (__eqsf2)
/home/fazzi/dev/Pinguino-svn/pinguino32/trunk/linux/p32/bin/../lib/gcc/mips-elf/4.5.2/soft-float/el/libgcc.a(_gt_sf.o)
                              /home/fazzi/dev/Pinguino-svn/pinguino32/trunk/linux/p32/bin/../lib/gcc/mips-elf/4.5.2/../../../../mips-elf/lib/libm.a(lib_a-ef_pow.o) (__gtsf2)
/home/fazzi/dev/Pinguino-svn/pinguino32/trunk/linux/p32/bin/../lib/gcc/mips-elf/4.5.2/soft-float/el/libgcc.a(_lt_sf.o)
                              /home/fazzi/dev/Pinguino-svn/pinguino32/trunk/linux/p32/bin/../lib/gcc/mips-elf/4.5.2/../../../../mips-elf/lib/libm.a(lib_a-wf_pow.o) (__ltsf2)
/home/fazzi/dev/Pinguino-svn/pinguino32/trunk/linux/p32/bin/../lib/gcc/mips-elf/4.5.2/soft-float/el/libgcc.a(_le_sf.o)
                              /home/fazzi/dev/Pinguino-svn/pinguino32/trunk/linux/p32/bin/../lib/gcc/mips-elf/4.5.2/../../../../mips-elf/lib/libm.a(lib_a-ef_pow.o) (__lesf2)
/home/fazzi/dev/Pinguino-svn/pinguino32/trunk/linux/p32/bin/../lib/gcc/mips-elf/4.5.2/soft-float/el/libgcc.a(_si_to_sf.o)
                              /tmp/ccASVfed.o (__floatsisf)
/home/fazzi/dev/Pinguino-svn/pinguino32/trunk/linux/p32/bin/../lib/gcc/mips-elf/4.5.2/soft-float/el/libgcc.a(_sf_to_si.o)
                              /tmp/ccASVfed.o (__fixsfsi)
/home/fazzi/dev/Pinguino-svn/pinguino32/trunk/linux/p32/bin/../lib/gcc/mips-elf/4.5.2/soft-float/el/libgcc.a(_sf_to_df.o)
                              /tmp/ccASVfed.o (__extendsfdf2)
/home/fazzi/dev/Pinguino-svn/pinguino32/trunk/linux/p32/bin/../lib/gcc/mips-elf/4.5.2/soft-float/el/libgcc.a(_thenan_sf.o)
                              /home/fazzi/dev/Pinguino-svn/pinguino32/trunk/linux/p32/bin/../lib/gcc/mips-elf/4.5.2/soft-float/el/libgcc.a(_addsub_sf.o) (__thenan_sf)
/home/fazzi/dev/Pinguino-svn/pinguino32/trunk/linux/p32/bin/../lib/gcc/mips-elf/4.5.2/soft-float/el/libgcc.a(_addsub_df.o)
                              /tmp/ccASVfed.o (__adddf3)
/home/fazzi/dev/Pinguino-svn/pinguino32/trunk/linux/p32/bin/../lib/gcc/mips-elf/4.5.2/soft-float/el/libgcc.a(_mul_df.o)
                              /tmp/ccASVfed.o (__muldf3)
/home/fazzi/dev/Pinguino-svn/pinguino32/trunk/linux/p32/bin/../lib/gcc/mips-elf/4.5.2/soft-float/el/libgcc.a(_div_df.o)
                              /tmp/ccASVfed.o (__divdf3)
/home/fazzi/dev/Pinguino-svn/pinguino32/trunk/linux/p32/bin/../lib/gcc/mips-elf/4.5.2/soft-float/el/libgcc.a(_eq_df.o)
                              /tmp/ccASVfed.o (__eqdf2)
/home/fazzi/dev/Pinguino-svn/pinguino32/trunk/linux/p32/bin/../lib/gcc/mips-elf/4.5.2/soft-float/el/libgcc.a(_ne_df.o)
                              /home/fazzi/dev/Pinguino-svn/pinguino32/trunk/linux/p32/bin/../lib/gcc/mips-elf/4.5.2/../../../../mips-elf/lib/libm.a(lib_a-wf_pow.o) (__nedf2)
/home/fazzi/dev/Pinguino-svn/pinguino32/trunk/linux/p32/bin/../lib/gcc/mips-elf/4.5.2/soft-float/el/libgcc.a(_gt_df.o)
                              /tmp/ccASVfed.o (__gtdf2)
/home/fazzi/dev/Pinguino-svn/pinguino32/trunk/linux/p32/bin/../lib/gcc/mips-elf/4.5.2/soft-float/el/libgcc.a(_lt_df.o)
                              /tmp/ccASVfed.o (__ltdf2)
/home/fazzi/dev/Pinguino-svn/pinguino32/trunk/linux/p32/bin/../lib/gcc/mips-elf/4.5.2/soft-float/el/libgcc.a(_si_to_df.o)
                              /tmp/ccASVfed.o (__floatsidf)
/home/fazzi/dev/Pinguino-svn/pinguino32/trunk/linux/p32/bin/../lib/gcc/mips-elf/4.5.2/soft-float/el/libgcc.a(_df_to_si.o)
                              /tmp/ccASVfed.o (__fixdfsi)
/home/fazzi/dev/Pinguino-svn/pinguino32/trunk/linux/p32/bin/../lib/gcc/mips-elf/4.5.2/soft-float/el/libgcc.a(_make_df.o)
                              /home/fazzi/dev/Pinguino-svn/pinguino32/trunk/linux/p32/bin/../lib/gcc/mips-elf/4.5.2/soft-float/el/libgcc.a(_sf_to_df.o) (__make_dp)
/home/fazzi/dev/Pinguino-svn/pinguino32/trunk/linux/p32/bin/../lib/gcc/mips-elf/4.5.2/soft-float/el/libgcc.a(_df_to_sf.o)
                              /home/fazzi/dev/Pinguino-svn/pinguino32/trunk/linux/p32/bin/../lib/gcc/mips-elf/4.5.2/../../../../mips-elf/lib/libm.a(lib_a-wf_pow.o) (__truncdfsf2)
/home/fazzi/dev/Pinguino-svn/pinguino32/trunk/linux/p32/bin/../lib/gcc/mips-elf/4.5.2/soft-float/el/libgcc.a(_thenan_df.o)
                              /home/fazzi/dev/Pinguino-svn/pinguino32/trunk/linux/p32/bin/../lib/gcc/mips-elf/4.5.2/soft-float/el/libgcc.a(_addsub_df.o) (__thenan_df)
/home/fazzi/dev/Pinguino-svn/pinguino32/trunk/linux/p32/bin/../lib/gcc/mips-elf/4.5.2/soft-float/el/libgcc.a(_clzsi2.o)
                              /home/fazzi/dev/Pinguino-svn/pinguino32/trunk/linux/p32/bin/../lib/gcc/mips-elf/4.5.2/soft-float/el/libgcc.a(_si_to_sf.o) (__clzsi2)
/home/fazzi/dev/Pinguino-svn/pinguino32/trunk/linux/p32/bin/../lib/gcc/mips-elf/4.5.2/soft-float/el/libgcc.a(_pack_sf.o)
                              /home/fazzi/dev/Pinguino-svn/pinguino32/trunk/linux/p32/bin/../lib/gcc/mips-elf/4.5.2/soft-float/el/libgcc.a(_addsub_sf.o) (__pack_f)
/home/fazzi/dev/Pinguino-svn/pinguino32/trunk/linux/p32/bin/../lib/gcc/mips-elf/4.5.2/soft-float/el/libgcc.a(_unpack_sf.o)
                              /home/fazzi/dev/Pinguino-svn/pinguino32/trunk/linux/p32/bin/../lib/gcc/mips-elf/4.5.2/soft-float/el/libgcc.a(_addsub_sf.o) (__unpack_f)
/home/fazzi/dev/Pinguino-svn/pinguino32/trunk/linux/p32/bin/../lib/gcc/mips-elf/4.5.2/soft-float/el/libgcc.a(_fpcmp_parts_sf.o)
                              /home/fazzi/dev/Pinguino-svn/pinguino32/trunk/linux/p32/bin/../lib/gcc/mips-elf/4.5.2/soft-float/el/libgcc.a(_eq_sf.o) (__fpcmp_parts_f)
/home/fazzi/dev/Pinguino-svn/pinguino32/trunk/linux/p32/bin/../lib/gcc/mips-elf/4.5.2/soft-float/el/libgcc.a(_make_sf.o)
                              /home/fazzi/dev/Pinguino-svn/pinguino32/trunk/linux/p32/bin/../lib/gcc/mips-elf/4.5.2/soft-float/el/libgcc.a(_df_to_sf.o) (__make_fp)
/home/fazzi/dev/Pinguino-svn/pinguino32/trunk/linux/p32/bin/../lib/gcc/mips-elf/4.5.2/soft-float/el/libgcc.a(_pack_df.o)
                              /home/fazzi/dev/Pinguino-svn/pinguino32/trunk/linux/p32/bin/../lib/gcc/mips-elf/4.5.2/soft-float/el/libgcc.a(_addsub_df.o) (__pack_d)
/home/fazzi/dev/Pinguino-svn/pinguino32/trunk/linux/p32/bin/../lib/gcc/mips-elf/4.5.2/soft-float/el/libgcc.a(_unpack_df.o)
                              /home/fazzi/dev/Pinguino-svn/pinguino32/trunk/linux/p32/bin/../lib/gcc/mips-elf/4.5.2/soft-float/el/libgcc.a(_addsub_df.o) (__unpack_d)
/home/fazzi/dev/Pinguino-svn/pinguino32/trunk/linux/p32/bin/../lib/gcc/mips-elf/4.5.2/soft-float/el/libgcc.a(_fpcmp_parts_df.o)
                              /home/fazzi/dev/Pinguino-svn/pinguino32/trunk/linux/p32/bin/../lib/gcc/mips-elf/4.5.2/soft-float/el/libgcc.a(_eq_df.o) (__fpcmp_parts_d)
/home/fazzi/dev/Pinguino-svn/pinguino32/trunk/linux/p32/bin/../lib/gcc/mips-elf/4.5.2/soft-float/el/libgcc.a(_lshrdi3.o)
                              /home/fazzi/dev/Pinguino-svn/pinguino32/trunk/linux/p32/bin/../lib/gcc/mips-elf/4.5.2/soft-float/el/libgcc.a(_pack_df.o) (__lshrdi3)
/home/fazzi/dev/Pinguino-svn/pinguino32/trunk/linux/p32/bin/../lib/gcc/mips-elf/4.5.2/soft-float/el/libgcc.a(_ashldi3.o)
                              /home/fazzi/dev/Pinguino-svn/pinguino32/trunk/linux/p32/bin/../lib/gcc/mips-elf/4.5.2/soft-float/el/libgcc.a(_pack_df.o) (__ashldi3)
/home/fazzi/dev/Pinguino-svn/pinguino32/trunk/linux/p32/bin/../lib/gcc/mips-elf/4.5.2/soft-float/el/libgcc.a(_clz.o)
                              /home/fazzi/dev/Pinguino-svn/pinguino32/trunk/linux/p32/bin/../lib/gcc/mips-elf/4.5.2/soft-float/el/libgcc.a(_clzsi2.o) (__clz_tab)
/home/fazzi/dev/Pinguino-svn/pinguino32/trunk/linux/p32/bin/../lib/gcc/mips-elf/4.5.2/../../../../mips-elf/lib/libc.a(lib_a-atoi.o)
                              /tmp/ccASVfed.o (atoi)
/home/fazzi/dev/Pinguino-svn/pinguino32/trunk/linux/p32/bin/../lib/gcc/mips-elf/4.5.2/../../../../mips-elf/lib/libc.a(lib_a-errno.o)
                              /home/fazzi/dev/Pinguino-svn/pinguino32/trunk/linux/p32/bin/../lib/gcc/mips-elf/4.5.2/../../../../mips-elf/lib/libm.a(lib_a-wf_pow.o) (__errno)
/home/fazzi/dev/Pinguino-svn/pinguino32/trunk/linux/p32/bin/../lib/gcc/mips-elf/4.5.2/../../../../mips-elf/lib/libc.a(lib_a-impure.o)
                              /home/fazzi/dev/Pinguino-svn/pinguino32/trunk/linux/p32/bin/../lib/gcc/mips-elf/4.5.2/../../../../mips-elf/lib/libc.a(lib_a-errno.o) (_impure_ptr)
/home/fazzi/dev/Pinguino-svn/pinguino32/trunk/linux/p32/bin/../lib/gcc/mips-elf/4.5.2/../../../../mips-elf/lib/libc.a(lib_a-memset.o)
                              /tmp/ccASVfed.o (memset)
/home/fazzi/dev/Pinguino-svn/pinguino32/trunk/linux/p32/bin/../lib/gcc/mips-elf/4.5.2/../../../../mips-elf/lib/libc.a(lib_a-sprintf.o)
                              /tmp/ccASVfed.o (sprintf)
/home/fazzi/dev/Pinguino-svn/pinguino32/trunk/linux/p32/bin/../lib/gcc/mips-elf/4.5.2/../../../../mips-elf/lib/libc.a(lib_a-strcat.o)
                              /tmp/ccASVfed.o (strcat)
/home/fazzi/dev/Pinguino-svn/pinguino32/trunk/linux/p32/bin/../lib/gcc/mips-elf/4.5.2/../../../../mips-elf/lib/libc.a(lib_a-strcmp.o)
                              /tmp/ccASVfed.o (strcmp)
/home/fazzi/dev/Pinguino-svn/pinguino32/trunk/linux/p32/bin/../lib/gcc/mips-elf/4.5.2/../../../../mips-elf/lib/libc.a(lib_a-strcpy.o)
                              /home/fazzi/dev/Pinguino-svn/pinguino32/trunk/linux/p32/bin/../lib/gcc/mips-elf/4.5.2/../../../../mips-elf/lib/libc.a(lib_a-strcat.o) (strcpy)
/home/fazzi/dev/Pinguino-svn/pinguino32/trunk/linux/p32/bin/../lib/gcc/mips-elf/4.5.2/../../../../mips-elf/lib/libc.a(lib_a-strlen.o)
                              /tmp/ccASVfed.o (strlen)
/home/fazzi/dev/Pinguino-svn/pinguino32/trunk/linux/p32/bin/../lib/gcc/mips-elf/4.5.2/../../../../mips-elf/lib/libc.a(lib_a-strncpy.o)
                              /tmp/ccASVfed.o (strncpy)
/home/fazzi/dev/Pinguino-svn/pinguino32/trunk/linux/p32/bin/../lib/gcc/mips-elf/4.5.2/../../../../mips-elf/lib/libc.a(lib_a-strtol.o)
                              /home/fazzi/dev/Pinguino-svn/pinguino32/trunk/linux/p32/bin/../lib/gcc/mips-elf/4.5.2/../../../../mips-elf/lib/libc.a(lib_a-atoi.o) (_strtol_r)
/home/fazzi/dev/Pinguino-svn/pinguino32/trunk/linux/p32/bin/../lib/gcc/mips-elf/4.5.2/../../../../mips-elf/lib/libc.a(lib_a-svfprintf.o)
                              /home/fazzi/dev/Pinguino-svn/pinguino32/trunk/linux/p32/bin/../lib/gcc/mips-elf/4.5.2/../../../../mips-elf/lib/libc.a(lib_a-sprintf.o) (_svfprintf_r)
/home/fazzi/dev/Pinguino-svn/pinguino32/trunk/linux/p32/bin/../lib/gcc/mips-elf/4.5.2/../../../../mips-elf/lib/libc.a(lib_a-ctype_.o)
                              /home/fazzi/dev/Pinguino-svn/pinguino32/trunk/linux/p32/bin/../lib/gcc/mips-elf/4.5.2/../../../../mips-elf/lib/libc.a(lib_a-strtol.o) (__ctype_ptr__)
/home/fazzi/dev/Pinguino-svn/pinguino32/trunk/linux/p32/bin/../lib/gcc/mips-elf/4.5.2/../../../../mips-elf/lib/libc.a(lib_a-dtoa.o)
                              /home/fazzi/dev/Pinguino-svn/pinguino32/trunk/linux/p32/bin/../lib/gcc/mips-elf/4.5.2/../../../../mips-elf/lib/libc.a(lib_a-svfprintf.o) (_dtoa_r)
/home/fazzi/dev/Pinguino-svn/pinguino32/trunk/linux/p32/bin/../lib/gcc/mips-elf/4.5.2/../../../../mips-elf/lib/libc.a(lib_a-freer.o)
                              /home/fazzi/dev/Pinguino-svn/pinguino32/trunk/linux/p32/bin/../lib/gcc/mips-elf/4.5.2/../../../../mips-elf/lib/libc.a(lib_a-svfprintf.o) (_free_r)
/home/fazzi/dev/Pinguino-svn/pinguino32/trunk/linux/p32/bin/../lib/gcc/mips-elf/4.5.2/../../../../mips-elf/lib/libc.a(lib_a-locale.o)
                              /home/fazzi/dev/Pinguino-svn/pinguino32/trunk/linux/p32/bin/../lib/gcc/mips-elf/4.5.2/../../../../mips-elf/lib/libc.a(lib_a-svfprintf.o) (_localeconv_r)
/home/fazzi/dev/Pinguino-svn/pinguino32/trunk/linux/p32/bin/../lib/gcc/mips-elf/4.5.2/../../../../mips-elf/lib/libc.a(lib_a-mallocr.o)
                              /home/fazzi/dev/Pinguino-svn/pinguino32/trunk/linux/p32/bin/../lib/gcc/mips-elf/4.5.2/../../../../mips-elf/lib/libc.a(lib_a-svfprintf.o) (_malloc_r)
/home/fazzi/dev/Pinguino-svn/pinguino32/trunk/linux/p32/bin/../lib/gcc/mips-elf/4.5.2/../../../../mips-elf/lib/libc.a(lib_a-memchr.o)
                              /home/fazzi/dev/Pinguino-svn/pinguino32/trunk/linux/p32/bin/../lib/gcc/mips-elf/4.5.2/../../../../mips-elf/lib/libc.a(lib_a-svfprintf.o) (memchr)
/home/fazzi/dev/Pinguino-svn/pinguino32/trunk/linux/p32/bin/../lib/gcc/mips-elf/4.5.2/../../../../mips-elf/lib/libc.a(lib_a-memcpy.o)
                              /home/fazzi/dev/Pinguino-svn/pinguino32/trunk/linux/p32/bin/../lib/gcc/mips-elf/4.5.2/../../../../mips-elf/lib/libc.a(lib_a-svfprintf.o) (memcpy)
/home/fazzi/dev/Pinguino-svn/pinguino32/trunk/linux/p32/bin/../lib/gcc/mips-elf/4.5.2/../../../../mips-elf/lib/libc.a(lib_a-memmove.o)
                              /home/fazzi/dev/Pinguino-svn/pinguino32/trunk/linux/p32/bin/../lib/gcc/mips-elf/4.5.2/../../../../mips-elf/lib/libc.a(lib_a-svfprintf.o) (memmove)
/home/fazzi/dev/Pinguino-svn/pinguino32/trunk/linux/p32/bin/../lib/gcc/mips-elf/4.5.2/../../../../mips-elf/lib/libc.a(lib_a-mlock.o)
                              /home/fazzi/dev/Pinguino-svn/pinguino32/trunk/linux/p32/bin/../lib/gcc/mips-elf/4.5.2/../../../../mips-elf/lib/libc.a(lib_a-freer.o) (__malloc_lock)
/home/fazzi/dev/Pinguino-svn/pinguino32/trunk/linux/p32/bin/../lib/gcc/mips-elf/4.5.2/../../../../mips-elf/lib/libc.a(lib_a-mprec.o)
                              /home/fazzi/dev/Pinguino-svn/pinguino32/trunk/linux/p32/bin/../lib/gcc/mips-elf/4.5.2/../../../../mips-elf/lib/libc.a(lib_a-dtoa.o) (_Bfree)
/home/fazzi/dev/Pinguino-svn/pinguino32/trunk/linux/p32/bin/../lib/gcc/mips-elf/4.5.2/../../../../mips-elf/lib/libc.a(lib_a-reallocr.o)
                              /home/fazzi/dev/Pinguino-svn/pinguino32/trunk/linux/p32/bin/../lib/gcc/mips-elf/4.5.2/../../../../mips-elf/lib/libc.a(lib_a-svfprintf.o) (_realloc_r)
/home/fazzi/dev/Pinguino-svn/pinguino32/trunk/linux/p32/bin/../lib/gcc/mips-elf/4.5.2/../../../../mips-elf/lib/libc.a(lib_a-sbrkr.o)
                              /home/fazzi/dev/Pinguino-svn/pinguino32/trunk/linux/p32/bin/../lib/gcc/mips-elf/4.5.2/../../../../mips-elf/lib/libc.a(lib_a-freer.o) (_sbrk_r)
/home/fazzi/dev/Pinguino-svn/pinguino32/trunk/linux/p32/bin/../lib/gcc/mips-elf/4.5.2/../../../../mips-elf/lib/libc.a(lib_a-s_isinfd.o)
                              /home/fazzi/dev/Pinguino-svn/pinguino32/trunk/linux/p32/bin/../lib/gcc/mips-elf/4.5.2/../../../../mips-elf/lib/libc.a(lib_a-svfprintf.o) (__isinfd)
/home/fazzi/dev/Pinguino-svn/pinguino32/trunk/linux/p32/bin/../lib/gcc/mips-elf/4.5.2/../../../../mips-elf/lib/libc.a(lib_a-s_isnand.o)
                              /home/fazzi/dev/Pinguino-svn/pinguino32/trunk/linux/p32/bin/../lib/gcc/mips-elf/4.5.2/../../../../mips-elf/lib/libc.a(lib_a-svfprintf.o) (__isnand)
/home/fazzi/dev/Pinguino-svn/pinguino32/trunk/linux/p32/bin/../lib/gcc/mips-elf/4.5.2/../../../../mips-elf/lib/libc.a(lib_a-callocr.o)
                              /home/fazzi/dev/Pinguino-svn/pinguino32/trunk/linux/p32/bin/../lib/gcc/mips-elf/4.5.2/../../../../mips-elf/lib/libc.a(lib_a-mprec.o) (_calloc_r)
/home/fazzi/dev/Pinguino-svn/pinguino32/trunk/linux/p32/bin/../lib/gcc/mips-elf/4.5.2/../../../../mips-elf/lib/libc.a(lib_a-reent.o)
                              /home/fazzi/dev/Pinguino-svn/pinguino32/trunk/linux/p32/bin/../lib/gcc/mips-elf/4.5.2/../../../../mips-elf/lib/libc.a(lib_a-sbrkr.o) (errno)
/home/fazzi/dev/Pinguino-svn/pinguino32/trunk/linux/p32/bin/../lib/gcc/mips-elf/4.5.2/soft-float/el/libgcc.a(_udivdi3.o)
                              /home/fazzi/dev/Pinguino-svn/pinguino32/trunk/linux/p32/bin/../lib/gcc/mips-elf/4.5.2/../../../../mips-elf/lib/libc.a(lib_a-svfprintf.o) (__udivdi3)
/home/fazzi/dev/Pinguino-svn/pinguino32/trunk/linux/p32/bin/../lib/gcc/mips-elf/4.5.2/soft-float/el/libgcc.a(_umoddi3.o)
                              /home/fazzi/dev/Pinguino-svn/pinguino32/trunk/linux/p32/bin/../lib/gcc/mips-elf/4.5.2/../../../../mips-elf/lib/libc.a(lib_a-svfprintf.o) (__umoddi3)
/home/fazzi/dev/Pinguino-svn/pinguino32/trunk/linux/p32/bin/../lib/gcc/mips-elf/4.5.2/soft-float/el/libgcc.a(_ge_df.o)
                              /home/fazzi/dev/Pinguino-svn/pinguino32/trunk/linux/p32/bin/../lib/gcc/mips-elf/4.5.2/../../../../mips-elf/lib/libc.a(lib_a-dtoa.o) (__gedf2)
/home/fazzi/dev/Pinguino-svn/pinguino32/trunk/linux/p32/bin/../lib/gcc/mips-elf/4.5.2/soft-float/el/libgcc.a(_usi_to_df.o)
                              /home/fazzi/dev/Pinguino-svn/pinguino32/trunk/linux/p32/bin/../lib/gcc/mips-elf/4.5.2/../../../../mips-elf/lib/libc.a(lib_a-dtoa.o) (__floatunsidf)

Allocating common symbols
Common symbol       size              file

UART2rpointer       0x4               /tmp/ccASVfed.o
T_CS                0x1               /tmp/ccASVfed.o
TP_X                0x4               /tmp/ccASVfed.o
fcolorg             0x1               /tmp/ccASVfed.o
errno               0x4               /home/fazzi/dev/Pinguino-svn/pinguino32/trunk/linux/p32/bin/../lib/gcc/mips-elf/4.5.2/../../../../mips-elf/lib/libc.a(lib_a-reent.o)
bcolorg             0x1               /tmp/ccASVfed.o
fsize               0x1               /tmp/ccASVfed.o
UART1wpointer       0x4               /tmp/ccASVfed.o
UART1rpointer       0x4               /tmp/ccASVfed.o
orient_t            0x1               /tmp/ccASVfed.o
_millis             0x4               /tmp/ccASVfed.o
UART2SerialBuffer   0x80              /tmp/ccASVfed.o
bcolorr             0x1               /tmp/ccASVfed.o
prec                0x1               /tmp/ccASVfed.o
orient              0x1               /tmp/ccASVfed.o
UART3wpointer       0x4               /tmp/ccASVfed.o
bcolorb             0x1               /tmp/ccASVfed.o
UART2wpointer       0x4               /tmp/ccASVfed.o
T_IRQ               0x1               /tmp/ccASVfed.o
UART1SerialBuffer   0x80              /tmp/ccASVfed.o
heap_ptr            0x4               /tmp/ccASVfed.o
TP_Y                0x4               /tmp/ccASVfed.o
T_DIN               0x1               /tmp/ccASVfed.o
fcolorb             0x1               /tmp/ccASVfed.o
UART3SerialBuffer   0x80              /tmp/ccASVfed.o
UART3rpointer       0x4               /tmp/ccASVfed.o
fcolorr             0x1               /tmp/ccASVfed.o
T_CLK               0x1               /tmp/ccASVfed.o
T_DOUT              0x1               /tmp/ccASVfed.o

Discarded input sections

 .reginfo       0x0000000000000000       0x18 /home/fazzi/dev/Pinguino-svn/pinguino32/trunk/linux/p32/bin/../lib/gcc/mips-elf/4.5.2/soft-float/el/crtbegin.o
 .reginfo       0x0000000000000000       0x18 /tmp/ccASVfed.o
 .reginfo       0x0000000000000000       0x18 /tmp/cc359DsA.o
 .reginfo       0x0000000000000000       0x18 /home/fazzi/dev/Pinguino-svn/pinguino32/trunk/p32/obj/non-free/processor.o
 .reginfo       0x0000000000000000       0x18 /tmp/ccO5qUJX.o
 .reginfo       0x0000000000000000       0x18 /home/fazzi/dev/Pinguino-svn/pinguino32/trunk/linux/p32/bin/../lib/gcc/mips-elf/4.5.2/../../../../mips-elf/lib/libm.a(lib_a-wf_pow.o)
 .reginfo       0x0000000000000000       0x18 /home/fazzi/dev/Pinguino-svn/pinguino32/trunk/linux/p32/bin/../lib/gcc/mips-elf/4.5.2/../../../../mips-elf/lib/libm.a(lib_a-ef_pow.o)
 .reginfo       0x0000000000000000       0x18 /home/fazzi/dev/Pinguino-svn/pinguino32/trunk/linux/p32/bin/../lib/gcc/mips-elf/4.5.2/../../../../mips-elf/lib/libm.a(lib_a-ef_sqrt.o)
 .reginfo       0x0000000000000000       0x18 /home/fazzi/dev/Pinguino-svn/pinguino32/trunk/linux/p32/bin/../lib/gcc/mips-elf/4.5.2/../../../../mips-elf/lib/libm.a(lib_a-sf_fabs.o)
 .reginfo       0x0000000000000000       0x18 /home/fazzi/dev/Pinguino-svn/pinguino32/trunk/linux/p32/bin/../lib/gcc/mips-elf/4.5.2/../../../../mips-elf/lib/libm.a(lib_a-sf_finite.o)
 .reginfo       0x0000000000000000       0x18 /home/fazzi/dev/Pinguino-svn/pinguino32/trunk/linux/p32/bin/../lib/gcc/mips-elf/4.5.2/../../../../mips-elf/lib/libm.a(lib_a-sf_isnan.o)
 .reginfo       0x0000000000000000       0x18 /home/fazzi/dev/Pinguino-svn/pinguino32/trunk/linux/p32/bin/../lib/gcc/mips-elf/4.5.2/../../../../mips-elf/lib/libm.a(lib_a-sf_nan.o)
 .reginfo       0x0000000000000000       0x18 /home/fazzi/dev/Pinguino-svn/pinguino32/trunk/linux/p32/bin/../lib/gcc/mips-elf/4.5.2/../../../../mips-elf/lib/libm.a(lib_a-sf_scalbn.o)
 .reginfo       0x0000000000000000       0x18 /home/fazzi/dev/Pinguino-svn/pinguino32/trunk/linux/p32/bin/../lib/gcc/mips-elf/4.5.2/../../../../mips-elf/lib/libm.a(lib_a-s_lib_ver.o)
 .reginfo       0x0000000000000000       0x18 /home/fazzi/dev/Pinguino-svn/pinguino32/trunk/linux/p32/bin/../lib/gcc/mips-elf/4.5.2/../../../../mips-elf/lib/libm.a(lib_a-s_matherr.o)
 .reginfo       0x0000000000000000       0x18 /home/fazzi/dev/Pinguino-svn/pinguino32/trunk/linux/p32/bin/../lib/gcc/mips-elf/4.5.2/../../../../mips-elf/lib/libm.a(lib_a-s_rint.o)
 .reginfo       0x0000000000000000       0x18 /home/fazzi/dev/Pinguino-svn/pinguino32/trunk/linux/p32/bin/../lib/gcc/mips-elf/4.5.2/../../../../mips-elf/lib/libm.a(lib_a-sf_copysign.o)
 .reginfo       0x0000000000000000       0x18 /home/fazzi/dev/Pinguino-svn/pinguino32/trunk/linux/p32/bin/../lib/gcc/mips-elf/4.5.2/soft-float/el/libgcc.a(_addsub_sf.o)
 .reginfo       0x0000000000000000       0x18 /home/fazzi/dev/Pinguino-svn/pinguino32/trunk/linux/p32/bin/../lib/gcc/mips-elf/4.5.2/soft-float/el/libgcc.a(_mul_sf.o)
 .reginfo       0x0000000000000000       0x18 /home/fazzi/dev/Pinguino-svn/pinguino32/trunk/linux/p32/bin/../lib/gcc/mips-elf/4.5.2/soft-float/el/libgcc.a(_div_sf.o)
 .reginfo       0x0000000000000000       0x18 /home/fazzi/dev/Pinguino-svn/pinguino32/trunk/linux/p32/bin/../lib/gcc/mips-elf/4.5.2/soft-float/el/libgcc.a(_eq_sf.o)
 .reginfo       0x0000000000000000       0x18 /home/fazzi/dev/Pinguino-svn/pinguino32/trunk/linux/p32/bin/../lib/gcc/mips-elf/4.5.2/soft-float/el/libgcc.a(_gt_sf.o)
 .reginfo       0x0000000000000000       0x18 /home/fazzi/dev/Pinguino-svn/pinguino32/trunk/linux/p32/bin/../lib/gcc/mips-elf/4.5.2/soft-float/el/libgcc.a(_lt_sf.o)
 .reginfo       0x0000000000000000       0x18 /home/fazzi/dev/Pinguino-svn/pinguino32/trunk/linux/p32/bin/../lib/gcc/mips-elf/4.5.2/soft-float/el/libgcc.a(_le_sf.o)
 .reginfo       0x0000000000000000       0x18 /home/fazzi/dev/Pinguino-svn/pinguino32/trunk/linux/p32/bin/../lib/gcc/mips-elf/4.5.2/soft-float/el/libgcc.a(_si_to_sf.o)
 .reginfo       0x0000000000000000       0x18 /home/fazzi/dev/Pinguino-svn/pinguino32/trunk/linux/p32/bin/../lib/gcc/mips-elf/4.5.2/soft-float/el/libgcc.a(_sf_to_si.o)
 .reginfo       0x0000000000000000       0x18 /home/fazzi/dev/Pinguino-svn/pinguino32/trunk/linux/p32/bin/../lib/gcc/mips-elf/4.5.2/soft-float/el/libgcc.a(_sf_to_df.o)
 .reginfo       0x0000000000000000       0x18 /home/fazzi/dev/Pinguino-svn/pinguino32/trunk/linux/p32/bin/../lib/gcc/mips-elf/4.5.2/soft-float/el/libgcc.a(_thenan_sf.o)
 .reginfo       0x0000000000000000       0x18 /home/fazzi/dev/Pinguino-svn/pinguino32/trunk/linux/p32/bin/../lib/gcc/mips-elf/4.5.2/soft-float/el/libgcc.a(_addsub_df.o)
 .reginfo       0x0000000000000000       0x18 /home/fazzi/dev/Pinguino-svn/pinguino32/trunk/linux/p32/bin/../lib/gcc/mips-elf/4.5.2/soft-float/el/libgcc.a(_mul_df.o)
 .reginfo       0x0000000000000000       0x18 /home/fazzi/dev/Pinguino-svn/pinguino32/trunk/linux/p32/bin/../lib/gcc/mips-elf/4.5.2/soft-float/el/libgcc.a(_div_df.o)
 .reginfo       0x0000000000000000       0x18 /home/fazzi/dev/Pinguino-svn/pinguino32/trunk/linux/p32/bin/../lib/gcc/mips-elf/4.5.2/soft-float/el/libgcc.a(_eq_df.o)
 .reginfo       0x0000000000000000       0x18 /home/fazzi/dev/Pinguino-svn/pinguino32/trunk/linux/p32/bin/../lib/gcc/mips-elf/4.5.2/soft-float/el/libgcc.a(_ne_df.o)
 .reginfo       0x0000000000000000       0x18 /home/fazzi/dev/Pinguino-svn/pinguino32/trunk/linux/p32/bin/../lib/gcc/mips-elf/4.5.2/soft-float/el/libgcc.a(_gt_df.o)
 .reginfo       0x0000000000000000       0x18 /home/fazzi/dev/Pinguino-svn/pinguino32/trunk/linux/p32/bin/../lib/gcc/mips-elf/4.5.2/soft-float/el/libgcc.a(_lt_df.o)
 .reginfo       0x0000000000000000       0x18 /home/fazzi/dev/Pinguino-svn/pinguino32/trunk/linux/p32/bin/../lib/gcc/mips-elf/4.5.2/soft-float/el/libgcc.a(_si_to_df.o)
 .reginfo       0x0000000000000000       0x18 /home/fazzi/dev/Pinguino-svn/pinguino32/trunk/linux/p32/bin/../lib/gcc/mips-elf/4.5.2/soft-float/el/libgcc.a(_df_to_si.o)
 .reginfo       0x0000000000000000       0x18 /home/fazzi/dev/Pinguino-svn/pinguino32/trunk/linux/p32/bin/../lib/gcc/mips-elf/4.5.2/soft-float/el/libgcc.a(_make_df.o)
 .reginfo       0x0000000000000000       0x18 /home/fazzi/dev/Pinguino-svn/pinguino32/trunk/linux/p32/bin/../lib/gcc/mips-elf/4.5.2/soft-float/el/libgcc.a(_df_to_sf.o)
 .reginfo       0x0000000000000000       0x18 /home/fazzi/dev/Pinguino-svn/pinguino32/trunk/linux/p32/bin/../lib/gcc/mips-elf/4.5.2/soft-float/el/libgcc.a(_thenan_df.o)
 .reginfo       0x0000000000000000       0x18 /home/fazzi/dev/Pinguino-svn/pinguino32/trunk/linux/p32/bin/../lib/gcc/mips-elf/4.5.2/soft-float/el/libgcc.a(_clzsi2.o)
 .reginfo       0x0000000000000000       0x18 /home/fazzi/dev/Pinguino-svn/pinguino32/trunk/linux/p32/bin/../lib/gcc/mips-elf/4.5.2/soft-float/el/libgcc.a(_pack_sf.o)
 .reginfo       0x0000000000000000       0x18 /home/fazzi/dev/Pinguino-svn/pinguino32/trunk/linux/p32/bin/../lib/gcc/mips-elf/4.5.2/soft-float/el/libgcc.a(_unpack_sf.o)
 .reginfo       0x0000000000000000       0x18 /home/fazzi/dev/Pinguino-svn/pinguino32/trunk/linux/p32/bin/../lib/gcc/mips-elf/4.5.2/soft-float/el/libgcc.a(_fpcmp_parts_sf.o)
 .reginfo       0x0000000000000000       0x18 /home/fazzi/dev/Pinguino-svn/pinguino32/trunk/linux/p32/bin/../lib/gcc/mips-elf/4.5.2/soft-float/el/libgcc.a(_make_sf.o)
 .reginfo       0x0000000000000000       0x18 /home/fazzi/dev/Pinguino-svn/pinguino32/trunk/linux/p32/bin/../lib/gcc/mips-elf/4.5.2/soft-float/el/libgcc.a(_pack_df.o)
 .reginfo       0x0000000000000000       0x18 /home/fazzi/dev/Pinguino-svn/pinguino32/trunk/linux/p32/bin/../lib/gcc/mips-elf/4.5.2/soft-float/el/libgcc.a(_unpack_df.o)
 .reginfo       0x0000000000000000       0x18 /home/fazzi/dev/Pinguino-svn/pinguino32/trunk/linux/p32/bin/../lib/gcc/mips-elf/4.5.2/soft-float/el/libgcc.a(_fpcmp_parts_df.o)
 .reginfo       0x0000000000000000       0x18 /home/fazzi/dev/Pinguino-svn/pinguino32/trunk/linux/p32/bin/../lib/gcc/mips-elf/4.5.2/soft-float/el/libgcc.a(_lshrdi3.o)
 .reginfo       0x0000000000000000       0x18 /home/fazzi/dev/Pinguino-svn/pinguino32/trunk/linux/p32/bin/../lib/gcc/mips-elf/4.5.2/soft-float/el/libgcc.a(_ashldi3.o)
 .reginfo       0x0000000000000000       0x18 /home/fazzi/dev/Pinguino-svn/pinguino32/trunk/linux/p32/bin/../lib/gcc/mips-elf/4.5.2/soft-float/el/libgcc.a(_clz.o)
 .reginfo       0x0000000000000000       0x18 /home/fazzi/dev/Pinguino-svn/pinguino32/trunk/linux/p32/bin/../lib/gcc/mips-elf/4.5.2/../../../../mips-elf/lib/libc.a(lib_a-atoi.o)
 .reginfo       0x0000000000000000       0x18 /home/fazzi/dev/Pinguino-svn/pinguino32/trunk/linux/p32/bin/../lib/gcc/mips-elf/4.5.2/../../../../mips-elf/lib/libc.a(lib_a-errno.o)
 .reginfo       0x0000000000000000       0x18 /home/fazzi/dev/Pinguino-svn/pinguino32/trunk/linux/p32/bin/../lib/gcc/mips-elf/4.5.2/../../../../mips-elf/lib/libc.a(lib_a-impure.o)
 .reginfo       0x0000000000000000       0x18 /home/fazzi/dev/Pinguino-svn/pinguino32/trunk/linux/p32/bin/../lib/gcc/mips-elf/4.5.2/../../../../mips-elf/lib/libc.a(lib_a-memset.o)
 .reginfo       0x0000000000000000       0x18 /home/fazzi/dev/Pinguino-svn/pinguino32/trunk/linux/p32/bin/../lib/gcc/mips-elf/4.5.2/../../../../mips-elf/lib/libc.a(lib_a-sprintf.o)
 .reginfo       0x0000000000000000       0x18 /home/fazzi/dev/Pinguino-svn/pinguino32/trunk/linux/p32/bin/../lib/gcc/mips-elf/4.5.2/../../../../mips-elf/lib/libc.a(lib_a-strcat.o)
 .reginfo       0x0000000000000000       0x18 /home/fazzi/dev/Pinguino-svn/pinguino32/trunk/linux/p32/bin/../lib/gcc/mips-elf/4.5.2/../../../../mips-elf/lib/libc.a(lib_a-strcmp.o)
 .reginfo       0x0000000000000000       0x18 /home/fazzi/dev/Pinguino-svn/pinguino32/trunk/linux/p32/bin/../lib/gcc/mips-elf/4.5.2/../../../../mips-elf/lib/libc.a(lib_a-strcpy.o)
 .reginfo       0x0000000000000000       0x18 /home/fazzi/dev/Pinguino-svn/pinguino32/trunk/linux/p32/bin/../lib/gcc/mips-elf/4.5.2/../../../../mips-elf/lib/libc.a(lib_a-strlen.o)
 .reginfo       0x0000000000000000       0x18 /home/fazzi/dev/Pinguino-svn/pinguino32/trunk/linux/p32/bin/../lib/gcc/mips-elf/4.5.2/../../../../mips-elf/lib/libc.a(lib_a-strncpy.o)
 .reginfo       0x0000000000000000       0x18 /home/fazzi/dev/Pinguino-svn/pinguino32/trunk/linux/p32/bin/../lib/gcc/mips-elf/4.5.2/../../../../mips-elf/lib/libc.a(lib_a-strtol.o)
 .reginfo       0x0000000000000000       0x18 /home/fazzi/dev/Pinguino-svn/pinguino32/trunk/linux/p32/bin/../lib/gcc/mips-elf/4.5.2/../../../../mips-elf/lib/libc.a(lib_a-svfprintf.o)
 .reginfo       0x0000000000000000       0x18 /home/fazzi/dev/Pinguino-svn/pinguino32/trunk/linux/p32/bin/../lib/gcc/mips-elf/4.5.2/../../../../mips-elf/lib/libc.a(lib_a-ctype_.o)
 .reginfo       0x0000000000000000       0x18 /home/fazzi/dev/Pinguino-svn/pinguino32/trunk/linux/p32/bin/../lib/gcc/mips-elf/4.5.2/../../../../mips-elf/lib/libc.a(lib_a-dtoa.o)
 .reginfo       0x0000000000000000       0x18 /home/fazzi/dev/Pinguino-svn/pinguino32/trunk/linux/p32/bin/../lib/gcc/mips-elf/4.5.2/../../../../mips-elf/lib/libc.a(lib_a-freer.o)
 .reginfo       0x0000000000000000       0x18 /home/fazzi/dev/Pinguino-svn/pinguino32/trunk/linux/p32/bin/../lib/gcc/mips-elf/4.5.2/../../../../mips-elf/lib/libc.a(lib_a-locale.o)
 .reginfo       0x0000000000000000       0x18 /home/fazzi/dev/Pinguino-svn/pinguino32/trunk/linux/p32/bin/../lib/gcc/mips-elf/4.5.2/../../../../mips-elf/lib/libc.a(lib_a-mallocr.o)
 .reginfo       0x0000000000000000       0x18 /home/fazzi/dev/Pinguino-svn/pinguino32/trunk/linux/p32/bin/../lib/gcc/mips-elf/4.5.2/../../../../mips-elf/lib/libc.a(lib_a-memchr.o)
 .reginfo       0x0000000000000000       0x18 /home/fazzi/dev/Pinguino-svn/pinguino32/trunk/linux/p32/bin/../lib/gcc/mips-elf/4.5.2/../../../../mips-elf/lib/libc.a(lib_a-memcpy.o)
 .reginfo       0x0000000000000000       0x18 /home/fazzi/dev/Pinguino-svn/pinguino32/trunk/linux/p32/bin/../lib/gcc/mips-elf/4.5.2/../../../../mips-elf/lib/libc.a(lib_a-memmove.o)
 .reginfo       0x0000000000000000       0x18 /home/fazzi/dev/Pinguino-svn/pinguino32/trunk/linux/p32/bin/../lib/gcc/mips-elf/4.5.2/../../../../mips-elf/lib/libc.a(lib_a-mlock.o)
 .reginfo       0x0000000000000000       0x18 /home/fazzi/dev/Pinguino-svn/pinguino32/trunk/linux/p32/bin/../lib/gcc/mips-elf/4.5.2/../../../../mips-elf/lib/libc.a(lib_a-mprec.o)
 .reginfo       0x0000000000000000       0x18 /home/fazzi/dev/Pinguino-svn/pinguino32/trunk/linux/p32/bin/../lib/gcc/mips-elf/4.5.2/../../../../mips-elf/lib/libc.a(lib_a-reallocr.o)
 .reginfo       0x0000000000000000       0x18 /home/fazzi/dev/Pinguino-svn/pinguino32/trunk/linux/p32/bin/../lib/gcc/mips-elf/4.5.2/../../../../mips-elf/lib/libc.a(lib_a-sbrkr.o)
 .reginfo       0x0000000000000000       0x18 /home/fazzi/dev/Pinguino-svn/pinguino32/trunk/linux/p32/bin/../lib/gcc/mips-elf/4.5.2/../../../../mips-elf/lib/libc.a(lib_a-s_isinfd.o)
 .reginfo       0x0000000000000000       0x18 /home/fazzi/dev/Pinguino-svn/pinguino32/trunk/linux/p32/bin/../lib/gcc/mips-elf/4.5.2/../../../../mips-elf/lib/libc.a(lib_a-s_isnand.o)
 .reginfo       0x0000000000000000       0x18 /home/fazzi/dev/Pinguino-svn/pinguino32/trunk/linux/p32/bin/../lib/gcc/mips-elf/4.5.2/../../../../mips-elf/lib/libc.a(lib_a-callocr.o)
 .reginfo       0x0000000000000000       0x18 /home/fazzi/dev/Pinguino-svn/pinguino32/trunk/linux/p32/bin/../lib/gcc/mips-elf/4.5.2/../../../../mips-elf/lib/libc.a(lib_a-reent.o)
 .reginfo       0x0000000000000000       0x18 /home/fazzi/dev/Pinguino-svn/pinguino32/trunk/linux/p32/bin/../lib/gcc/mips-elf/4.5.2/soft-float/el/libgcc.a(_udivdi3.o)
 .reginfo       0x0000000000000000       0x18 /home/fazzi/dev/Pinguino-svn/pinguino32/trunk/linux/p32/bin/../lib/gcc/mips-elf/4.5.2/soft-float/el/libgcc.a(_umoddi3.o)
 .reginfo       0x0000000000000000       0x18 /home/fazzi/dev/Pinguino-svn/pinguino32/trunk/linux/p32/bin/../lib/gcc/mips-elf/4.5.2/soft-float/el/libgcc.a(_ge_df.o)
 .reginfo       0x0000000000000000       0x18 /home/fazzi/dev/Pinguino-svn/pinguino32/trunk/linux/p32/bin/../lib/gcc/mips-elf/4.5.2/soft-float/el/libgcc.a(_usi_to_df.o)
 .reginfo       0x0000000000000000       0x18 /home/fazzi/dev/Pinguino-svn/pinguino32/trunk/linux/p32/bin/../lib/gcc/mips-elf/4.5.2/soft-float/el/crtend.o
 .reginfo       0x0000000000000000       0x18 /home/fazzi/dev/Pinguino-svn/pinguino32/trunk/linux/p32/bin/../lib/gcc/mips-elf/4.5.2/soft-float/el/crtn.o

Memory Configuration

Name             Origin             Length             Attributes
kseg0_program_mem 0x000000009d006a00 0x000000000007a600 xr
kseg0_boot_mem   0x000000009d006490 0x0000000000000970
exception_mem    0x000000009d005000 0x0000000000001000
kseg1_boot_mem   0x000000009d006000 0x0000000000000490
debug_exec_mem   0x00000000bfc02000 0x0000000000000ff0
config3          0x00000000bfc02ff0 0x0000000000000004
config2          0x00000000bfc02ff4 0x0000000000000004
config1          0x00000000bfc02ff8 0x0000000000000004
config0          0x00000000bfc02ffc 0x0000000000000004
boot_software_key 0x00000000a0000000 0x0000000000000004
kseg1_data_mem   0x00000000a0000004 0x0000000000007ffc w !x
sfrs             0x00000000bf800000 0x0000000000100000
*default*        0x0000000000000000 0xffffffffffffffff

Linker script and memory map

LOAD /home/fazzi/dev/Pinguino-svn/pinguino32/trunk/linux/p32/bin/../lib/gcc/mips-elf/4.5.2/soft-float/el/crti.o
LOAD /home/fazzi/dev/Pinguino-svn/pinguino32/trunk/linux/p32/bin/../lib/gcc/mips-elf/4.5.2/soft-float/el/crtbegin.o
                0x0000000000002000                _min_heap_size = 0x2000
LOAD /home/fazzi/dev/Pinguino-svn/pinguino32/trunk/linux/p32/bin/../lib/gcc/mips-elf/4.5.2/../../../../mips-elf/lib/libm.a
LOAD /home/fazzi/dev/Pinguino-svn/pinguino32/trunk/linux/p32/bin/../lib/gcc/mips-elf/4.5.2/soft-float/el/libgcc.a
LOAD /home/fazzi/dev/Pinguino-svn/pinguino32/trunk/linux/p32/bin/../lib/gcc/mips-elf/4.5.2/../../../../mips-elf/lib/libc.a
LOAD /tmp/ccASVfed.o
LOAD /tmp/cc359DsA.o
LOAD /home/fazzi/dev/Pinguino-svn/pinguino32/trunk/p32/obj/non-free/processor.o
LOAD /home/fazzi/dev/Pinguino-svn/pinguino32/trunk/p32/obj/non-free/usb/libcdc.a
LOAD /home/fazzi/dev/Pinguino-svn/pinguino32/trunk/p32/obj/non-free/usb/libadb.a
LOAD /tmp/ccO5qUJX.o
LOAD /home/fazzi/dev/Pinguino-svn/pinguino32/trunk/linux/p32/bin/../lib/gcc/mips-elf/4.5.2/../../../../mips-elf/lib/libm.a
LOAD /home/fazzi/dev/Pinguino-svn/pinguino32/trunk/linux/p32/bin/../lib/gcc/mips-elf/4.5.2/soft-float/el/libgcc.a
LOAD /home/fazzi/dev/Pinguino-svn/pinguino32/trunk/linux/p32/bin/../lib/gcc/mips-elf/4.5.2/../../../../mips-elf/lib/libc.a
LOAD /home/fazzi/dev/Pinguino-svn/pinguino32/trunk/linux/p32/bin/../lib/gcc/mips-elf/4.5.2/soft-float/el/libgcc.a
LOAD /home/fazzi/dev/Pinguino-svn/pinguino32/trunk/linux/p32/bin/../lib/gcc/mips-elf/4.5.2/soft-float/el/libgcc.a
LOAD /home/fazzi/dev/Pinguino-svn/pinguino32/trunk/linux/p32/bin/../lib/gcc/mips-elf/4.5.2/soft-float/el/crtend.o
LOAD /home/fazzi/dev/Pinguino-svn/pinguino32/trunk/linux/p32/bin/../lib/gcc/mips-elf/4.5.2/soft-float/el/crtn.o
                0x00000000bf882030                BMXDUPBA = 0xbf882030
                0x00000000bf882010                BMXDKPBA = 0xbf882010
                0x00000000bf882020                BMXDUDBA = 0xbf882020
                0x0000000000000001                PROVIDE (_vector_spacing, 0x1)
                0x000000009d005000                _ebase_address = 0x9d005000
                0x000000009d006000                _RESET_ADDR = 0x9d006000
                0x000000009d006380                _BEV_EXCPT_ADDR = 0x9d006380
                0x000000009d006480                _DBG_EXCPT_ADDR = 0x9d006480
                0x00000000bfc02000                _DBG_CODE_ADDR = 0xbfc02000
                0x000000009d005180                _GEN_EXCPT_ADDR = (_ebase_address + 0x180)

.boot_software_key_sec
 *(.boot_software_key_sec)

.config_BFC02FF0
 *(.config_BFC02FF0)

.config_BFC02FF4
 *(.config_BFC02FF4)

.config_BFC02FF8
 *(.config_BFC02FF8)

.config_BFC02FFC
 *(.config_BFC02FFC)
                0x0000000000000400                PROVIDE (_min_stack_size, 0x400)
                0x0000000000000000                PROVIDE (_min_heap_size, 0x0)

.reset          0x000000009d006000       0x10
 *(.reset)
 .reset         0x000000009d006000       0x10 /tmp/cc359DsA.o
                0x000000009d006000                _reset

.bev_excpt      0x000000009d006380        0x4
 *(.bev_handler)
 .bev_handler   0x000000009d006380        0x4 /tmp/cc359DsA.o

.dbg_excpt      0x000000009d006480        0x0
                0x000000009d006480                . = (. + DEFINED (_DEBUGGER)?0x8:0x0)

.dbg_code       0x00000000bfc02000        0x0
                0x00000000bfc02000                . = (. + DEFINED (_DEBUGGER)?0xff0:0x0)

.app_excpt      0x000000009d005180        0x4
 *(.gen_handler)
 .gen_handler   0x000000009d005180        0x4 /tmp/cc359DsA.o

.vector_0       0x000000009d005200        0x0
 *(.vector_0)
                0x0000000000000001                ASSERT (((_vector_spacing == 0x0) || (SIZEOF (.vector_0) <= (_vector_spacing << 0x5))), function at exception vector 0 too large)

.vector_1       0x000000009d005220        0x0
 *(.vector_1)
                0x0000000000000001                ASSERT (((_vector_spacing == 0x0) || (SIZEOF (.vector_1) <= (_vector_spacing << 0x5))), function at exception vector 1 too large)

.vector_2       0x000000009d005240        0x0
 *(.vector_2)
                0x0000000000000001                ASSERT (((_vector_spacing == 0x0) || (SIZEOF (.vector_2) <= (_vector_spacing << 0x5))), function at exception vector 2 too large)

.vector_3       0x000000009d005260        0x0
 *(.vector_3)
                0x0000000000000001                ASSERT (((_vector_spacing == 0x0) || (SIZEOF (.vector_3) <= (_vector_spacing << 0x5))), function at exception vector 3 too large)

.vector_4       0x000000009d005280        0x0
 *(.vector_4)
                0x0000000000000001                ASSERT (((_vector_spacing == 0x0) || (SIZEOF (.vector_4) <= (_vector_spacing << 0x5))), function at exception vector 4 too large)

.vector_5       0x000000009d0052a0        0x0
 *(.vector_5)
                0x0000000000000001                ASSERT (((_vector_spacing == 0x0) || (SIZEOF (.vector_5) <= (_vector_spacing << 0x5))), function at exception vector 5 too large)

.vector_6       0x000000009d0052c0        0x0
 *(.vector_6)
                0x0000000000000001                ASSERT (((_vector_spacing == 0x0) || (SIZEOF (.vector_6) <= (_vector_spacing << 0x5))), function at exception vector 6 too large)

.vector_7       0x000000009d0052e0        0x0
 *(.vector_7)
                0x0000000000000001                ASSERT (((_vector_spacing == 0x0) || (SIZEOF (.vector_7) <= (_vector_spacing << 0x5))), function at exception vector 7 too large)

.vector_8       0x000000009d005300        0xc
 *(.vector_8)
 .vector_8      0x000000009d005300        0xc /tmp/ccO5qUJX.o
                0x0000000000000001                ASSERT (((_vector_spacing == 0x0) || (SIZEOF (.vector_8) <= (_vector_spacing << 0x5))), function at exception vector 8 too large)

.vector_9       0x000000009d005320        0x0
 *(.vector_9)
                0x0000000000000001                ASSERT (((_vector_spacing == 0x0) || (SIZEOF (.vector_9) <= (_vector_spacing << 0x5))), function at exception vector 9 too large)

.vector_10      0x000000009d005340        0x0
 *(.vector_10)
                0x0000000000000001                ASSERT (((_vector_spacing == 0x0) || (SIZEOF (.vector_10) <= (_vector_spacing << 0x5))), function at exception vector 10 too large)

.vector_11      0x000000009d005360        0x0
 *(.vector_11)
                0x0000000000000001                ASSERT (((_vector_spacing == 0x0) || (SIZEOF (.vector_11) <= (_vector_spacing << 0x5))), function at exception vector 11 too large)

.vector_12      0x000000009d005380        0x0
 *(.vector_12)
                0x0000000000000001                ASSERT (((_vector_spacing == 0x0) || (SIZEOF (.vector_12) <= (_vector_spacing << 0x5))), function at exception vector 12 too large)

.vector_13      0x000000009d0053a0        0x0
 *(.vector_13)
                0x0000000000000001                ASSERT (((_vector_spacing == 0x0) || (SIZEOF (.vector_13) <= (_vector_spacing << 0x5))), function at exception vector 13 too large)

.vector_14      0x000000009d0053c0        0x0
 *(.vector_14)
                0x0000000000000001                ASSERT (((_vector_spacing == 0x0) || (SIZEOF (.vector_14) <= (_vector_spacing << 0x5))), function at exception vector 14 too large)

.vector_15      0x000000009d0053e0        0x0
 *(.vector_15)
                0x0000000000000001                ASSERT (((_vector_spacing == 0x0) || (SIZEOF (.vector_15) <= (_vector_spacing << 0x5))), function at exception vector 15 too large)

.vector_16      0x000000009d005400        0x0
 *(.vector_16)
                0x0000000000000001                ASSERT (((_vector_spacing == 0x0) || (SIZEOF (.vector_16) <= (_vector_spacing << 0x5))), function at exception vector 16 too large)

.vector_17      0x000000009d005420        0x0
 *(.vector_17)
                0x0000000000000001                ASSERT (((_vector_spacing == 0x0) || (SIZEOF (.vector_17) <= (_vector_spacing << 0x5))), function at exception vector 17 too large)

.vector_18      0x000000009d005440        0x0
 *(.vector_18)
                0x0000000000000001                ASSERT (((_vector_spacing == 0x0) || (SIZEOF (.vector_18) <= (_vector_spacing << 0x5))), function at exception vector 18 too large)

.vector_19      0x000000009d005460        0x0
 *(.vector_19)
                0x0000000000000001                ASSERT (((_vector_spacing == 0x0) || (SIZEOF (.vector_19) <= (_vector_spacing << 0x5))), function at exception vector 19 too large)

.vector_20      0x000000009d005480        0x0
 *(.vector_20)
                0x0000000000000001                ASSERT (((_vector_spacing == 0x0) || (SIZEOF (.vector_20) <= (_vector_spacing << 0x5))), function at exception vector 20 too large)

.vector_21      0x000000009d0054a0        0x0
 *(.vector_21)
                0x0000000000000001                ASSERT (((_vector_spacing == 0x0) || (SIZEOF (.vector_21) <= (_vector_spacing << 0x5))), function at exception vector 21 too large)

.vector_22      0x000000009d0054c0        0x0
 *(.vector_22)
                0x0000000000000001                ASSERT (((_vector_spacing == 0x0) || (SIZEOF (.vector_22) <= (_vector_spacing << 0x5))), function at exception vector 22 too large)

.vector_23      0x000000009d0054e0        0x0
 *(.vector_23)
                0x0000000000000001                ASSERT (((_vector_spacing == 0x0) || (SIZEOF (.vector_23) <= (_vector_spacing << 0x5))), function at exception vector 23 too large)

.vector_24      0x000000009d005500        0xc
 *(.vector_24)
 .vector_24     0x000000009d005500        0xc /tmp/ccO5qUJX.o
                0x0000000000000001                ASSERT (((_vector_spacing == 0x0) || (SIZEOF (.vector_24) <= (_vector_spacing << 0x5))), function at exception vector 24 too large)

.vector_25      0x000000009d005520        0x0
 *(.vector_25)
                0x0000000000000001                ASSERT (((_vector_spacing == 0x0) || (SIZEOF (.vector_25) <= (_vector_spacing << 0x5))), function at exception vector 25 too large)

.vector_26      0x000000009d005540        0x0
 *(.vector_26)
                0x0000000000000001                ASSERT (((_vector_spacing == 0x0) || (SIZEOF (.vector_26) <= (_vector_spacing << 0x5))), function at exception vector 26 too large)

.vector_27      0x000000009d005560        0x0
 *(.vector_27)
                0x0000000000000001                ASSERT (((_vector_spacing == 0x0) || (SIZEOF (.vector_27) <= (_vector_spacing << 0x5))), function at exception vector 27 too large)

.vector_28      0x000000009d005580        0x0
 *(.vector_28)
                0x0000000000000001                ASSERT (((_vector_spacing == 0x0) || (SIZEOF (.vector_28) <= (_vector_spacing << 0x5))), function at exception vector 28 too large)

.vector_29      0x000000009d0055a0        0x0
 *(.vector_29)
                0x0000000000000001                ASSERT (((_vector_spacing == 0x0) || (SIZEOF (.vector_29) <= (_vector_spacing << 0x5))), function at exception vector 29 too large)

.vector_30      0x000000009d0055c0        0x0
 *(.vector_30)
                0x0000000000000001                ASSERT (((_vector_spacing == 0x0) || (SIZEOF (.vector_30) <= (_vector_spacing << 0x5))), function at exception vector 30 too large)

.vector_31      0x000000009d0055e0        0xc
 *(.vector_31)
 .vector_31     0x000000009d0055e0        0xc /tmp/ccO5qUJX.o
                0x0000000000000001                ASSERT (((_vector_spacing == 0x0) || (SIZEOF (.vector_31) <= (_vector_spacing << 0x5))), function at exception vector 31 too large)

.vector_32      0x000000009d005600        0xc
 *(.vector_32)
 .vector_32     0x000000009d005600        0xc /tmp/ccO5qUJX.o
                0x0000000000000001                ASSERT (((_vector_spacing == 0x0) || (SIZEOF (.vector_32) <= (_vector_spacing << 0x5))), function at exception vector 32 too large)

.vector_33      0x000000009d005620        0x0
 *(.vector_33)
                0x0000000000000001                ASSERT (((_vector_spacing == 0x0) || (SIZEOF (.vector_33) <= (_vector_spacing << 0x5))), function at exception vector 33 too large)

.vector_34      0x000000009d005640        0x0
 *(.vector_34)
                0x0000000000000001                ASSERT (((_vector_spacing == 0x0) || (SIZEOF (.vector_34) <= (_vector_spacing << 0x5))), function at exception vector 34 too large)

.vector_35      0x000000009d005660        0xc
 *(.vector_35)
 .vector_35     0x000000009d005660        0xc /tmp/ccO5qUJX.o
                0x0000000000000001                ASSERT (((_vector_spacing == 0x0) || (SIZEOF (.vector_35) <= (_vector_spacing << 0x5))), function at exception vector 35 too large)

.vector_36      0x000000009d005680        0x0
 *(.vector_36)
                0x0000000000000001                ASSERT (((_vector_spacing == 0x0) || (SIZEOF (.vector_36) <= (_vector_spacing << 0x5))), function at exception vector 36 too large)

.vector_37      0x000000009d0056a0        0x0
 *(.vector_37)
                0x0000000000000001                ASSERT (((_vector_spacing == 0x0) || (SIZEOF (.vector_37) <= (_vector_spacing << 0x5))), function at exception vector 37 too large)

.vector_38      0x000000009d0056c0        0x0
 *(.vector_38)
                0x0000000000000001                ASSERT (((_vector_spacing == 0x0) || (SIZEOF (.vector_38) <= (_vector_spacing << 0x5))), function at exception vector 38 too large)

.vector_39      0x000000009d0056e0        0x0
 *(.vector_39)
                0x0000000000000001                ASSERT (((_vector_spacing == 0x0) || (SIZEOF (.vector_39) <= (_vector_spacing << 0x5))), function at exception vector 39 too large)

.vector_40      0x000000009d005700        0x0
 *(.vector_40)
                0x0000000000000001                ASSERT (((_vector_spacing == 0x0) || (SIZEOF (.vector_40) <= (_vector_spacing << 0x5))), function at exception vector 40 too large)

.vector_41      0x000000009d005720        0x0
 *(.vector_41)
                0x0000000000000001                ASSERT (((_vector_spacing == 0x0) || (SIZEOF (.vector_41) <= (_vector_spacing << 0x5))), function at exception vector 41 too large)

.vector_42      0x000000009d005740        0x0
 *(.vector_42)
                0x0000000000000001                ASSERT (((_vector_spacing == 0x0) || (SIZEOF (.vector_42) <= (_vector_spacing << 0x5))), function at exception vector 42 too large)

.vector_43      0x000000009d005760        0x0
 *(.vector_43)
                0x0000000000000001                ASSERT (((_vector_spacing == 0x0) || (SIZEOF (.vector_43) <= (_vector_spacing << 0x5))), function at exception vector 43 too large)

.vector_44      0x000000009d005780        0x0
 *(.vector_44)
                0x0000000000000001                ASSERT (((_vector_spacing == 0x0) || (SIZEOF (.vector_44) <= (_vector_spacing << 0x5))), function at exception vector 44 too large)

.vector_45      0x000000009d0057a0        0x0
 *(.vector_45)
                0x0000000000000001                ASSERT (((_vector_spacing == 0x0) || (SIZEOF (.vector_45) <= (_vector_spacing << 0x5))), function at exception vector 45 too large)

.vector_46      0x000000009d0057c0        0x0
 *(.vector_46)
                0x0000000000000001                ASSERT (((_vector_spacing == 0x0) || (SIZEOF (.vector_46) <= (_vector_spacing << 0x5))), function at exception vector 46 too large)

.vector_47      0x000000009d0057e0        0x0
 *(.vector_47)
                0x0000000000000001                ASSERT (((_vector_spacing == 0x0) || (SIZEOF (.vector_47) <= (_vector_spacing << 0x5))), function at exception vector 47 too large)

.vector_48      0x000000009d005800        0x0
 *(.vector_48)
                0x0000000000000001                ASSERT (((_vector_spacing == 0x0) || (SIZEOF (.vector_48) <= (_vector_spacing << 0x5))), function at exception vector 48 too large)

.vector_49      0x000000009d005820        0xc
 *(.vector_49)
 .vector_49     0x000000009d005820        0xc /tmp/ccO5qUJX.o
                0x0000000000000001                ASSERT (((_vector_spacing == 0x0) || (SIZEOF (.vector_49) <= (_vector_spacing << 0x5))), function at exception vector 49 too large)

.vector_50      0x000000009d005840        0xc
 *(.vector_50)
 .vector_50     0x000000009d005840        0xc /tmp/ccO5qUJX.o
                0x0000000000000001                ASSERT (((_vector_spacing == 0x0) || (SIZEOF (.vector_50) <= (_vector_spacing << 0x5))), function at exception vector 50 too large)

.vector_51      0x000000009d005860        0xc
 *(.vector_51)
 .vector_51     0x000000009d005860        0xc /tmp/ccO5qUJX.o
                0x0000000000000001                ASSERT (((_vector_spacing == 0x0) || (SIZEOF (.vector_51) <= (_vector_spacing << 0x5))), function at exception vector 51 too large)

.vector_52      0x000000009d005880        0x0
 *(.vector_52)
                0x0000000000000001                ASSERT (((_vector_spacing == 0x0) || (SIZEOF (.vector_52) <= (_vector_spacing << 0x5))), function at exception vector 52 too large)

.vector_53      0x000000009d0058a0        0x0
 *(.vector_53)
                0x0000000000000001                ASSERT (((_vector_spacing == 0x0) || (SIZEOF (.vector_53) <= (_vector_spacing << 0x5))), function at exception vector 53 too large)

.vector_54      0x000000009d0058c0        0x0
 *(.vector_54)
                0x0000000000000001                ASSERT (((_vector_spacing == 0x0) || (SIZEOF (.vector_54) <= (_vector_spacing << 0x5))), function at exception vector 54 too large)

.vector_55      0x000000009d0058e0        0x0
 *(.vector_55)
                0x0000000000000001                ASSERT (((_vector_spacing == 0x0) || (SIZEOF (.vector_55) <= (_vector_spacing << 0x5))), function at exception vector 55 too large)

.vector_56      0x000000009d005900        0x0
 *(.vector_56)
                0x0000000000000001                ASSERT (((_vector_spacing == 0x0) || (SIZEOF (.vector_56) <= (_vector_spacing << 0x5))), function at exception vector 56 too large)

.vector_57      0x000000009d005920        0x0
 *(.vector_57)
                0x0000000000000001                ASSERT (((_vector_spacing == 0x0) || (SIZEOF (.vector_57) <= (_vector_spacing << 0x5))), function at exception vector 57 too large)

.vector_58      0x000000009d005940        0x0
 *(.vector_58)
                0x0000000000000001                ASSERT (((_vector_spacing == 0x0) || (SIZEOF (.vector_58) <= (_vector_spacing << 0x5))), function at exception vector 58 too large)

.vector_59      0x000000009d005960        0x0
 *(.vector_59)
                0x0000000000000001                ASSERT (((_vector_spacing == 0x0) || (SIZEOF (.vector_59) <= (_vector_spacing << 0x5))), function at exception vector 59 too large)

.vector_60      0x000000009d005980        0x0
 *(.vector_60)
                0x0000000000000001                ASSERT (((_vector_spacing == 0x0) || (SIZEOF (.vector_60) <= (_vector_spacing << 0x5))), function at exception vector 60 too large)

.vector_61      0x000000009d0059a0        0x0
 *(.vector_61)
                0x0000000000000001                ASSERT (((_vector_spacing == 0x0) || (SIZEOF (.vector_61) <= (_vector_spacing << 0x5))), function at exception vector 61 too large)

.vector_62      0x000000009d0059c0        0x0
 *(.vector_62)
                0x0000000000000001                ASSERT (((_vector_spacing == 0x0) || (SIZEOF (.vector_62) <= (_vector_spacing << 0x5))), function at exception vector 62 too large)

.vector_63      0x000000009d0059e0        0x0
 *(.vector_63)
                0x0000000000000001                ASSERT (((_vector_spacing == 0x0) || (SIZEOF (.vector_63) <= (_vector_spacing << 0x5))), function at exception vector 63 too large)

.startup        0x000000009d006490      0x1bc
 *(.startup)
 .startup       0x000000009d006490      0x1bc /tmp/cc359DsA.o

.text           0x000000009d006a00    0x1277c
                0x000000009d006a00                _text_begin = .
 *(.text .stub .text.* .gnu.linkonce.t.*)
 .text          0x000000009d006a00        0x0 /home/fazzi/dev/Pinguino-svn/pinguino32/trunk/linux/p32/bin/../lib/gcc/mips-elf/4.5.2/soft-float/el/crti.o
 .text          0x000000009d006a00      0x124 /home/fazzi/dev/Pinguino-svn/pinguino32/trunk/linux/p32/bin/../lib/gcc/mips-elf/4.5.2/soft-float/el/crtbegin.o
 .text          0x000000009d006b24     0x659c /tmp/ccASVfed.o
                0x000000009d007130                SerialUART1WriteChar
                0x000000009d007154                SerialUART2WriteChar
                0x000000009d007178                SerialUART3WriteChar
                0x000000009d00719c                u5putc
                0x000000009d0071bc                SystemUnlock
                0x000000009d0071e4                SystemLock
                0x000000009d0071fc                Reset
                0x000000009d007238                GetSystemClock
                0x000000009d0072cc                GetPeripheralClock
                0x000000009d0072f8                SetFlashWaitStates
                0x000000009d007368                SetSystemClock
                0x000000009d0075a8                SetPeripheralClock
                0x000000009d0075ec                SystemConfig
                0x000000009d007664                GetCP0Count
                0x000000009d00766c                SetCP0Count
                0x000000009d00767c                Delayus
                0x000000009d007710                Delayms
                0x000000009d007748                pinmode
                0x000000009d007948                digitalwrite
                0x000000009d007b48                digitalread
                0x000000009d007c88                toggle
                0x000000009d007cbc                sini
                0x000000009d007d5c                cosi
                0x000000009d007e14                tani
                0x000000009d007e58                powi
                0x000000009d007f10                LCD_Writ_Bus
                0x000000009d007f40                LCD_Write_COM
                0x000000009d007f84                LCD_Write_DATA
                0x000000009d007fc8                InitLCD
                0x000000009d008280                setXY
                0x000000009d00833c                clrScr
                0x000000009d0083e4                fillScr
                0x000000009d0084cc                setColor
                0x000000009d0084dc                setBackColor
                0x000000009d0084ec                setPixel
                0x000000009d00850c                drawPixel
                0x000000009d0085b8                fillCircle
                0x000000009d008690                drawCircle
                0x000000009d008808                drawHLine
                0x000000009d0088c8                fillRoundRect
                0x000000009d008a38                drawVLine
                0x000000009d008af4                drawLine
                0x000000009d008fd0                fillRect
                0x000000009d009110                drawRoundRect
                0x000000009d00927c                drawRect
                0x000000009d00932c                printChar
                0x000000009d009970                rotateChar
                0x000000009d009ec0                itdb_print
                0x000000009d00a064                printNumI
                0x000000009d00a170                printNumF
                0x000000009d00a3d4                fontSize
                0x000000009d00a3dc                drawBitmap
                0x000000009d00a6d0                drawBitmapR
                0x000000009d00a8e8                touch_setTouch
                0x000000009d00a904                touch_initTouch
                0x000000009d00a984                touch_writeData
                0x000000009d00aa38                touch_readData
                0x000000009d00aaa0                touch_read
                0x000000009d00ab8c                touch_dataAvailable
                0x000000009d00abb0                touch_getX
                0x000000009d00ac28                touch_getY
                0x000000009d00ac9c                touch_setPrecision
                0x000000009d00acfc                IntSetVectorPriority
                0x000000009d00ae54                IntGetVectorPriority
                0x000000009d00aecc                IntGetVectorSubPriority
                0x000000009d00af44                IntClearFlag
                0x000000009d00afc8                IntGetFlag
                0x000000009d00b044                IntEnable
                0x000000009d00b0bc                IntDisable
                0x000000009d00b140                IntGetInterruptVectorNumber
                0x000000009d00b150                IntGetInterruptVectorPriority
                0x000000009d00b160                IntDisableInterrupts
                0x000000009d00b16c                IntEnableInterrupts
                0x000000009d00b178                IntRestoreInterrupts
                0x000000009d00b188                IntSetEBASE
                0x000000009d00b198                IntConfigureSystem
                0x000000009d00b234                millis_init
                0x000000009d00b2a0                millis
                0x000000009d00b2a8                Tmr2Interrupt
                0x000000009d00b2e8                pprintf
                0x000000009d00b2f4                psprintf
                0x000000009d00b314                SerialSetDataRate
                0x000000009d00b434                SerialGetDataRate
                0x000000009d00b548                SerialEnable
                0x000000009d00b59c                SerialSetLineControl
                0x000000009d00b5f0                SerialFlush
                0x000000009d00b63c                SerialPinConfigure
                0x000000009d00b6a8                SerialIntConfigure
                0x000000009d00b754                SerialConfigure
                0x000000009d00b870                SerialPrintf
                0x000000009d00b904                SerialAvailable
                0x000000009d00b964                SerialRead
                0x000000009d00ba3c                SerialGetKey
                0x000000009d00ba8c                SerialGetString
                0x000000009d00bb24                SerialGetDataBuffer
                0x000000009d00bc50                Serial1Interrupt
                0x000000009d00bca4                Serial2Interrupt
                0x000000009d00bcf8                Serial3Interrupt
                0x000000009d00bd4c                sbrk
                0x000000009d00bd68                open
                0x000000009d00bdfc                close
                0x000000009d00be04                fstat
                0x000000009d00be0c                isatty
                0x000000009d00be14                lseek
                0x000000009d00be1c                read
                0x000000009d00bea4                write
                0x000000009d00bf58                drawnCommands
                0x000000009d00c098                waitForIt
                0x000000009d00c128                printDEBUG
                0x000000009d00c1a0                checkOK
                0x000000009d00c2d8                u5getc
                0x000000009d00c2f8                u5setup
                0x000000009d00c324                setBluetooth
                0x000000009d00c3dc                openBluetooth
                0x000000009d00c430                loadGoogleMap
                0x000000009d00c5bc                setup
                0x000000009d00c768                loop
                0x000000009d00d048                main
                0x000000009d00d090                Serial4Interrupt
                0x000000009d00d09c                Serial5Interrupt
                0x000000009d00d0a8                Serial6Interrupt
                0x000000009d00d0b4                RTCCInterrupt
 .text          0x000000009d00d0c0       0x14 /tmp/cc359DsA.o
 .text          0x000000009d00d0d4        0x0 /home/fazzi/dev/Pinguino-svn/pinguino32/trunk/p32/obj/non-free/processor.o
 .text          0x000000009d00d0d4      0x860 /tmp/ccO5qUJX.o
                0x000000009d00d0d4                vector_8_ISR_wrapper
                0x000000009d00d1e0                vector_24_ISR_wrapper
                0x000000009d00d2ec                vector_32_ISR_wrapper
                0x000000009d00d3f8                vector_35_ISR_wrapper
                0x000000009d00d504                vector_31_ISR_wrapper
                0x000000009d00d610                vector_49_ISR_wrapper
                0x000000009d00d71c                vector_51_ISR_wrapper
                0x000000009d00d828                vector_50_ISR_wrapper
 .text          0x000000009d00d934      0x528 /home/fazzi/dev/Pinguino-svn/pinguino32/trunk/linux/p32/bin/../lib/gcc/mips-elf/4.5.2/../../../../mips-elf/lib/libm.a(lib_a-wf_pow.o)
                0x000000009d00d934                powf
 .text          0x000000009d00de5c      0xb54 /home/fazzi/dev/Pinguino-svn/pinguino32/trunk/linux/p32/bin/../lib/gcc/mips-elf/4.5.2/../../../../mips-elf/lib/libm.a(lib_a-ef_pow.o)
                0x000000009d00de5c                __ieee754_powf
 .text          0x000000009d00e9b0      0x168 /home/fazzi/dev/Pinguino-svn/pinguino32/trunk/linux/p32/bin/../lib/gcc/mips-elf/4.5.2/../../../../mips-elf/lib/libm.a(lib_a-ef_sqrt.o)
                0x000000009d00e9b0                __ieee754_sqrtf
 .text          0x000000009d00eb18       0x10 /home/fazzi/dev/Pinguino-svn/pinguino32/trunk/linux/p32/bin/../lib/gcc/mips-elf/4.5.2/../../../../mips-elf/lib/libm.a(lib_a-sf_fabs.o)
                0x000000009d00eb18                fabsf
 .text          0x000000009d00eb28       0x18 /home/fazzi/dev/Pinguino-svn/pinguino32/trunk/linux/p32/bin/../lib/gcc/mips-elf/4.5.2/../../../../mips-elf/lib/libm.a(lib_a-sf_finite.o)
                0x000000009d00eb28                finitef
 .text          0x000000009d00eb40       0x20 /home/fazzi/dev/Pinguino-svn/pinguino32/trunk/linux/p32/bin/../lib/gcc/mips-elf/4.5.2/../../../../mips-elf/lib/libm.a(lib_a-sf_isnan.o)
                0x000000009d00eb40                isnanf
 .text          0x000000009d00eb60        0x8 /home/fazzi/dev/Pinguino-svn/pinguino32/trunk/linux/p32/bin/../lib/gcc/mips-elf/4.5.2/../../../../mips-elf/lib/libm.a(lib_a-sf_nan.o)
                0x000000009d00eb60                nanf
 .text          0x000000009d00eb68      0x164 /home/fazzi/dev/Pinguino-svn/pinguino32/trunk/linux/p32/bin/../lib/gcc/mips-elf/4.5.2/../../../../mips-elf/lib/libm.a(lib_a-sf_scalbn.o)
                0x000000009d00eb68                scalbnf
 .text          0x000000009d00eccc        0x0 /home/fazzi/dev/Pinguino-svn/pinguino32/trunk/linux/p32/bin/../lib/gcc/mips-elf/4.5.2/../../../../mips-elf/lib/libm.a(lib_a-s_lib_ver.o)
 .text          0x000000009d00eccc        0x8 /home/fazzi/dev/Pinguino-svn/pinguino32/trunk/linux/p32/bin/../lib/gcc/mips-elf/4.5.2/../../../../mips-elf/lib/libm.a(lib_a-s_matherr.o)
                0x000000009d00eccc                matherr
 .text          0x000000009d00ecd4      0x210 /home/fazzi/dev/Pinguino-svn/pinguino32/trunk/linux/p32/bin/../lib/gcc/mips-elf/4.5.2/../../../../mips-elf/lib/libm.a(lib_a-s_rint.o)
                0x000000009d00ecd4                rint
 .text          0x000000009d00eee4       0x1c /home/fazzi/dev/Pinguino-svn/pinguino32/trunk/linux/p32/bin/../lib/gcc/mips-elf/4.5.2/../../../../mips-elf/lib/libm.a(lib_a-sf_copysign.o)
                0x000000009d00eee4                copysignf
 .text          0x000000009d00ef00      0x32c /home/fazzi/dev/Pinguino-svn/pinguino32/trunk/linux/p32/bin/../lib/gcc/mips-elf/4.5.2/soft-float/el/libgcc.a(_addsub_sf.o)
                0x000000009d00f158                __addsf3
                0x000000009d00f1bc                __subsf3
 .text          0x000000009d00f22c      0x210 /home/fazzi/dev/Pinguino-svn/pinguino32/trunk/linux/p32/bin/../lib/gcc/mips-elf/4.5.2/soft-float/el/libgcc.a(_mul_sf.o)
                0x000000009d00f22c                __mulsf3
 .text          0x000000009d00f43c      0x184 /home/fazzi/dev/Pinguino-svn/pinguino32/trunk/linux/p32/bin/../lib/gcc/mips-elf/4.5.2/soft-float/el/libgcc.a(_div_sf.o)
                0x000000009d00f43c                __divsf3
 .text          0x000000009d00f5c0       0x84 /home/fazzi/dev/Pinguino-svn/pinguino32/trunk/linux/p32/bin/../lib/gcc/mips-elf/4.5.2/soft-float/el/libgcc.a(_eq_sf.o)
                0x000000009d00f5c0                __eqsf2
 .text          0x000000009d00f644       0x84 /home/fazzi/dev/Pinguino-svn/pinguino32/trunk/linux/p32/bin/../lib/gcc/mips-elf/4.5.2/soft-float/el/libgcc.a(_gt_sf.o)
                0x000000009d00f644                __gtsf2
 .text          0x000000009d00f6c8       0x84 /home/fazzi/dev/Pinguino-svn/pinguino32/trunk/linux/p32/bin/../lib/gcc/mips-elf/4.5.2/soft-float/el/libgcc.a(_lt_sf.o)
                0x000000009d00f6c8                __ltsf2
 .text          0x000000009d00f74c       0x84 /home/fazzi/dev/Pinguino-svn/pinguino32/trunk/linux/p32/bin/../lib/gcc/mips-elf/4.5.2/soft-float/el/libgcc.a(_le_sf.o)
                0x000000009d00f74c                __lesf2
 .text          0x000000009d00f7d0       0x98 /home/fazzi/dev/Pinguino-svn/pinguino32/trunk/linux/p32/bin/../lib/gcc/mips-elf/4.5.2/soft-float/el/libgcc.a(_si_to_sf.o)
                0x000000009d00f7d0                __floatsisf
 .text          0x000000009d00f868       0xc4 /home/fazzi/dev/Pinguino-svn/pinguino32/trunk/linux/p32/bin/../lib/gcc/mips-elf/4.5.2/soft-float/el/libgcc.a(_sf_to_si.o)
                0x000000009d00f868                __fixsfsi
 .text          0x000000009d00f92c       0x4c /home/fazzi/dev/Pinguino-svn/pinguino32/trunk/linux/p32/bin/../lib/gcc/mips-elf/4.5.2/soft-float/el/libgcc.a(_sf_to_df.o)
                0x000000009d00f92c                __extendsfdf2
 .text          0x000000009d00f978        0x0 /home/fazzi/dev/Pinguino-svn/pinguino32/trunk/linux/p32/bin/../lib/gcc/mips-elf/4.5.2/soft-float/el/libgcc.a(_thenan_sf.o)
 .text          0x000000009d00f978      0x4ac /home/fazzi/dev/Pinguino-svn/pinguino32/trunk/linux/p32/bin/../lib/gcc/mips-elf/4.5.2/soft-float/el/libgcc.a(_addsub_df.o)
                0x000000009d00fd40                __adddf3
                0x000000009d00fdac                __subdf3
 .text          0x000000009d00fe24      0x33c /home/fazzi/dev/Pinguino-svn/pinguino32/trunk/linux/p32/bin/../lib/gcc/mips-elf/4.5.2/soft-float/el/libgcc.a(_mul_df.o)
                0x000000009d00fe24                __muldf3
 .text          0x000000009d010160      0x234 /home/fazzi/dev/Pinguino-svn/pinguino32/trunk/linux/p32/bin/../lib/gcc/mips-elf/4.5.2/soft-float/el/libgcc.a(_div_df.o)
                0x000000009d010160                __divdf3
 .text          0x000000009d010394       0x8c /home/fazzi/dev/Pinguino-svn/pinguino32/trunk/linux/p32/bin/../lib/gcc/mips-elf/4.5.2/soft-float/el/libgcc.a(_eq_df.o)
                0x000000009d010394                __eqdf2
 .text          0x000000009d010420       0x8c /home/fazzi/dev/Pinguino-svn/pinguino32/trunk/linux/p32/bin/../lib/gcc/mips-elf/4.5.2/soft-float/el/libgcc.a(_ne_df.o)
                0x000000009d010420                __nedf2
 .text          0x000000009d0104ac       0x8c /home/fazzi/dev/Pinguino-svn/pinguino32/trunk/linux/p32/bin/../lib/gcc/mips-elf/4.5.2/soft-float/el/libgcc.a(_gt_df.o)
                0x000000009d0104ac                __gtdf2
 .text          0x000000009d010538       0x8c /home/fazzi/dev/Pinguino-svn/pinguino32/trunk/linux/p32/bin/../lib/gcc/mips-elf/4.5.2/soft-float/el/libgcc.a(_lt_df.o)
                0x000000009d010538                __ltdf2
 .text          0x000000009d0105c4       0xd4 /home/fazzi/dev/Pinguino-svn/pinguino32/trunk/linux/p32/bin/../lib/gcc/mips-elf/4.5.2/soft-float/el/libgcc.a(_si_to_df.o)
                0x000000009d0105c4                __floatsidf
 .text          0x000000009d010698       0xf8 /home/fazzi/dev/Pinguino-svn/pinguino32/trunk/linux/p32/bin/../lib/gcc/mips-elf/4.5.2/soft-float/el/libgcc.a(_df_to_si.o)
                0x000000009d010698                __fixdfsi
 .text          0x000000009d010790       0x3c /home/fazzi/dev/Pinguino-svn/pinguino32/trunk/linux/p32/bin/../lib/gcc/mips-elf/4.5.2/soft-float/el/libgcc.a(_make_df.o)
                0x000000009d010790                __make_dp
 .text          0x000000009d0107cc       0x68 /home/fazzi/dev/Pinguino-svn/pinguino32/trunk/linux/p32/bin/../lib/gcc/mips-elf/4.5.2/soft-float/el/libgcc.a(_df_to_sf.o)
                0x000000009d0107cc                __truncdfsf2
 .text          0x000000009d010834        0x0 /home/fazzi/dev/Pinguino-svn/pinguino32/trunk/linux/p32/bin/../lib/gcc/mips-elf/4.5.2/soft-float/el/libgcc.a(_thenan_df.o)
 .text          0x000000009d010834       0xb0 /home/fazzi/dev/Pinguino-svn/pinguino32/trunk/linux/p32/bin/../lib/gcc/mips-elf/4.5.2/soft-float/el/libgcc.a(_clzsi2.o)
                0x000000009d010834                __clzsi2
 .text          0x000000009d0108e4      0x18c /home/fazzi/dev/Pinguino-svn/pinguino32/trunk/linux/p32/bin/../lib/gcc/mips-elf/4.5.2/soft-float/el/libgcc.a(_pack_sf.o)
                0x000000009d0108e4                __pack_f
 .text          0x000000009d010a70       0xcc /home/fazzi/dev/Pinguino-svn/pinguino32/trunk/linux/p32/bin/../lib/gcc/mips-elf/4.5.2/soft-float/el/libgcc.a(_unpack_sf.o)
                0x000000009d010a70                __unpack_f
 .text          0x000000009d010b3c      0x124 /home/fazzi/dev/Pinguino-svn/pinguino32/trunk/linux/p32/bin/../lib/gcc/mips-elf/4.5.2/soft-float/el/libgcc.a(_fpcmp_parts_sf.o)
                0x000000009d010b3c                __fpcmp_parts_f
 .text          0x000000009d010c60       0x30 /home/fazzi/dev/Pinguino-svn/pinguino32/trunk/linux/p32/bin/../lib/gcc/mips-elf/4.5.2/soft-float/el/libgcc.a(_make_sf.o)
                0x000000009d010c60                __make_fp
 .text          0x000000009d010c90      0x27c /home/fazzi/dev/Pinguino-svn/pinguino32/trunk/linux/p32/bin/../lib/gcc/mips-elf/4.5.2/soft-float/el/libgcc.a(_pack_df.o)
                0x000000009d010c90                __pack_d
 .text          0x000000009d010f0c      0x100 /home/fazzi/dev/Pinguino-svn/pinguino32/trunk/linux/p32/bin/../lib/gcc/mips-elf/4.5.2/soft-float/el/libgcc.a(_unpack_df.o)
                0x000000009d010f0c                __unpack_d
 .text          0x000000009d01100c      0x150 /home/fazzi/dev/Pinguino-svn/pinguino32/trunk/linux/p32/bin/../lib/gcc/mips-elf/4.5.2/soft-float/el/libgcc.a(_fpcmp_parts_df.o)
                0x000000009d01100c                __fpcmp_parts_d
 .text          0x000000009d01115c       0x48 /home/fazzi/dev/Pinguino-svn/pinguino32/trunk/linux/p32/bin/../lib/gcc/mips-elf/4.5.2/soft-float/el/libgcc.a(_lshrdi3.o)
                0x000000009d01115c                __lshrdi3
 .text          0x000000009d0111a4       0x48 /home/fazzi/dev/Pinguino-svn/pinguino32/trunk/linux/p32/bin/../lib/gcc/mips-elf/4.5.2/soft-float/el/libgcc.a(_ashldi3.o)
                0x000000009d0111a4                __ashldi3
 .text          0x000000009d0111ec        0x0 /home/fazzi/dev/Pinguino-svn/pinguino32/trunk/linux/p32/bin/../lib/gcc/mips-elf/4.5.2/soft-float/el/libgcc.a(_clz.o)
 .text          0x000000009d0111ec       0x18 /home/fazzi/dev/Pinguino-svn/pinguino32/trunk/linux/p32/bin/../lib/gcc/mips-elf/4.5.2/../../../../mips-elf/lib/libc.a(lib_a-atoi.o)
                0x000000009d0111ec                _atoi_r
                0x000000009d0111f8                atoi
 .text          0x000000009d011204        0xc /home/fazzi/dev/Pinguino-svn/pinguino32/trunk/linux/p32/bin/../lib/gcc/mips-elf/4.5.2/../../../../mips-elf/lib/libc.a(lib_a-errno.o)
                0x000000009d011204                __errno
 .text          0x000000009d011210        0x0 /home/fazzi/dev/Pinguino-svn/pinguino32/trunk/linux/p32/bin/../lib/gcc/mips-elf/4.5.2/../../../../mips-elf/lib/libc.a(lib_a-impure.o)
 .text          0x000000009d011210       0xf0 /home/fazzi/dev/Pinguino-svn/pinguino32/trunk/linux/p32/bin/../lib/gcc/mips-elf/4.5.2/../../../../mips-elf/lib/libc.a(lib_a-memset.o)
                0x000000009d011210                memset
 .text          0x000000009d011300       0xdc /home/fazzi/dev/Pinguino-svn/pinguino32/trunk/linux/p32/bin/../lib/gcc/mips-elf/4.5.2/../../../../mips-elf/lib/libc.a(lib_a-sprintf.o)
                0x000000009d011300                sprintf
                0x000000009d011374                _sprintf_r
 .text          0x000000009d0113dc       0xb8 /home/fazzi/dev/Pinguino-svn/pinguino32/trunk/linux/p32/bin/../lib/gcc/mips-elf/4.5.2/../../../../mips-elf/lib/libc.a(lib_a-strcat.o)
                0x000000009d0113dc                strcat
 .text          0x000000009d011494       0x88 /home/fazzi/dev/Pinguino-svn/pinguino32/trunk/linux/p32/bin/../lib/gcc/mips-elf/4.5.2/../../../../mips-elf/lib/libc.a(lib_a-strcmp.o)
                0x000000009d011494                strcmp
 .text          0x000000009d01151c       0x90 /home/fazzi/dev/Pinguino-svn/pinguino32/trunk/linux/p32/bin/../lib/gcc/mips-elf/4.5.2/../../../../mips-elf/lib/libc.a(lib_a-strcpy.o)
                0x000000009d01151c                strcpy
 .text          0x000000009d0115ac       0x18 /home/fazzi/dev/Pinguino-svn/pinguino32/trunk/linux/p32/bin/../lib/gcc/mips-elf/4.5.2/../../../../mips-elf/lib/libc.a(lib_a-strlen.o)
                0x000000009d0115ac                strlen
 .text          0x000000009d0115c4      0x1f0 /home/fazzi/dev/Pinguino-svn/pinguino32/trunk/linux/p32/bin/../lib/gcc/mips-elf/4.5.2/../../../../mips-elf/lib/libc.a(lib_a-strncpy.o)
                0x000000009d0115c4                strncpy
 .text          0x000000009d0117b4      0x224 /home/fazzi/dev/Pinguino-svn/pinguino32/trunk/linux/p32/bin/../lib/gcc/mips-elf/4.5.2/../../../../mips-elf/lib/libc.a(lib_a-strtol.o)
                0x000000009d0117b4                _strtol_r
                0x000000009d0119bc                strtol
 .text          0x000000009d0119d8     0x22b0 /home/fazzi/dev/Pinguino-svn/pinguino32/trunk/linux/p32/bin/../lib/gcc/mips-elf/4.5.2/../../../../mips-elf/lib/libc.a(lib_a-svfprintf.o)
                0x000000009d011bc4                _svfprintf_r
 .text          0x000000009d013c88        0x0 /home/fazzi/dev/Pinguino-svn/pinguino32/trunk/linux/p32/bin/../lib/gcc/mips-elf/4.5.2/../../../../mips-elf/lib/libc.a(lib_a-ctype_.o)
 .text          0x000000009d013c88     0x195c /home/fazzi/dev/Pinguino-svn/pinguino32/trunk/linux/p32/bin/../lib/gcc/mips-elf/4.5.2/../../../../mips-elf/lib/libc.a(lib_a-dtoa.o)
                0x000000009d013f0c                _dtoa_r
 .text          0x000000009d0155e4      0x418 /home/fazzi/dev/Pinguino-svn/pinguino32/trunk/linux/p32/bin/../lib/gcc/mips-elf/4.5.2/../../../../mips-elf/lib/libc.a(lib_a-freer.o)
                0x000000009d0155e4                _malloc_trim_r
                0x000000009d015708                _free_r
 .text          0x000000009d0159fc       0xe4 /home/fazzi/dev/Pinguino-svn/pinguino32/trunk/linux/p32/bin/../lib/gcc/mips-elf/4.5.2/../../../../mips-elf/lib/libc.a(lib_a-locale.o)
                0x000000009d0159fc                __locale_charset
                0x000000009d015a08                _localeconv_r
                0x000000009d015a14                localeconv
                0x000000009d015a20                _setlocale_r
                0x000000009d015acc                setlocale
 .text          0x000000009d015ae0      0x854 /home/fazzi/dev/Pinguino-svn/pinguino32/trunk/linux/p32/bin/../lib/gcc/mips-elf/4.5.2/../../../../mips-elf/lib/libc.a(lib_a-mallocr.o)
                0x000000009d015ae0                _malloc_r
 .text          0x000000009d016334      0x114 /home/fazzi/dev/Pinguino-svn/pinguino32/trunk/linux/p32/bin/../lib/gcc/mips-elf/4.5.2/../../../../mips-elf/lib/libc.a(lib_a-memchr.o)
                0x000000009d016334                memchr
 .text          0x000000009d016448      0x194 /home/fazzi/dev/Pinguino-svn/pinguino32/trunk/linux/p32/bin/../lib/gcc/mips-elf/4.5.2/../../../../mips-elf/lib/libc.a(lib_a-memcpy.o)
                0x000000009d016448                memcpy
 .text          0x000000009d0165dc      0x13c /home/fazzi/dev/Pinguino-svn/pinguino32/trunk/linux/p32/bin/../lib/gcc/mips-elf/4.5.2/../../../../mips-elf/lib/libc.a(lib_a-memmove.o)
                0x000000009d0165dc                memmove
 .text          0x000000009d016718       0x10 /home/fazzi/dev/Pinguino-svn/pinguino32/trunk/linux/p32/bin/../lib/gcc/mips-elf/4.5.2/../../../../mips-elf/lib/libc.a(lib_a-mlock.o)
                0x000000009d016718                __malloc_lock
                0x000000009d016720                __malloc_unlock
 .text          0x000000009d016728     0x1270 /home/fazzi/dev/Pinguino-svn/pinguino32/trunk/linux/p32/bin/../lib/gcc/mips-elf/4.5.2/../../../../mips-elf/lib/libc.a(lib_a-mprec.o)
                0x000000009d016728                _Bfree
                0x000000009d016758                __hi0bits
                0x000000009d0167e4                __lo0bits
                0x000000009d0168c0                __mcmp
                0x000000009d01693c                __ulp
                0x000000009d0169b8                __b2d
                0x000000009d016b24                __ratio
                0x000000009d016bcc                _mprec_log10
                0x000000009d016c78                __copybits
                0x000000009d016d0c                __any_on
                0x000000009d016dc0                _Balloc
                0x000000009d016e78                __d2b
                0x000000009d016fe4                __mdiff
                0x000000009d0171ec                __lshift
                0x000000009d017364                __multiply
                0x000000009d0175b8                __i2b
                0x000000009d0175ec                __multadd
                0x000000009d017718                __pow5mult
                0x000000009d01785c                __s2b
 .text          0x000000009d017998      0x5d8 /home/fazzi/dev/Pinguino-svn/pinguino32/trunk/linux/p32/bin/../lib/gcc/mips-elf/4.5.2/../../../../mips-elf/lib/libc.a(lib_a-reallocr.o)
                0x000000009d017998                _realloc_r
 .text          0x000000009d017f70       0x58 /home/fazzi/dev/Pinguino-svn/pinguino32/trunk/linux/p32/bin/../lib/gcc/mips-elf/4.5.2/../../../../mips-elf/lib/libc.a(lib_a-sbrkr.o)
                0x000000009d017f70                _sbrk_r
 .text          0x000000009d017fc8       0x38 /home/fazzi/dev/Pinguino-svn/pinguino32/trunk/linux/p32/bin/../lib/gcc/mips-elf/4.5.2/../../../../mips-elf/lib/libc.a(lib_a-s_isinfd.o)
                0x000000009d017fc8                __isinfd
 .text          0x000000009d018000       0x2c /home/fazzi/dev/Pinguino-svn/pinguino32/trunk/linux/p32/bin/../lib/gcc/mips-elf/4.5.2/../../../../mips-elf/lib/libc.a(lib_a-s_isnand.o)
                0x000000009d018000                __isnand
 .text          0x000000009d01802c       0xbc /home/fazzi/dev/Pinguino-svn/pinguino32/trunk/linux/p32/bin/../lib/gcc/mips-elf/4.5.2/../../../../mips-elf/lib/libc.a(lib_a-callocr.o)
                0x000000009d01802c                _calloc_r
 .text          0x000000009d0180e8      0x258 /home/fazzi/dev/Pinguino-svn/pinguino32/trunk/linux/p32/bin/../lib/gcc/mips-elf/4.5.2/../../../../mips-elf/lib/libc.a(lib_a-reent.o)
                0x000000009d0180e8                _wrapup_reent
                0x000000009d0181b0                cleanup_glue
                0x000000009d0181f4                _reclaim_reent
 .text          0x000000009d018340      0x620 /home/fazzi/dev/Pinguino-svn/pinguino32/trunk/linux/p32/bin/../lib/gcc/mips-elf/4.5.2/soft-float/el/libgcc.a(_udivdi3.o)
                0x000000009d018340                __udivdi3
 .text          0x000000009d018960      0x618 /home/fazzi/dev/Pinguino-svn/pinguino32/trunk/linux/p32/bin/../lib/gcc/mips-elf/4.5.2/soft-float/el/libgcc.a(_umoddi3.o)
                0x000000009d018960                __umoddi3
 .text          0x000000009d018f78       0x8c /home/fazzi/dev/Pinguino-svn/pinguino32/trunk/linux/p32/bin/../lib/gcc/mips-elf/4.5.2/soft-float/el/libgcc.a(_ge_df.o)
                0x000000009d018f78                __gedf2
 .text          0x000000009d019004      0x120 /home/fazzi/dev/Pinguino-svn/pinguino32/trunk/linux/p32/bin/../lib/gcc/mips-elf/4.5.2/soft-float/el/libgcc.a(_usi_to_df.o)
                0x000000009d019004                __floatunsidf
 .text          0x000000009d019124       0x58 /home/fazzi/dev/Pinguino-svn/pinguino32/trunk/linux/p32/bin/../lib/gcc/mips-elf/4.5.2/soft-float/el/crtend.o
 .text          0x000000009d01917c        0x0 /home/fazzi/dev/Pinguino-svn/pinguino32/trunk/linux/p32/bin/../lib/gcc/mips-elf/4.5.2/soft-float/el/crtn.o
 *(.text.*personality*)
 *(.gnu.warning)
 *(.mips16.fn.*)
 *(.mips16.call.*)
                0x000000009d01917c                _text_end = .

.init           0x000000009d01917c       0x38
 .init          0x000000009d01917c        0x8 /home/fazzi/dev/Pinguino-svn/pinguino32/trunk/linux/p32/bin/../lib/gcc/mips-elf/4.5.2/soft-float/el/crti.o
                0x000000009d01917c                _init
 .init          0x000000009d019184       0x10 /home/fazzi/dev/Pinguino-svn/pinguino32/trunk/linux/p32/bin/../lib/gcc/mips-elf/4.5.2/soft-float/el/crtbegin.o
 .init          0x000000009d019194       0x10 /home/fazzi/dev/Pinguino-svn/pinguino32/trunk/linux/p32/bin/../lib/gcc/mips-elf/4.5.2/soft-float/el/crtend.o
 .init          0x000000009d0191a4       0x10 /home/fazzi/dev/Pinguino-svn/pinguino32/trunk/linux/p32/bin/../lib/gcc/mips-elf/4.5.2/soft-float/el/crtn.o

.fini           0x000000009d0191b4       0x28
 .fini          0x000000009d0191b4        0x8 /home/fazzi/dev/Pinguino-svn/pinguino32/trunk/linux/p32/bin/../lib/gcc/mips-elf/4.5.2/soft-float/el/crti.o
                0x000000009d0191b4                _fini
 .fini          0x000000009d0191bc       0x10 /home/fazzi/dev/Pinguino-svn/pinguino32/trunk/linux/p32/bin/../lib/gcc/mips-elf/4.5.2/soft-float/el/crtbegin.o
 .fini          0x000000009d0191cc       0x10 /home/fazzi/dev/Pinguino-svn/pinguino32/trunk/linux/p32/bin/../lib/gcc/mips-elf/4.5.2/soft-float/el/crtn.o

.rodata         0x000000009d0191e0     0x2010
 *(.rodata .rodata.* .gnu.linkonce.r.*)
 .rodata.str1.4
                0x000000009d0191e0      0x3db /tmp/ccASVfed.o
                                        0x3dc (size before relaxing)
 *fill*         0x000000009d0195bb        0x1 00
 .rodata        0x000000009d0195bc     0x14ec /tmp/ccASVfed.o
                0x000000009d019670                portmask
                0x000000009d0197ac                pinmask
                0x000000009d0198e8                sins
                0x000000009d019a54                SmallFont
                0x000000009d019ec8                BigFont
 .rodata.str1.4
                0x000000009d01aaa8        0x5 /home/fazzi/dev/Pinguino-svn/pinguino32/trunk/linux/p32/bin/../lib/gcc/mips-elf/4.5.2/../../../../mips-elf/lib/libm.a(lib_a-wf_pow.o)
                                          0x8 (size before relaxing)
 .rodata.str1.4
                0x0000000000000000        0x5 /home/fazzi/dev/Pinguino-svn/pinguino32/trunk/linux/p32/bin/../lib/gcc/mips-elf/4.5.2/../../../../mips-elf/lib/libm.a(lib_a-ef_pow.o)
                                          0x4 (size before relaxing)
 *fill*         0x000000009d01aaad        0x3 00
 .rodata        0x000000009d01aab0       0x10 /home/fazzi/dev/Pinguino-svn/pinguino32/trunk/linux/p32/bin/../lib/gcc/mips-elf/4.5.2/../../../../mips-elf/lib/libm.a(lib_a-s_rint.o)
 .rodata.cst4   0x000000009d01aac0        0x4 /home/fazzi/dev/Pinguino-svn/pinguino32/trunk/linux/p32/bin/../lib/gcc/mips-elf/4.5.2/soft-float/el/libgcc.a(_si_to_sf.o)
 .rodata        0x000000009d01aac4       0x10 /home/fazzi/dev/Pinguino-svn/pinguino32/trunk/linux/p32/bin/../lib/gcc/mips-elf/4.5.2/soft-float/el/libgcc.a(_thenan_sf.o)
                0x000000009d01aac4                __thenan_sf
 *fill*         0x000000009d01aad4        0x4 00
 .rodata.cst8   0x000000009d01aad8        0x8 /home/fazzi/dev/Pinguino-svn/pinguino32/trunk/linux/p32/bin/../lib/gcc/mips-elf/4.5.2/soft-float/el/libgcc.a(_si_to_df.o)
 .rodata        0x000000009d01aae0       0x18 /home/fazzi/dev/Pinguino-svn/pinguino32/trunk/linux/p32/bin/../lib/gcc/mips-elf/4.5.2/soft-float/el/libgcc.a(_thenan_df.o)
                0x000000009d01aae0                __thenan_df
 .rodata        0x000000009d01aaf8      0x100 /home/fazzi/dev/Pinguino-svn/pinguino32/trunk/linux/p32/bin/../lib/gcc/mips-elf/4.5.2/soft-float/el/libgcc.a(_clz.o)
                0x000000009d01aaf8                __clz_tab
 .rodata.str1.4
                0x000000009d01abf8        0x2 /home/fazzi/dev/Pinguino-svn/pinguino32/trunk/linux/p32/bin/../lib/gcc/mips-elf/4.5.2/../../../../mips-elf/lib/libc.a(lib_a-impure.o)
                                          0x4 (size before relaxing)
 *fill*         0x000000009d01abfa        0x2 00
 .rodata.str1.4
                0x000000009d01abfc       0x56 /home/fazzi/dev/Pinguino-svn/pinguino32/trunk/linux/p32/bin/../lib/gcc/mips-elf/4.5.2/../../../../mips-elf/lib/libc.a(lib_a-svfprintf.o)
                                         0x60 (size before relaxing)
 *fill*         0x000000009d01ac52        0x2 00
 .rodata        0x000000009d01ac54      0x184 /home/fazzi/dev/Pinguino-svn/pinguino32/trunk/linux/p32/bin/../lib/gcc/mips-elf/4.5.2/../../../../mips-elf/lib/libc.a(lib_a-svfprintf.o)
 .rodata        0x000000009d01add8      0x284 /home/fazzi/dev/Pinguino-svn/pinguino32/trunk/linux/p32/bin/../lib/gcc/mips-elf/4.5.2/../../../../mips-elf/lib/libc.a(lib_a-ctype_.o)
                0x000000009d01add8                _ctype_
 .rodata.str1.4
                0x000000009d01b05c       0x10 /home/fazzi/dev/Pinguino-svn/pinguino32/trunk/linux/p32/bin/../lib/gcc/mips-elf/4.5.2/../../../../mips-elf/lib/libc.a(lib_a-dtoa.o)
                                         0x14 (size before relaxing)
 .rodata        0x000000009d01b06c       0x18 /home/fazzi/dev/Pinguino-svn/pinguino32/trunk/linux/p32/bin/../lib/gcc/mips-elf/4.5.2/../../../../mips-elf/lib/libc.a(lib_a-dtoa.o)
 .rodata.str1.4
                0x000000009d01b084       0x10 /home/fazzi/dev/Pinguino-svn/pinguino32/trunk/linux/p32/bin/../lib/gcc/mips-elf/4.5.2/../../../../mips-elf/lib/libc.a(lib_a-locale.o)
                                         0x18 (size before relaxing)
 .rodata        0x000000009d01b094       0x30 /home/fazzi/dev/Pinguino-svn/pinguino32/trunk/linux/p32/bin/../lib/gcc/mips-elf/4.5.2/../../../../mips-elf/lib/libc.a(lib_a-locale.o)
 *fill*         0x000000009d01b0c4        0x4 00
 .rodata        0x000000009d01b0c8      0x128 /home/fazzi/dev/Pinguino-svn/pinguino32/trunk/linux/p32/bin/../lib/gcc/mips-elf/4.5.2/../../../../mips-elf/lib/libc.a(lib_a-mprec.o)
                0x000000009d01b0c8                __mprec_tens
                0x000000009d01b190                __mprec_bigtens
                0x000000009d01b1b8                __mprec_tinytens
 *(.rodata1)
                0x000000009d01b1f0                . = ALIGN (0x4)

.sdata2         0x000000009d01b1f0        0x0
 *(.sdata2 .sdata2.* .gnu.linkonce.s2.*)
                0x000000009d01b1f0                . = ALIGN (0x4)

.sbss2          0x000000009d01b1f0        0x0
 *(.sbss2 .sbss2.* .gnu.linkonce.sb2.*)
                0x000000009d01b1f0                . = ALIGN (0x4)

.eh_frame_hdr
 *(.eh_frame_hdr)

.eh_frame       0x000000009d01b1f0       0x40
 *(.eh_frame)
 .eh_frame      0x000000009d01b1f0        0x0 /home/fazzi/dev/Pinguino-svn/pinguino32/trunk/linux/p32/bin/../lib/gcc/mips-elf/4.5.2/soft-float/el/crtbegin.o
 .eh_frame      0x000000009d01b1f0       0x28 /home/fazzi/dev/Pinguino-svn/pinguino32/trunk/linux/p32/bin/../lib/gcc/mips-elf/4.5.2/soft-float/el/libgcc.a(_udivdi3.o)
 .eh_frame      0x000000009d01b218       0x14 /home/fazzi/dev/Pinguino-svn/pinguino32/trunk/linux/p32/bin/../lib/gcc/mips-elf/4.5.2/soft-float/el/libgcc.a(_umoddi3.o)
                                         0x28 (size before relaxing)
 .eh_frame      0x000000009d01b22c        0x4 /home/fazzi/dev/Pinguino-svn/pinguino32/trunk/linux/p32/bin/../lib/gcc/mips-elf/4.5.2/soft-float/el/crtend.o

.rel.dyn        0x000000009d01b230        0x0
 .rel.dyn       0x0000000000000000        0x0 /home/fazzi/dev/Pinguino-svn/pinguino32/trunk/linux/p32/bin/../lib/gcc/mips-elf/4.5.2/../../../../mips-elf/lib/libc.a(lib_a-mallocr.o)

.dbg_data       0x00000000a0000004        0x0
                0x00000000a0000004                . = (. + DEFINED (_DEBUGGER)?0x200:0x0)

.data           0x00000000a0000008      0x82c load address 0x000000009d01b230
                0x00000000a0000008                _data_begin = .
 *(.data .data.* .gnu.linkonce.d.*)
 .data          0x00000000a0000008        0x0 /home/fazzi/dev/Pinguino-svn/pinguino32/trunk/linux/p32/bin/../lib/gcc/mips-elf/4.5.2/soft-float/el/crti.o
 .data          0x00000000a0000008        0x0 /home/fazzi/dev/Pinguino-svn/pinguino32/trunk/linux/p32/bin/../lib/gcc/mips-elf/4.5.2/soft-float/el/crtbegin.o
 .data          0x00000000a0000008       0x18 /tmp/ccASVfed.o
                0x00000000a0000008                latitude
                0x00000000a0000014                longitude
 .data          0x00000000a0000020        0x0 /tmp/cc359DsA.o
 .data          0x00000000a0000020        0x0 /home/fazzi/dev/Pinguino-svn/pinguino32/trunk/p32/obj/non-free/processor.o
 .data          0x00000000a0000020        0x0 /tmp/ccO5qUJX.o
 .data          0x00000000a0000020        0x0 /home/fazzi/dev/Pinguino-svn/pinguino32/trunk/linux/p32/bin/../lib/gcc/mips-elf/4.5.2/../../../../mips-elf/lib/libm.a(lib_a-wf_pow.o)
 .data          0x00000000a0000020        0x0 /home/fazzi/dev/Pinguino-svn/pinguino32/trunk/linux/p32/bin/../lib/gcc/mips-elf/4.5.2/../../../../mips-elf/lib/libm.a(lib_a-ef_pow.o)
 .data          0x00000000a0000020        0x0 /home/fazzi/dev/Pinguino-svn/pinguino32/trunk/linux/p32/bin/../lib/gcc/mips-elf/4.5.2/../../../../mips-elf/lib/libm.a(lib_a-ef_sqrt.o)
 .data          0x00000000a0000020        0x0 /home/fazzi/dev/Pinguino-svn/pinguino32/trunk/linux/p32/bin/../lib/gcc/mips-elf/4.5.2/../../../../mips-elf/lib/libm.a(lib_a-sf_fabs.o)
 .data          0x00000000a0000020        0x0 /home/fazzi/dev/Pinguino-svn/pinguino32/trunk/linux/p32/bin/../lib/gcc/mips-elf/4.5.2/../../../../mips-elf/lib/libm.a(lib_a-sf_finite.o)
 .data          0x00000000a0000020        0x0 /home/fazzi/dev/Pinguino-svn/pinguino32/trunk/linux/p32/bin/../lib/gcc/mips-elf/4.5.2/../../../../mips-elf/lib/libm.a(lib_a-sf_isnan.o)
 .data          0x00000000a0000020        0x0 /home/fazzi/dev/Pinguino-svn/pinguino32/trunk/linux/p32/bin/../lib/gcc/mips-elf/4.5.2/../../../../mips-elf/lib/libm.a(lib_a-sf_nan.o)
 .data          0x00000000a0000020        0x0 /home/fazzi/dev/Pinguino-svn/pinguino32/trunk/linux/p32/bin/../lib/gcc/mips-elf/4.5.2/../../../../mips-elf/lib/libm.a(lib_a-sf_scalbn.o)
 .data          0x00000000a0000020        0x0 /home/fazzi/dev/Pinguino-svn/pinguino32/trunk/linux/p32/bin/../lib/gcc/mips-elf/4.5.2/../../../../mips-elf/lib/libm.a(lib_a-s_lib_ver.o)
 .data          0x00000000a0000020        0x0 /home/fazzi/dev/Pinguino-svn/pinguino32/trunk/linux/p32/bin/../lib/gcc/mips-elf/4.5.2/../../../../mips-elf/lib/libm.a(lib_a-s_matherr.o)
 .data          0x00000000a0000020        0x0 /home/fazzi/dev/Pinguino-svn/pinguino32/trunk/linux/p32/bin/../lib/gcc/mips-elf/4.5.2/../../../../mips-elf/lib/libm.a(lib_a-s_rint.o)
 .data          0x00000000a0000020        0x0 /home/fazzi/dev/Pinguino-svn/pinguino32/trunk/linux/p32/bin/../lib/gcc/mips-elf/4.5.2/../../../../mips-elf/lib/libm.a(lib_a-sf_copysign.o)
 .data          0x00000000a0000020        0x0 /home/fazzi/dev/Pinguino-svn/pinguino32/trunk/linux/p32/bin/../lib/gcc/mips-elf/4.5.2/soft-float/el/libgcc.a(_addsub_sf.o)
 .data          0x00000000a0000020        0x0 /home/fazzi/dev/Pinguino-svn/pinguino32/trunk/linux/p32/bin/../lib/gcc/mips-elf/4.5.2/soft-float/el/libgcc.a(_mul_sf.o)
 .data          0x00000000a0000020        0x0 /home/fazzi/dev/Pinguino-svn/pinguino32/trunk/linux/p32/bin/../lib/gcc/mips-elf/4.5.2/soft-float/el/libgcc.a(_div_sf.o)
 .data          0x00000000a0000020        0x0 /home/fazzi/dev/Pinguino-svn/pinguino32/trunk/linux/p32/bin/../lib/gcc/mips-elf/4.5.2/soft-float/el/libgcc.a(_eq_sf.o)
 .data          0x00000000a0000020        0x0 /home/fazzi/dev/Pinguino-svn/pinguino32/trunk/linux/p32/bin/../lib/gcc/mips-elf/4.5.2/soft-float/el/libgcc.a(_gt_sf.o)
 .data          0x00000000a0000020        0x0 /home/fazzi/dev/Pinguino-svn/pinguino32/trunk/linux/p32/bin/../lib/gcc/mips-elf/4.5.2/soft-float/el/libgcc.a(_lt_sf.o)
 .data          0x00000000a0000020        0x0 /home/fazzi/dev/Pinguino-svn/pinguino32/trunk/linux/p32/bin/../lib/gcc/mips-elf/4.5.2/soft-float/el/libgcc.a(_le_sf.o)
 .data          0x00000000a0000020        0x0 /home/fazzi/dev/Pinguino-svn/pinguino32/trunk/linux/p32/bin/../lib/gcc/mips-elf/4.5.2/soft-float/el/libgcc.a(_si_to_sf.o)
 .data          0x00000000a0000020        0x0 /home/fazzi/dev/Pinguino-svn/pinguino32/trunk/linux/p32/bin/../lib/gcc/mips-elf/4.5.2/soft-float/el/libgcc.a(_sf_to_si.o)
 .data          0x00000000a0000020        0x0 /home/fazzi/dev/Pinguino-svn/pinguino32/trunk/linux/p32/bin/../lib/gcc/mips-elf/4.5.2/soft-float/el/libgcc.a(_sf_to_df.o)
 .data          0x00000000a0000020        0x0 /home/fazzi/dev/Pinguino-svn/pinguino32/trunk/linux/p32/bin/../lib/gcc/mips-elf/4.5.2/soft-float/el/libgcc.a(_thenan_sf.o)
 .data          0x00000000a0000020        0x0 /home/fazzi/dev/Pinguino-svn/pinguino32/trunk/linux/p32/bin/../lib/gcc/mips-elf/4.5.2/soft-float/el/libgcc.a(_addsub_df.o)
 .data          0x00000000a0000020        0x0 /home/fazzi/dev/Pinguino-svn/pinguino32/trunk/linux/p32/bin/../lib/gcc/mips-elf/4.5.2/soft-float/el/libgcc.a(_mul_df.o)
 .data          0x00000000a0000020        0x0 /home/fazzi/dev/Pinguino-svn/pinguino32/trunk/linux/p32/bin/../lib/gcc/mips-elf/4.5.2/soft-float/el/libgcc.a(_div_df.o)
 .data          0x00000000a0000020        0x0 /home/fazzi/dev/Pinguino-svn/pinguino32/trunk/linux/p32/bin/../lib/gcc/mips-elf/4.5.2/soft-float/el/libgcc.a(_eq_df.o)
 .data          0x00000000a0000020        0x0 /home/fazzi/dev/Pinguino-svn/pinguino32/trunk/linux/p32/bin/../lib/gcc/mips-elf/4.5.2/soft-float/el/libgcc.a(_ne_df.o)
 .data          0x00000000a0000020        0x0 /home/fazzi/dev/Pinguino-svn/pinguino32/trunk/linux/p32/bin/../lib/gcc/mips-elf/4.5.2/soft-float/el/libgcc.a(_gt_df.o)
 .data          0x00000000a0000020        0x0 /home/fazzi/dev/Pinguino-svn/pinguino32/trunk/linux/p32/bin/../lib/gcc/mips-elf/4.5.2/soft-float/el/libgcc.a(_lt_df.o)
 .data          0x00000000a0000020        0x0 /home/fazzi/dev/Pinguino-svn/pinguino32/trunk/linux/p32/bin/../lib/gcc/mips-elf/4.5.2/soft-float/el/libgcc.a(_si_to_df.o)
 .data          0x00000000a0000020        0x0 /home/fazzi/dev/Pinguino-svn/pinguino32/trunk/linux/p32/bin/../lib/gcc/mips-elf/4.5.2/soft-float/el/libgcc.a(_df_to_si.o)
 .data          0x00000000a0000020        0x0 /home/fazzi/dev/Pinguino-svn/pinguino32/trunk/linux/p32/bin/../lib/gcc/mips-elf/4.5.2/soft-float/el/libgcc.a(_make_df.o)
 .data          0x00000000a0000020        0x0 /home/fazzi/dev/Pinguino-svn/pinguino32/trunk/linux/p32/bin/../lib/gcc/mips-elf/4.5.2/soft-float/el/libgcc.a(_df_to_sf.o)
 .data          0x00000000a0000020        0x0 /home/fazzi/dev/Pinguino-svn/pinguino32/trunk/linux/p32/bin/../lib/gcc/mips-elf/4.5.2/soft-float/el/libgcc.a(_thenan_df.o)
 .data          0x00000000a0000020        0x0 /home/fazzi/dev/Pinguino-svn/pinguino32/trunk/linux/p32/bin/../lib/gcc/mips-elf/4.5.2/soft-float/el/libgcc.a(_clzsi2.o)
 .data          0x00000000a0000020        0x0 /home/fazzi/dev/Pinguino-svn/pinguino32/trunk/linux/p32/bin/../lib/gcc/mips-elf/4.5.2/soft-float/el/libgcc.a(_pack_sf.o)
 .data          0x00000000a0000020        0x0 /home/fazzi/dev/Pinguino-svn/pinguino32/trunk/linux/p32/bin/../lib/gcc/mips-elf/4.5.2/soft-float/el/libgcc.a(_unpack_sf.o)
 .data          0x00000000a0000020        0x0 /home/fazzi/dev/Pinguino-svn/pinguino32/trunk/linux/p32/bin/../lib/gcc/mips-elf/4.5.2/soft-float/el/libgcc.a(_fpcmp_parts_sf.o)
 .data          0x00000000a0000020        0x0 /home/fazzi/dev/Pinguino-svn/pinguino32/trunk/linux/p32/bin/../lib/gcc/mips-elf/4.5.2/soft-float/el/libgcc.a(_make_sf.o)
 .data          0x00000000a0000020        0x0 /home/fazzi/dev/Pinguino-svn/pinguino32/trunk/linux/p32/bin/../lib/gcc/mips-elf/4.5.2/soft-float/el/libgcc.a(_pack_df.o)
 .data          0x00000000a0000020        0x0 /home/fazzi/dev/Pinguino-svn/pinguino32/trunk/linux/p32/bin/../lib/gcc/mips-elf/4.5.2/soft-float/el/libgcc.a(_unpack_df.o)
 .data          0x00000000a0000020        0x0 /home/fazzi/dev/Pinguino-svn/pinguino32/trunk/linux/p32/bin/../lib/gcc/mips-elf/4.5.2/soft-float/el/libgcc.a(_fpcmp_parts_df.o)
 .data          0x00000000a0000020        0x0 /home/fazzi/dev/Pinguino-svn/pinguino32/trunk/linux/p32/bin/../lib/gcc/mips-elf/4.5.2/soft-float/el/libgcc.a(_lshrdi3.o)
 .data          0x00000000a0000020        0x0 /home/fazzi/dev/Pinguino-svn/pinguino32/trunk/linux/p32/bin/../lib/gcc/mips-elf/4.5.2/soft-float/el/libgcc.a(_ashldi3.o)
 .data          0x00000000a0000020        0x0 /home/fazzi/dev/Pinguino-svn/pinguino32/trunk/linux/p32/bin/../lib/gcc/mips-elf/4.5.2/soft-float/el/libgcc.a(_clz.o)
 .data          0x00000000a0000020        0x0 /home/fazzi/dev/Pinguino-svn/pinguino32/trunk/linux/p32/bin/../lib/gcc/mips-elf/4.5.2/../../../../mips-elf/lib/libc.a(lib_a-atoi.o)
 .data          0x00000000a0000020        0x0 /home/fazzi/dev/Pinguino-svn/pinguino32/trunk/linux/p32/bin/../lib/gcc/mips-elf/4.5.2/../../../../mips-elf/lib/libc.a(lib_a-errno.o)
 .data          0x00000000a0000020      0x400 /home/fazzi/dev/Pinguino-svn/pinguino32/trunk/linux/p32/bin/../lib/gcc/mips-elf/4.5.2/../../../../mips-elf/lib/libc.a(lib_a-impure.o)
 .data          0x00000000a0000420        0x0 /home/fazzi/dev/Pinguino-svn/pinguino32/trunk/linux/p32/bin/../lib/gcc/mips-elf/4.5.2/../../../../mips-elf/lib/libc.a(lib_a-memset.o)
 .data          0x00000000a0000420        0x0 /home/fazzi/dev/Pinguino-svn/pinguino32/trunk/linux/p32/bin/../lib/gcc/mips-elf/4.5.2/../../../../mips-elf/lib/libc.a(lib_a-sprintf.o)
 .data          0x00000000a0000420        0x0 /home/fazzi/dev/Pinguino-svn/pinguino32/trunk/linux/p32/bin/../lib/gcc/mips-elf/4.5.2/../../../../mips-elf/lib/libc.a(lib_a-strcat.o)
 .data          0x00000000a0000420        0x0 /home/fazzi/dev/Pinguino-svn/pinguino32/trunk/linux/p32/bin/../lib/gcc/mips-elf/4.5.2/../../../../mips-elf/lib/libc.a(lib_a-strcmp.o)
 .data          0x00000000a0000420        0x0 /home/fazzi/dev/Pinguino-svn/pinguino32/trunk/linux/p32/bin/../lib/gcc/mips-elf/4.5.2/../../../../mips-elf/lib/libc.a(lib_a-strcpy.o)
 .data          0x00000000a0000420        0x0 /home/fazzi/dev/Pinguino-svn/pinguino32/trunk/linux/p32/bin/../lib/gcc/mips-elf/4.5.2/../../../../mips-elf/lib/libc.a(lib_a-strlen.o)
 .data          0x00000000a0000420        0x0 /home/fazzi/dev/Pinguino-svn/pinguino32/trunk/linux/p32/bin/../lib/gcc/mips-elf/4.5.2/../../../../mips-elf/lib/libc.a(lib_a-strncpy.o)
 .data          0x00000000a0000420        0x0 /home/fazzi/dev/Pinguino-svn/pinguino32/trunk/linux/p32/bin/../lib/gcc/mips-elf/4.5.2/../../../../mips-elf/lib/libc.a(lib_a-strtol.o)
 .data          0x00000000a0000420        0x0 /home/fazzi/dev/Pinguino-svn/pinguino32/trunk/linux/p32/bin/../lib/gcc/mips-elf/4.5.2/../../../../mips-elf/lib/libc.a(lib_a-svfprintf.o)
 .data          0x00000000a0000420        0x0 /home/fazzi/dev/Pinguino-svn/pinguino32/trunk/linux/p32/bin/../lib/gcc/mips-elf/4.5.2/../../../../mips-elf/lib/libc.a(lib_a-ctype_.o)
 .data          0x00000000a0000420        0x0 /home/fazzi/dev/Pinguino-svn/pinguino32/trunk/linux/p32/bin/../lib/gcc/mips-elf/4.5.2/../../../../mips-elf/lib/libc.a(lib_a-dtoa.o)
 .data          0x00000000a0000420        0x0 /home/fazzi/dev/Pinguino-svn/pinguino32/trunk/linux/p32/bin/../lib/gcc/mips-elf/4.5.2/../../../../mips-elf/lib/libc.a(lib_a-freer.o)
 .data          0x00000000a0000420        0xc /home/fazzi/dev/Pinguino-svn/pinguino32/trunk/linux/p32/bin/../lib/gcc/mips-elf/4.5.2/../../../../mips-elf/lib/libc.a(lib_a-locale.o)
                0x00000000a0000420                __lc_ctype
 .data          0x00000000a000042c      0x408 /home/fazzi/dev/Pinguino-svn/pinguino32/trunk/linux/p32/bin/../lib/gcc/mips-elf/4.5.2/../../../../mips-elf/lib/libc.a(lib_a-mallocr.o)
                0x00000000a000042c                __malloc_av_
 .data          0x00000000a0000834        0x0 /home/fazzi/dev/Pinguino-svn/pinguino32/trunk/linux/p32/bin/../lib/gcc/mips-elf/4.5.2/../../../../mips-elf/lib/libc.a(lib_a-memchr.o)
 .data          0x00000000a0000834        0x0 /home/fazzi/dev/Pinguino-svn/pinguino32/trunk/linux/p32/bin/../lib/gcc/mips-elf/4.5.2/../../../../mips-elf/lib/libc.a(lib_a-memcpy.o)
 .data          0x00000000a0000834        0x0 /home/fazzi/dev/Pinguino-svn/pinguino32/trunk/linux/p32/bin/../lib/gcc/mips-elf/4.5.2/../../../../mips-elf/lib/libc.a(lib_a-memmove.o)
 .data          0x00000000a0000834        0x0 /home/fazzi/dev/Pinguino-svn/pinguino32/trunk/linux/p32/bin/../lib/gcc/mips-elf/4.5.2/../../../../mips-elf/lib/libc.a(lib_a-mlock.o)
 .data          0x00000000a0000834        0x0 /home/fazzi/dev/Pinguino-svn/pinguino32/trunk/linux/p32/bin/../lib/gcc/mips-elf/4.5.2/../../../../mips-elf/lib/libc.a(lib_a-mprec.o)
 .data          0x00000000a0000834        0x0 /home/fazzi/dev/Pinguino-svn/pinguino32/trunk/linux/p32/bin/../lib/gcc/mips-elf/4.5.2/../../../../mips-elf/lib/libc.a(lib_a-reallocr.o)
 .data          0x00000000a0000834        0x0 /home/fazzi/dev/Pinguino-svn/pinguino32/trunk/linux/p32/bin/../lib/gcc/mips-elf/4.5.2/../../../../mips-elf/lib/libc.a(lib_a-sbrkr.o)
 .data          0x00000000a0000834        0x0 /home/fazzi/dev/Pinguino-svn/pinguino32/trunk/linux/p32/bin/../lib/gcc/mips-elf/4.5.2/../../../../mips-elf/lib/libc.a(lib_a-s_isinfd.o)
 .data          0x00000000a0000834        0x0 /home/fazzi/dev/Pinguino-svn/pinguino32/trunk/linux/p32/bin/../lib/gcc/mips-elf/4.5.2/../../../../mips-elf/lib/libc.a(lib_a-s_isnand.o)
 .data          0x00000000a0000834        0x0 /home/fazzi/dev/Pinguino-svn/pinguino32/trunk/linux/p32/bin/../lib/gcc/mips-elf/4.5.2/../../../../mips-elf/lib/libc.a(lib_a-callocr.o)
 .data          0x00000000a0000834        0x0 /home/fazzi/dev/Pinguino-svn/pinguino32/trunk/linux/p32/bin/../lib/gcc/mips-elf/4.5.2/../../../../mips-elf/lib/libc.a(lib_a-reent.o)
 .data          0x00000000a0000834        0x0 /home/fazzi/dev/Pinguino-svn/pinguino32/trunk/linux/p32/bin/../lib/gcc/mips-elf/4.5.2/soft-float/el/libgcc.a(_udivdi3.o)
 .data          0x00000000a0000834        0x0 /home/fazzi/dev/Pinguino-svn/pinguino32/trunk/linux/p32/bin/../lib/gcc/mips-elf/4.5.2/soft-float/el/libgcc.a(_umoddi3.o)
 .data          0x00000000a0000834        0x0 /home/fazzi/dev/Pinguino-svn/pinguino32/trunk/linux/p32/bin/../lib/gcc/mips-elf/4.5.2/soft-float/el/libgcc.a(_ge_df.o)
 .data          0x00000000a0000834        0x0 /home/fazzi/dev/Pinguino-svn/pinguino32/trunk/linux/p32/bin/../lib/gcc/mips-elf/4.5.2/soft-float/el/libgcc.a(_usi_to_df.o)
 .data          0x00000000a0000834        0x0 /home/fazzi/dev/Pinguino-svn/pinguino32/trunk/linux/p32/bin/../lib/gcc/mips-elf/4.5.2/soft-float/el/crtend.o
 .data          0x00000000a0000834        0x0 /home/fazzi/dev/Pinguino-svn/pinguino32/trunk/linux/p32/bin/../lib/gcc/mips-elf/4.5.2/soft-float/el/crtn.o
 *(.gnu.linkonce.d.*personality*)
 *(.data1)
                0x000000009d01b230                _data_image_begin = LOADADDR (.data)

.ctors          0x00000000a0000834        0x8 load address 0x000000009d01ba5c
 .ctors         0x00000000a0000834        0x4 /home/fazzi/dev/Pinguino-svn/pinguino32/trunk/linux/p32/bin/../lib/gcc/mips-elf/4.5.2/soft-float/el/crtbegin.o
 .ctors         0x00000000a0000838        0x4 /home/fazzi/dev/Pinguino-svn/pinguino32/trunk/linux/p32/bin/../lib/gcc/mips-elf/4.5.2/soft-float/el/crtend.o

.dtors          0x00000000a000083c        0x8 load address 0x000000009d01ba64
 .dtors         0x00000000a000083c        0x4 /home/fazzi/dev/Pinguino-svn/pinguino32/trunk/linux/p32/bin/../lib/gcc/mips-elf/4.5.2/soft-float/el/crtbegin.o
 .dtors         0x00000000a0000840        0x4 /home/fazzi/dev/Pinguino-svn/pinguino32/trunk/linux/p32/bin/../lib/gcc/mips-elf/4.5.2/soft-float/el/crtend.o
                0x00000000a0000840                __DTOR_END__

.jcr            0x00000000a0000844        0x4 load address 0x000000009d01ba6c
 .jcr           0x00000000a0000844        0x0 /home/fazzi/dev/Pinguino-svn/pinguino32/trunk/linux/p32/bin/../lib/gcc/mips-elf/4.5.2/soft-float/el/crtbegin.o
 .jcr           0x00000000a0000844        0x4 /home/fazzi/dev/Pinguino-svn/pinguino32/trunk/linux/p32/bin/../lib/gcc/mips-elf/4.5.2/soft-float/el/crtend.o

.eh_frame
 *(.eh_frame)
                0x00000000a0008840                _gp = (ALIGN (0x10) + 0x7ff0)

.got
 *(.got.plt)
 *(.got)

.sdata          0x00000000a0000848      0x178 load address 0x000000009d01ba70
                0x00000000a0000848                _sdata_begin = .
 *(.sdata .sdata.* .gnu.linkonce.s.*)
 .sdata         0x00000000a0000848        0x4 /home/fazzi/dev/Pinguino-svn/pinguino32/trunk/linux/p32/bin/../lib/gcc/mips-elf/4.5.2/soft-float/el/crtbegin.o
                0x00000000a0000848                __dso_handle
 *fill*         0x00000000a000084c        0x4 00
 .sdata         0x00000000a0000850       0x20 /tmp/ccASVfed.o
                0x00000000a0000850                linha
                0x00000000a0000851                NorteSul
                0x00000000a0000852                LesteOeste
 .sdata         0x00000000a0000870       0x30 /home/fazzi/dev/Pinguino-svn/pinguino32/trunk/linux/p32/bin/../lib/gcc/mips-elf/4.5.2/../../../../mips-elf/lib/libm.a(lib_a-wf_pow.o)
 .sdata         0x00000000a00008a0       0x90 /home/fazzi/dev/Pinguino-svn/pinguino32/trunk/linux/p32/bin/../lib/gcc/mips-elf/4.5.2/../../../../mips-elf/lib/libm.a(lib_a-ef_pow.o)
 .sdata         0x00000000a0000930       0x10 /home/fazzi/dev/Pinguino-svn/pinguino32/trunk/linux/p32/bin/../lib/gcc/mips-elf/4.5.2/../../../../mips-elf/lib/libm.a(lib_a-sf_scalbn.o)
 .sdata         0x00000000a0000940        0x4 /home/fazzi/dev/Pinguino-svn/pinguino32/trunk/linux/p32/bin/../lib/gcc/mips-elf/4.5.2/../../../../mips-elf/lib/libm.a(lib_a-s_lib_ver.o)
                0x00000000a0000940                __fdlib_version
 .sdata         0x00000000a0000944        0x8 /home/fazzi/dev/Pinguino-svn/pinguino32/trunk/linux/p32/bin/../lib/gcc/mips-elf/4.5.2/../../../../mips-elf/lib/libc.a(lib_a-impure.o)
                0x00000000a0000944                _impure_ptr
                0x00000000a0000948                _global_impure_ptr
 .sdata         0x00000000a000094c        0x8 /home/fazzi/dev/Pinguino-svn/pinguino32/trunk/linux/p32/bin/../lib/gcc/mips-elf/4.5.2/../../../../mips-elf/lib/libc.a(lib_a-ctype_.o)
                0x00000000a000094c                __ctype_ptr
                0x00000000a0000950                __ctype_ptr__
 *fill*         0x00000000a0000954        0x4 00
 .sdata         0x00000000a0000958       0x48 /home/fazzi/dev/Pinguino-svn/pinguino32/trunk/linux/p32/bin/../lib/gcc/mips-elf/4.5.2/../../../../mips-elf/lib/libc.a(lib_a-dtoa.o)
 .sdata         0x00000000a00009a0        0x8 /home/fazzi/dev/Pinguino-svn/pinguino32/trunk/linux/p32/bin/../lib/gcc/mips-elf/4.5.2/../../../../mips-elf/lib/libc.a(lib_a-locale.o)
                0x00000000a00009a0                __mb_cur_max
 .sdata         0x00000000a00009a8        0x8 /home/fazzi/dev/Pinguino-svn/pinguino32/trunk/linux/p32/bin/../lib/gcc/mips-elf/4.5.2/../../../../mips-elf/lib/libc.a(lib_a-mallocr.o)
                0x00000000a00009a8                __malloc_trim_threshold
                0x00000000a00009ac                __malloc_sbrk_base
 .sdata         0x00000000a00009b0       0x10 /home/fazzi/dev/Pinguino-svn/pinguino32/trunk/linux/p32/bin/../lib/gcc/mips-elf/4.5.2/../../../../mips-elf/lib/libc.a(lib_a-mprec.o)
                0x00000000a00009c0                _sdata_end = .

.lit8
 *(.lit8)

.lit4
 *(.lit4)
                0x00000000a00009c0                . = ALIGN (0x4)
                0x00000000a00009c0                _data_end = .
                0x00000000a00009c0                _bss_begin = .

.sbss           0x00000000a00009c0       0x70 load address 0x000000009d01bbe8
                0x00000000a00009c0                _sbss_begin = .
 *(.dynsbss)
 *(.sbss .sbss.* .gnu.linkonce.sb.*)
 .sbss          0x00000000a00009c0        0xc /tmp/ccASVfed.o
                0x00000000a00009c0                tipo_dado
                0x00000000a00009c1                fixed
                0x00000000a00009c2                conectado
                0x00000000a00009c4                inicio
 .sbss          0x00000000a00009cc        0xc /home/fazzi/dev/Pinguino-svn/pinguino32/trunk/linux/p32/bin/../lib/gcc/mips-elf/4.5.2/../../../../mips-elf/lib/libc.a(lib_a-locale.o)
                0x00000000a00009cc                __nlocale_changed
                0x00000000a00009d0                __mlocale_changed
                0x00000000a00009d4                _PathLocale
 .sbss          0x00000000a00009d8        0xc /home/fazzi/dev/Pinguino-svn/pinguino32/trunk/linux/p32/bin/../lib/gcc/mips-elf/4.5.2/../../../../mips-elf/lib/libc.a(lib_a-mallocr.o)
                0x00000000a00009d8                __malloc_top_pad
                0x00000000a00009dc                __malloc_max_sbrked_mem
                0x00000000a00009e0                __malloc_max_total_mem
 *(.scommon)
 .scommon       0x00000000a00009e4       0x47 /tmp/ccASVfed.o
                0x00000000a00009e4                UART2rpointer
                0x00000000a00009e8                T_CS
                0x00000000a00009ec                TP_X
                0x00000000a00009f0                fcolorg
                0x00000000a00009f1                bcolorg
                0x00000000a00009f2                fsize
                0x00000000a00009f4                UART1wpointer
                0x00000000a00009f8                UART1rpointer
                0x00000000a00009fc                orient_t
                0x00000000a0000a00                _millis
                0x00000000a0000a04                bcolorr
                0x00000000a0000a05                prec
                0x00000000a0000a06                orient
                0x00000000a0000a08                UART3wpointer
                0x00000000a0000a0c                bcolorb
                0x00000000a0000a10                UART2wpointer
                0x00000000a0000a14                T_IRQ
                0x00000000a0000a18                heap_ptr
                0x00000000a0000a1c                TP_Y
                0x00000000a0000a20                T_DIN
                0x00000000a0000a21                fcolorb
                0x00000000a0000a24                UART3rpointer
                0x00000000a0000a28                fcolorr
                0x00000000a0000a29                T_CLK
                0x00000000a0000a2a                T_DOUT
 *fill*         0x00000000a0000a2b        0x1 00
 .scommon       0x00000000a0000a2c        0x4 /home/fazzi/dev/Pinguino-svn/pinguino32/trunk/linux/p32/bin/../lib/gcc/mips-elf/4.5.2/../../../../mips-elf/lib/libc.a(lib_a-reent.o)
                0x00000000a0000a2c                errno
                0x00000000a0000a30                _sbss_end = .

.bss            0x00000000a0000a30      0x218 load address 0x000000009d01bbe8
 *(.dynbss)
 *(.bss .bss.* .gnu.linkonce.b.*)
 .bss           0x00000000a0000a30        0x0 /home/fazzi/dev/Pinguino-svn/pinguino32/trunk/linux/p32/bin/../lib/gcc/mips-elf/4.5.2/soft-float/el/crti.o
 .bss           0x00000000a0000a30       0x20 /home/fazzi/dev/Pinguino-svn/pinguino32/trunk/linux/p32/bin/../lib/gcc/mips-elf/4.5.2/soft-float/el/crtbegin.o
 .bss           0x00000000a0000a50       0x50 /tmp/ccASVfed.o
 .bss           0x00000000a0000aa0        0x0 /tmp/cc359DsA.o
 .bss           0x00000000a0000aa0        0x0 /home/fazzi/dev/Pinguino-svn/pinguino32/trunk/p32/obj/non-free/processor.o
 .bss           0x00000000a0000aa0        0x0 /tmp/ccO5qUJX.o
 .bss           0x00000000a0000aa0        0x0 /home/fazzi/dev/Pinguino-svn/pinguino32/trunk/linux/p32/bin/../lib/gcc/mips-elf/4.5.2/../../../../mips-elf/lib/libm.a(lib_a-wf_pow.o)
 .bss           0x00000000a0000aa0        0x0 /home/fazzi/dev/Pinguino-svn/pinguino32/trunk/linux/p32/bin/../lib/gcc/mips-elf/4.5.2/../../../../mips-elf/lib/libm.a(lib_a-ef_pow.o)
 .bss           0x00000000a0000aa0        0x0 /home/fazzi/dev/Pinguino-svn/pinguino32/trunk/linux/p32/bin/../lib/gcc/mips-elf/4.5.2/../../../../mips-elf/lib/libm.a(lib_a-ef_sqrt.o)
 .bss           0x00000000a0000aa0        0x0 /home/fazzi/dev/Pinguino-svn/pinguino32/trunk/linux/p32/bin/../lib/gcc/mips-elf/4.5.2/../../../../mips-elf/lib/libm.a(lib_a-sf_fabs.o)
 .bss           0x00000000a0000aa0        0x0 /home/fazzi/dev/Pinguino-svn/pinguino32/trunk/linux/p32/bin/../lib/gcc/mips-elf/4.5.2/../../../../mips-elf/lib/libm.a(lib_a-sf_finite.o)
 .bss           0x00000000a0000aa0        0x0 /home/fazzi/dev/Pinguino-svn/pinguino32/trunk/linux/p32/bin/../lib/gcc/mips-elf/4.5.2/../../../../mips-elf/lib/libm.a(lib_a-sf_isnan.o)
 .bss           0x00000000a0000aa0        0x0 /home/fazzi/dev/Pinguino-svn/pinguino32/trunk/linux/p32/bin/../lib/gcc/mips-elf/4.5.2/../../../../mips-elf/lib/libm.a(lib_a-sf_nan.o)
 .bss           0x00000000a0000aa0        0x0 /home/fazzi/dev/Pinguino-svn/pinguino32/trunk/linux/p32/bin/../lib/gcc/mips-elf/4.5.2/../../../../mips-elf/lib/libm.a(lib_a-sf_scalbn.o)
 .bss           0x00000000a0000aa0        0x0 /home/fazzi/dev/Pinguino-svn/pinguino32/trunk/linux/p32/bin/../lib/gcc/mips-elf/4.5.2/../../../../mips-elf/lib/libm.a(lib_a-s_lib_ver.o)
 .bss           0x00000000a0000aa0        0x0 /home/fazzi/dev/Pinguino-svn/pinguino32/trunk/linux/p32/bin/../lib/gcc/mips-elf/4.5.2/../../../../mips-elf/lib/libm.a(lib_a-s_matherr.o)
 .bss           0x00000000a0000aa0        0x0 /home/fazzi/dev/Pinguino-svn/pinguino32/trunk/linux/p32/bin/../lib/gcc/mips-elf/4.5.2/../../../../mips-elf/lib/libm.a(lib_a-s_rint.o)
 .bss           0x00000000a0000aa0        0x0 /home/fazzi/dev/Pinguino-svn/pinguino32/trunk/linux/p32/bin/../lib/gcc/mips-elf/4.5.2/../../../../mips-elf/lib/libm.a(lib_a-sf_copysign.o)
 .bss           0x00000000a0000aa0        0x0 /home/fazzi/dev/Pinguino-svn/pinguino32/trunk/linux/p32/bin/../lib/gcc/mips-elf/4.5.2/soft-float/el/libgcc.a(_addsub_sf.o)
 .bss           0x00000000a0000aa0        0x0 /home/fazzi/dev/Pinguino-svn/pinguino32/trunk/linux/p32/bin/../lib/gcc/mips-elf/4.5.2/soft-float/el/libgcc.a(_mul_sf.o)
 .bss           0x00000000a0000aa0        0x0 /home/fazzi/dev/Pinguino-svn/pinguino32/trunk/linux/p32/bin/../lib/gcc/mips-elf/4.5.2/soft-float/el/libgcc.a(_div_sf.o)
 .bss           0x00000000a0000aa0        0x0 /home/fazzi/dev/Pinguino-svn/pinguino32/trunk/linux/p32/bin/../lib/gcc/mips-elf/4.5.2/soft-float/el/libgcc.a(_eq_sf.o)
 .bss           0x00000000a0000aa0        0x0 /home/fazzi/dev/Pinguino-svn/pinguino32/trunk/linux/p32/bin/../lib/gcc/mips-elf/4.5.2/soft-float/el/libgcc.a(_gt_sf.o)
 .bss           0x00000000a0000aa0        0x0 /home/fazzi/dev/Pinguino-svn/pinguino32/trunk/linux/p32/bin/../lib/gcc/mips-elf/4.5.2/soft-float/el/libgcc.a(_lt_sf.o)
 .bss           0x00000000a0000aa0        0x0 /home/fazzi/dev/Pinguino-svn/pinguino32/trunk/linux/p32/bin/../lib/gcc/mips-elf/4.5.2/soft-float/el/libgcc.a(_le_sf.o)
 .bss           0x00000000a0000aa0        0x0 /home/fazzi/dev/Pinguino-svn/pinguino32/trunk/linux/p32/bin/../lib/gcc/mips-elf/4.5.2/soft-float/el/libgcc.a(_si_to_sf.o)
 .bss           0x00000000a0000aa0        0x0 /home/fazzi/dev/Pinguino-svn/pinguino32/trunk/linux/p32/bin/../lib/gcc/mips-elf/4.5.2/soft-float/el/libgcc.a(_sf_to_si.o)
 .bss           0x00000000a0000aa0        0x0 /home/fazzi/dev/Pinguino-svn/pinguino32/trunk/linux/p32/bin/../lib/gcc/mips-elf/4.5.2/soft-float/el/libgcc.a(_sf_to_df.o)
 .bss           0x00000000a0000aa0        0x0 /home/fazzi/dev/Pinguino-svn/pinguino32/trunk/linux/p32/bin/../lib/gcc/mips-elf/4.5.2/soft-float/el/libgcc.a(_thenan_sf.o)
 .bss           0x00000000a0000aa0        0x0 /home/fazzi/dev/Pinguino-svn/pinguino32/trunk/linux/p32/bin/../lib/gcc/mips-elf/4.5.2/soft-float/el/libgcc.a(_addsub_df.o)
 .bss           0x00000000a0000aa0        0x0 /home/fazzi/dev/Pinguino-svn/pinguino32/trunk/linux/p32/bin/../lib/gcc/mips-elf/4.5.2/soft-float/el/libgcc.a(_mul_df.o)
 .bss           0x00000000a0000aa0        0x0 /home/fazzi/dev/Pinguino-svn/pinguino32/trunk/linux/p32/bin/../lib/gcc/mips-elf/4.5.2/soft-float/el/libgcc.a(_div_df.o)
 .bss           0x00000000a0000aa0        0x0 /home/fazzi/dev/Pinguino-svn/pinguino32/trunk/linux/p32/bin/../lib/gcc/mips-elf/4.5.2/soft-float/el/libgcc.a(_eq_df.o)
 .bss           0x00000000a0000aa0        0x0 /home/fazzi/dev/Pinguino-svn/pinguino32/trunk/linux/p32/bin/../lib/gcc/mips-elf/4.5.2/soft-float/el/libgcc.a(_ne_df.o)
 .bss           0x00000000a0000aa0        0x0 /home/fazzi/dev/Pinguino-svn/pinguino32/trunk/linux/p32/bin/../lib/gcc/mips-elf/4.5.2/soft-float/el/libgcc.a(_gt_df.o)
 .bss           0x00000000a0000aa0        0x0 /home/fazzi/dev/Pinguino-svn/pinguino32/trunk/linux/p32/bin/../lib/gcc/mips-elf/4.5.2/soft-float/el/libgcc.a(_lt_df.o)
 .bss           0x00000000a0000aa0        0x0 /home/fazzi/dev/Pinguino-svn/pinguino32/trunk/linux/p32/bin/../lib/gcc/mips-elf/4.5.2/soft-float/el/libgcc.a(_si_to_df.o)
 .bss           0x00000000a0000aa0        0x0 /home/fazzi/dev/Pinguino-svn/pinguino32/trunk/linux/p32/bin/../lib/gcc/mips-elf/4.5.2/soft-float/el/libgcc.a(_df_to_si.o)
 .bss           0x00000000a0000aa0        0x0 /home/fazzi/dev/Pinguino-svn/pinguino32/trunk/linux/p32/bin/../lib/gcc/mips-elf/4.5.2/soft-float/el/libgcc.a(_make_df.o)
 .bss           0x00000000a0000aa0        0x0 /home/fazzi/dev/Pinguino-svn/pinguino32/trunk/linux/p32/bin/../lib/gcc/mips-elf/4.5.2/soft-float/el/libgcc.a(_df_to_sf.o)
 .bss           0x00000000a0000aa0        0x0 /home/fazzi/dev/Pinguino-svn/pinguino32/trunk/linux/p32/bin/../lib/gcc/mips-elf/4.5.2/soft-float/el/libgcc.a(_thenan_df.o)
 .bss           0x00000000a0000aa0        0x0 /home/fazzi/dev/Pinguino-svn/pinguino32/trunk/linux/p32/bin/../lib/gcc/mips-elf/4.5.2/soft-float/el/libgcc.a(_clzsi2.o)
 .bss           0x00000000a0000aa0        0x0 /home/fazzi/dev/Pinguino-svn/pinguino32/trunk/linux/p32/bin/../lib/gcc/mips-elf/4.5.2/soft-float/el/libgcc.a(_pack_sf.o)
 .bss           0x00000000a0000aa0        0x0 /home/fazzi/dev/Pinguino-svn/pinguino32/trunk/linux/p32/bin/../lib/gcc/mips-elf/4.5.2/soft-float/el/libgcc.a(_unpack_sf.o)
 .bss           0x00000000a0000aa0        0x0 /home/fazzi/dev/Pinguino-svn/pinguino32/trunk/linux/p32/bin/../lib/gcc/mips-elf/4.5.2/soft-float/el/libgcc.a(_fpcmp_parts_sf.o)
 .bss           0x00000000a0000aa0        0x0 /home/fazzi/dev/Pinguino-svn/pinguino32/trunk/linux/p32/bin/../lib/gcc/mips-elf/4.5.2/soft-float/el/libgcc.a(_make_sf.o)
 .bss           0x00000000a0000aa0        0x0 /home/fazzi/dev/Pinguino-svn/pinguino32/trunk/linux/p32/bin/../lib/gcc/mips-elf/4.5.2/soft-float/el/libgcc.a(_pack_df.o)
 .bss           0x00000000a0000aa0        0x0 /home/fazzi/dev/Pinguino-svn/pinguino32/trunk/linux/p32/bin/../lib/gcc/mips-elf/4.5.2/soft-float/el/libgcc.a(_unpack_df.o)
 .bss           0x00000000a0000aa0        0x0 /home/fazzi/dev/Pinguino-svn/pinguino32/trunk/linux/p32/bin/../lib/gcc/mips-elf/4.5.2/soft-float/el/libgcc.a(_fpcmp_parts_df.o)
 .bss           0x00000000a0000aa0        0x0 /home/fazzi/dev/Pinguino-svn/pinguino32/trunk/linux/p32/bin/../lib/gcc/mips-elf/4.5.2/soft-float/el/libgcc.a(_lshrdi3.o)
 .bss           0x00000000a0000aa0        0x0 /home/fazzi/dev/Pinguino-svn/pinguino32/trunk/linux/p32/bin/../lib/gcc/mips-elf/4.5.2/soft-float/el/libgcc.a(_ashldi3.o)
 .bss           0x00000000a0000aa0        0x0 /home/fazzi/dev/Pinguino-svn/pinguino32/trunk/linux/p32/bin/../lib/gcc/mips-elf/4.5.2/soft-float/el/libgcc.a(_clz.o)
 .bss           0x00000000a0000aa0        0x0 /home/fazzi/dev/Pinguino-svn/pinguino32/trunk/linux/p32/bin/../lib/gcc/mips-elf/4.5.2/../../../../mips-elf/lib/libc.a(lib_a-atoi.o)
 .bss           0x00000000a0000aa0        0x0 /home/fazzi/dev/Pinguino-svn/pinguino32/trunk/linux/p32/bin/../lib/gcc/mips-elf/4.5.2/../../../../mips-elf/lib/libc.a(lib_a-errno.o)
 .bss           0x00000000a0000aa0        0x0 /home/fazzi/dev/Pinguino-svn/pinguino32/trunk/linux/p32/bin/../lib/gcc/mips-elf/4.5.2/../../../../mips-elf/lib/libc.a(lib_a-impure.o)
 .bss           0x00000000a0000aa0        0x0 /home/fazzi/dev/Pinguino-svn/pinguino32/trunk/linux/p32/bin/../lib/gcc/mips-elf/4.5.2/../../../../mips-elf/lib/libc.a(lib_a-memset.o)
 .bss           0x00000000a0000aa0        0x0 /home/fazzi/dev/Pinguino-svn/pinguino32/trunk/linux/p32/bin/../lib/gcc/mips-elf/4.5.2/../../../../mips-elf/lib/libc.a(lib_a-sprintf.o)
 .bss           0x00000000a0000aa0        0x0 /home/fazzi/dev/Pinguino-svn/pinguino32/trunk/linux/p32/bin/../lib/gcc/mips-elf/4.5.2/../../../../mips-elf/lib/libc.a(lib_a-strcat.o)
 .bss           0x00000000a0000aa0        0x0 /home/fazzi/dev/Pinguino-svn/pinguino32/trunk/linux/p32/bin/../lib/gcc/mips-elf/4.5.2/../../../../mips-elf/lib/libc.a(lib_a-strcmp.o)
 .bss           0x00000000a0000aa0        0x0 /home/fazzi/dev/Pinguino-svn/pinguino32/trunk/linux/p32/bin/../lib/gcc/mips-elf/4.5.2/../../../../mips-elf/lib/libc.a(lib_a-strcpy.o)
 .bss           0x00000000a0000aa0        0x0 /home/fazzi/dev/Pinguino-svn/pinguino32/trunk/linux/p32/bin/../lib/gcc/mips-elf/4.5.2/../../../../mips-elf/lib/libc.a(lib_a-strlen.o)
 .bss           0x00000000a0000aa0        0x0 /home/fazzi/dev/Pinguino-svn/pinguino32/trunk/linux/p32/bin/../lib/gcc/mips-elf/4.5.2/../../../../mips-elf/lib/libc.a(lib_a-strncpy.o)
 .bss           0x00000000a0000aa0        0x0 /home/fazzi/dev/Pinguino-svn/pinguino32/trunk/linux/p32/bin/../lib/gcc/mips-elf/4.5.2/../../../../mips-elf/lib/libc.a(lib_a-strtol.o)
 .bss           0x00000000a0000aa0        0x0 /home/fazzi/dev/Pinguino-svn/pinguino32/trunk/linux/p32/bin/../lib/gcc/mips-elf/4.5.2/../../../../mips-elf/lib/libc.a(lib_a-svfprintf.o)
 .bss           0x00000000a0000aa0        0x0 /home/fazzi/dev/Pinguino-svn/pinguino32/trunk/linux/p32/bin/../lib/gcc/mips-elf/4.5.2/../../../../mips-elf/lib/libc.a(lib_a-ctype_.o)
 .bss           0x00000000a0000aa0        0x0 /home/fazzi/dev/Pinguino-svn/pinguino32/trunk/linux/p32/bin/../lib/gcc/mips-elf/4.5.2/../../../../mips-elf/lib/libc.a(lib_a-dtoa.o)
 .bss           0x00000000a0000aa0        0x0 /home/fazzi/dev/Pinguino-svn/pinguino32/trunk/linux/p32/bin/../lib/gcc/mips-elf/4.5.2/../../../../mips-elf/lib/libc.a(lib_a-freer.o)
 .bss           0x00000000a0000aa0        0x0 /home/fazzi/dev/Pinguino-svn/pinguino32/trunk/linux/p32/bin/../lib/gcc/mips-elf/4.5.2/../../../../mips-elf/lib/libc.a(lib_a-locale.o)
 .bss           0x00000000a0000aa0       0x28 /home/fazzi/dev/Pinguino-svn/pinguino32/trunk/linux/p32/bin/../lib/gcc/mips-elf/4.5.2/../../../../mips-elf/lib/libc.a(lib_a-mallocr.o)
                0x00000000a0000aa0                __malloc_current_mallinfo
 .bss           0x00000000a0000ac8        0x0 /home/fazzi/dev/Pinguino-svn/pinguino32/trunk/linux/p32/bin/../lib/gcc/mips-elf/4.5.2/../../../../mips-elf/lib/libc.a(lib_a-memchr.o)
 .bss           0x00000000a0000ac8        0x0 /home/fazzi/dev/Pinguino-svn/pinguino32/trunk/linux/p32/bin/../lib/gcc/mips-elf/4.5.2/../../../../mips-elf/lib/libc.a(lib_a-memcpy.o)
 .bss           0x00000000a0000ac8        0x0 /home/fazzi/dev/Pinguino-svn/pinguino32/trunk/linux/p32/bin/../lib/gcc/mips-elf/4.5.2/../../../../mips-elf/lib/libc.a(lib_a-memmove.o)
 .bss           0x00000000a0000ac8        0x0 /home/fazzi/dev/Pinguino-svn/pinguino32/trunk/linux/p32/bin/../lib/gcc/mips-elf/4.5.2/../../../../mips-elf/lib/libc.a(lib_a-mlock.o)
 .bss           0x00000000a0000ac8        0x0 /home/fazzi/dev/Pinguino-svn/pinguino32/trunk/linux/p32/bin/../lib/gcc/mips-elf/4.5.2/../../../../mips-elf/lib/libc.a(lib_a-mprec.o)
 .bss           0x00000000a0000ac8        0x0 /home/fazzi/dev/Pinguino-svn/pinguino32/trunk/linux/p32/bin/../lib/gcc/mips-elf/4.5.2/../../../../mips-elf/lib/libc.a(lib_a-reallocr.o)
 .bss           0x00000000a0000ac8        0x0 /home/fazzi/dev/Pinguino-svn/pinguino32/trunk/linux/p32/bin/../lib/gcc/mips-elf/4.5.2/../../../../mips-elf/lib/libc.a(lib_a-sbrkr.o)
 .bss           0x00000000a0000ac8        0x0 /home/fazzi/dev/Pinguino-svn/pinguino32/trunk/linux/p32/bin/../lib/gcc/mips-elf/4.5.2/../../../../mips-elf/lib/libc.a(lib_a-s_isinfd.o)
 .bss           0x00000000a0000ac8        0x0 /home/fazzi/dev/Pinguino-svn/pinguino32/trunk/linux/p32/bin/../lib/gcc/mips-elf/4.5.2/../../../../mips-elf/lib/libc.a(lib_a-s_isnand.o)
 .bss           0x00000000a0000ac8        0x0 /home/fazzi/dev/Pinguino-svn/pinguino32/trunk/linux/p32/bin/../lib/gcc/mips-elf/4.5.2/../../../../mips-elf/lib/libc.a(lib_a-callocr.o)
 .bss           0x00000000a0000ac8        0x0 /home/fazzi/dev/Pinguino-svn/pinguino32/trunk/linux/p32/bin/../lib/gcc/mips-elf/4.5.2/../../../../mips-elf/lib/libc.a(lib_a-reent.o)
 .bss           0x00000000a0000ac8        0x0 /home/fazzi/dev/Pinguino-svn/pinguino32/trunk/linux/p32/bin/../lib/gcc/mips-elf/4.5.2/soft-float/el/libgcc.a(_udivdi3.o)
 .bss           0x00000000a0000ac8        0x0 /home/fazzi/dev/Pinguino-svn/pinguino32/trunk/linux/p32/bin/../lib/gcc/mips-elf/4.5.2/soft-float/el/libgcc.a(_umoddi3.o)
 .bss           0x00000000a0000ac8        0x0 /home/fazzi/dev/Pinguino-svn/pinguino32/trunk/linux/p32/bin/../lib/gcc/mips-elf/4.5.2/soft-float/el/libgcc.a(_ge_df.o)
 .bss           0x00000000a0000ac8        0x0 /home/fazzi/dev/Pinguino-svn/pinguino32/trunk/linux/p32/bin/../lib/gcc/mips-elf/4.5.2/soft-float/el/libgcc.a(_usi_to_df.o)
 .bss           0x00000000a0000ac8        0x0 /home/fazzi/dev/Pinguino-svn/pinguino32/trunk/linux/p32/bin/../lib/gcc/mips-elf/4.5.2/soft-float/el/crtend.o
 .bss           0x00000000a0000ac8        0x0 /home/fazzi/dev/Pinguino-svn/pinguino32/trunk/linux/p32/bin/../lib/gcc/mips-elf/4.5.2/soft-float/el/crtn.o
 *(COMMON)
 COMMON         0x00000000a0000ac8      0x180 /tmp/ccASVfed.o
                0x00000000a0000ac8                UART2SerialBuffer
                0x00000000a0000b48                UART1SerialBuffer
                0x00000000a0000bc8                UART3SerialBuffer
                0x00000000a0000c48                . = ALIGN (0x4)
                0x00000000a0000c48                . = ALIGN (0x4)
                0x00000000a0000c48                _end = .
                0x00000000a0000c48                _bss_end = .

.heap           0x00000000a0000c48     0x2000 load address 0x000000009d01bbe8
                0x00000000a0000c48                _heap = .
                0x00000000a0002c48                . = (. + _min_heap_size)
 *fill*         0x00000000a0000c48     0x2000 00

.stack          0x00000000a0002c48      0x400 load address 0x000000009d01bbe8
                0x00000000a0002c48                _splim = .
                0x00000000a0002c48                _SPLIM = .
                0x00000000a0003048                . = (. + _min_stack_size)
 *fill*         0x00000000a0002c48      0x400 00

.ramfunc        0x00000000a0003800        0x0 load address 0x000000009d01bbe8
                0x00000000a0003800                _ramfunc_begin = .
 *(.ramfunc .ramfunc.*)
                0x00000000a0003800                . = ALIGN (0x4)
                0x00000000a0003800                _ramfunc_end = .
                0x000000009d01bbe8                _ramfunc_image_begin = LOADADDR (.ramfunc)
                0x0000000000000000                _ramfunc_length = SIZEOF (.ramfunc)
                0x00000000000037fc                _bmxdkpba_address = (_ramfunc_begin - ORIGIN (kseg1_data_mem))
                0x0000000000007ffc                _bmxdudba_address = 0x7ffc
                0x0000000000007ffc                _bmxdupba_address = 0x7ffc
                0x00000000a0008000                _stack = (_ramfunc_length > 0x0)?(_ramfunc_begin - 0x4):(ORIGIN (kseg1_data_mem) + 0x7ffc)
                0x0000000000000001                ASSERT (((_min_stack_size + _min_heap_size) <= (_stack - _heap)), Not enough space to allocate both stack and heap.  Reduce heap and/or stack size.)

.pdr            0x0000000000000000     0x1ea0
 *(.pdr)
 .pdr           0x0000000000000000        0x0 /home/fazzi/dev/Pinguino-svn/pinguino32/trunk/linux/p32/bin/../lib/gcc/mips-elf/4.5.2/soft-float/el/crti.o
 .pdr           0x0000000000000000        0x0 /home/fazzi/dev/Pinguino-svn/pinguino32/trunk/linux/p32/bin/../lib/gcc/mips-elf/4.5.2/soft-float/el/crtbegin.o
 .pdr           0x0000000000000000      0xfa0 /tmp/ccASVfed.o
 .pdr           0x0000000000000fa0       0xa0 /tmp/cc359DsA.o
 .pdr           0x0000000000001040        0x0 /home/fazzi/dev/Pinguino-svn/pinguino32/trunk/p32/obj/non-free/processor.o
 .pdr           0x0000000000001040      0x100 /tmp/ccO5qUJX.o
 .pdr           0x0000000000001140       0x20 /home/fazzi/dev/Pinguino-svn/pinguino32/trunk/linux/p32/bin/../lib/gcc/mips-elf/4.5.2/../../../../mips-elf/lib/libm.a(lib_a-wf_pow.o)
 .pdr           0x0000000000001160       0x20 /home/fazzi/dev/Pinguino-svn/pinguino32/trunk/linux/p32/bin/../lib/gcc/mips-elf/4.5.2/../../../../mips-elf/lib/libm.a(lib_a-ef_pow.o)
 .pdr           0x0000000000001180       0x20 /home/fazzi/dev/Pinguino-svn/pinguino32/trunk/linux/p32/bin/../lib/gcc/mips-elf/4.5.2/../../../../mips-elf/lib/libm.a(lib_a-ef_sqrt.o)
 .pdr           0x00000000000011a0       0x20 /home/fazzi/dev/Pinguino-svn/pinguino32/trunk/linux/p32/bin/../lib/gcc/mips-elf/4.5.2/../../../../mips-elf/lib/libm.a(lib_a-sf_fabs.o)
 .pdr           0x00000000000011c0       0x20 /home/fazzi/dev/Pinguino-svn/pinguino32/trunk/linux/p32/bin/../lib/gcc/mips-elf/4.5.2/../../../../mips-elf/lib/libm.a(lib_a-sf_finite.o)
 .pdr           0x00000000000011e0       0x20 /home/fazzi/dev/Pinguino-svn/pinguino32/trunk/linux/p32/bin/../lib/gcc/mips-elf/4.5.2/../../../../mips-elf/lib/libm.a(lib_a-sf_isnan.o)
 .pdr           0x0000000000001200       0x20 /home/fazzi/dev/Pinguino-svn/pinguino32/trunk/linux/p32/bin/../lib/gcc/mips-elf/4.5.2/../../../../mips-elf/lib/libm.a(lib_a-sf_nan.o)
 .pdr           0x0000000000001220       0x20 /home/fazzi/dev/Pinguino-svn/pinguino32/trunk/linux/p32/bin/../lib/gcc/mips-elf/4.5.2/../../../../mips-elf/lib/libm.a(lib_a-sf_scalbn.o)
 .pdr           0x0000000000001240        0x0 /home/fazzi/dev/Pinguino-svn/pinguino32/trunk/linux/p32/bin/../lib/gcc/mips-elf/4.5.2/../../../../mips-elf/lib/libm.a(lib_a-s_lib_ver.o)
 .pdr           0x0000000000001240       0x20 /home/fazzi/dev/Pinguino-svn/pinguino32/trunk/linux/p32/bin/../lib/gcc/mips-elf/4.5.2/../../../../mips-elf/lib/libm.a(lib_a-s_matherr.o)
 .pdr           0x0000000000001260       0x20 /home/fazzi/dev/Pinguino-svn/pinguino32/trunk/linux/p32/bin/../lib/gcc/mips-elf/4.5.2/../../../../mips-elf/lib/libm.a(lib_a-s_rint.o)
 .pdr           0x0000000000001280       0x20 /home/fazzi/dev/Pinguino-svn/pinguino32/trunk/linux/p32/bin/../lib/gcc/mips-elf/4.5.2/../../../../mips-elf/lib/libm.a(lib_a-sf_copysign.o)
 .pdr           0x00000000000012a0       0x60 /home/fazzi/dev/Pinguino-svn/pinguino32/trunk/linux/p32/bin/../lib/gcc/mips-elf/4.5.2/soft-float/el/libgcc.a(_addsub_sf.o)
 .pdr           0x0000000000001300       0x20 /home/fazzi/dev/Pinguino-svn/pinguino32/trunk/linux/p32/bin/../lib/gcc/mips-elf/4.5.2/soft-float/el/libgcc.a(_mul_sf.o)
 .pdr           0x0000000000001320       0x20 /home/fazzi/dev/Pinguino-svn/pinguino32/trunk/linux/p32/bin/../lib/gcc/mips-elf/4.5.2/soft-float/el/libgcc.a(_div_sf.o)
 .pdr           0x0000000000001340       0x20 /home/fazzi/dev/Pinguino-svn/pinguino32/trunk/linux/p32/bin/../lib/gcc/mips-elf/4.5.2/soft-float/el/libgcc.a(_eq_sf.o)
 .pdr           0x0000000000001360       0x20 /home/fazzi/dev/Pinguino-svn/pinguino32/trunk/linux/p32/bin/../lib/gcc/mips-elf/4.5.2/soft-float/el/libgcc.a(_gt_sf.o)
 .pdr           0x0000000000001380       0x20 /home/fazzi/dev/Pinguino-svn/pinguino32/trunk/linux/p32/bin/../lib/gcc/mips-elf/4.5.2/soft-float/el/libgcc.a(_lt_sf.o)
 .pdr           0x00000000000013a0       0x20 /home/fazzi/dev/Pinguino-svn/pinguino32/trunk/linux/p32/bin/../lib/gcc/mips-elf/4.5.2/soft-float/el/libgcc.a(_le_sf.o)
 .pdr           0x00000000000013c0       0x20 /home/fazzi/dev/Pinguino-svn/pinguino32/trunk/linux/p32/bin/../lib/gcc/mips-elf/4.5.2/soft-float/el/libgcc.a(_si_to_sf.o)
 .pdr           0x00000000000013e0       0x20 /home/fazzi/dev/Pinguino-svn/pinguino32/trunk/linux/p32/bin/../lib/gcc/mips-elf/4.5.2/soft-float/el/libgcc.a(_sf_to_si.o)
 .pdr           0x0000000000001400       0x20 /home/fazzi/dev/Pinguino-svn/pinguino32/trunk/linux/p32/bin/../lib/gcc/mips-elf/4.5.2/soft-float/el/libgcc.a(_sf_to_df.o)
 .pdr           0x0000000000001420        0x0 /home/fazzi/dev/Pinguino-svn/pinguino32/trunk/linux/p32/bin/../lib/gcc/mips-elf/4.5.2/soft-float/el/libgcc.a(_thenan_sf.o)
 .pdr           0x0000000000001420       0x60 /home/fazzi/dev/Pinguino-svn/pinguino32/trunk/linux/p32/bin/../lib/gcc/mips-elf/4.5.2/soft-float/el/libgcc.a(_addsub_df.o)
 .pdr           0x0000000000001480       0x20 /home/fazzi/dev/Pinguino-svn/pinguino32/trunk/linux/p32/bin/../lib/gcc/mips-elf/4.5.2/soft-float/el/libgcc.a(_mul_df.o)
 .pdr           0x00000000000014a0       0x20 /home/fazzi/dev/Pinguino-svn/pinguino32/trunk/linux/p32/bin/../lib/gcc/mips-elf/4.5.2/soft-float/el/libgcc.a(_div_df.o)
 .pdr           0x00000000000014c0       0x20 /home/fazzi/dev/Pinguino-svn/pinguino32/trunk/linux/p32/bin/../lib/gcc/mips-elf/4.5.2/soft-float/el/libgcc.a(_eq_df.o)
 .pdr           0x00000000000014e0       0x20 /home/fazzi/dev/Pinguino-svn/pinguino32/trunk/linux/p32/bin/../lib/gcc/mips-elf/4.5.2/soft-float/el/libgcc.a(_ne_df.o)
 .pdr           0x0000000000001500       0x20 /home/fazzi/dev/Pinguino-svn/pinguino32/trunk/linux/p32/bin/../lib/gcc/mips-elf/4.5.2/soft-float/el/libgcc.a(_gt_df.o)
 .pdr           0x0000000000001520       0x20 /home/fazzi/dev/Pinguino-svn/pinguino32/trunk/linux/p32/bin/../lib/gcc/mips-elf/4.5.2/soft-float/el/libgcc.a(_lt_df.o)
 .pdr           0x0000000000001540       0x20 /home/fazzi/dev/Pinguino-svn/pinguino32/trunk/linux/p32/bin/../lib/gcc/mips-elf/4.5.2/soft-float/el/libgcc.a(_si_to_df.o)
 .pdr           0x0000000000001560       0x20 /home/fazzi/dev/Pinguino-svn/pinguino32/trunk/linux/p32/bin/../lib/gcc/mips-elf/4.5.2/soft-float/el/libgcc.a(_df_to_si.o)
 .pdr           0x0000000000001580       0x20 /home/fazzi/dev/Pinguino-svn/pinguino32/trunk/linux/p32/bin/../lib/gcc/mips-elf/4.5.2/soft-float/el/libgcc.a(_make_df.o)
 .pdr           0x00000000000015a0       0x20 /home/fazzi/dev/Pinguino-svn/pinguino32/trunk/linux/p32/bin/../lib/gcc/mips-elf/4.5.2/soft-float/el/libgcc.a(_df_to_sf.o)
 .pdr           0x00000000000015c0        0x0 /home/fazzi/dev/Pinguino-svn/pinguino32/trunk/linux/p32/bin/../lib/gcc/mips-elf/4.5.2/soft-float/el/libgcc.a(_thenan_df.o)
 .pdr           0x00000000000015c0       0x20 /home/fazzi/dev/Pinguino-svn/pinguino32/trunk/linux/p32/bin/../lib/gcc/mips-elf/4.5.2/soft-float/el/libgcc.a(_clzsi2.o)
 .pdr           0x00000000000015e0       0x20 /home/fazzi/dev/Pinguino-svn/pinguino32/trunk/linux/p32/bin/../lib/gcc/mips-elf/4.5.2/soft-float/el/libgcc.a(_pack_sf.o)
 .pdr           0x0000000000001600       0x20 /home/fazzi/dev/Pinguino-svn/pinguino32/trunk/linux/p32/bin/../lib/gcc/mips-elf/4.5.2/soft-float/el/libgcc.a(_unpack_sf.o)
 .pdr           0x0000000000001620       0x20 /home/fazzi/dev/Pinguino-svn/pinguino32/trunk/linux/p32/bin/../lib/gcc/mips-elf/4.5.2/soft-float/el/libgcc.a(_fpcmp_parts_sf.o)
 .pdr           0x0000000000001640       0x20 /home/fazzi/dev/Pinguino-svn/pinguino32/trunk/linux/p32/bin/../lib/gcc/mips-elf/4.5.2/soft-float/el/libgcc.a(_make_sf.o)
 .pdr           0x0000000000001660       0x20 /home/fazzi/dev/Pinguino-svn/pinguino32/trunk/linux/p32/bin/../lib/gcc/mips-elf/4.5.2/soft-float/el/libgcc.a(_pack_df.o)
 .pdr           0x0000000000001680       0x20 /home/fazzi/dev/Pinguino-svn/pinguino32/trunk/linux/p32/bin/../lib/gcc/mips-elf/4.5.2/soft-float/el/libgcc.a(_unpack_df.o)
 .pdr           0x00000000000016a0       0x20 /home/fazzi/dev/Pinguino-svn/pinguino32/trunk/linux/p32/bin/../lib/gcc/mips-elf/4.5.2/soft-float/el/libgcc.a(_fpcmp_parts_df.o)
 .pdr           0x00000000000016c0       0x20 /home/fazzi/dev/Pinguino-svn/pinguino32/trunk/linux/p32/bin/../lib/gcc/mips-elf/4.5.2/soft-float/el/libgcc.a(_lshrdi3.o)
 .pdr           0x00000000000016e0       0x20 /home/fazzi/dev/Pinguino-svn/pinguino32/trunk/linux/p32/bin/../lib/gcc/mips-elf/4.5.2/soft-float/el/libgcc.a(_ashldi3.o)
 .pdr           0x0000000000001700        0x0 /home/fazzi/dev/Pinguino-svn/pinguino32/trunk/linux/p32/bin/../lib/gcc/mips-elf/4.5.2/soft-float/el/libgcc.a(_clz.o)
 .pdr           0x0000000000001700       0x40 /home/fazzi/dev/Pinguino-svn/pinguino32/trunk/linux/p32/bin/../lib/gcc/mips-elf/4.5.2/../../../../mips-elf/lib/libc.a(lib_a-atoi.o)
 .pdr           0x0000000000001740       0x20 /home/fazzi/dev/Pinguino-svn/pinguino32/trunk/linux/p32/bin/../lib/gcc/mips-elf/4.5.2/../../../../mips-elf/lib/libc.a(lib_a-errno.o)
 .pdr           0x0000000000001760        0x0 /home/fazzi/dev/Pinguino-svn/pinguino32/trunk/linux/p32/bin/../lib/gcc/mips-elf/4.5.2/../../../../mips-elf/lib/libc.a(lib_a-impure.o)
 .pdr           0x0000000000001760       0x20 /home/fazzi/dev/Pinguino-svn/pinguino32/trunk/linux/p32/bin/../lib/gcc/mips-elf/4.5.2/../../../../mips-elf/lib/libc.a(lib_a-memset.o)
 .pdr           0x0000000000001780       0x40 /home/fazzi/dev/Pinguino-svn/pinguino32/trunk/linux/p32/bin/../lib/gcc/mips-elf/4.5.2/../../../../mips-elf/lib/libc.a(lib_a-sprintf.o)
 .pdr           0x00000000000017c0       0x20 /home/fazzi/dev/Pinguino-svn/pinguino32/trunk/linux/p32/bin/../lib/gcc/mips-elf/4.5.2/../../../../mips-elf/lib/libc.a(lib_a-strcat.o)
 .pdr           0x00000000000017e0       0x20 /home/fazzi/dev/Pinguino-svn/pinguino32/trunk/linux/p32/bin/../lib/gcc/mips-elf/4.5.2/../../../../mips-elf/lib/libc.a(lib_a-strcmp.o)
 .pdr           0x0000000000001800       0x20 /home/fazzi/dev/Pinguino-svn/pinguino32/trunk/linux/p32/bin/../lib/gcc/mips-elf/4.5.2/../../../../mips-elf/lib/libc.a(lib_a-strcpy.o)
 .pdr           0x0000000000001820       0x20 /home/fazzi/dev/Pinguino-svn/pinguino32/trunk/linux/p32/bin/../lib/gcc/mips-elf/4.5.2/../../../../mips-elf/lib/libc.a(lib_a-strlen.o)
 .pdr           0x0000000000001840       0x20 /home/fazzi/dev/Pinguino-svn/pinguino32/trunk/linux/p32/bin/../lib/gcc/mips-elf/4.5.2/../../../../mips-elf/lib/libc.a(lib_a-strncpy.o)
 .pdr           0x0000000000001860       0x40 /home/fazzi/dev/Pinguino-svn/pinguino32/trunk/linux/p32/bin/../lib/gcc/mips-elf/4.5.2/../../../../mips-elf/lib/libc.a(lib_a-strtol.o)
 .pdr           0x00000000000018a0       0x40 /home/fazzi/dev/Pinguino-svn/pinguino32/trunk/linux/p32/bin/../lib/gcc/mips-elf/4.5.2/../../../../mips-elf/lib/libc.a(lib_a-svfprintf.o)
 .pdr           0x00000000000018e0        0x0 /home/fazzi/dev/Pinguino-svn/pinguino32/trunk/linux/p32/bin/../lib/gcc/mips-elf/4.5.2/../../../../mips-elf/lib/libc.a(lib_a-ctype_.o)
 .pdr           0x00000000000018e0       0x40 /home/fazzi/dev/Pinguino-svn/pinguino32/trunk/linux/p32/bin/../lib/gcc/mips-elf/4.5.2/../../../../mips-elf/lib/libc.a(lib_a-dtoa.o)
 .pdr           0x0000000000001920       0x40 /home/fazzi/dev/Pinguino-svn/pinguino32/trunk/linux/p32/bin/../lib/gcc/mips-elf/4.5.2/../../../../mips-elf/lib/libc.a(lib_a-freer.o)
 .pdr           0x0000000000001960       0xa0 /home/fazzi/dev/Pinguino-svn/pinguino32/trunk/linux/p32/bin/../lib/gcc/mips-elf/4.5.2/../../../../mips-elf/lib/libc.a(lib_a-locale.o)
 .pdr           0x0000000000001a00       0x20 /home/fazzi/dev/Pinguino-svn/pinguino32/trunk/linux/p32/bin/../lib/gcc/mips-elf/4.5.2/../../../../mips-elf/lib/libc.a(lib_a-mallocr.o)
 .pdr           0x0000000000001a20       0x20 /home/fazzi/dev/Pinguino-svn/pinguino32/trunk/linux/p32/bin/../lib/gcc/mips-elf/4.5.2/../../../../mips-elf/lib/libc.a(lib_a-memchr.o)
 .pdr           0x0000000000001a40       0x20 /home/fazzi/dev/Pinguino-svn/pinguino32/trunk/linux/p32/bin/../lib/gcc/mips-elf/4.5.2/../../../../mips-elf/lib/libc.a(lib_a-memcpy.o)
 .pdr           0x0000000000001a60       0x20 /home/fazzi/dev/Pinguino-svn/pinguino32/trunk/linux/p32/bin/../lib/gcc/mips-elf/4.5.2/../../../../mips-elf/lib/libc.a(lib_a-memmove.o)
 .pdr           0x0000000000001a80       0x40 /home/fazzi/dev/Pinguino-svn/pinguino32/trunk/linux/p32/bin/../lib/gcc/mips-elf/4.5.2/../../../../mips-elf/lib/libc.a(lib_a-mlock.o)
 .pdr           0x0000000000001ac0      0x260 /home/fazzi/dev/Pinguino-svn/pinguino32/trunk/linux/p32/bin/../lib/gcc/mips-elf/4.5.2/../../../../mips-elf/lib/libc.a(lib_a-mprec.o)
 .pdr           0x0000000000001d20       0x20 /home/fazzi/dev/Pinguino-svn/pinguino32/trunk/linux/p32/bin/../lib/gcc/mips-elf/4.5.2/../../../../mips-elf/lib/libc.a(lib_a-reallocr.o)
 .pdr           0x0000000000001d40       0x20 /home/fazzi/dev/Pinguino-svn/pinguino32/trunk/linux/p32/bin/../lib/gcc/mips-elf/4.5.2/../../../../mips-elf/lib/libc.a(lib_a-sbrkr.o)
 .pdr           0x0000000000001d60       0x20 /home/fazzi/dev/Pinguino-svn/pinguino32/trunk/linux/p32/bin/../lib/gcc/mips-elf/4.5.2/../../../../mips-elf/lib/libc.a(lib_a-s_isinfd.o)
 .pdr           0x0000000000001d80       0x20 /home/fazzi/dev/Pinguino-svn/pinguino32/trunk/linux/p32/bin/../lib/gcc/mips-elf/4.5.2/../../../../mips-elf/lib/libc.a(lib_a-s_isnand.o)
 .pdr           0x0000000000001da0       0x20 /home/fazzi/dev/Pinguino-svn/pinguino32/trunk/linux/p32/bin/../lib/gcc/mips-elf/4.5.2/../../../../mips-elf/lib/libc.a(lib_a-callocr.o)
 .pdr           0x0000000000001dc0       0x60 /home/fazzi/dev/Pinguino-svn/pinguino32/trunk/linux/p32/bin/../lib/gcc/mips-elf/4.5.2/../../../../mips-elf/lib/libc.a(lib_a-reent.o)
 .pdr           0x0000000000001e20       0x20 /home/fazzi/dev/Pinguino-svn/pinguino32/trunk/linux/p32/bin/../lib/gcc/mips-elf/4.5.2/soft-float/el/libgcc.a(_udivdi3.o)
 .pdr           0x0000000000001e40       0x20 /home/fazzi/dev/Pinguino-svn/pinguino32/trunk/linux/p32/bin/../lib/gcc/mips-elf/4.5.2/soft-float/el/libgcc.a(_umoddi3.o)
 .pdr           0x0000000000001e60       0x20 /home/fazzi/dev/Pinguino-svn/pinguino32/trunk/linux/p32/bin/../lib/gcc/mips-elf/4.5.2/soft-float/el/libgcc.a(_ge_df.o)
 .pdr           0x0000000000001e80       0x20 /home/fazzi/dev/Pinguino-svn/pinguino32/trunk/linux/p32/bin/../lib/gcc/mips-elf/4.5.2/soft-float/el/libgcc.a(_usi_to_df.o)
 .pdr           0x0000000000001ea0        0x0 /home/fazzi/dev/Pinguino-svn/pinguino32/trunk/linux/p32/bin/../lib/gcc/mips-elf/4.5.2/soft-float/el/crtend.o
 .pdr           0x0000000000001ea0        0x0 /home/fazzi/dev/Pinguino-svn/pinguino32/trunk/linux/p32/bin/../lib/gcc/mips-elf/4.5.2/soft-float/el/crtn.o

.reginfo        0x0000000000000000       0x18
 *(.reginfo)
 .reginfo       0x0000000000000000       0x18 /home/fazzi/dev/Pinguino-svn/pinguino32/trunk/linux/p32/bin/../lib/gcc/mips-elf/4.5.2/soft-float/el/crti.o

.stab
 *(.stab)

.stabstr
 *(.stabstr)

.stab.excl
 *(.stab.excl)

.stab.exclstr
 *(.stab.exclstr)

.stab.index
 *(.stab.index)

.stab.indexstr
 *(.stab.indexstr)

.mdebug.abi32   0x0000000000000000        0x0
 .mdebug.abi32  0x0000000000000000        0x0 /home/fazzi/dev/Pinguino-svn/pinguino32/trunk/linux/p32/bin/../lib/gcc/mips-elf/4.5.2/soft-float/el/crtbegin.o
 .mdebug.abi32  0x0000000000000000        0x0 /tmp/ccASVfed.o
 .mdebug.abi32  0x0000000000000000        0x0 /home/fazzi/dev/Pinguino-svn/pinguino32/trunk/linux/p32/bin/../lib/gcc/mips-elf/4.5.2/../../../../mips-elf/lib/libm.a(lib_a-wf_pow.o)
 .mdebug.abi32  0x0000000000000000        0x0 /home/fazzi/dev/Pinguino-svn/pinguino32/trunk/linux/p32/bin/../lib/gcc/mips-elf/4.5.2/../../../../mips-elf/lib/libm.a(lib_a-ef_pow.o)
 .mdebug.abi32  0x0000000000000000        0x0 /home/fazzi/dev/Pinguino-svn/pinguino32/trunk/linux/p32/bin/../lib/gcc/mips-elf/4.5.2/../../../../mips-elf/lib/libm.a(lib_a-ef_sqrt.o)
 .mdebug.abi32  0x0000000000000000        0x0 /home/fazzi/dev/Pinguino-svn/pinguino32/trunk/linux/p32/bin/../lib/gcc/mips-elf/4.5.2/../../../../mips-elf/lib/libm.a(lib_a-sf_fabs.o)
 .mdebug.abi32  0x0000000000000000        0x0 /home/fazzi/dev/Pinguino-svn/pinguino32/trunk/linux/p32/bin/../lib/gcc/mips-elf/4.5.2/../../../../mips-elf/lib/libm.a(lib_a-sf_finite.o)
 .mdebug.abi32  0x0000000000000000        0x0 /home/fazzi/dev/Pinguino-svn/pinguino32/trunk/linux/p32/bin/../lib/gcc/mips-elf/4.5.2/../../../../mips-elf/lib/libm.a(lib_a-sf_isnan.o)
 .mdebug.abi32  0x0000000000000000        0x0 /home/fazzi/dev/Pinguino-svn/pinguino32/trunk/linux/p32/bin/../lib/gcc/mips-elf/4.5.2/../../../../mips-elf/lib/libm.a(lib_a-sf_nan.o)
 .mdebug.abi32  0x0000000000000000        0x0 /home/fazzi/dev/Pinguino-svn/pinguino32/trunk/linux/p32/bin/../lib/gcc/mips-elf/4.5.2/../../../../mips-elf/lib/libm.a(lib_a-sf_scalbn.o)
 .mdebug.abi32  0x0000000000000000        0x0 /home/fazzi/dev/Pinguino-svn/pinguino32/trunk/linux/p32/bin/../lib/gcc/mips-elf/4.5.2/../../../../mips-elf/lib/libm.a(lib_a-s_lib_ver.o)
 .mdebug.abi32  0x0000000000000000        0x0 /home/fazzi/dev/Pinguino-svn/pinguino32/trunk/linux/p32/bin/../lib/gcc/mips-elf/4.5.2/../../../../mips-elf/lib/libm.a(lib_a-s_matherr.o)
 .mdebug.abi32  0x0000000000000000        0x0 /home/fazzi/dev/Pinguino-svn/pinguino32/trunk/linux/p32/bin/../lib/gcc/mips-elf/4.5.2/../../../../mips-elf/lib/libm.a(lib_a-s_rint.o)
 .mdebug.abi32  0x0000000000000000        0x0 /home/fazzi/dev/Pinguino-svn/pinguino32/trunk/linux/p32/bin/../lib/gcc/mips-elf/4.5.2/../../../../mips-elf/lib/libm.a(lib_a-sf_copysign.o)
 .mdebug.abi32  0x0000000000000000        0x0 /home/fazzi/dev/Pinguino-svn/pinguino32/trunk/linux/p32/bin/../lib/gcc/mips-elf/4.5.2/soft-float/el/libgcc.a(_addsub_sf.o)
 .mdebug.abi32  0x0000000000000000        0x0 /home/fazzi/dev/Pinguino-svn/pinguino32/trunk/linux/p32/bin/../lib/gcc/mips-elf/4.5.2/soft-float/el/libgcc.a(_mul_sf.o)
 .mdebug.abi32  0x0000000000000000        0x0 /home/fazzi/dev/Pinguino-svn/pinguino32/trunk/linux/p32/bin/../lib/gcc/mips-elf/4.5.2/soft-float/el/libgcc.a(_div_sf.o)
 .mdebug.abi32  0x0000000000000000        0x0 /home/fazzi/dev/Pinguino-svn/pinguino32/trunk/linux/p32/bin/../lib/gcc/mips-elf/4.5.2/soft-float/el/libgcc.a(_eq_sf.o)
 .mdebug.abi32  0x0000000000000000        0x0 /home/fazzi/dev/Pinguino-svn/pinguino32/trunk/linux/p32/bin/../lib/gcc/mips-elf/4.5.2/soft-float/el/libgcc.a(_gt_sf.o)
 .mdebug.abi32  0x0000000000000000        0x0 /home/fazzi/dev/Pinguino-svn/pinguino32/trunk/linux/p32/bin/../lib/gcc/mips-elf/4.5.2/soft-float/el/libgcc.a(_lt_sf.o)
 .mdebug.abi32  0x0000000000000000        0x0 /home/fazzi/dev/Pinguino-svn/pinguino32/trunk/linux/p32/bin/../lib/gcc/mips-elf/4.5.2/soft-float/el/libgcc.a(_le_sf.o)
 .mdebug.abi32  0x0000000000000000        0x0 /home/fazzi/dev/Pinguino-svn/pinguino32/trunk/linux/p32/bin/../lib/gcc/mips-elf/4.5.2/soft-float/el/libgcc.a(_si_to_sf.o)
 .mdebug.abi32  0x0000000000000000        0x0 /home/fazzi/dev/Pinguino-svn/pinguino32/trunk/linux/p32/bin/../lib/gcc/mips-elf/4.5.2/soft-float/el/libgcc.a(_sf_to_si.o)
 .mdebug.abi32  0x0000000000000000        0x0 /home/fazzi/dev/Pinguino-svn/pinguino32/trunk/linux/p32/bin/../lib/gcc/mips-elf/4.5.2/soft-float/el/libgcc.a(_sf_to_df.o)
 .mdebug.abi32  0x0000000000000000        0x0 /home/fazzi/dev/Pinguino-svn/pinguino32/trunk/linux/p32/bin/../lib/gcc/mips-elf/4.5.2/soft-float/el/libgcc.a(_thenan_sf.o)
 .mdebug.abi32  0x0000000000000000        0x0 /home/fazzi/dev/Pinguino-svn/pinguino32/trunk/linux/p32/bin/../lib/gcc/mips-elf/4.5.2/soft-float/el/libgcc.a(_addsub_df.o)
 .mdebug.abi32  0x0000000000000000        0x0 /home/fazzi/dev/Pinguino-svn/pinguino32/trunk/linux/p32/bin/../lib/gcc/mips-elf/4.5.2/soft-float/el/libgcc.a(_mul_df.o)
 .mdebug.abi32  0x0000000000000000        0x0 /home/fazzi/dev/Pinguino-svn/pinguino32/trunk/linux/p32/bin/../lib/gcc/mips-elf/4.5.2/soft-float/el/libgcc.a(_div_df.o)
 .mdebug.abi32  0x0000000000000000        0x0 /home/fazzi/dev/Pinguino-svn/pinguino32/trunk/linux/p32/bin/../lib/gcc/mips-elf/4.5.2/soft-float/el/libgcc.a(_eq_df.o)
 .mdebug.abi32  0x0000000000000000        0x0 /home/fazzi/dev/Pinguino-svn/pinguino32/trunk/linux/p32/bin/../lib/gcc/mips-elf/4.5.2/soft-float/el/libgcc.a(_ne_df.o)
 .mdebug.abi32  0x0000000000000000        0x0 /home/fazzi/dev/Pinguino-svn/pinguino32/trunk/linux/p32/bin/../lib/gcc/mips-elf/4.5.2/soft-float/el/libgcc.a(_gt_df.o)
 .mdebug.abi32  0x0000000000000000        0x0 /home/fazzi/dev/Pinguino-svn/pinguino32/trunk/linux/p32/bin/../lib/gcc/mips-elf/4.5.2/soft-float/el/libgcc.a(_lt_df.o)
 .mdebug.abi32  0x0000000000000000        0x0 /home/fazzi/dev/Pinguino-svn/pinguino32/trunk/linux/p32/bin/../lib/gcc/mips-elf/4.5.2/soft-float/el/libgcc.a(_si_to_df.o)
 .mdebug.abi32  0x0000000000000000        0x0 /home/fazzi/dev/Pinguino-svn/pinguino32/trunk/linux/p32/bin/../lib/gcc/mips-elf/4.5.2/soft-float/el/libgcc.a(_df_to_si.o)
 .mdebug.abi32  0x0000000000000000        0x0 /home/fazzi/dev/Pinguino-svn/pinguino32/trunk/linux/p32/bin/../lib/gcc/mips-elf/4.5.2/soft-float/el/libgcc.a(_make_df.o)
 .mdebug.abi32  0x0000000000000000        0x0 /home/fazzi/dev/Pinguino-svn/pinguino32/trunk/linux/p32/bin/../lib/gcc/mips-elf/4.5.2/soft-float/el/libgcc.a(_df_to_sf.o)
 .mdebug.abi32  0x0000000000000000        0x0 /home/fazzi/dev/Pinguino-svn/pinguino32/trunk/linux/p32/bin/../lib/gcc/mips-elf/4.5.2/soft-float/el/libgcc.a(_thenan_df.o)
 .mdebug.abi32  0x0000000000000000        0x0 /home/fazzi/dev/Pinguino-svn/pinguino32/trunk/linux/p32/bin/../lib/gcc/mips-elf/4.5.2/soft-float/el/libgcc.a(_clzsi2.o)
 .mdebug.abi32  0x0000000000000000        0x0 /home/fazzi/dev/Pinguino-svn/pinguino32/trunk/linux/p32/bin/../lib/gcc/mips-elf/4.5.2/soft-float/el/libgcc.a(_pack_sf.o)
 .mdebug.abi32  0x0000000000000000        0x0 /home/fazzi/dev/Pinguino-svn/pinguino32/trunk/linux/p32/bin/../lib/gcc/mips-elf/4.5.2/soft-float/el/libgcc.a(_unpack_sf.o)
 .mdebug.abi32  0x0000000000000000        0x0 /home/fazzi/dev/Pinguino-svn/pinguino32/trunk/linux/p32/bin/../lib/gcc/mips-elf/4.5.2/soft-float/el/libgcc.a(_fpcmp_parts_sf.o)
 .mdebug.abi32  0x0000000000000000        0x0 /home/fazzi/dev/Pinguino-svn/pinguino32/trunk/linux/p32/bin/../lib/gcc/mips-elf/4.5.2/soft-float/el/libgcc.a(_make_sf.o)
 .mdebug.abi32  0x0000000000000000        0x0 /home/fazzi/dev/Pinguino-svn/pinguino32/trunk/linux/p32/bin/../lib/gcc/mips-elf/4.5.2/soft-float/el/libgcc.a(_pack_df.o)
 .mdebug.abi32  0x0000000000000000        0x0 /home/fazzi/dev/Pinguino-svn/pinguino32/trunk/linux/p32/bin/../lib/gcc/mips-elf/4.5.2/soft-float/el/libgcc.a(_unpack_df.o)
 .mdebug.abi32  0x0000000000000000        0x0 /home/fazzi/dev/Pinguino-svn/pinguino32/trunk/linux/p32/bin/../lib/gcc/mips-elf/4.5.2/soft-float/el/libgcc.a(_fpcmp_parts_df.o)
 .mdebug.abi32  0x0000000000000000        0x0 /home/fazzi/dev/Pinguino-svn/pinguino32/trunk/linux/p32/bin/../lib/gcc/mips-elf/4.5.2/soft-float/el/libgcc.a(_lshrdi3.o)
 .mdebug.abi32  0x0000000000000000        0x0 /home/fazzi/dev/Pinguino-svn/pinguino32/trunk/linux/p32/bin/../lib/gcc/mips-elf/4.5.2/soft-float/el/libgcc.a(_ashldi3.o)
 .mdebug.abi32  0x0000000000000000        0x0 /home/fazzi/dev/Pinguino-svn/pinguino32/trunk/linux/p32/bin/../lib/gcc/mips-elf/4.5.2/soft-float/el/libgcc.a(_clz.o)
 .mdebug.abi32  0x0000000000000000        0x0 /home/fazzi/dev/Pinguino-svn/pinguino32/trunk/linux/p32/bin/../lib/gcc/mips-elf/4.5.2/../../../../mips-elf/lib/libc.a(lib_a-atoi.o)
 .mdebug.abi32  0x0000000000000000        0x0 /home/fazzi/dev/Pinguino-svn/pinguino32/trunk/linux/p32/bin/../lib/gcc/mips-elf/4.5.2/../../../../mips-elf/lib/libc.a(lib_a-errno.o)
 .mdebug.abi32  0x0000000000000000        0x0 /home/fazzi/dev/Pinguino-svn/pinguino32/trunk/linux/p32/bin/../lib/gcc/mips-elf/4.5.2/../../../../mips-elf/lib/libc.a(lib_a-impure.o)
 .mdebug.abi32  0x0000000000000000        0x0 /home/fazzi/dev/Pinguino-svn/pinguino32/trunk/linux/p32/bin/../lib/gcc/mips-elf/4.5.2/../../../../mips-elf/lib/libc.a(lib_a-memset.o)
 .mdebug.abi32  0x0000000000000000        0x0 /home/fazzi/dev/Pinguino-svn/pinguino32/trunk/linux/p32/bin/../lib/gcc/mips-elf/4.5.2/../../../../mips-elf/lib/libc.a(lib_a-sprintf.o)
 .mdebug.abi32  0x0000000000000000        0x0 /home/fazzi/dev/Pinguino-svn/pinguino32/trunk/linux/p32/bin/../lib/gcc/mips-elf/4.5.2/../../../../mips-elf/lib/libc.a(lib_a-strcat.o)
 .mdebug.abi32  0x0000000000000000        0x0 /home/fazzi/dev/Pinguino-svn/pinguino32/trunk/linux/p32/bin/../lib/gcc/mips-elf/4.5.2/../../../../mips-elf/lib/libc.a(lib_a-strcmp.o)
 .mdebug.abi32  0x0000000000000000        0x0 /home/fazzi/dev/Pinguino-svn/pinguino32/trunk/linux/p32/bin/../lib/gcc/mips-elf/4.5.2/../../../../mips-elf/lib/libc.a(lib_a-strcpy.o)
 .mdebug.abi32  0x0000000000000000        0x0 /home/fazzi/dev/Pinguino-svn/pinguino32/trunk/linux/p32/bin/../lib/gcc/mips-elf/4.5.2/../../../../mips-elf/lib/libc.a(lib_a-strlen.o)
 .mdebug.abi32  0x0000000000000000        0x0 /home/fazzi/dev/Pinguino-svn/pinguino32/trunk/linux/p32/bin/../lib/gcc/mips-elf/4.5.2/../../../../mips-elf/lib/libc.a(lib_a-strncpy.o)
 .mdebug.abi32  0x0000000000000000        0x0 /home/fazzi/dev/Pinguino-svn/pinguino32/trunk/linux/p32/bin/../lib/gcc/mips-elf/4.5.2/../../../../mips-elf/lib/libc.a(lib_a-strtol.o)
 .mdebug.abi32  0x0000000000000000        0x0 /home/fazzi/dev/Pinguino-svn/pinguino32/trunk/linux/p32/bin/../lib/gcc/mips-elf/4.5.2/../../../../mips-elf/lib/libc.a(lib_a-svfprintf.o)
 .mdebug.abi32  0x0000000000000000        0x0 /home/fazzi/dev/Pinguino-svn/pinguino32/trunk/linux/p32/bin/../lib/gcc/mips-elf/4.5.2/../../../../mips-elf/lib/libc.a(lib_a-ctype_.o)
 .mdebug.abi32  0x0000000000000000        0x0 /home/fazzi/dev/Pinguino-svn/pinguino32/trunk/linux/p32/bin/../lib/gcc/mips-elf/4.5.2/../../../../mips-elf/lib/libc.a(lib_a-dtoa.o)
 .mdebug.abi32  0x0000000000000000        0x0 /home/fazzi/dev/Pinguino-svn/pinguino32/trunk/linux/p32/bin/../lib/gcc/mips-elf/4.5.2/../../../../mips-elf/lib/libc.a(lib_a-freer.o)
 .mdebug.abi32  0x0000000000000000        0x0 /home/fazzi/dev/Pinguino-svn/pinguino32/trunk/linux/p32/bin/../lib/gcc/mips-elf/4.5.2/../../../../mips-elf/lib/libc.a(lib_a-locale.o)
 .mdebug.abi32  0x0000000000000000        0x0 /home/fazzi/dev/Pinguino-svn/pinguino32/trunk/linux/p32/bin/../lib/gcc/mips-elf/4.5.2/../../../../mips-elf/lib/libc.a(lib_a-mallocr.o)
 .mdebug.abi32  0x0000000000000000        0x0 /home/fazzi/dev/Pinguino-svn/pinguino32/trunk/linux/p32/bin/../lib/gcc/mips-elf/4.5.2/../../../../mips-elf/lib/libc.a(lib_a-memchr.o)
 .mdebug.abi32  0x0000000000000000        0x0 /home/fazzi/dev/Pinguino-svn/pinguino32/trunk/linux/p32/bin/../lib/gcc/mips-elf/4.5.2/../../../../mips-elf/lib/libc.a(lib_a-memcpy.o)
 .mdebug.abi32  0x0000000000000000        0x0 /home/fazzi/dev/Pinguino-svn/pinguino32/trunk/linux/p32/bin/../lib/gcc/mips-elf/4.5.2/../../../../mips-elf/lib/libc.a(lib_a-memmove.o)
 .mdebug.abi32  0x0000000000000000        0x0 /home/fazzi/dev/Pinguino-svn/pinguino32/trunk/linux/p32/bin/../lib/gcc/mips-elf/4.5.2/../../../../mips-elf/lib/libc.a(lib_a-mlock.o)
 .mdebug.abi32  0x0000000000000000        0x0 /home/fazzi/dev/Pinguino-svn/pinguino32/trunk/linux/p32/bin/../lib/gcc/mips-elf/4.5.2/../../../../mips-elf/lib/libc.a(lib_a-mprec.o)
 .mdebug.abi32  0x0000000000000000        0x0 /home/fazzi/dev/Pinguino-svn/pinguino32/trunk/linux/p32/bin/../lib/gcc/mips-elf/4.5.2/../../../../mips-elf/lib/libc.a(lib_a-reallocr.o)
 .mdebug.abi32  0x0000000000000000        0x0 /home/fazzi/dev/Pinguino-svn/pinguino32/trunk/linux/p32/bin/../lib/gcc/mips-elf/4.5.2/../../../../mips-elf/lib/libc.a(lib_a-sbrkr.o)
 .mdebug.abi32  0x0000000000000000        0x0 /home/fazzi/dev/Pinguino-svn/pinguino32/trunk/linux/p32/bin/../lib/gcc/mips-elf/4.5.2/../../../../mips-elf/lib/libc.a(lib_a-s_isinfd.o)
 .mdebug.abi32  0x0000000000000000        0x0 /home/fazzi/dev/Pinguino-svn/pinguino32/trunk/linux/p32/bin/../lib/gcc/mips-elf/4.5.2/../../../../mips-elf/lib/libc.a(lib_a-s_isnand.o)
 .mdebug.abi32  0x0000000000000000        0x0 /home/fazzi/dev/Pinguino-svn/pinguino32/trunk/linux/p32/bin/../lib/gcc/mips-elf/4.5.2/../../../../mips-elf/lib/libc.a(lib_a-callocr.o)
 .mdebug.abi32  0x0000000000000000        0x0 /home/fazzi/dev/Pinguino-svn/pinguino32/trunk/linux/p32/bin/../lib/gcc/mips-elf/4.5.2/../../../../mips-elf/lib/libc.a(lib_a-reent.o)
 .mdebug.abi32  0x0000000000000000        0x0 /home/fazzi/dev/Pinguino-svn/pinguino32/trunk/linux/p32/bin/../lib/gcc/mips-elf/4.5.2/soft-float/el/libgcc.a(_udivdi3.o)
 .mdebug.abi32  0x0000000000000000        0x0 /home/fazzi/dev/Pinguino-svn/pinguino32/trunk/linux/p32/bin/../lib/gcc/mips-elf/4.5.2/soft-float/el/libgcc.a(_umoddi3.o)
 .mdebug.abi32  0x0000000000000000        0x0 /home/fazzi/dev/Pinguino-svn/pinguino32/trunk/linux/p32/bin/../lib/gcc/mips-elf/4.5.2/soft-float/el/libgcc.a(_ge_df.o)
 .mdebug.abi32  0x0000000000000000        0x0 /home/fazzi/dev/Pinguino-svn/pinguino32/trunk/linux/p32/bin/../lib/gcc/mips-elf/4.5.2/soft-float/el/libgcc.a(_usi_to_df.o)
 .mdebug.abi32  0x0000000000000000        0x0 /home/fazzi/dev/Pinguino-svn/pinguino32/trunk/linux/p32/bin/../lib/gcc/mips-elf/4.5.2/soft-float/el/crtend.o

.gnu.attributes
                0x0000000000000000       0x10
 .gnu.attributes
                0x0000000000000000       0x10 /home/fazzi/dev/Pinguino-svn/pinguino32/trunk/linux/p32/bin/../lib/gcc/mips-elf/4.5.2/soft-float/el/crtbegin.o
 .gnu.attributes
                0x0000000000000010       0x10 /tmp/ccASVfed.o
 .gnu.attributes
                0x0000000000000020       0x10 /home/fazzi/dev/Pinguino-svn/pinguino32/trunk/linux/p32/bin/../lib/gcc/mips-elf/4.5.2/../../../../mips-elf/lib/libm.a(lib_a-wf_pow.o)
 .gnu.attributes
                0x0000000000000030       0x10 /home/fazzi/dev/Pinguino-svn/pinguino32/trunk/linux/p32/bin/../lib/gcc/mips-elf/4.5.2/../../../../mips-elf/lib/libm.a(lib_a-ef_pow.o)
 .gnu.attributes
                0x0000000000000040       0x10 /home/fazzi/dev/Pinguino-svn/pinguino32/trunk/linux/p32/bin/../lib/gcc/mips-elf/4.5.2/../../../../mips-elf/lib/libm.a(lib_a-ef_sqrt.o)
 .gnu.attributes
                0x0000000000000050       0x10 /home/fazzi/dev/Pinguino-svn/pinguino32/trunk/linux/p32/bin/../lib/gcc/mips-elf/4.5.2/../../../../mips-elf/lib/libm.a(lib_a-sf_fabs.o)
 .gnu.attributes
                0x0000000000000060       0x10 /home/fazzi/dev/Pinguino-svn/pinguino32/trunk/linux/p32/bin/../lib/gcc/mips-elf/4.5.2/../../../../mips-elf/lib/libm.a(lib_a-sf_finite.o)
 .gnu.attributes
                0x0000000000000070       0x10 /home/fazzi/dev/Pinguino-svn/pinguino32/trunk/linux/p32/bin/../lib/gcc/mips-elf/4.5.2/../../../../mips-elf/lib/libm.a(lib_a-sf_isnan.o)
 .gnu.attributes
                0x0000000000000080       0x10 /home/fazzi/dev/Pinguino-svn/pinguino32/trunk/linux/p32/bin/../lib/gcc/mips-elf/4.5.2/../../../../mips-elf/lib/libm.a(lib_a-sf_nan.o)
 .gnu.attributes
                0x0000000000000090       0x10 /home/fazzi/dev/Pinguino-svn/pinguino32/trunk/linux/p32/bin/../lib/gcc/mips-elf/4.5.2/../../../../mips-elf/lib/libm.a(lib_a-sf_scalbn.o)
 .gnu.attributes
                0x00000000000000a0       0x10 /home/fazzi/dev/Pinguino-svn/pinguino32/trunk/linux/p32/bin/../lib/gcc/mips-elf/4.5.2/../../../../mips-elf/lib/libm.a(lib_a-s_lib_ver.o)
 .gnu.attributes
                0x00000000000000b0       0x10 /home/fazzi/dev/Pinguino-svn/pinguino32/trunk/linux/p32/bin/../lib/gcc/mips-elf/4.5.2/../../../../mips-elf/lib/libm.a(lib_a-s_matherr.o)
 .gnu.attributes
                0x00000000000000c0       0x10 /home/fazzi/dev/Pinguino-svn/pinguino32/trunk/linux/p32/bin/../lib/gcc/mips-elf/4.5.2/../../../../mips-elf/lib/libm.a(lib_a-s_rint.o)
 .gnu.attributes
                0x00000000000000d0       0x10 /home/fazzi/dev/Pinguino-svn/pinguino32/trunk/linux/p32/bin/../lib/gcc/mips-elf/4.5.2/../../../../mips-elf/lib/libm.a(lib_a-sf_copysign.o)
 .gnu.attributes
                0x00000000000000e0       0x10 /home/fazzi/dev/Pinguino-svn/pinguino32/trunk/linux/p32/bin/../lib/gcc/mips-elf/4.5.2/soft-float/el/libgcc.a(_addsub_sf.o)
 .gnu.attributes
                0x00000000000000f0       0x10 /home/fazzi/dev/Pinguino-svn/pinguino32/trunk/linux/p32/bin/../lib/gcc/mips-elf/4.5.2/soft-float/el/libgcc.a(_mul_sf.o)
 .gnu.attributes
                0x0000000000000100       0x10 /home/fazzi/dev/Pinguino-svn/pinguino32/trunk/linux/p32/bin/../lib/gcc/mips-elf/4.5.2/soft-float/el/libgcc.a(_div_sf.o)
 .gnu.attributes
                0x0000000000000110       0x10 /home/fazzi/dev/Pinguino-svn/pinguino32/trunk/linux/p32/bin/../lib/gcc/mips-elf/4.5.2/soft-float/el/libgcc.a(_eq_sf.o)
 .gnu.attributes
                0x0000000000000120       0x10 /home/fazzi/dev/Pinguino-svn/pinguino32/trunk/linux/p32/bin/../lib/gcc/mips-elf/4.5.2/soft-float/el/libgcc.a(_gt_sf.o)
 .gnu.attributes
                0x0000000000000130       0x10 /home/fazzi/dev/Pinguino-svn/pinguino32/trunk/linux/p32/bin/../lib/gcc/mips-elf/4.5.2/soft-float/el/libgcc.a(_lt_sf.o)
 .gnu.attributes
                0x0000000000000140       0x10 /home/fazzi/dev/Pinguino-svn/pinguino32/trunk/linux/p32/bin/../lib/gcc/mips-elf/4.5.2/soft-float/el/libgcc.a(_le_sf.o)
 .gnu.attributes
                0x0000000000000150       0x10 /home/fazzi/dev/Pinguino-svn/pinguino32/trunk/linux/p32/bin/../lib/gcc/mips-elf/4.5.2/soft-float/el/libgcc.a(_si_to_sf.o)
 .gnu.attributes
                0x0000000000000160       0x10 /home/fazzi/dev/Pinguino-svn/pinguino32/trunk/linux/p32/bin/../lib/gcc/mips-elf/4.5.2/soft-float/el/libgcc.a(_sf_to_si.o)
 .gnu.attributes
                0x0000000000000170       0x10 /home/fazzi/dev/Pinguino-svn/pinguino32/trunk/linux/p32/bin/../lib/gcc/mips-elf/4.5.2/soft-float/el/libgcc.a(_sf_to_df.o)
 .gnu.attributes
                0x0000000000000180       0x10 /home/fazzi/dev/Pinguino-svn/pinguino32/trunk/linux/p32/bin/../lib/gcc/mips-elf/4.5.2/soft-float/el/libgcc.a(_thenan_sf.o)
 .gnu.attributes
                0x0000000000000190       0x10 /home/fazzi/dev/Pinguino-svn/pinguino32/trunk/linux/p32/bin/../lib/gcc/mips-elf/4.5.2/soft-float/el/libgcc.a(_addsub_df.o)
 .gnu.attributes
                0x00000000000001a0       0x10 /home/fazzi/dev/Pinguino-svn/pinguino32/trunk/linux/p32/bin/../lib/gcc/mips-elf/4.5.2/soft-float/el/libgcc.a(_mul_df.o)
 .gnu.attributes
                0x00000000000001b0       0x10 /home/fazzi/dev/Pinguino-svn/pinguino32/trunk/linux/p32/bin/../lib/gcc/mips-elf/4.5.2/soft-float/el/libgcc.a(_div_df.o)
 .gnu.attributes
                0x00000000000001c0       0x10 /home/fazzi/dev/Pinguino-svn/pinguino32/trunk/linux/p32/bin/../lib/gcc/mips-elf/4.5.2/soft-float/el/libgcc.a(_eq_df.o)
 .gnu.attributes
                0x00000000000001d0       0x10 /home/fazzi/dev/Pinguino-svn/pinguino32/trunk/linux/p32/bin/../lib/gcc/mips-elf/4.5.2/soft-float/el/libgcc.a(_ne_df.o)
 .gnu.attributes
                0x00000000000001e0       0x10 /home/fazzi/dev/Pinguino-svn/pinguino32/trunk/linux/p32/bin/../lib/gcc/mips-elf/4.5.2/soft-float/el/libgcc.a(_gt_df.o)
 .gnu.attributes
                0x00000000000001f0       0x10 /home/fazzi/dev/Pinguino-svn/pinguino32/trunk/linux/p32/bin/../lib/gcc/mips-elf/4.5.2/soft-float/el/libgcc.a(_lt_df.o)
 .gnu.attributes
                0x0000000000000200       0x10 /home/fazzi/dev/Pinguino-svn/pinguino32/trunk/linux/p32/bin/../lib/gcc/mips-elf/4.5.2/soft-float/el/libgcc.a(_si_to_df.o)
 .gnu.attributes
                0x0000000000000210       0x10 /home/fazzi/dev/Pinguino-svn/pinguino32/trunk/linux/p32/bin/../lib/gcc/mips-elf/4.5.2/soft-float/el/libgcc.a(_df_to_si.o)
 .gnu.attributes
                0x0000000000000220       0x10 /home/fazzi/dev/Pinguino-svn/pinguino32/trunk/linux/p32/bin/../lib/gcc/mips-elf/4.5.2/soft-float/el/libgcc.a(_make_df.o)
 .gnu.attributes
                0x0000000000000230       0x10 /home/fazzi/dev/Pinguino-svn/pinguino32/trunk/linux/p32/bin/../lib/gcc/mips-elf/4.5.2/soft-float/el/libgcc.a(_df_to_sf.o)
 .gnu.attributes
                0x0000000000000240       0x10 /home/fazzi/dev/Pinguino-svn/pinguino32/trunk/linux/p32/bin/../lib/gcc/mips-elf/4.5.2/soft-float/el/libgcc.a(_thenan_df.o)
 .gnu.attributes
                0x0000000000000250       0x10 /home/fazzi/dev/Pinguino-svn/pinguino32/trunk/linux/p32/bin/../lib/gcc/mips-elf/4.5.2/soft-float/el/libgcc.a(_clzsi2.o)
 .gnu.attributes
                0x0000000000000260       0x10 /home/fazzi/dev/Pinguino-svn/pinguino32/trunk/linux/p32/bin/../lib/gcc/mips-elf/4.5.2/soft-float/el/libgcc.a(_pack_sf.o)
 .gnu.attributes
                0x0000000000000270       0x10 /home/fazzi/dev/Pinguino-svn/pinguino32/trunk/linux/p32/bin/../lib/gcc/mips-elf/4.5.2/soft-float/el/libgcc.a(_unpack_sf.o)
 .gnu.attributes
                0x0000000000000280       0x10 /home/fazzi/dev/Pinguino-svn/pinguino32/trunk/linux/p32/bin/../lib/gcc/mips-elf/4.5.2/soft-float/el/libgcc.a(_fpcmp_parts_sf.o)
 .gnu.attributes
                0x0000000000000290       0x10 /home/fazzi/dev/Pinguino-svn/pinguino32/trunk/linux/p32/bin/../lib/gcc/mips-elf/4.5.2/soft-float/el/libgcc.a(_make_sf.o)
 .gnu.attributes
                0x00000000000002a0       0x10 /home/fazzi/dev/Pinguino-svn/pinguino32/trunk/linux/p32/bin/../lib/gcc/mips-elf/4.5.2/soft-float/el/libgcc.a(_pack_df.o)
 .gnu.attributes
                0x00000000000002b0       0x10 /home/fazzi/dev/Pinguino-svn/pinguino32/trunk/linux/p32/bin/../lib/gcc/mips-elf/4.5.2/soft-float/el/libgcc.a(_unpack_df.o)
 .gnu.attributes
                0x00000000000002c0       0x10 /home/fazzi/dev/Pinguino-svn/pinguino32/trunk/linux/p32/bin/../lib/gcc/mips-elf/4.5.2/soft-float/el/libgcc.a(_fpcmp_parts_df.o)
 .gnu.attributes
                0x00000000000002d0       0x10 /home/fazzi/dev/Pinguino-svn/pinguino32/trunk/linux/p32/bin/../lib/gcc/mips-elf/4.5.2/soft-float/el/libgcc.a(_lshrdi3.o)
 .gnu.attributes
                0x00000000000002e0       0x10 /home/fazzi/dev/Pinguino-svn/pinguino32/trunk/linux/p32/bin/../lib/gcc/mips-elf/4.5.2/soft-float/el/libgcc.a(_ashldi3.o)
 .gnu.attributes
                0x00000000000002f0       0x10 /home/fazzi/dev/Pinguino-svn/pinguino32/trunk/linux/p32/bin/../lib/gcc/mips-elf/4.5.2/soft-float/el/libgcc.a(_clz.o)
 .gnu.attributes
                0x0000000000000300       0x10 /home/fazzi/dev/Pinguino-svn/pinguino32/trunk/linux/p32/bin/../lib/gcc/mips-elf/4.5.2/../../../../mips-elf/lib/libc.a(lib_a-atoi.o)
 .gnu.attributes
                0x0000000000000310       0x10 /home/fazzi/dev/Pinguino-svn/pinguino32/trunk/linux/p32/bin/../lib/gcc/mips-elf/4.5.2/../../../../mips-elf/lib/libc.a(lib_a-errno.o)
 .gnu.attributes
                0x0000000000000320       0x10 /home/fazzi/dev/Pinguino-svn/pinguino32/trunk/linux/p32/bin/../lib/gcc/mips-elf/4.5.2/../../../../mips-elf/lib/libc.a(lib_a-impure.o)
 .gnu.attributes
                0x0000000000000330       0x10 /home/fazzi/dev/Pinguino-svn/pinguino32/trunk/linux/p32/bin/../lib/gcc/mips-elf/4.5.2/../../../../mips-elf/lib/libc.a(lib_a-memset.o)
 .gnu.attributes
                0x0000000000000340       0x10 /home/fazzi/dev/Pinguino-svn/pinguino32/trunk/linux/p32/bin/../lib/gcc/mips-elf/4.5.2/../../../../mips-elf/lib/libc.a(lib_a-sprintf.o)
 .gnu.attributes
                0x0000000000000350       0x10 /home/fazzi/dev/Pinguino-svn/pinguino32/trunk/linux/p32/bin/../lib/gcc/mips-elf/4.5.2/../../../../mips-elf/lib/libc.a(lib_a-strcat.o)
 .gnu.attributes
                0x0000000000000360       0x10 /home/fazzi/dev/Pinguino-svn/pinguino32/trunk/linux/p32/bin/../lib/gcc/mips-elf/4.5.2/../../../../mips-elf/lib/libc.a(lib_a-strcmp.o)
 .gnu.attributes
                0x0000000000000370       0x10 /home/fazzi/dev/Pinguino-svn/pinguino32/trunk/linux/p32/bin/../lib/gcc/mips-elf/4.5.2/../../../../mips-elf/lib/libc.a(lib_a-strcpy.o)
 .gnu.attributes
                0x0000000000000380       0x10 /home/fazzi/dev/Pinguino-svn/pinguino32/trunk/linux/p32/bin/../lib/gcc/mips-elf/4.5.2/../../../../mips-elf/lib/libc.a(lib_a-strlen.o)
 .gnu.attributes
                0x0000000000000390       0x10 /home/fazzi/dev/Pinguino-svn/pinguino32/trunk/linux/p32/bin/../lib/gcc/mips-elf/4.5.2/../../../../mips-elf/lib/libc.a(lib_a-strncpy.o)
 .gnu.attributes
                0x00000000000003a0       0x10 /home/fazzi/dev/Pinguino-svn/pinguino32/trunk/linux/p32/bin/../lib/gcc/mips-elf/4.5.2/../../../../mips-elf/lib/libc.a(lib_a-strtol.o)
 .gnu.attributes
                0x00000000000003b0       0x10 /home/fazzi/dev/Pinguino-svn/pinguino32/trunk/linux/p32/bin/../lib/gcc/mips-elf/4.5.2/../../../../mips-elf/lib/libc.a(lib_a-svfprintf.o)
 .gnu.attributes
                0x00000000000003c0       0x10 /home/fazzi/dev/Pinguino-svn/pinguino32/trunk/linux/p32/bin/../lib/gcc/mips-elf/4.5.2/../../../../mips-elf/lib/libc.a(lib_a-ctype_.o)
 .gnu.attributes
                0x00000000000003d0       0x10 /home/fazzi/dev/Pinguino-svn/pinguino32/trunk/linux/p32/bin/../lib/gcc/mips-elf/4.5.2/../../../../mips-elf/lib/libc.a(lib_a-dtoa.o)
 .gnu.attributes
                0x00000000000003e0       0x10 /home/fazzi/dev/Pinguino-svn/pinguino32/trunk/linux/p32/bin/../lib/gcc/mips-elf/4.5.2/../../../../mips-elf/lib/libc.a(lib_a-freer.o)
 .gnu.attributes
                0x00000000000003f0       0x10 /home/fazzi/dev/Pinguino-svn/pinguino32/trunk/linux/p32/bin/../lib/gcc/mips-elf/4.5.2/../../../../mips-elf/lib/libc.a(lib_a-locale.o)
 .gnu.attributes
                0x0000000000000400       0x10 /home/fazzi/dev/Pinguino-svn/pinguino32/trunk/linux/p32/bin/../lib/gcc/mips-elf/4.5.2/../../../../mips-elf/lib/libc.a(lib_a-mallocr.o)
 .gnu.attributes
                0x0000000000000410       0x10 /home/fazzi/dev/Pinguino-svn/pinguino32/trunk/linux/p32/bin/../lib/gcc/mips-elf/4.5.2/../../../../mips-elf/lib/libc.a(lib_a-memchr.o)
 .gnu.attributes
                0x0000000000000420       0x10 /home/fazzi/dev/Pinguino-svn/pinguino32/trunk/linux/p32/bin/../lib/gcc/mips-elf/4.5.2/../../../../mips-elf/lib/libc.a(lib_a-memcpy.o)
 .gnu.attributes
                0x0000000000000430       0x10 /home/fazzi/dev/Pinguino-svn/pinguino32/trunk/linux/p32/bin/../lib/gcc/mips-elf/4.5.2/../../../../mips-elf/lib/libc.a(lib_a-memmove.o)
 .gnu.attributes
                0x0000000000000440       0x10 /home/fazzi/dev/Pinguino-svn/pinguino32/trunk/linux/p32/bin/../lib/gcc/mips-elf/4.5.2/../../../../mips-elf/lib/libc.a(lib_a-mlock.o)
 .gnu.attributes
                0x0000000000000450       0x10 /home/fazzi/dev/Pinguino-svn/pinguino32/trunk/linux/p32/bin/../lib/gcc/mips-elf/4.5.2/../../../../mips-elf/lib/libc.a(lib_a-mprec.o)
 .gnu.attributes
                0x0000000000000460       0x10 /home/fazzi/dev/Pinguino-svn/pinguino32/trunk/linux/p32/bin/../lib/gcc/mips-elf/4.5.2/../../../../mips-elf/lib/libc.a(lib_a-reallocr.o)
 .gnu.attributes
                0x0000000000000470       0x10 /home/fazzi/dev/Pinguino-svn/pinguino32/trunk/linux/p32/bin/../lib/gcc/mips-elf/4.5.2/../../../../mips-elf/lib/libc.a(lib_a-sbrkr.o)
 .gnu.attributes
                0x0000000000000480       0x10 /home/fazzi/dev/Pinguino-svn/pinguino32/trunk/linux/p32/bin/../lib/gcc/mips-elf/4.5.2/../../../../mips-elf/lib/libc.a(lib_a-s_isinfd.o)
 .gnu.attributes
                0x0000000000000490       0x10 /home/fazzi/dev/Pinguino-svn/pinguino32/trunk/linux/p32/bin/../lib/gcc/mips-elf/4.5.2/../../../../mips-elf/lib/libc.a(lib_a-s_isnand.o)
 .gnu.attributes
                0x00000000000004a0       0x10 /home/fazzi/dev/Pinguino-svn/pinguino32/trunk/linux/p32/bin/../lib/gcc/mips-elf/4.5.2/../../../../mips-elf/lib/libc.a(lib_a-callocr.o)
 .gnu.attributes
                0x00000000000004b0       0x10 /home/fazzi/dev/Pinguino-svn/pinguino32/trunk/linux/p32/bin/../lib/gcc/mips-elf/4.5.2/../../../../mips-elf/lib/libc.a(lib_a-reent.o)
 .gnu.attributes
                0x00000000000004c0       0x10 /home/fazzi/dev/Pinguino-svn/pinguino32/trunk/linux/p32/bin/../lib/gcc/mips-elf/4.5.2/soft-float/el/libgcc.a(_udivdi3.o)
 .gnu.attributes
                0x00000000000004d0       0x10 /home/fazzi/dev/Pinguino-svn/pinguino32/trunk/linux/p32/bin/../lib/gcc/mips-elf/4.5.2/soft-float/el/libgcc.a(_umoddi3.o)
 .gnu.attributes
                0x00000000000004e0       0x10 /home/fazzi/dev/Pinguino-svn/pinguino32/trunk/linux/p32/bin/../lib/gcc/mips-elf/4.5.2/soft-float/el/libgcc.a(_ge_df.o)
 .gnu.attributes
                0x00000000000004f0       0x10 /home/fazzi/dev/Pinguino-svn/pinguino32/trunk/linux/p32/bin/../lib/gcc/mips-elf/4.5.2/soft-float/el/libgcc.a(_usi_to_df.o)
 .gnu.attributes
                0x0000000000000500       0x10 /home/fazzi/dev/Pinguino-svn/pinguino32/trunk/linux/p32/bin/../lib/gcc/mips-elf/4.5.2/soft-float/el/crtend.o

.comment        0x0000000000000000      0x2fb
 *(.comment)
 .comment       0x0000000000000000       0x2b /home/fazzi/dev/Pinguino-svn/pinguino32/trunk/linux/p32/bin/../lib/gcc/mips-elf/4.5.2/soft-float/el/crtbegin.o
                                         0x2c (size before relaxing)
 .comment       0x0000000000000000       0x2c /tmp/ccASVfed.o
 .comment       0x000000000000002b       0x12 /home/fazzi/dev/Pinguino-svn/pinguino32/trunk/linux/p32/bin/../lib/gcc/mips-elf/4.5.2/../../../../mips-elf/lib/libm.a(lib_a-wf_pow.o)
 .comment       0x000000000000003d       0x12 /home/fazzi/dev/Pinguino-svn/pinguino32/trunk/linux/p32/bin/../lib/gcc/mips-elf/4.5.2/../../../../mips-elf/lib/libm.a(lib_a-ef_pow.o)
 .comment       0x000000000000004f       0x12 /home/fazzi/dev/Pinguino-svn/pinguino32/trunk/linux/p32/bin/../lib/gcc/mips-elf/4.5.2/../../../../mips-elf/lib/libm.a(lib_a-ef_sqrt.o)
 .comment       0x0000000000000061       0x12 /home/fazzi/dev/Pinguino-svn/pinguino32/trunk/linux/p32/bin/../lib/gcc/mips-elf/4.5.2/../../../../mips-elf/lib/libm.a(lib_a-sf_fabs.o)
 .comment       0x0000000000000073       0x12 /home/fazzi/dev/Pinguino-svn/pinguino32/trunk/linux/p32/bin/../lib/gcc/mips-elf/4.5.2/../../../../mips-elf/lib/libm.a(lib_a-sf_finite.o)
 .comment       0x0000000000000085       0x12 /home/fazzi/dev/Pinguino-svn/pinguino32/trunk/linux/p32/bin/../lib/gcc/mips-elf/4.5.2/../../../../mips-elf/lib/libm.a(lib_a-sf_isnan.o)
 .comment       0x0000000000000097       0x12 /home/fazzi/dev/Pinguino-svn/pinguino32/trunk/linux/p32/bin/../lib/gcc/mips-elf/4.5.2/../../../../mips-elf/lib/libm.a(lib_a-sf_nan.o)
 .comment       0x00000000000000a9       0x12 /home/fazzi/dev/Pinguino-svn/pinguino32/trunk/linux/p32/bin/../lib/gcc/mips-elf/4.5.2/../../../../mips-elf/lib/libm.a(lib_a-sf_scalbn.o)
 .comment       0x00000000000000bb       0x12 /home/fazzi/dev/Pinguino-svn/pinguino32/trunk/linux/p32/bin/../lib/gcc/mips-elf/4.5.2/../../../../mips-elf/lib/libm.a(lib_a-s_lib_ver.o)
 .comment       0x00000000000000cd       0x12 /home/fazzi/dev/Pinguino-svn/pinguino32/trunk/linux/p32/bin/../lib/gcc/mips-elf/4.5.2/../../../../mips-elf/lib/libm.a(lib_a-s_matherr.o)
 .comment       0x00000000000000df       0x12 /home/fazzi/dev/Pinguino-svn/pinguino32/trunk/linux/p32/bin/../lib/gcc/mips-elf/4.5.2/../../../../mips-elf/lib/libm.a(lib_a-s_rint.o)
 .comment       0x00000000000000f1       0x12 /home/fazzi/dev/Pinguino-svn/pinguino32/trunk/linux/p32/bin/../lib/gcc/mips-elf/4.5.2/../../../../mips-elf/lib/libm.a(lib_a-sf_copysign.o)
 .comment       0x0000000000000000       0x2c /home/fazzi/dev/Pinguino-svn/pinguino32/trunk/linux/p32/bin/../lib/gcc/mips-elf/4.5.2/soft-float/el/libgcc.a(_addsub_sf.o)
 .comment       0x0000000000000000       0x2c /home/fazzi/dev/Pinguino-svn/pinguino32/trunk/linux/p32/bin/../lib/gcc/mips-elf/4.5.2/soft-float/el/libgcc.a(_mul_sf.o)
 .comment       0x0000000000000000       0x2c /home/fazzi/dev/Pinguino-svn/pinguino32/trunk/linux/p32/bin/../lib/gcc/mips-elf/4.5.2/soft-float/el/libgcc.a(_div_sf.o)
 .comment       0x0000000000000000       0x2c /home/fazzi/dev/Pinguino-svn/pinguino32/trunk/linux/p32/bin/../lib/gcc/mips-elf/4.5.2/soft-float/el/libgcc.a(_eq_sf.o)
 .comment       0x0000000000000000       0x2c /home/fazzi/dev/Pinguino-svn/pinguino32/trunk/linux/p32/bin/../lib/gcc/mips-elf/4.5.2/soft-float/el/libgcc.a(_gt_sf.o)
 .comment       0x0000000000000000       0x2c /home/fazzi/dev/Pinguino-svn/pinguino32/trunk/linux/p32/bin/../lib/gcc/mips-elf/4.5.2/soft-float/el/libgcc.a(_lt_sf.o)
 .comment       0x0000000000000000       0x2c /home/fazzi/dev/Pinguino-svn/pinguino32/trunk/linux/p32/bin/../lib/gcc/mips-elf/4.5.2/soft-float/el/libgcc.a(_le_sf.o)
 .comment       0x0000000000000000       0x2c /home/fazzi/dev/Pinguino-svn/pinguino32/trunk/linux/p32/bin/../lib/gcc/mips-elf/4.5.2/soft-float/el/libgcc.a(_si_to_sf.o)
 .comment       0x0000000000000000       0x2c /home/fazzi/dev/Pinguino-svn/pinguino32/trunk/linux/p32/bin/../lib/gcc/mips-elf/4.5.2/soft-float/el/libgcc.a(_sf_to_si.o)
 .comment       0x0000000000000000       0x2c /home/fazzi/dev/Pinguino-svn/pinguino32/trunk/linux/p32/bin/../lib/gcc/mips-elf/4.5.2/soft-float/el/libgcc.a(_sf_to_df.o)
 .comment       0x0000000000000000       0x2c /home/fazzi/dev/Pinguino-svn/pinguino32/trunk/linux/p32/bin/../lib/gcc/mips-elf/4.5.2/soft-float/el/libgcc.a(_thenan_sf.o)
 .comment       0x0000000000000000       0x2c /home/fazzi/dev/Pinguino-svn/pinguino32/trunk/linux/p32/bin/../lib/gcc/mips-elf/4.5.2/soft-float/el/libgcc.a(_addsub_df.o)
 .comment       0x0000000000000000       0x2c /home/fazzi/dev/Pinguino-svn/pinguino32/trunk/linux/p32/bin/../lib/gcc/mips-elf/4.5.2/soft-float/el/libgcc.a(_mul_df.o)
 .comment       0x0000000000000000       0x2c /home/fazzi/dev/Pinguino-svn/pinguino32/trunk/linux/p32/bin/../lib/gcc/mips-elf/4.5.2/soft-float/el/libgcc.a(_div_df.o)
 .comment       0x0000000000000000       0x2c /home/fazzi/dev/Pinguino-svn/pinguino32/trunk/linux/p32/bin/../lib/gcc/mips-elf/4.5.2/soft-float/el/libgcc.a(_eq_df.o)
 .comment       0x0000000000000000       0x2c /home/fazzi/dev/Pinguino-svn/pinguino32/trunk/linux/p32/bin/../lib/gcc/mips-elf/4.5.2/soft-float/el/libgcc.a(_ne_df.o)
 .comment       0x0000000000000000       0x2c /home/fazzi/dev/Pinguino-svn/pinguino32/trunk/linux/p32/bin/../lib/gcc/mips-elf/4.5.2/soft-float/el/libgcc.a(_gt_df.o)
 .comment       0x0000000000000000       0x2c /home/fazzi/dev/Pinguino-svn/pinguino32/trunk/linux/p32/bin/../lib/gcc/mips-elf/4.5.2/soft-float/el/libgcc.a(_lt_df.o)
 .comment       0x0000000000000000       0x2c /home/fazzi/dev/Pinguino-svn/pinguino32/trunk/linux/p32/bin/../lib/gcc/mips-elf/4.5.2/soft-float/el/libgcc.a(_si_to_df.o)
 .comment       0x0000000000000000       0x2c /home/fazzi/dev/Pinguino-svn/pinguino32/trunk/linux/p32/bin/../lib/gcc/mips-elf/4.5.2/soft-float/el/libgcc.a(_df_to_si.o)
 .comment       0x0000000000000000       0x2c /home/fazzi/dev/Pinguino-svn/pinguino32/trunk/linux/p32/bin/../lib/gcc/mips-elf/4.5.2/soft-float/el/libgcc.a(_make_df.o)
 .comment       0x0000000000000000       0x2c /home/fazzi/dev/Pinguino-svn/pinguino32/trunk/linux/p32/bin/../lib/gcc/mips-elf/4.5.2/soft-float/el/libgcc.a(_df_to_sf.o)
 .comment       0x0000000000000000       0x2c /home/fazzi/dev/Pinguino-svn/pinguino32/trunk/linux/p32/bin/../lib/gcc/mips-elf/4.5.2/soft-float/el/libgcc.a(_thenan_df.o)
 .comment       0x0000000000000000       0x2c /home/fazzi/dev/Pinguino-svn/pinguino32/trunk/linux/p32/bin/../lib/gcc/mips-elf/4.5.2/soft-float/el/libgcc.a(_clzsi2.o)
 .comment       0x0000000000000000       0x2c /home/fazzi/dev/Pinguino-svn/pinguino32/trunk/linux/p32/bin/../lib/gcc/mips-elf/4.5.2/soft-float/el/libgcc.a(_pack_sf.o)
 .comment       0x0000000000000000       0x2c /home/fazzi/dev/Pinguino-svn/pinguino32/trunk/linux/p32/bin/../lib/gcc/mips-elf/4.5.2/soft-float/el/libgcc.a(_unpack_sf.o)
 .comment       0x0000000000000000       0x2c /home/fazzi/dev/Pinguino-svn/pinguino32/trunk/linux/p32/bin/../lib/gcc/mips-elf/4.5.2/soft-float/el/libgcc.a(_fpcmp_parts_sf.o)
 .comment       0x0000000000000000       0x2c /home/fazzi/dev/Pinguino-svn/pinguino32/trunk/linux/p32/bin/../lib/gcc/mips-elf/4.5.2/soft-float/el/libgcc.a(_make_sf.o)
 .comment       0x0000000000000000       0x2c /home/fazzi/dev/Pinguino-svn/pinguino32/trunk/linux/p32/bin/../lib/gcc/mips-elf/4.5.2/soft-float/el/libgcc.a(_pack_df.o)
 .comment       0x0000000000000000       0x2c /home/fazzi/dev/Pinguino-svn/pinguino32/trunk/linux/p32/bin/../lib/gcc/mips-elf/4.5.2/soft-float/el/libgcc.a(_unpack_df.o)
 .comment       0x0000000000000000       0x2c /home/fazzi/dev/Pinguino-svn/pinguino32/trunk/linux/p32/bin/../lib/gcc/mips-elf/4.5.2/soft-float/el/libgcc.a(_fpcmp_parts_df.o)
 .comment       0x0000000000000000       0x2c /home/fazzi/dev/Pinguino-svn/pinguino32/trunk/linux/p32/bin/../lib/gcc/mips-elf/4.5.2/soft-float/el/libgcc.a(_lshrdi3.o)
 .comment       0x0000000000000000       0x2c /home/fazzi/dev/Pinguino-svn/pinguino32/trunk/linux/p32/bin/../lib/gcc/mips-elf/4.5.2/soft-float/el/libgcc.a(_ashldi3.o)
 .comment       0x0000000000000000       0x2c /home/fazzi/dev/Pinguino-svn/pinguino32/trunk/linux/p32/bin/../lib/gcc/mips-elf/4.5.2/soft-float/el/libgcc.a(_clz.o)
 .comment       0x0000000000000103       0x12 /home/fazzi/dev/Pinguino-svn/pinguino32/trunk/linux/p32/bin/../lib/gcc/mips-elf/4.5.2/../../../../mips-elf/lib/libc.a(lib_a-atoi.o)
 .comment       0x0000000000000115       0x12 /home/fazzi/dev/Pinguino-svn/pinguino32/trunk/linux/p32/bin/../lib/gcc/mips-elf/4.5.2/../../../../mips-elf/lib/libc.a(lib_a-errno.o)
 .comment       0x0000000000000127       0x12 /home/fazzi/dev/Pinguino-svn/pinguino32/trunk/linux/p32/bin/../lib/gcc/mips-elf/4.5.2/../../../../mips-elf/lib/libc.a(lib_a-impure.o)
 .comment       0x0000000000000139       0x12 /home/fazzi/dev/Pinguino-svn/pinguino32/trunk/linux/p32/bin/../lib/gcc/mips-elf/4.5.2/../../../../mips-elf/lib/libc.a(lib_a-memset.o)
 .comment       0x000000000000014b       0x12 /home/fazzi/dev/Pinguino-svn/pinguino32/trunk/linux/p32/bin/../lib/gcc/mips-elf/4.5.2/../../../../mips-elf/lib/libc.a(lib_a-sprintf.o)
 .comment       0x000000000000015d       0x12 /home/fazzi/dev/Pinguino-svn/pinguino32/trunk/linux/p32/bin/../lib/gcc/mips-elf/4.5.2/../../../../mips-elf/lib/libc.a(lib_a-strcat.o)
 .comment       0x000000000000016f       0x12 /home/fazzi/dev/Pinguino-svn/pinguino32/trunk/linux/p32/bin/../lib/gcc/mips-elf/4.5.2/../../../../mips-elf/lib/libc.a(lib_a-strcmp.o)
 .comment       0x0000000000000181       0x12 /home/fazzi/dev/Pinguino-svn/pinguino32/trunk/linux/p32/bin/../lib/gcc/mips-elf/4.5.2/../../../../mips-elf/lib/libc.a(lib_a-strcpy.o)
 .comment       0x0000000000000193       0x12 /home/fazzi/dev/Pinguino-svn/pinguino32/trunk/linux/p32/bin/../lib/gcc/mips-elf/4.5.2/../../../../mips-elf/lib/libc.a(lib_a-strlen.o)
 .comment       0x00000000000001a5       0x12 /home/fazzi/dev/Pinguino-svn/pinguino32/trunk/linux/p32/bin/../lib/gcc/mips-elf/4.5.2/../../../../mips-elf/lib/libc.a(lib_a-strncpy.o)
 .comment       0x00000000000001b7       0x12 /home/fazzi/dev/Pinguino-svn/pinguino32/trunk/linux/p32/bin/../lib/gcc/mips-elf/4.5.2/../../../../mips-elf/lib/libc.a(lib_a-strtol.o)
 .comment       0x00000000000001c9       0x12 /home/fazzi/dev/Pinguino-svn/pinguino32/trunk/linux/p32/bin/../lib/gcc/mips-elf/4.5.2/../../../../mips-elf/lib/libc.a(lib_a-svfprintf.o)
 .comment       0x00000000000001db       0x12 /home/fazzi/dev/Pinguino-svn/pinguino32/trunk/linux/p32/bin/../lib/gcc/mips-elf/4.5.2/../../../../mips-elf/lib/libc.a(lib_a-ctype_.o)
 .comment       0x00000000000001ed       0x12 /home/fazzi/dev/Pinguino-svn/pinguino32/trunk/linux/p32/bin/../lib/gcc/mips-elf/4.5.2/../../../../mips-elf/lib/libc.a(lib_a-dtoa.o)
 .comment       0x00000000000001ff       0x12 /home/fazzi/dev/Pinguino-svn/pinguino32/trunk/linux/p32/bin/../lib/gcc/mips-elf/4.5.2/../../../../mips-elf/lib/libc.a(lib_a-freer.o)
 .comment       0x0000000000000211       0x12 /home/fazzi/dev/Pinguino-svn/pinguino32/trunk/linux/p32/bin/../lib/gcc/mips-elf/4.5.2/../../../../mips-elf/lib/libc.a(lib_a-locale.o)
 .comment       0x0000000000000223       0x12 /home/fazzi/dev/Pinguino-svn/pinguino32/trunk/linux/p32/bin/../lib/gcc/mips-elf/4.5.2/../../../../mips-elf/lib/libc.a(lib_a-mallocr.o)
 .comment       0x0000000000000235       0x12 /home/fazzi/dev/Pinguino-svn/pinguino32/trunk/linux/p32/bin/../lib/gcc/mips-elf/4.5.2/../../../../mips-elf/lib/libc.a(lib_a-memchr.o)
 .comment       0x0000000000000247       0x12 /home/fazzi/dev/Pinguino-svn/pinguino32/trunk/linux/p32/bin/../lib/gcc/mips-elf/4.5.2/../../../../mips-elf/lib/libc.a(lib_a-memcpy.o)
 .comment       0x0000000000000259       0x12 /home/fazzi/dev/Pinguino-svn/pinguino32/trunk/linux/p32/bin/../lib/gcc/mips-elf/4.5.2/../../../../mips-elf/lib/libc.a(lib_a-memmove.o)
 .comment       0x000000000000026b       0x12 /home/fazzi/dev/Pinguino-svn/pinguino32/trunk/linux/p32/bin/../lib/gcc/mips-elf/4.5.2/../../../../mips-elf/lib/libc.a(lib_a-mlock.o)
 .comment       0x000000000000027d       0x12 /home/fazzi/dev/Pinguino-svn/pinguino32/trunk/linux/p32/bin/../lib/gcc/mips-elf/4.5.2/../../../../mips-elf/lib/libc.a(lib_a-mprec.o)
 .comment       0x000000000000028f       0x12 /home/fazzi/dev/Pinguino-svn/pinguino32/trunk/linux/p32/bin/../lib/gcc/mips-elf/4.5.2/../../../../mips-elf/lib/libc.a(lib_a-reallocr.o)
 .comment       0x00000000000002a1       0x12 /home/fazzi/dev/Pinguino-svn/pinguino32/trunk/linux/p32/bin/../lib/gcc/mips-elf/4.5.2/../../../../mips-elf/lib/libc.a(lib_a-sbrkr.o)
 .comment       0x00000000000002b3       0x12 /home/fazzi/dev/Pinguino-svn/pinguino32/trunk/linux/p32/bin/../lib/gcc/mips-elf/4.5.2/../../../../mips-elf/lib/libc.a(lib_a-s_isinfd.o)
 .comment       0x00000000000002c5       0x12 /home/fazzi/dev/Pinguino-svn/pinguino32/trunk/linux/p32/bin/../lib/gcc/mips-elf/4.5.2/../../../../mips-elf/lib/libc.a(lib_a-s_isnand.o)
 .comment       0x00000000000002d7       0x12 /home/fazzi/dev/Pinguino-svn/pinguino32/trunk/linux/p32/bin/../lib/gcc/mips-elf/4.5.2/../../../../mips-elf/lib/libc.a(lib_a-callocr.o)
 .comment       0x00000000000002e9       0x12 /home/fazzi/dev/Pinguino-svn/pinguino32/trunk/linux/p32/bin/../lib/gcc/mips-elf/4.5.2/../../../../mips-elf/lib/libc.a(lib_a-reent.o)
 .comment       0x0000000000000000       0x2c /home/fazzi/dev/Pinguino-svn/pinguino32/trunk/linux/p32/bin/../lib/gcc/mips-elf/4.5.2/soft-float/el/libgcc.a(_udivdi3.o)
 .comment       0x0000000000000000       0x2c /home/fazzi/dev/Pinguino-svn/pinguino32/trunk/linux/p32/bin/../lib/gcc/mips-elf/4.5.2/soft-float/el/libgcc.a(_umoddi3.o)
 .comment       0x0000000000000000       0x2c /home/fazzi/dev/Pinguino-svn/pinguino32/trunk/linux/p32/bin/../lib/gcc/mips-elf/4.5.2/soft-float/el/libgcc.a(_ge_df.o)
 .comment       0x0000000000000000       0x2c /home/fazzi/dev/Pinguino-svn/pinguino32/trunk/linux/p32/bin/../lib/gcc/mips-elf/4.5.2/soft-float/el/libgcc.a(_usi_to_df.o)
 .comment       0x0000000000000000       0x2c /home/fazzi/dev/Pinguino-svn/pinguino32/trunk/linux/p32/bin/../lib/gcc/mips-elf/4.5.2/soft-float/el/crtend.o

.debug
 *(.debug)

.line
 *(.line)

.debug_srcinfo
 *(.debug_srcinfo)

.debug_sfnames
 *(.debug_sfnames)

.debug_aranges  0x0000000000000000      0x930
 *(.debug_aranges)
 .debug_aranges
                0x0000000000000000       0x28 /home/fazzi/dev/Pinguino-svn/pinguino32/trunk/linux/p32/bin/../lib/gcc/mips-elf/4.5.2/soft-float/el/crti.o
 .debug_aranges
                0x0000000000000028       0x20 /home/fazzi/dev/Pinguino-svn/pinguino32/trunk/linux/p32/bin/../lib/gcc/mips-elf/4.5.2/../../../../mips-elf/lib/libm.a(lib_a-wf_pow.o)
 .debug_aranges
                0x0000000000000048       0x20 /home/fazzi/dev/Pinguino-svn/pinguino32/trunk/linux/p32/bin/../lib/gcc/mips-elf/4.5.2/../../../../mips-elf/lib/libm.a(lib_a-ef_pow.o)
 .debug_aranges
                0x0000000000000068       0x20 /home/fazzi/dev/Pinguino-svn/pinguino32/trunk/linux/p32/bin/../lib/gcc/mips-elf/4.5.2/../../../../mips-elf/lib/libm.a(lib_a-ef_sqrt.o)
 .debug_aranges
                0x0000000000000088       0x20 /home/fazzi/dev/Pinguino-svn/pinguino32/trunk/linux/p32/bin/../lib/gcc/mips-elf/4.5.2/../../../../mips-elf/lib/libm.a(lib_a-sf_fabs.o)
 .debug_aranges
                0x00000000000000a8       0x20 /home/fazzi/dev/Pinguino-svn/pinguino32/trunk/linux/p32/bin/../lib/gcc/mips-elf/4.5.2/../../../../mips-elf/lib/libm.a(lib_a-sf_finite.o)
 .debug_aranges
                0x00000000000000c8       0x20 /home/fazzi/dev/Pinguino-svn/pinguino32/trunk/linux/p32/bin/../lib/gcc/mips-elf/4.5.2/../../../../mips-elf/lib/libm.a(lib_a-sf_isnan.o)
 .debug_aranges
                0x00000000000000e8       0x20 /home/fazzi/dev/Pinguino-svn/pinguino32/trunk/linux/p32/bin/../lib/gcc/mips-elf/4.5.2/../../../../mips-elf/lib/libm.a(lib_a-sf_nan.o)
 .debug_aranges
                0x0000000000000108       0x20 /home/fazzi/dev/Pinguino-svn/pinguino32/trunk/linux/p32/bin/../lib/gcc/mips-elf/4.5.2/../../../../mips-elf/lib/libm.a(lib_a-sf_scalbn.o)
 .debug_aranges
                0x0000000000000128       0x20 /home/fazzi/dev/Pinguino-svn/pinguino32/trunk/linux/p32/bin/../lib/gcc/mips-elf/4.5.2/../../../../mips-elf/lib/libm.a(lib_a-s_matherr.o)
 .debug_aranges
                0x0000000000000148       0x20 /home/fazzi/dev/Pinguino-svn/pinguino32/trunk/linux/p32/bin/../lib/gcc/mips-elf/4.5.2/../../../../mips-elf/lib/libm.a(lib_a-s_rint.o)
 .debug_aranges
                0x0000000000000168       0x20 /home/fazzi/dev/Pinguino-svn/pinguino32/trunk/linux/p32/bin/../lib/gcc/mips-elf/4.5.2/../../../../mips-elf/lib/libm.a(lib_a-sf_copysign.o)
 .debug_aranges
                0x0000000000000188       0x20 /home/fazzi/dev/Pinguino-svn/pinguino32/trunk/linux/p32/bin/../lib/gcc/mips-elf/4.5.2/soft-float/el/libgcc.a(_addsub_sf.o)
 .debug_aranges
                0x00000000000001a8       0x20 /home/fazzi/dev/Pinguino-svn/pinguino32/trunk/linux/p32/bin/../lib/gcc/mips-elf/4.5.2/soft-float/el/libgcc.a(_mul_sf.o)
 .debug_aranges
                0x00000000000001c8       0x20 /home/fazzi/dev/Pinguino-svn/pinguino32/trunk/linux/p32/bin/../lib/gcc/mips-elf/4.5.2/soft-float/el/libgcc.a(_div_sf.o)
 .debug_aranges
                0x00000000000001e8       0x20 /home/fazzi/dev/Pinguino-svn/pinguino32/trunk/linux/p32/bin/../lib/gcc/mips-elf/4.5.2/soft-float/el/libgcc.a(_eq_sf.o)
 .debug_aranges
                0x0000000000000208       0x20 /home/fazzi/dev/Pinguino-svn/pinguino32/trunk/linux/p32/bin/../lib/gcc/mips-elf/4.5.2/soft-float/el/libgcc.a(_gt_sf.o)
 .debug_aranges
                0x0000000000000228       0x20 /home/fazzi/dev/Pinguino-svn/pinguino32/trunk/linux/p32/bin/../lib/gcc/mips-elf/4.5.2/soft-float/el/libgcc.a(_lt_sf.o)
 .debug_aranges
                0x0000000000000248       0x20 /home/fazzi/dev/Pinguino-svn/pinguino32/trunk/linux/p32/bin/../lib/gcc/mips-elf/4.5.2/soft-float/el/libgcc.a(_le_sf.o)
 .debug_aranges
                0x0000000000000268       0x20 /home/fazzi/dev/Pinguino-svn/pinguino32/trunk/linux/p32/bin/../lib/gcc/mips-elf/4.5.2/soft-float/el/libgcc.a(_si_to_sf.o)
 .debug_aranges
                0x0000000000000288       0x20 /home/fazzi/dev/Pinguino-svn/pinguino32/trunk/linux/p32/bin/../lib/gcc/mips-elf/4.5.2/soft-float/el/libgcc.a(_sf_to_si.o)
 .debug_aranges
                0x00000000000002a8       0x20 /home/fazzi/dev/Pinguino-svn/pinguino32/trunk/linux/p32/bin/../lib/gcc/mips-elf/4.5.2/soft-float/el/libgcc.a(_sf_to_df.o)
 .debug_aranges
                0x00000000000002c8       0x20 /home/fazzi/dev/Pinguino-svn/pinguino32/trunk/linux/p32/bin/../lib/gcc/mips-elf/4.5.2/soft-float/el/libgcc.a(_addsub_df.o)
 .debug_aranges
                0x00000000000002e8       0x20 /home/fazzi/dev/Pinguino-svn/pinguino32/trunk/linux/p32/bin/../lib/gcc/mips-elf/4.5.2/soft-float/el/libgcc.a(_mul_df.o)
 .debug_aranges
                0x0000000000000308       0x20 /home/fazzi/dev/Pinguino-svn/pinguino32/trunk/linux/p32/bin/../lib/gcc/mips-elf/4.5.2/soft-float/el/libgcc.a(_div_df.o)
 .debug_aranges
                0x0000000000000328       0x20 /home/fazzi/dev/Pinguino-svn/pinguino32/trunk/linux/p32/bin/../lib/gcc/mips-elf/4.5.2/soft-float/el/libgcc.a(_eq_df.o)
 .debug_aranges
                0x0000000000000348       0x20 /home/fazzi/dev/Pinguino-svn/pinguino32/trunk/linux/p32/bin/../lib/gcc/mips-elf/4.5.2/soft-float/el/libgcc.a(_ne_df.o)
 .debug_aranges
                0x0000000000000368       0x20 /home/fazzi/dev/Pinguino-svn/pinguino32/trunk/linux/p32/bin/../lib/gcc/mips-elf/4.5.2/soft-float/el/libgcc.a(_gt_df.o)
 .debug_aranges
                0x0000000000000388       0x20 /home/fazzi/dev/Pinguino-svn/pinguino32/trunk/linux/p32/bin/../lib/gcc/mips-elf/4.5.2/soft-float/el/libgcc.a(_lt_df.o)
 .debug_aranges
                0x00000000000003a8       0x20 /home/fazzi/dev/Pinguino-svn/pinguino32/trunk/linux/p32/bin/../lib/gcc/mips-elf/4.5.2/soft-float/el/libgcc.a(_si_to_df.o)
 .debug_aranges
                0x00000000000003c8       0x20 /home/fazzi/dev/Pinguino-svn/pinguino32/trunk/linux/p32/bin/../lib/gcc/mips-elf/4.5.2/soft-float/el/libgcc.a(_df_to_si.o)
 .debug_aranges
                0x00000000000003e8       0x20 /home/fazzi/dev/Pinguino-svn/pinguino32/trunk/linux/p32/bin/../lib/gcc/mips-elf/4.5.2/soft-float/el/libgcc.a(_make_df.o)
 .debug_aranges
                0x0000000000000408       0x20 /home/fazzi/dev/Pinguino-svn/pinguino32/trunk/linux/p32/bin/../lib/gcc/mips-elf/4.5.2/soft-float/el/libgcc.a(_df_to_sf.o)
 .debug_aranges
                0x0000000000000428       0x20 /home/fazzi/dev/Pinguino-svn/pinguino32/trunk/linux/p32/bin/../lib/gcc/mips-elf/4.5.2/soft-float/el/libgcc.a(_clzsi2.o)
 .debug_aranges
                0x0000000000000448       0x20 /home/fazzi/dev/Pinguino-svn/pinguino32/trunk/linux/p32/bin/../lib/gcc/mips-elf/4.5.2/soft-float/el/libgcc.a(_pack_sf.o)
 .debug_aranges
                0x0000000000000468       0x20 /home/fazzi/dev/Pinguino-svn/pinguino32/trunk/linux/p32/bin/../lib/gcc/mips-elf/4.5.2/soft-float/el/libgcc.a(_unpack_sf.o)
 .debug_aranges
                0x0000000000000488       0x20 /home/fazzi/dev/Pinguino-svn/pinguino32/trunk/linux/p32/bin/../lib/gcc/mips-elf/4.5.2/soft-float/el/libgcc.a(_fpcmp_parts_sf.o)
 .debug_aranges
                0x00000000000004a8       0x20 /home/fazzi/dev/Pinguino-svn/pinguino32/trunk/linux/p32/bin/../lib/gcc/mips-elf/4.5.2/soft-float/el/libgcc.a(_make_sf.o)
 .debug_aranges
                0x00000000000004c8       0x20 /home/fazzi/dev/Pinguino-svn/pinguino32/trunk/linux/p32/bin/../lib/gcc/mips-elf/4.5.2/soft-float/el/libgcc.a(_pack_df.o)
 .debug_aranges
                0x00000000000004e8       0x20 /home/fazzi/dev/Pinguino-svn/pinguino32/trunk/linux/p32/bin/../lib/gcc/mips-elf/4.5.2/soft-float/el/libgcc.a(_unpack_df.o)
 .debug_aranges
                0x0000000000000508       0x20 /home/fazzi/dev/Pinguino-svn/pinguino32/trunk/linux/p32/bin/../lib/gcc/mips-elf/4.5.2/soft-float/el/libgcc.a(_fpcmp_parts_df.o)
 .debug_aranges
                0x0000000000000528       0x20 /home/fazzi/dev/Pinguino-svn/pinguino32/trunk/linux/p32/bin/../lib/gcc/mips-elf/4.5.2/soft-float/el/libgcc.a(_lshrdi3.o)
 .debug_aranges
                0x0000000000000548       0x20 /home/fazzi/dev/Pinguino-svn/pinguino32/trunk/linux/p32/bin/../lib/gcc/mips-elf/4.5.2/soft-float/el/libgcc.a(_ashldi3.o)
 .debug_aranges
                0x0000000000000568       0x20 /home/fazzi/dev/Pinguino-svn/pinguino32/trunk/linux/p32/bin/../lib/gcc/mips-elf/4.5.2/../../../../mips-elf/lib/libc.a(lib_a-atoi.o)
 .debug_aranges
                0x0000000000000588       0x20 /home/fazzi/dev/Pinguino-svn/pinguino32/trunk/linux/p32/bin/../lib/gcc/mips-elf/4.5.2/../../../../mips-elf/lib/libc.a(lib_a-errno.o)
 .debug_aranges
                0x00000000000005a8       0x20 /home/fazzi/dev/Pinguino-svn/pinguino32/trunk/linux/p32/bin/../lib/gcc/mips-elf/4.5.2/../../../../mips-elf/lib/libc.a(lib_a-memset.o)
 .debug_aranges
                0x00000000000005c8       0x20 /home/fazzi/dev/Pinguino-svn/pinguino32/trunk/linux/p32/bin/../lib/gcc/mips-elf/4.5.2/../../../../mips-elf/lib/libc.a(lib_a-sprintf.o)
 .debug_aranges
                0x00000000000005e8       0x20 /home/fazzi/dev/Pinguino-svn/pinguino32/trunk/linux/p32/bin/../lib/gcc/mips-elf/4.5.2/../../../../mips-elf/lib/libc.a(lib_a-strcat.o)
 .debug_aranges
                0x0000000000000608       0x20 /home/fazzi/dev/Pinguino-svn/pinguino32/trunk/linux/p32/bin/../lib/gcc/mips-elf/4.5.2/../../../../mips-elf/lib/libc.a(lib_a-strcmp.o)
 .debug_aranges
                0x0000000000000628       0x20 /home/fazzi/dev/Pinguino-svn/pinguino32/trunk/linux/p32/bin/../lib/gcc/mips-elf/4.5.2/../../../../mips-elf/lib/libc.a(lib_a-strcpy.o)
 .debug_aranges
                0x0000000000000648       0x20 /home/fazzi/dev/Pinguino-svn/pinguino32/trunk/linux/p32/bin/../lib/gcc/mips-elf/4.5.2/../../../../mips-elf/lib/libc.a(lib_a-strncpy.o)
 .debug_aranges
                0x0000000000000668       0x20 /home/fazzi/dev/Pinguino-svn/pinguino32/trunk/linux/p32/bin/../lib/gcc/mips-elf/4.5.2/../../../../mips-elf/lib/libc.a(lib_a-strtol.o)
 .debug_aranges
                0x0000000000000688       0x20 /home/fazzi/dev/Pinguino-svn/pinguino32/trunk/linux/p32/bin/../lib/gcc/mips-elf/4.5.2/../../../../mips-elf/lib/libc.a(lib_a-svfprintf.o)
 .debug_aranges
                0x00000000000006a8       0x20 /home/fazzi/dev/Pinguino-svn/pinguino32/trunk/linux/p32/bin/../lib/gcc/mips-elf/4.5.2/../../../../mips-elf/lib/libc.a(lib_a-dtoa.o)
 .debug_aranges
                0x00000000000006c8       0x20 /home/fazzi/dev/Pinguino-svn/pinguino32/trunk/linux/p32/bin/../lib/gcc/mips-elf/4.5.2/../../../../mips-elf/lib/libc.a(lib_a-freer.o)
 .debug_aranges
                0x00000000000006e8       0x20 /home/fazzi/dev/Pinguino-svn/pinguino32/trunk/linux/p32/bin/../lib/gcc/mips-elf/4.5.2/../../../../mips-elf/lib/libc.a(lib_a-locale.o)
 .debug_aranges
                0x0000000000000708       0x20 /home/fazzi/dev/Pinguino-svn/pinguino32/trunk/linux/p32/bin/../lib/gcc/mips-elf/4.5.2/../../../../mips-elf/lib/libc.a(lib_a-mallocr.o)
 .debug_aranges
                0x0000000000000728       0x20 /home/fazzi/dev/Pinguino-svn/pinguino32/trunk/linux/p32/bin/../lib/gcc/mips-elf/4.5.2/../../../../mips-elf/lib/libc.a(lib_a-memchr.o)
 .debug_aranges
                0x0000000000000748       0x20 /home/fazzi/dev/Pinguino-svn/pinguino32/trunk/linux/p32/bin/../lib/gcc/mips-elf/4.5.2/../../../../mips-elf/lib/libc.a(lib_a-memcpy.o)
 .debug_aranges
                0x0000000000000768       0x20 /home/fazzi/dev/Pinguino-svn/pinguino32/trunk/linux/p32/bin/../lib/gcc/mips-elf/4.5.2/../../../../mips-elf/lib/libc.a(lib_a-memmove.o)
 .debug_aranges
                0x0000000000000788       0x20 /home/fazzi/dev/Pinguino-svn/pinguino32/trunk/linux/p32/bin/../lib/gcc/mips-elf/4.5.2/../../../../mips-elf/lib/libc.a(lib_a-mlock.o)
 .debug_aranges
                0x00000000000007a8       0x20 /home/fazzi/dev/Pinguino-svn/pinguino32/trunk/linux/p32/bin/../lib/gcc/mips-elf/4.5.2/../../../../mips-elf/lib/libc.a(lib_a-mprec.o)
 .debug_aranges
                0x00000000000007c8       0x20 /home/fazzi/dev/Pinguino-svn/pinguino32/trunk/linux/p32/bin/../lib/gcc/mips-elf/4.5.2/../../../../mips-elf/lib/libc.a(lib_a-reallocr.o)
 .debug_aranges
                0x00000000000007e8       0x20 /home/fazzi/dev/Pinguino-svn/pinguino32/trunk/linux/p32/bin/../lib/gcc/mips-elf/4.5.2/../../../../mips-elf/lib/libc.a(lib_a-sbrkr.o)
 .debug_aranges
                0x0000000000000808       0x20 /home/fazzi/dev/Pinguino-svn/pinguino32/trunk/linux/p32/bin/../lib/gcc/mips-elf/4.5.2/../../../../mips-elf/lib/libc.a(lib_a-s_isinfd.o)
 .debug_aranges
                0x0000000000000828       0x20 /home/fazzi/dev/Pinguino-svn/pinguino32/trunk/linux/p32/bin/../lib/gcc/mips-elf/4.5.2/../../../../mips-elf/lib/libc.a(lib_a-s_isnand.o)
 .debug_aranges
                0x0000000000000848       0x20 /home/fazzi/dev/Pinguino-svn/pinguino32/trunk/linux/p32/bin/../lib/gcc/mips-elf/4.5.2/../../../../mips-elf/lib/libc.a(lib_a-callocr.o)
 .debug_aranges
                0x0000000000000868       0x20 /home/fazzi/dev/Pinguino-svn/pinguino32/trunk/linux/p32/bin/../lib/gcc/mips-elf/4.5.2/../../../../mips-elf/lib/libc.a(lib_a-reent.o)
 .debug_aranges
                0x0000000000000888       0x20 /home/fazzi/dev/Pinguino-svn/pinguino32/trunk/linux/p32/bin/../lib/gcc/mips-elf/4.5.2/soft-float/el/libgcc.a(_udivdi3.o)
 .debug_aranges
                0x00000000000008a8       0x20 /home/fazzi/dev/Pinguino-svn/pinguino32/trunk/linux/p32/bin/../lib/gcc/mips-elf/4.5.2/soft-float/el/libgcc.a(_umoddi3.o)
 .debug_aranges
                0x00000000000008c8       0x20 /home/fazzi/dev/Pinguino-svn/pinguino32/trunk/linux/p32/bin/../lib/gcc/mips-elf/4.5.2/soft-float/el/libgcc.a(_ge_df.o)
 .debug_aranges
                0x00000000000008e8       0x20 /home/fazzi/dev/Pinguino-svn/pinguino32/trunk/linux/p32/bin/../lib/gcc/mips-elf/4.5.2/soft-float/el/libgcc.a(_usi_to_df.o)
 .debug_aranges
                0x0000000000000908       0x28 /home/fazzi/dev/Pinguino-svn/pinguino32/trunk/linux/p32/bin/../lib/gcc/mips-elf/4.5.2/soft-float/el/crtn.o

.debug_pubnames
                0x0000000000000000      0xcb9
 *(.debug_pubnames)
 .debug_pubnames
                0x0000000000000000       0x1b /home/fazzi/dev/Pinguino-svn/pinguino32/trunk/linux/p32/bin/../lib/gcc/mips-elf/4.5.2/../../../../mips-elf/lib/libm.a(lib_a-wf_pow.o)
 .debug_pubnames
                0x000000000000001b       0x25 /home/fazzi/dev/Pinguino-svn/pinguino32/trunk/linux/p32/bin/../lib/gcc/mips-elf/4.5.2/../../../../mips-elf/lib/libm.a(lib_a-ef_pow.o)
 .debug_pubnames
                0x0000000000000040       0x26 /home/fazzi/dev/Pinguino-svn/pinguino32/trunk/linux/p32/bin/../lib/gcc/mips-elf/4.5.2/../../../../mips-elf/lib/libm.a(lib_a-ef_sqrt.o)
 .debug_pubnames
                0x0000000000000066       0x1c /home/fazzi/dev/Pinguino-svn/pinguino32/trunk/linux/p32/bin/../lib/gcc/mips-elf/4.5.2/../../../../mips-elf/lib/libm.a(lib_a-sf_fabs.o)
 .debug_pubnames
                0x0000000000000082       0x1e /home/fazzi/dev/Pinguino-svn/pinguino32/trunk/linux/p32/bin/../lib/gcc/mips-elf/4.5.2/../../../../mips-elf/lib/libm.a(lib_a-sf_finite.o)
 .debug_pubnames
                0x00000000000000a0       0x1d /home/fazzi/dev/Pinguino-svn/pinguino32/trunk/linux/p32/bin/../lib/gcc/mips-elf/4.5.2/../../../../mips-elf/lib/libm.a(lib_a-sf_isnan.o)
 .debug_pubnames
                0x00000000000000bd       0x1b /home/fazzi/dev/Pinguino-svn/pinguino32/trunk/linux/p32/bin/../lib/gcc/mips-elf/4.5.2/../../../../mips-elf/lib/libm.a(lib_a-sf_nan.o)
 .debug_pubnames
                0x00000000000000d8       0x1e /home/fazzi/dev/Pinguino-svn/pinguino32/trunk/linux/p32/bin/../lib/gcc/mips-elf/4.5.2/../../../../mips-elf/lib/libm.a(lib_a-sf_scalbn.o)
 .debug_pubnames
                0x00000000000000f6       0x26 /home/fazzi/dev/Pinguino-svn/pinguino32/trunk/linux/p32/bin/../lib/gcc/mips-elf/4.5.2/../../../../mips-elf/lib/libm.a(lib_a-s_lib_ver.o)
 .debug_pubnames
                0x000000000000011c       0x1e /home/fazzi/dev/Pinguino-svn/pinguino32/trunk/linux/p32/bin/../lib/gcc/mips-elf/4.5.2/../../../../mips-elf/lib/libm.a(lib_a-s_matherr.o)
 .debug_pubnames
                0x000000000000013a       0x1b /home/fazzi/dev/Pinguino-svn/pinguino32/trunk/linux/p32/bin/../lib/gcc/mips-elf/4.5.2/../../../../mips-elf/lib/libm.a(lib_a-s_rint.o)
 .debug_pubnames
                0x0000000000000155       0x20 /home/fazzi/dev/Pinguino-svn/pinguino32/trunk/linux/p32/bin/../lib/gcc/mips-elf/4.5.2/../../../../mips-elf/lib/libm.a(lib_a-sf_copysign.o)
 .debug_pubnames
                0x0000000000000175       0x2c /home/fazzi/dev/Pinguino-svn/pinguino32/trunk/linux/p32/bin/../lib/gcc/mips-elf/4.5.2/soft-float/el/libgcc.a(_addsub_sf.o)
 .debug_pubnames
                0x00000000000001a1       0x1f /home/fazzi/dev/Pinguino-svn/pinguino32/trunk/linux/p32/bin/../lib/gcc/mips-elf/4.5.2/soft-float/el/libgcc.a(_mul_sf.o)
 .debug_pubnames
                0x00000000000001c0       0x1f /home/fazzi/dev/Pinguino-svn/pinguino32/trunk/linux/p32/bin/../lib/gcc/mips-elf/4.5.2/soft-float/el/libgcc.a(_div_sf.o)
 .debug_pubnames
                0x00000000000001df       0x1e /home/fazzi/dev/Pinguino-svn/pinguino32/trunk/linux/p32/bin/../lib/gcc/mips-elf/4.5.2/soft-float/el/libgcc.a(_eq_sf.o)
 .debug_pubnames
                0x00000000000001fd       0x1e /home/fazzi/dev/Pinguino-svn/pinguino32/trunk/linux/p32/bin/../lib/gcc/mips-elf/4.5.2/soft-float/el/libgcc.a(_gt_sf.o)
 .debug_pubnames
                0x000000000000021b       0x1e /home/fazzi/dev/Pinguino-svn/pinguino32/trunk/linux/p32/bin/../lib/gcc/mips-elf/4.5.2/soft-float/el/libgcc.a(_lt_sf.o)
 .debug_pubnames
                0x0000000000000239       0x1e /home/fazzi/dev/Pinguino-svn/pinguino32/trunk/linux/p32/bin/../lib/gcc/mips-elf/4.5.2/soft-float/el/libgcc.a(_le_sf.o)
 .debug_pubnames
                0x0000000000000257       0x22 /home/fazzi/dev/Pinguino-svn/pinguino32/trunk/linux/p32/bin/../lib/gcc/mips-elf/4.5.2/soft-float/el/libgcc.a(_si_to_sf.o)
 .debug_pubnames
                0x0000000000000279       0x20 /home/fazzi/dev/Pinguino-svn/pinguino32/trunk/linux/p32/bin/../lib/gcc/mips-elf/4.5.2/soft-float/el/libgcc.a(_sf_to_si.o)
 .debug_pubnames
                0x0000000000000299       0x24 /home/fazzi/dev/Pinguino-svn/pinguino32/trunk/linux/p32/bin/../lib/gcc/mips-elf/4.5.2/soft-float/el/libgcc.a(_sf_to_df.o)
 .debug_pubnames
                0x00000000000002bd       0x22 /home/fazzi/dev/Pinguino-svn/pinguino32/trunk/linux/p32/bin/../lib/gcc/mips-elf/4.5.2/soft-float/el/libgcc.a(_thenan_sf.o)
 .debug_pubnames
                0x00000000000002df       0x2c /home/fazzi/dev/Pinguino-svn/pinguino32/trunk/linux/p32/bin/../lib/gcc/mips-elf/4.5.2/soft-float/el/libgcc.a(_addsub_df.o)
 .debug_pubnames
                0x000000000000030b       0x1f /home/fazzi/dev/Pinguino-svn/pinguino32/trunk/linux/p32/bin/../lib/gcc/mips-elf/4.5.2/soft-float/el/libgcc.a(_mul_df.o)
 .debug_pubnames
                0x000000000000032a       0x1f /home/fazzi/dev/Pinguino-svn/pinguino32/trunk/linux/p32/bin/../lib/gcc/mips-elf/4.5.2/soft-float/el/libgcc.a(_div_df.o)
 .debug_pubnames
                0x0000000000000349       0x1e /home/fazzi/dev/Pinguino-svn/pinguino32/trunk/linux/p32/bin/../lib/gcc/mips-elf/4.5.2/soft-float/el/libgcc.a(_eq_df.o)
 .debug_pubnames
                0x0000000000000367       0x1e /home/fazzi/dev/Pinguino-svn/pinguino32/trunk/linux/p32/bin/../lib/gcc/mips-elf/4.5.2/soft-float/el/libgcc.a(_ne_df.o)
 .debug_pubnames
                0x0000000000000385       0x1e /home/fazzi/dev/Pinguino-svn/pinguino32/trunk/linux/p32/bin/../lib/gcc/mips-elf/4.5.2/soft-float/el/libgcc.a(_gt_df.o)
 .debug_pubnames
                0x00000000000003a3       0x1e /home/fazzi/dev/Pinguino-svn/pinguino32/trunk/linux/p32/bin/../lib/gcc/mips-elf/4.5.2/soft-float/el/libgcc.a(_lt_df.o)
 .debug_pubnames
                0x00000000000003c1       0x22 /home/fazzi/dev/Pinguino-svn/pinguino32/trunk/linux/p32/bin/../lib/gcc/mips-elf/4.5.2/soft-float/el/libgcc.a(_si_to_df.o)
 .debug_pubnames
                0x00000000000003e3       0x20 /home/fazzi/dev/Pinguino-svn/pinguino32/trunk/linux/p32/bin/../lib/gcc/mips-elf/4.5.2/soft-float/el/libgcc.a(_df_to_si.o)
 .debug_pubnames
                0x0000000000000403       0x20 /home/fazzi/dev/Pinguino-svn/pinguino32/trunk/linux/p32/bin/../lib/gcc/mips-elf/4.5.2/soft-float/el/libgcc.a(_make_df.o)
 .debug_pubnames
                0x0000000000000423       0x23 /home/fazzi/dev/Pinguino-svn/pinguino32/trunk/linux/p32/bin/../lib/gcc/mips-elf/4.5.2/soft-float/el/libgcc.a(_df_to_sf.o)
 .debug_pubnames
                0x0000000000000446       0x22 /home/fazzi/dev/Pinguino-svn/pinguino32/trunk/linux/p32/bin/../lib/gcc/mips-elf/4.5.2/soft-float/el/libgcc.a(_thenan_df.o)
 .debug_pubnames
                0x0000000000000468       0x1f /home/fazzi/dev/Pinguino-svn/pinguino32/trunk/linux/p32/bin/../lib/gcc/mips-elf/4.5.2/soft-float/el/libgcc.a(_clzsi2.o)
 .debug_pubnames
                0x0000000000000487       0x1f /home/fazzi/dev/Pinguino-svn/pinguino32/trunk/linux/p32/bin/../lib/gcc/mips-elf/4.5.2/soft-float/el/libgcc.a(_pack_sf.o)
 .debug_pubnames
                0x00000000000004a6       0x21 /home/fazzi/dev/Pinguino-svn/pinguino32/trunk/linux/p32/bin/../lib/gcc/mips-elf/4.5.2/soft-float/el/libgcc.a(_unpack_sf.o)
 .debug_pubnames
                0x00000000000004c7       0x26 /home/fazzi/dev/Pinguino-svn/pinguino32/trunk/linux/p32/bin/../lib/gcc/mips-elf/4.5.2/soft-float/el/libgcc.a(_fpcmp_parts_sf.o)
 .debug_pubnames
                0x00000000000004ed       0x20 /home/fazzi/dev/Pinguino-svn/pinguino32/trunk/linux/p32/bin/../lib/gcc/mips-elf/4.5.2/soft-float/el/libgcc.a(_make_sf.o)
 .debug_pubnames
                0x000000000000050d       0x1f /home/fazzi/dev/Pinguino-svn/pinguino32/trunk/linux/p32/bin/../lib/gcc/mips-elf/4.5.2/soft-float/el/libgcc.a(_pack_df.o)
 .debug_pubnames
                0x000000000000052c       0x21 /home/fazzi/dev/Pinguino-svn/pinguino32/trunk/linux/p32/bin/../lib/gcc/mips-elf/4.5.2/soft-float/el/libgcc.a(_unpack_df.o)
 .debug_pubnames
                0x000000000000054d       0x26 /home/fazzi/dev/Pinguino-svn/pinguino32/trunk/linux/p32/bin/../lib/gcc/mips-elf/4.5.2/soft-float/el/libgcc.a(_fpcmp_parts_df.o)
 .debug_pubnames
                0x0000000000000573       0x20 /home/fazzi/dev/Pinguino-svn/pinguino32/trunk/linux/p32/bin/../lib/gcc/mips-elf/4.5.2/soft-float/el/libgcc.a(_lshrdi3.o)
 .debug_pubnames
                0x0000000000000593       0x20 /home/fazzi/dev/Pinguino-svn/pinguino32/trunk/linux/p32/bin/../lib/gcc/mips-elf/4.5.2/soft-float/el/libgcc.a(_ashldi3.o)
 .debug_pubnames
                0x00000000000005b3       0x20 /home/fazzi/dev/Pinguino-svn/pinguino32/trunk/linux/p32/bin/../lib/gcc/mips-elf/4.5.2/soft-float/el/libgcc.a(_clz.o)
 .debug_pubnames
                0x00000000000005d3       0x27 /home/fazzi/dev/Pinguino-svn/pinguino32/trunk/linux/p32/bin/../lib/gcc/mips-elf/4.5.2/../../../../mips-elf/lib/libc.a(lib_a-atoi.o)
 .debug_pubnames
                0x00000000000005fa       0x1e /home/fazzi/dev/Pinguino-svn/pinguino32/trunk/linux/p32/bin/../lib/gcc/mips-elf/4.5.2/../../../../mips-elf/lib/libc.a(lib_a-errno.o)
 .debug_pubnames
                0x0000000000000618       0x39 /home/fazzi/dev/Pinguino-svn/pinguino32/trunk/linux/p32/bin/../lib/gcc/mips-elf/4.5.2/../../../../mips-elf/lib/libc.a(lib_a-impure.o)
 .debug_pubnames
                0x0000000000000651       0x1d /home/fazzi/dev/Pinguino-svn/pinguino32/trunk/linux/p32/bin/../lib/gcc/mips-elf/4.5.2/../../../../mips-elf/lib/libc.a(lib_a-memset.o)
 .debug_pubnames
                0x000000000000066e       0x2d /home/fazzi/dev/Pinguino-svn/pinguino32/trunk/linux/p32/bin/../lib/gcc/mips-elf/4.5.2/../../../../mips-elf/lib/libc.a(lib_a-sprintf.o)
 .debug_pubnames
                0x000000000000069b       0x1d /home/fazzi/dev/Pinguino-svn/pinguino32/trunk/linux/p32/bin/../lib/gcc/mips-elf/4.5.2/../../../../mips-elf/lib/libc.a(lib_a-strcat.o)
 .debug_pubnames
                0x00000000000006b8       0x1d /home/fazzi/dev/Pinguino-svn/pinguino32/trunk/linux/p32/bin/../lib/gcc/mips-elf/4.5.2/../../../../mips-elf/lib/libc.a(lib_a-strcmp.o)
 .debug_pubnames
                0x00000000000006d5       0x1d /home/fazzi/dev/Pinguino-svn/pinguino32/trunk/linux/p32/bin/../lib/gcc/mips-elf/4.5.2/../../../../mips-elf/lib/libc.a(lib_a-strcpy.o)
 .debug_pubnames
                0x00000000000006f2       0x1e /home/fazzi/dev/Pinguino-svn/pinguino32/trunk/linux/p32/bin/../lib/gcc/mips-elf/4.5.2/../../../../mips-elf/lib/libc.a(lib_a-strncpy.o)
 .debug_pubnames
                0x0000000000000710       0x2b /home/fazzi/dev/Pinguino-svn/pinguino32/trunk/linux/p32/bin/../lib/gcc/mips-elf/4.5.2/../../../../mips-elf/lib/libc.a(lib_a-strtol.o)
 .debug_pubnames
                0x000000000000073b       0x23 /home/fazzi/dev/Pinguino-svn/pinguino32/trunk/linux/p32/bin/../lib/gcc/mips-elf/4.5.2/../../../../mips-elf/lib/libc.a(lib_a-svfprintf.o)
 .debug_pubnames
                0x000000000000075e       0x40 /home/fazzi/dev/Pinguino-svn/pinguino32/trunk/linux/p32/bin/../lib/gcc/mips-elf/4.5.2/../../../../mips-elf/lib/libc.a(lib_a-ctype_.o)
 .debug_pubnames
                0x000000000000079e       0x1e /home/fazzi/dev/Pinguino-svn/pinguino32/trunk/linux/p32/bin/../lib/gcc/mips-elf/4.5.2/../../../../mips-elf/lib/libc.a(lib_a-dtoa.o)
 .debug_pubnames
                0x00000000000007bc       0x31 /home/fazzi/dev/Pinguino-svn/pinguino32/trunk/linux/p32/bin/../lib/gcc/mips-elf/4.5.2/../../../../mips-elf/lib/libc.a(lib_a-freer.o)
 .debug_pubnames
                0x00000000000007ed       0xc3 /home/fazzi/dev/Pinguino-svn/pinguino32/trunk/linux/p32/bin/../lib/gcc/mips-elf/4.5.2/../../../../mips-elf/lib/libc.a(lib_a-locale.o)
 .debug_pubnames
                0x00000000000008b0       0xce /home/fazzi/dev/Pinguino-svn/pinguino32/trunk/linux/p32/bin/../lib/gcc/mips-elf/4.5.2/../../../../mips-elf/lib/libc.a(lib_a-mallocr.o)
 .debug_pubnames
                0x000000000000097e       0x1d /home/fazzi/dev/Pinguino-svn/pinguino32/trunk/linux/p32/bin/../lib/gcc/mips-elf/4.5.2/../../../../mips-elf/lib/libc.a(lib_a-memchr.o)
 .debug_pubnames
                0x000000000000099b       0x1d /home/fazzi/dev/Pinguino-svn/pinguino32/trunk/linux/p32/bin/../lib/gcc/mips-elf/4.5.2/../../../../mips-elf/lib/libc.a(lib_a-memcpy.o)
 .debug_pubnames
                0x00000000000009b8       0x1e /home/fazzi/dev/Pinguino-svn/pinguino32/trunk/linux/p32/bin/../lib/gcc/mips-elf/4.5.2/../../../../mips-elf/lib/libc.a(lib_a-memmove.o)
 .debug_pubnames
                0x00000000000009d6       0x38 /home/fazzi/dev/Pinguino-svn/pinguino32/trunk/linux/p32/bin/../lib/gcc/mips-elf/4.5.2/../../../../mips-elf/lib/libc.a(lib_a-mlock.o)
 .debug_pubnames
                0x0000000000000a0e      0x13a /home/fazzi/dev/Pinguino-svn/pinguino32/trunk/linux/p32/bin/../lib/gcc/mips-elf/4.5.2/../../../../mips-elf/lib/libc.a(lib_a-mprec.o)
 .debug_pubnames
                0x0000000000000b48       0x21 /home/fazzi/dev/Pinguino-svn/pinguino32/trunk/linux/p32/bin/../lib/gcc/mips-elf/4.5.2/../../../../mips-elf/lib/libc.a(lib_a-reallocr.o)
 .debug_pubnames
                0x0000000000000b69       0x1e /home/fazzi/dev/Pinguino-svn/pinguino32/trunk/linux/p32/bin/../lib/gcc/mips-elf/4.5.2/../../../../mips-elf/lib/libc.a(lib_a-sbrkr.o)
 .debug_pubnames
                0x0000000000000b87       0x1f /home/fazzi/dev/Pinguino-svn/pinguino32/trunk/linux/p32/bin/../lib/gcc/mips-elf/4.5.2/../../../../mips-elf/lib/libc.a(lib_a-s_isinfd.o)
 .debug_pubnames
                0x0000000000000ba6       0x1f /home/fazzi/dev/Pinguino-svn/pinguino32/trunk/linux/p32/bin/../lib/gcc/mips-elf/4.5.2/../../../../mips-elf/lib/libc.a(lib_a-s_isnand.o)
 .debug_pubnames
                0x0000000000000bc5       0x20 /home/fazzi/dev/Pinguino-svn/pinguino32/trunk/linux/p32/bin/../lib/gcc/mips-elf/4.5.2/../../../../mips-elf/lib/libc.a(lib_a-callocr.o)
 .debug_pubnames
                0x0000000000000be5       0x52 /home/fazzi/dev/Pinguino-svn/pinguino32/trunk/linux/p32/bin/../lib/gcc/mips-elf/4.5.2/../../../../mips-elf/lib/libc.a(lib_a-reent.o)
 .debug_pubnames
                0x0000000000000c37       0x20 /home/fazzi/dev/Pinguino-svn/pinguino32/trunk/linux/p32/bin/../lib/gcc/mips-elf/4.5.2/soft-float/el/libgcc.a(_udivdi3.o)
 .debug_pubnames
                0x0000000000000c57       0x20 /home/fazzi/dev/Pinguino-svn/pinguino32/trunk/linux/p32/bin/../lib/gcc/mips-elf/4.5.2/soft-float/el/libgcc.a(_umoddi3.o)
 .debug_pubnames
                0x0000000000000c77       0x1e /home/fazzi/dev/Pinguino-svn/pinguino32/trunk/linux/p32/bin/../lib/gcc/mips-elf/4.5.2/soft-float/el/libgcc.a(_ge_df.o)
 .debug_pubnames
                0x0000000000000c95       0x24 /home/fazzi/dev/Pinguino-svn/pinguino32/trunk/linux/p32/bin/../lib/gcc/mips-elf/4.5.2/soft-float/el/libgcc.a(_usi_to_df.o)

.debug_info     0x0000000000000000    0x1459a
 *(.debug_info .gnu.linkonce.wi.*)
 .debug_info    0x0000000000000000       0xb0 /home/fazzi/dev/Pinguino-svn/pinguino32/trunk/linux/p32/bin/../lib/gcc/mips-elf/4.5.2/soft-float/el/crti.o
 .debug_info    0x00000000000000b0      0x184 /home/fazzi/dev/Pinguino-svn/pinguino32/trunk/linux/p32/bin/../lib/gcc/mips-elf/4.5.2/../../../../mips-elf/lib/libm.a(lib_a-wf_pow.o)
 .debug_info    0x0000000000000234      0x60e /home/fazzi/dev/Pinguino-svn/pinguino32/trunk/linux/p32/bin/../lib/gcc/mips-elf/4.5.2/../../../../mips-elf/lib/libm.a(lib_a-ef_pow.o)
 .debug_info    0x0000000000000842      0x1b2 /home/fazzi/dev/Pinguino-svn/pinguino32/trunk/linux/p32/bin/../lib/gcc/mips-elf/4.5.2/../../../../mips-elf/lib/libm.a(lib_a-ef_sqrt.o)
 .debug_info    0x00000000000009f4      0x10a /home/fazzi/dev/Pinguino-svn/pinguino32/trunk/linux/p32/bin/../lib/gcc/mips-elf/4.5.2/../../../../mips-elf/lib/libm.a(lib_a-sf_fabs.o)
 .debug_info    0x0000000000000afe      0x117 /home/fazzi/dev/Pinguino-svn/pinguino32/trunk/linux/p32/bin/../lib/gcc/mips-elf/4.5.2/../../../../mips-elf/lib/libm.a(lib_a-sf_finite.o)
 .debug_info    0x0000000000000c15      0x117 /home/fazzi/dev/Pinguino-svn/pinguino32/trunk/linux/p32/bin/../lib/gcc/mips-elf/4.5.2/../../../../mips-elf/lib/libm.a(lib_a-sf_isnan.o)
 .debug_info    0x0000000000000d2c       0xc8 /home/fazzi/dev/Pinguino-svn/pinguino32/trunk/linux/p32/bin/../lib/gcc/mips-elf/4.5.2/../../../../mips-elf/lib/libm.a(lib_a-sf_nan.o)
 .debug_info    0x0000000000000df4      0x1d9 /home/fazzi/dev/Pinguino-svn/pinguino32/trunk/linux/p32/bin/../lib/gcc/mips-elf/4.5.2/../../../../mips-elf/lib/libm.a(lib_a-sf_scalbn.o)
 .debug_info    0x0000000000000fcd       0xc3 /home/fazzi/dev/Pinguino-svn/pinguino32/trunk/linux/p32/bin/../lib/gcc/mips-elf/4.5.2/../../../../mips-elf/lib/libm.a(lib_a-s_lib_ver.o)
 .debug_info    0x0000000000001090      0x133 /home/fazzi/dev/Pinguino-svn/pinguino32/trunk/linux/p32/bin/../lib/gcc/mips-elf/4.5.2/../../../../mips-elf/lib/libm.a(lib_a-s_matherr.o)
 .debug_info    0x00000000000011c3      0x217 /home/fazzi/dev/Pinguino-svn/pinguino32/trunk/linux/p32/bin/../lib/gcc/mips-elf/4.5.2/../../../../mips-elf/lib/libm.a(lib_a-s_rint.o)
 .debug_info    0x00000000000013da      0x121 /home/fazzi/dev/Pinguino-svn/pinguino32/trunk/linux/p32/bin/../lib/gcc/mips-elf/4.5.2/../../../../mips-elf/lib/libm.a(lib_a-sf_copysign.o)
 .debug_info    0x00000000000014fb      0x45e /home/fazzi/dev/Pinguino-svn/pinguino32/trunk/linux/p32/bin/../lib/gcc/mips-elf/4.5.2/soft-float/el/libgcc.a(_addsub_sf.o)
 .debug_info    0x0000000000001959      0x3aa /home/fazzi/dev/Pinguino-svn/pinguino32/trunk/linux/p32/bin/../lib/gcc/mips-elf/4.5.2/soft-float/el/libgcc.a(_mul_sf.o)
 .debug_info    0x0000000000001d03      0x386 /home/fazzi/dev/Pinguino-svn/pinguino32/trunk/linux/p32/bin/../lib/gcc/mips-elf/4.5.2/soft-float/el/libgcc.a(_div_sf.o)
 .debug_info    0x0000000000002089      0x296 /home/fazzi/dev/Pinguino-svn/pinguino32/trunk/linux/p32/bin/../lib/gcc/mips-elf/4.5.2/soft-float/el/libgcc.a(_eq_sf.o)
 .debug_info    0x000000000000231f      0x296 /home/fazzi/dev/Pinguino-svn/pinguino32/trunk/linux/p32/bin/../lib/gcc/mips-elf/4.5.2/soft-float/el/libgcc.a(_gt_sf.o)
 .debug_info    0x00000000000025b5      0x296 /home/fazzi/dev/Pinguino-svn/pinguino32/trunk/linux/p32/bin/../lib/gcc/mips-elf/4.5.2/soft-float/el/libgcc.a(_lt_sf.o)
 .debug_info    0x000000000000284b      0x296 /home/fazzi/dev/Pinguino-svn/pinguino32/trunk/linux/p32/bin/../lib/gcc/mips-elf/4.5.2/soft-float/el/libgcc.a(_le_sf.o)
 .debug_info    0x0000000000002ae1      0x23f /home/fazzi/dev/Pinguino-svn/pinguino32/trunk/linux/p32/bin/../lib/gcc/mips-elf/4.5.2/soft-float/el/libgcc.a(_si_to_sf.o)
 .debug_info    0x0000000000002d20      0x2b1 /home/fazzi/dev/Pinguino-svn/pinguino32/trunk/linux/p32/bin/../lib/gcc/mips-elf/4.5.2/soft-float/el/libgcc.a(_sf_to_si.o)
 .debug_info    0x0000000000002fd1      0x256 /home/fazzi/dev/Pinguino-svn/pinguino32/trunk/linux/p32/bin/../lib/gcc/mips-elf/4.5.2/soft-float/el/libgcc.a(_sf_to_df.o)
 .debug_info    0x0000000000003227      0x16a /home/fazzi/dev/Pinguino-svn/pinguino32/trunk/linux/p32/bin/../lib/gcc/mips-elf/4.5.2/soft-float/el/libgcc.a(_thenan_sf.o)
 .debug_info    0x0000000000003391      0x46c /home/fazzi/dev/Pinguino-svn/pinguino32/trunk/linux/p32/bin/../lib/gcc/mips-elf/4.5.2/soft-float/el/libgcc.a(_addsub_df.o)
 .debug_info    0x00000000000037fd      0x472 /home/fazzi/dev/Pinguino-svn/pinguino32/trunk/linux/p32/bin/../lib/gcc/mips-elf/4.5.2/soft-float/el/libgcc.a(_mul_df.o)
 .debug_info    0x0000000000003c6f      0x394 /home/fazzi/dev/Pinguino-svn/pinguino32/trunk/linux/p32/bin/../lib/gcc/mips-elf/4.5.2/soft-float/el/libgcc.a(_div_df.o)
 .debug_info    0x0000000000004003      0x2a4 /home/fazzi/dev/Pinguino-svn/pinguino32/trunk/linux/p32/bin/../lib/gcc/mips-elf/4.5.2/soft-float/el/libgcc.a(_eq_df.o)
 .debug_info    0x00000000000042a7      0x2a4 /home/fazzi/dev/Pinguino-svn/pinguino32/trunk/linux/p32/bin/../lib/gcc/mips-elf/4.5.2/soft-float/el/libgcc.a(_ne_df.o)
 .debug_info    0x000000000000454b      0x2a4 /home/fazzi/dev/Pinguino-svn/pinguino32/trunk/linux/p32/bin/../lib/gcc/mips-elf/4.5.2/soft-float/el/libgcc.a(_gt_df.o)
 .debug_info    0x00000000000047ef      0x2a4 /home/fazzi/dev/Pinguino-svn/pinguino32/trunk/linux/p32/bin/../lib/gcc/mips-elf/4.5.2/soft-float/el/libgcc.a(_lt_df.o)
 .debug_info    0x0000000000004a93      0x23b /home/fazzi/dev/Pinguino-svn/pinguino32/trunk/linux/p32/bin/../lib/gcc/mips-elf/4.5.2/soft-float/el/libgcc.a(_si_to_df.o)
 .debug_info    0x0000000000004cce      0x2bd /home/fazzi/dev/Pinguino-svn/pinguino32/trunk/linux/p32/bin/../lib/gcc/mips-elf/4.5.2/soft-float/el/libgcc.a(_df_to_si.o)
 .debug_info    0x0000000000004f8b      0x1dc /home/fazzi/dev/Pinguino-svn/pinguino32/trunk/linux/p32/bin/../lib/gcc/mips-elf/4.5.2/soft-float/el/libgcc.a(_make_df.o)
 .debug_info    0x0000000000005167      0x267 /home/fazzi/dev/Pinguino-svn/pinguino32/trunk/linux/p32/bin/../lib/gcc/mips-elf/4.5.2/soft-float/el/libgcc.a(_df_to_sf.o)
 .debug_info    0x00000000000053ce      0x16a /home/fazzi/dev/Pinguino-svn/pinguino32/trunk/linux/p32/bin/../lib/gcc/mips-elf/4.5.2/soft-float/el/libgcc.a(_thenan_df.o)
 .debug_info    0x0000000000005538      0x131 /home/fazzi/dev/Pinguino-svn/pinguino32/trunk/linux/p32/bin/../lib/gcc/mips-elf/4.5.2/soft-float/el/libgcc.a(_clzsi2.o)
 .debug_info    0x0000000000005669      0x2e4 /home/fazzi/dev/Pinguino-svn/pinguino32/trunk/linux/p32/bin/../lib/gcc/mips-elf/4.5.2/soft-float/el/libgcc.a(_pack_sf.o)
 .debug_info    0x000000000000594d      0x265 /home/fazzi/dev/Pinguino-svn/pinguino32/trunk/linux/p32/bin/../lib/gcc/mips-elf/4.5.2/soft-float/el/libgcc.a(_unpack_sf.o)
 .debug_info    0x0000000000005bb2      0x1fc /home/fazzi/dev/Pinguino-svn/pinguino32/trunk/linux/p32/bin/../lib/gcc/mips-elf/4.5.2/soft-float/el/libgcc.a(_fpcmp_parts_sf.o)
 .debug_info    0x0000000000005dae      0x1dd /home/fazzi/dev/Pinguino-svn/pinguino32/trunk/linux/p32/bin/../lib/gcc/mips-elf/4.5.2/soft-float/el/libgcc.a(_make_sf.o)
 .debug_info    0x0000000000005f8b      0x2ed /home/fazzi/dev/Pinguino-svn/pinguino32/trunk/linux/p32/bin/../lib/gcc/mips-elf/4.5.2/soft-float/el/libgcc.a(_pack_df.o)
 .debug_info    0x0000000000006278      0x271 /home/fazzi/dev/Pinguino-svn/pinguino32/trunk/linux/p32/bin/../lib/gcc/mips-elf/4.5.2/soft-float/el/libgcc.a(_unpack_df.o)
 .debug_info    0x00000000000064e9      0x1fc /home/fazzi/dev/Pinguino-svn/pinguino32/trunk/linux/p32/bin/../lib/gcc/mips-elf/4.5.2/soft-float/el/libgcc.a(_fpcmp_parts_df.o)
 .debug_info    0x00000000000066e5      0x18e /home/fazzi/dev/Pinguino-svn/pinguino32/trunk/linux/p32/bin/../lib/gcc/mips-elf/4.5.2/soft-float/el/libgcc.a(_lshrdi3.o)
 .debug_info    0x0000000000006873      0x18a /home/fazzi/dev/Pinguino-svn/pinguino32/trunk/linux/p32/bin/../lib/gcc/mips-elf/4.5.2/soft-float/el/libgcc.a(_ashldi3.o)
 .debug_info    0x00000000000069fd       0xb4 /home/fazzi/dev/Pinguino-svn/pinguino32/trunk/linux/p32/bin/../lib/gcc/mips-elf/4.5.2/soft-float/el/libgcc.a(_clz.o)
 .debug_info    0x0000000000006ab1      0x975 /home/fazzi/dev/Pinguino-svn/pinguino32/trunk/linux/p32/bin/../lib/gcc/mips-elf/4.5.2/../../../../mips-elf/lib/libc.a(lib_a-atoi.o)
 .debug_info    0x0000000000007426      0x93f /home/fazzi/dev/Pinguino-svn/pinguino32/trunk/linux/p32/bin/../lib/gcc/mips-elf/4.5.2/../../../../mips-elf/lib/libc.a(lib_a-errno.o)
 .debug_info    0x0000000000007d65      0x94a /home/fazzi/dev/Pinguino-svn/pinguino32/trunk/linux/p32/bin/../lib/gcc/mips-elf/4.5.2/../../../../mips-elf/lib/libc.a(lib_a-impure.o)
 .debug_info    0x00000000000086af      0x13f /home/fazzi/dev/Pinguino-svn/pinguino32/trunk/linux/p32/bin/../lib/gcc/mips-elf/4.5.2/../../../../mips-elf/lib/libc.a(lib_a-memset.o)
 .debug_info    0x00000000000087ee      0xa2d /home/fazzi/dev/Pinguino-svn/pinguino32/trunk/linux/p32/bin/../lib/gcc/mips-elf/4.5.2/../../../../mips-elf/lib/libc.a(lib_a-sprintf.o)
 .debug_info    0x000000000000921b       0xed /home/fazzi/dev/Pinguino-svn/pinguino32/trunk/linux/p32/bin/../lib/gcc/mips-elf/4.5.2/../../../../mips-elf/lib/libc.a(lib_a-strcat.o)
 .debug_info    0x0000000000009308      0x127 /home/fazzi/dev/Pinguino-svn/pinguino32/trunk/linux/p32/bin/../lib/gcc/mips-elf/4.5.2/../../../../mips-elf/lib/libc.a(lib_a-strcmp.o)
 .debug_info    0x000000000000942f      0x112 /home/fazzi/dev/Pinguino-svn/pinguino32/trunk/linux/p32/bin/../lib/gcc/mips-elf/4.5.2/../../../../mips-elf/lib/libc.a(lib_a-strcpy.o)
 .debug_info    0x0000000000009541       0x76 /home/fazzi/dev/Pinguino-svn/pinguino32/trunk/linux/p32/bin/../lib/gcc/mips-elf/4.5.2/../../../../mips-elf/lib/libc.a(lib_a-strlen.o)
 .debug_info    0x00000000000095b7      0x19e /home/fazzi/dev/Pinguino-svn/pinguino32/trunk/linux/p32/bin/../lib/gcc/mips-elf/4.5.2/../../../../mips-elf/lib/libc.a(lib_a-strncpy.o)
 .debug_info    0x0000000000009755      0xa35 /home/fazzi/dev/Pinguino-svn/pinguino32/trunk/linux/p32/bin/../lib/gcc/mips-elf/4.5.2/../../../../mips-elf/lib/libc.a(lib_a-strtol.o)
 .debug_info    0x000000000000a18a     0x1028 /home/fazzi/dev/Pinguino-svn/pinguino32/trunk/linux/p32/bin/../lib/gcc/mips-elf/4.5.2/../../../../mips-elf/lib/libc.a(lib_a-svfprintf.o)
 .debug_info    0x000000000000b1b2       0xae /home/fazzi/dev/Pinguino-svn/pinguino32/trunk/linux/p32/bin/../lib/gcc/mips-elf/4.5.2/../../../../mips-elf/lib/libc.a(lib_a-ctype_.o)
 .debug_info    0x000000000000b260      0xd80 /home/fazzi/dev/Pinguino-svn/pinguino32/trunk/linux/p32/bin/../lib/gcc/mips-elf/4.5.2/../../../../mips-elf/lib/libc.a(lib_a-dtoa.o)
 .debug_info    0x000000000000bfe0      0xbde /home/fazzi/dev/Pinguino-svn/pinguino32/trunk/linux/p32/bin/../lib/gcc/mips-elf/4.5.2/../../../../mips-elf/lib/libc.a(lib_a-freer.o)
 .debug_info    0x000000000000cbbe      0xbcc /home/fazzi/dev/Pinguino-svn/pinguino32/trunk/linux/p32/bin/../lib/gcc/mips-elf/4.5.2/../../../../mips-elf/lib/libc.a(lib_a-locale.o)
 .debug_info    0x000000000000d78a      0xce1 /home/fazzi/dev/Pinguino-svn/pinguino32/trunk/linux/p32/bin/../lib/gcc/mips-elf/4.5.2/../../../../mips-elf/lib/libc.a(lib_a-mallocr.o)
 .debug_info    0x000000000000e46b      0x125 /home/fazzi/dev/Pinguino-svn/pinguino32/trunk/linux/p32/bin/../lib/gcc/mips-elf/4.5.2/../../../../mips-elf/lib/libc.a(lib_a-memchr.o)
 .debug_info    0x000000000000e590      0x196 /home/fazzi/dev/Pinguino-svn/pinguino32/trunk/linux/p32/bin/../lib/gcc/mips-elf/4.5.2/../../../../mips-elf/lib/libc.a(lib_a-memcpy.o)
 .debug_info    0x000000000000e726      0x144 /home/fazzi/dev/Pinguino-svn/pinguino32/trunk/linux/p32/bin/../lib/gcc/mips-elf/4.5.2/../../../../mips-elf/lib/libc.a(lib_a-memmove.o)
 .debug_info    0x000000000000e86a      0x96c /home/fazzi/dev/Pinguino-svn/pinguino32/trunk/linux/p32/bin/../lib/gcc/mips-elf/4.5.2/../../../../mips-elf/lib/libc.a(lib_a-mlock.o)
 .debug_info    0x000000000000f1d6     0x1552 /home/fazzi/dev/Pinguino-svn/pinguino32/trunk/linux/p32/bin/../lib/gcc/mips-elf/4.5.2/../../../../mips-elf/lib/libc.a(lib_a-mprec.o)
 .debug_info    0x0000000000010728      0xbf0 /home/fazzi/dev/Pinguino-svn/pinguino32/trunk/linux/p32/bin/../lib/gcc/mips-elf/4.5.2/../../../../mips-elf/lib/libc.a(lib_a-reallocr.o)
 .debug_info    0x0000000000011318      0x975 /home/fazzi/dev/Pinguino-svn/pinguino32/trunk/linux/p32/bin/../lib/gcc/mips-elf/4.5.2/../../../../mips-elf/lib/libc.a(lib_a-sbrkr.o)
 .debug_info    0x0000000000011c8d       0xd8 /home/fazzi/dev/Pinguino-svn/pinguino32/trunk/linux/p32/bin/../lib/gcc/mips-elf/4.5.2/../../../../mips-elf/lib/libc.a(lib_a-s_isinfd.o)
 .debug_info    0x0000000000011d65       0xd6 /home/fazzi/dev/Pinguino-svn/pinguino32/trunk/linux/p32/bin/../lib/gcc/mips-elf/4.5.2/../../../../mips-elf/lib/libc.a(lib_a-s_isnand.o)
 .debug_info    0x0000000000011e3b      0xa2c /home/fazzi/dev/Pinguino-svn/pinguino32/trunk/linux/p32/bin/../lib/gcc/mips-elf/4.5.2/../../../../mips-elf/lib/libc.a(lib_a-callocr.o)
 .debug_info    0x0000000000012867      0xa3b /home/fazzi/dev/Pinguino-svn/pinguino32/trunk/linux/p32/bin/../lib/gcc/mips-elf/4.5.2/../../../../mips-elf/lib/libc.a(lib_a-reent.o)
 .debug_info    0x00000000000132a2      0x69a /home/fazzi/dev/Pinguino-svn/pinguino32/trunk/linux/p32/bin/../lib/gcc/mips-elf/4.5.2/soft-float/el/libgcc.a(_udivdi3.o)
 .debug_info    0x000000000001393c      0x6d4 /home/fazzi/dev/Pinguino-svn/pinguino32/trunk/linux/p32/bin/../lib/gcc/mips-elf/4.5.2/soft-float/el/libgcc.a(_umoddi3.o)
 .debug_info    0x0000000000014010      0x2a4 /home/fazzi/dev/Pinguino-svn/pinguino32/trunk/linux/p32/bin/../lib/gcc/mips-elf/4.5.2/soft-float/el/libgcc.a(_ge_df.o)
 .debug_info    0x00000000000142b4      0x236 /home/fazzi/dev/Pinguino-svn/pinguino32/trunk/linux/p32/bin/../lib/gcc/mips-elf/4.5.2/soft-float/el/libgcc.a(_usi_to_df.o)
 .debug_info    0x00000000000144ea       0xb0 /home/fazzi/dev/Pinguino-svn/pinguino32/trunk/linux/p32/bin/../lib/gcc/mips-elf/4.5.2/soft-float/el/crtn.o

.debug_abbrev   0x0000000000000000     0x61d3
 *(.debug_abbrev)
 .debug_abbrev  0x0000000000000000       0x12 /home/fazzi/dev/Pinguino-svn/pinguino32/trunk/linux/p32/bin/../lib/gcc/mips-elf/4.5.2/soft-float/el/crti.o
 .debug_abbrev  0x0000000000000012       0xdb /home/fazzi/dev/Pinguino-svn/pinguino32/trunk/linux/p32/bin/../lib/gcc/mips-elf/4.5.2/../../../../mips-elf/lib/libm.a(lib_a-wf_pow.o)
 .debug_abbrev  0x00000000000000ed      0x13c /home/fazzi/dev/Pinguino-svn/pinguino32/trunk/linux/p32/bin/../lib/gcc/mips-elf/4.5.2/../../../../mips-elf/lib/libm.a(lib_a-ef_pow.o)
 .debug_abbrev  0x0000000000000229       0xe9 /home/fazzi/dev/Pinguino-svn/pinguino32/trunk/linux/p32/bin/../lib/gcc/mips-elf/4.5.2/../../../../mips-elf/lib/libm.a(lib_a-ef_sqrt.o)
 .debug_abbrev  0x0000000000000312       0xb3 /home/fazzi/dev/Pinguino-svn/pinguino32/trunk/linux/p32/bin/../lib/gcc/mips-elf/4.5.2/../../../../mips-elf/lib/libm.a(lib_a-sf_fabs.o)
 .debug_abbrev  0x00000000000003c5       0xb3 /home/fazzi/dev/Pinguino-svn/pinguino32/trunk/linux/p32/bin/../lib/gcc/mips-elf/4.5.2/../../../../mips-elf/lib/libm.a(lib_a-sf_finite.o)
 .debug_abbrev  0x0000000000000478       0xb3 /home/fazzi/dev/Pinguino-svn/pinguino32/trunk/linux/p32/bin/../lib/gcc/mips-elf/4.5.2/../../../../mips-elf/lib/libm.a(lib_a-sf_isnan.o)
 .debug_abbrev  0x000000000000052b       0x79 /home/fazzi/dev/Pinguino-svn/pinguino32/trunk/linux/p32/bin/../lib/gcc/mips-elf/4.5.2/../../../../mips-elf/lib/libm.a(lib_a-sf_nan.o)
 .debug_abbrev  0x00000000000005a4       0xd8 /home/fazzi/dev/Pinguino-svn/pinguino32/trunk/linux/p32/bin/../lib/gcc/mips-elf/4.5.2/../../../../mips-elf/lib/libm.a(lib_a-sf_scalbn.o)
 .debug_abbrev  0x000000000000067c       0x5c /home/fazzi/dev/Pinguino-svn/pinguino32/trunk/linux/p32/bin/../lib/gcc/mips-elf/4.5.2/../../../../mips-elf/lib/libm.a(lib_a-s_lib_ver.o)
 .debug_abbrev  0x00000000000006d8       0xa1 /home/fazzi/dev/Pinguino-svn/pinguino32/trunk/linux/p32/bin/../lib/gcc/mips-elf/4.5.2/../../../../mips-elf/lib/libm.a(lib_a-s_matherr.o)
 .debug_abbrev  0x0000000000000779      0x132 /home/fazzi/dev/Pinguino-svn/pinguino32/trunk/linux/p32/bin/../lib/gcc/mips-elf/4.5.2/../../../../mips-elf/lib/libm.a(lib_a-s_rint.o)
 .debug_abbrev  0x00000000000008ab       0xc2 /home/fazzi/dev/Pinguino-svn/pinguino32/trunk/linux/p32/bin/../lib/gcc/mips-elf/4.5.2/../../../../mips-elf/lib/libm.a(lib_a-sf_copysign.o)
 .debug_abbrev  0x000000000000096d      0x1bc /home/fazzi/dev/Pinguino-svn/pinguino32/trunk/linux/p32/bin/../lib/gcc/mips-elf/4.5.2/soft-float/el/libgcc.a(_addsub_sf.o)
 .debug_abbrev  0x0000000000000b29      0x1d2 /home/fazzi/dev/Pinguino-svn/pinguino32/trunk/linux/p32/bin/../lib/gcc/mips-elf/4.5.2/soft-float/el/libgcc.a(_mul_sf.o)
 .debug_abbrev  0x0000000000000cfb      0x1c4 /home/fazzi/dev/Pinguino-svn/pinguino32/trunk/linux/p32/bin/../lib/gcc/mips-elf/4.5.2/soft-float/el/libgcc.a(_div_sf.o)
 .debug_abbrev  0x0000000000000ebf      0x151 /home/fazzi/dev/Pinguino-svn/pinguino32/trunk/linux/p32/bin/../lib/gcc/mips-elf/4.5.2/soft-float/el/libgcc.a(_eq_sf.o)
 .debug_abbrev  0x0000000000001010      0x151 /home/fazzi/dev/Pinguino-svn/pinguino32/trunk/linux/p32/bin/../lib/gcc/mips-elf/4.5.2/soft-float/el/libgcc.a(_gt_sf.o)
 .debug_abbrev  0x0000000000001161      0x151 /home/fazzi/dev/Pinguino-svn/pinguino32/trunk/linux/p32/bin/../lib/gcc/mips-elf/4.5.2/soft-float/el/libgcc.a(_lt_sf.o)
 .debug_abbrev  0x00000000000012b2      0x151 /home/fazzi/dev/Pinguino-svn/pinguino32/trunk/linux/p32/bin/../lib/gcc/mips-elf/4.5.2/soft-float/el/libgcc.a(_le_sf.o)
 .debug_abbrev  0x0000000000001403      0x164 /home/fazzi/dev/Pinguino-svn/pinguino32/trunk/linux/p32/bin/../lib/gcc/mips-elf/4.5.2/soft-float/el/libgcc.a(_si_to_sf.o)
 .debug_abbrev  0x0000000000001567      0x160 /home/fazzi/dev/Pinguino-svn/pinguino32/trunk/linux/p32/bin/../lib/gcc/mips-elf/4.5.2/soft-float/el/libgcc.a(_sf_to_si.o)
 .debug_abbrev  0x00000000000016c7      0x128 /home/fazzi/dev/Pinguino-svn/pinguino32/trunk/linux/p32/bin/../lib/gcc/mips-elf/4.5.2/soft-float/el/libgcc.a(_sf_to_df.o)
 .debug_abbrev  0x00000000000017ef       0xcb /home/fazzi/dev/Pinguino-svn/pinguino32/trunk/linux/p32/bin/../lib/gcc/mips-elf/4.5.2/soft-float/el/libgcc.a(_thenan_sf.o)
 .debug_abbrev  0x00000000000018ba      0x1bc /home/fazzi/dev/Pinguino-svn/pinguino32/trunk/linux/p32/bin/../lib/gcc/mips-elf/4.5.2/soft-float/el/libgcc.a(_addsub_df.o)
 .debug_abbrev  0x0000000000001a76      0x1d9 /home/fazzi/dev/Pinguino-svn/pinguino32/trunk/linux/p32/bin/../lib/gcc/mips-elf/4.5.2/soft-float/el/libgcc.a(_mul_df.o)
 .debug_abbrev  0x0000000000001c4f      0x1c4 /home/fazzi/dev/Pinguino-svn/pinguino32/trunk/linux/p32/bin/../lib/gcc/mips-elf/4.5.2/soft-float/el/libgcc.a(_div_df.o)
 .debug_abbrev  0x0000000000001e13      0x151 /home/fazzi/dev/Pinguino-svn/pinguino32/trunk/linux/p32/bin/../lib/gcc/mips-elf/4.5.2/soft-float/el/libgcc.a(_eq_df.o)
 .debug_abbrev  0x0000000000001f64      0x151 /home/fazzi/dev/Pinguino-svn/pinguino32/trunk/linux/p32/bin/../lib/gcc/mips-elf/4.5.2/soft-float/el/libgcc.a(_ne_df.o)
 .debug_abbrev  0x00000000000020b5      0x151 /home/fazzi/dev/Pinguino-svn/pinguino32/trunk/linux/p32/bin/../lib/gcc/mips-elf/4.5.2/soft-float/el/libgcc.a(_gt_df.o)
 .debug_abbrev  0x0000000000002206      0x151 /home/fazzi/dev/Pinguino-svn/pinguino32/trunk/linux/p32/bin/../lib/gcc/mips-elf/4.5.2/soft-float/el/libgcc.a(_lt_df.o)
 .debug_abbrev  0x0000000000002357      0x162 /home/fazzi/dev/Pinguino-svn/pinguino32/trunk/linux/p32/bin/../lib/gcc/mips-elf/4.5.2/soft-float/el/libgcc.a(_si_to_df.o)
 .debug_abbrev  0x00000000000024b9      0x160 /home/fazzi/dev/Pinguino-svn/pinguino32/trunk/linux/p32/bin/../lib/gcc/mips-elf/4.5.2/soft-float/el/libgcc.a(_df_to_si.o)
 .debug_abbrev  0x0000000000002619      0x10f /home/fazzi/dev/Pinguino-svn/pinguino32/trunk/linux/p32/bin/../lib/gcc/mips-elf/4.5.2/soft-float/el/libgcc.a(_make_df.o)
 .debug_abbrev  0x0000000000002728      0x137 /home/fazzi/dev/Pinguino-svn/pinguino32/trunk/linux/p32/bin/../lib/gcc/mips-elf/4.5.2/soft-float/el/libgcc.a(_df_to_sf.o)
 .debug_abbrev  0x000000000000285f       0xcb /home/fazzi/dev/Pinguino-svn/pinguino32/trunk/linux/p32/bin/../lib/gcc/mips-elf/4.5.2/soft-float/el/libgcc.a(_thenan_df.o)
 .debug_abbrev  0x000000000000292a       0xbd /home/fazzi/dev/Pinguino-svn/pinguino32/trunk/linux/p32/bin/../lib/gcc/mips-elf/4.5.2/soft-float/el/libgcc.a(_clzsi2.o)
 .debug_abbrev  0x00000000000029e7      0x185 /home/fazzi/dev/Pinguino-svn/pinguino32/trunk/linux/p32/bin/../lib/gcc/mips-elf/4.5.2/soft-float/el/libgcc.a(_pack_sf.o)
 .debug_abbrev  0x0000000000002b6c      0x15a /home/fazzi/dev/Pinguino-svn/pinguino32/trunk/linux/p32/bin/../lib/gcc/mips-elf/4.5.2/soft-float/el/libgcc.a(_unpack_sf.o)
 .debug_abbrev  0x0000000000002cc6      0x10b /home/fazzi/dev/Pinguino-svn/pinguino32/trunk/linux/p32/bin/../lib/gcc/mips-elf/4.5.2/soft-float/el/libgcc.a(_fpcmp_parts_sf.o)
 .debug_abbrev  0x0000000000002dd1      0x100 /home/fazzi/dev/Pinguino-svn/pinguino32/trunk/linux/p32/bin/../lib/gcc/mips-elf/4.5.2/soft-float/el/libgcc.a(_make_sf.o)
 .debug_abbrev  0x0000000000002ed1      0x192 /home/fazzi/dev/Pinguino-svn/pinguino32/trunk/linux/p32/bin/../lib/gcc/mips-elf/4.5.2/soft-float/el/libgcc.a(_pack_df.o)
 .debug_abbrev  0x0000000000003063      0x15a /home/fazzi/dev/Pinguino-svn/pinguino32/trunk/linux/p32/bin/../lib/gcc/mips-elf/4.5.2/soft-float/el/libgcc.a(_unpack_df.o)
 .debug_abbrev  0x00000000000031bd      0x10b /home/fazzi/dev/Pinguino-svn/pinguino32/trunk/linux/p32/bin/../lib/gcc/mips-elf/4.5.2/soft-float/el/libgcc.a(_fpcmp_parts_df.o)
 .debug_abbrev  0x00000000000032c8       0xfd /home/fazzi/dev/Pinguino-svn/pinguino32/trunk/linux/p32/bin/../lib/gcc/mips-elf/4.5.2/soft-float/el/libgcc.a(_lshrdi3.o)
 .debug_abbrev  0x00000000000033c5       0xfb /home/fazzi/dev/Pinguino-svn/pinguino32/trunk/linux/p32/bin/../lib/gcc/mips-elf/4.5.2/soft-float/el/libgcc.a(_ashldi3.o)
 .debug_abbrev  0x00000000000034c0       0x61 /home/fazzi/dev/Pinguino-svn/pinguino32/trunk/linux/p32/bin/../lib/gcc/mips-elf/4.5.2/soft-float/el/libgcc.a(_clz.o)
 .debug_abbrev  0x0000000000003521      0x185 /home/fazzi/dev/Pinguino-svn/pinguino32/trunk/linux/p32/bin/../lib/gcc/mips-elf/4.5.2/../../../../mips-elf/lib/libc.a(lib_a-atoi.o)
 .debug_abbrev  0x00000000000036a6      0x16b /home/fazzi/dev/Pinguino-svn/pinguino32/trunk/linux/p32/bin/../lib/gcc/mips-elf/4.5.2/../../../../mips-elf/lib/libc.a(lib_a-errno.o)
 .debug_abbrev  0x0000000000003811      0x160 /home/fazzi/dev/Pinguino-svn/pinguino32/trunk/linux/p32/bin/../lib/gcc/mips-elf/4.5.2/../../../../mips-elf/lib/libc.a(lib_a-impure.o)
 .debug_abbrev  0x0000000000003971       0xcb /home/fazzi/dev/Pinguino-svn/pinguino32/trunk/linux/p32/bin/../lib/gcc/mips-elf/4.5.2/../../../../mips-elf/lib/libc.a(lib_a-memset.o)
 .debug_abbrev  0x0000000000003a3c      0x1a6 /home/fazzi/dev/Pinguino-svn/pinguino32/trunk/linux/p32/bin/../lib/gcc/mips-elf/4.5.2/../../../../mips-elf/lib/libc.a(lib_a-sprintf.o)
 .debug_abbrev  0x0000000000003be2       0x93 /home/fazzi/dev/Pinguino-svn/pinguino32/trunk/linux/p32/bin/../lib/gcc/mips-elf/4.5.2/../../../../mips-elf/lib/libc.a(lib_a-strcat.o)
 .debug_abbrev  0x0000000000003c75       0xa6 /home/fazzi/dev/Pinguino-svn/pinguino32/trunk/linux/p32/bin/../lib/gcc/mips-elf/4.5.2/../../../../mips-elf/lib/libc.a(lib_a-strcmp.o)
 .debug_abbrev  0x0000000000003d1b       0x8c /home/fazzi/dev/Pinguino-svn/pinguino32/trunk/linux/p32/bin/../lib/gcc/mips-elf/4.5.2/../../../../mips-elf/lib/libc.a(lib_a-strcpy.o)
 .debug_abbrev  0x0000000000003da7       0x33 /home/fazzi/dev/Pinguino-svn/pinguino32/trunk/linux/p32/bin/../lib/gcc/mips-elf/4.5.2/../../../../mips-elf/lib/libc.a(lib_a-strlen.o)
 .debug_abbrev  0x0000000000003dda       0xc0 /home/fazzi/dev/Pinguino-svn/pinguino32/trunk/linux/p32/bin/../lib/gcc/mips-elf/4.5.2/../../../../mips-elf/lib/libc.a(lib_a-strncpy.o)
 .debug_abbrev  0x0000000000003e9a      0x201 /home/fazzi/dev/Pinguino-svn/pinguino32/trunk/linux/p32/bin/../lib/gcc/mips-elf/4.5.2/../../../../mips-elf/lib/libc.a(lib_a-strtol.o)
 .debug_abbrev  0x000000000000409b      0x320 /home/fazzi/dev/Pinguino-svn/pinguino32/trunk/linux/p32/bin/../lib/gcc/mips-elf/4.5.2/../../../../mips-elf/lib/libc.a(lib_a-svfprintf.o)
 .debug_abbrev  0x00000000000043bb       0x6a /home/fazzi/dev/Pinguino-svn/pinguino32/trunk/linux/p32/bin/../lib/gcc/mips-elf/4.5.2/../../../../mips-elf/lib/libc.a(lib_a-ctype_.o)
 .debug_abbrev  0x0000000000004425      0x245 /home/fazzi/dev/Pinguino-svn/pinguino32/trunk/linux/p32/bin/../lib/gcc/mips-elf/4.5.2/../../../../mips-elf/lib/libc.a(lib_a-dtoa.o)
 .debug_abbrev  0x000000000000466a      0x1e8 /home/fazzi/dev/Pinguino-svn/pinguino32/trunk/linux/p32/bin/../lib/gcc/mips-elf/4.5.2/../../../../mips-elf/lib/libc.a(lib_a-freer.o)
 .debug_abbrev  0x0000000000004852      0x236 /home/fazzi/dev/Pinguino-svn/pinguino32/trunk/linux/p32/bin/../lib/gcc/mips-elf/4.5.2/../../../../mips-elf/lib/libc.a(lib_a-locale.o)
 .debug_abbrev  0x0000000000004a88      0x222 /home/fazzi/dev/Pinguino-svn/pinguino32/trunk/linux/p32/bin/../lib/gcc/mips-elf/4.5.2/../../../../mips-elf/lib/libc.a(lib_a-mallocr.o)
 .debug_abbrev  0x0000000000004caa       0xdf /home/fazzi/dev/Pinguino-svn/pinguino32/trunk/linux/p32/bin/../lib/gcc/mips-elf/4.5.2/../../../../mips-elf/lib/libc.a(lib_a-memchr.o)
 .debug_abbrev  0x0000000000004d89       0xc8 /home/fazzi/dev/Pinguino-svn/pinguino32/trunk/linux/p32/bin/../lib/gcc/mips-elf/4.5.2/../../../../mips-elf/lib/libc.a(lib_a-memcpy.o)
 .debug_abbrev  0x0000000000004e51       0xa5 /home/fazzi/dev/Pinguino-svn/pinguino32/trunk/linux/p32/bin/../lib/gcc/mips-elf/4.5.2/../../../../mips-elf/lib/libc.a(lib_a-memmove.o)
 .debug_abbrev  0x0000000000004ef6      0x176 /home/fazzi/dev/Pinguino-svn/pinguino32/trunk/linux/p32/bin/../lib/gcc/mips-elf/4.5.2/../../../../mips-elf/lib/libc.a(lib_a-mlock.o)
 .debug_abbrev  0x000000000000506c      0x35f /home/fazzi/dev/Pinguino-svn/pinguino32/trunk/linux/p32/bin/../lib/gcc/mips-elf/4.5.2/../../../../mips-elf/lib/libc.a(lib_a-mprec.o)
 .debug_abbrev  0x00000000000053cb      0x1d8 /home/fazzi/dev/Pinguino-svn/pinguino32/trunk/linux/p32/bin/../lib/gcc/mips-elf/4.5.2/../../../../mips-elf/lib/libc.a(lib_a-reallocr.o)
 .debug_abbrev  0x00000000000055a3      0x19a /home/fazzi/dev/Pinguino-svn/pinguino32/trunk/linux/p32/bin/../lib/gcc/mips-elf/4.5.2/../../../../mips-elf/lib/libc.a(lib_a-sbrkr.o)
 .debug_abbrev  0x000000000000573d       0x85 /home/fazzi/dev/Pinguino-svn/pinguino32/trunk/linux/p32/bin/../lib/gcc/mips-elf/4.5.2/../../../../mips-elf/lib/libc.a(lib_a-s_isinfd.o)
 .debug_abbrev  0x00000000000057c2       0x76 /home/fazzi/dev/Pinguino-svn/pinguino32/trunk/linux/p32/bin/../lib/gcc/mips-elf/4.5.2/../../../../mips-elf/lib/libc.a(lib_a-s_isnand.o)
 .debug_abbrev  0x0000000000005838      0x1c4 /home/fazzi/dev/Pinguino-svn/pinguino32/trunk/linux/p32/bin/../lib/gcc/mips-elf/4.5.2/../../../../mips-elf/lib/libc.a(lib_a-callocr.o)
 .debug_abbrev  0x00000000000059fc      0x1e6 /home/fazzi/dev/Pinguino-svn/pinguino32/trunk/linux/p32/bin/../lib/gcc/mips-elf/4.5.2/../../../../mips-elf/lib/libc.a(lib_a-reent.o)
 .debug_abbrev  0x0000000000005be2      0x17e /home/fazzi/dev/Pinguino-svn/pinguino32/trunk/linux/p32/bin/../lib/gcc/mips-elf/4.5.2/soft-float/el/libgcc.a(_udivdi3.o)
 .debug_abbrev  0x0000000000005d60      0x19f /home/fazzi/dev/Pinguino-svn/pinguino32/trunk/linux/p32/bin/../lib/gcc/mips-elf/4.5.2/soft-float/el/libgcc.a(_umoddi3.o)
 .debug_abbrev  0x0000000000005eff      0x151 /home/fazzi/dev/Pinguino-svn/pinguino32/trunk/linux/p32/bin/../lib/gcc/mips-elf/4.5.2/soft-float/el/libgcc.a(_ge_df.o)
 .debug_abbrev  0x0000000000006050      0x171 /home/fazzi/dev/Pinguino-svn/pinguino32/trunk/linux/p32/bin/../lib/gcc/mips-elf/4.5.2/soft-float/el/libgcc.a(_usi_to_df.o)
 .debug_abbrev  0x00000000000061c1       0x12 /home/fazzi/dev/Pinguino-svn/pinguino32/trunk/linux/p32/bin/../lib/gcc/mips-elf/4.5.2/soft-float/el/crtn.o

.debug_line     0x0000000000000000     0x5054
 *(.debug_line)
 .debug_line    0x0000000000000000       0x69 /home/fazzi/dev/Pinguino-svn/pinguino32/trunk/linux/p32/bin/../lib/gcc/mips-elf/4.5.2/soft-float/el/crti.o
 .debug_line    0x0000000000000069      0x156 /home/fazzi/dev/Pinguino-svn/pinguino32/trunk/linux/p32/bin/../lib/gcc/mips-elf/4.5.2/../../../../mips-elf/lib/libm.a(lib_a-wf_pow.o)
 .debug_line    0x00000000000001bf      0x223 /home/fazzi/dev/Pinguino-svn/pinguino32/trunk/linux/p32/bin/../lib/gcc/mips-elf/4.5.2/../../../../mips-elf/lib/libm.a(lib_a-ef_pow.o)
 .debug_line    0x00000000000003e2      0x137 /home/fazzi/dev/Pinguino-svn/pinguino32/trunk/linux/p32/bin/../lib/gcc/mips-elf/4.5.2/../../../../mips-elf/lib/libm.a(lib_a-ef_sqrt.o)
 .debug_line    0x0000000000000519       0xf8 /home/fazzi/dev/Pinguino-svn/pinguino32/trunk/linux/p32/bin/../lib/gcc/mips-elf/4.5.2/../../../../mips-elf/lib/libm.a(lib_a-sf_fabs.o)
 .debug_line    0x0000000000000611       0xc1 /home/fazzi/dev/Pinguino-svn/pinguino32/trunk/linux/p32/bin/../lib/gcc/mips-elf/4.5.2/../../../../mips-elf/lib/libm.a(lib_a-sf_finite.o)
 .debug_line    0x00000000000006d2       0xc1 /home/fazzi/dev/Pinguino-svn/pinguino32/trunk/linux/p32/bin/../lib/gcc/mips-elf/4.5.2/../../../../mips-elf/lib/libm.a(lib_a-sf_isnan.o)
 .debug_line    0x0000000000000793       0x6b /home/fazzi/dev/Pinguino-svn/pinguino32/trunk/linux/p32/bin/../lib/gcc/mips-elf/4.5.2/../../../../mips-elf/lib/libm.a(lib_a-sf_nan.o)
 .debug_line    0x00000000000007fe       0xf7 /home/fazzi/dev/Pinguino-svn/pinguino32/trunk/linux/p32/bin/../lib/gcc/mips-elf/4.5.2/../../../../mips-elf/lib/libm.a(lib_a-sf_scalbn.o)
 .debug_line    0x00000000000008f5       0x93 /home/fazzi/dev/Pinguino-svn/pinguino32/trunk/linux/p32/bin/../lib/gcc/mips-elf/4.5.2/../../../../mips-elf/lib/libm.a(lib_a-s_lib_ver.o)
 .debug_line    0x0000000000000988       0xa3 /home/fazzi/dev/Pinguino-svn/pinguino32/trunk/linux/p32/bin/../lib/gcc/mips-elf/4.5.2/../../../../mips-elf/lib/libm.a(lib_a-s_matherr.o)
 .debug_line    0x0000000000000a2b       0xfb /home/fazzi/dev/Pinguino-svn/pinguino32/trunk/linux/p32/bin/../lib/gcc/mips-elf/4.5.2/../../../../mips-elf/lib/libm.a(lib_a-s_rint.o)
 .debug_line    0x0000000000000b26       0xc4 /home/fazzi/dev/Pinguino-svn/pinguino32/trunk/linux/p32/bin/../lib/gcc/mips-elf/4.5.2/../../../../mips-elf/lib/libm.a(lib_a-sf_copysign.o)
 .debug_line    0x0000000000000bea      0x13f /home/fazzi/dev/Pinguino-svn/pinguino32/trunk/linux/p32/bin/../lib/gcc/mips-elf/4.5.2/soft-float/el/libgcc.a(_addsub_sf.o)
 .debug_line    0x0000000000000d29      0x111 /home/fazzi/dev/Pinguino-svn/pinguino32/trunk/linux/p32/bin/../lib/gcc/mips-elf/4.5.2/soft-float/el/libgcc.a(_mul_sf.o)
 .debug_line    0x0000000000000e3a       0xeb /home/fazzi/dev/Pinguino-svn/pinguino32/trunk/linux/p32/bin/../lib/gcc/mips-elf/4.5.2/soft-float/el/libgcc.a(_div_sf.o)
 .debug_line    0x0000000000000f25       0x9f /home/fazzi/dev/Pinguino-svn/pinguino32/trunk/linux/p32/bin/../lib/gcc/mips-elf/4.5.2/soft-float/el/libgcc.a(_eq_sf.o)
 .debug_line    0x0000000000000fc4       0x9f /home/fazzi/dev/Pinguino-svn/pinguino32/trunk/linux/p32/bin/../lib/gcc/mips-elf/4.5.2/soft-float/el/libgcc.a(_gt_sf.o)
 .debug_line    0x0000000000001063       0x9f /home/fazzi/dev/Pinguino-svn/pinguino32/trunk/linux/p32/bin/../lib/gcc/mips-elf/4.5.2/soft-float/el/libgcc.a(_lt_sf.o)
 .debug_line    0x0000000000001102       0x9f /home/fazzi/dev/Pinguino-svn/pinguino32/trunk/linux/p32/bin/../lib/gcc/mips-elf/4.5.2/soft-float/el/libgcc.a(_le_sf.o)
 .debug_line    0x00000000000011a1       0xa7 /home/fazzi/dev/Pinguino-svn/pinguino32/trunk/linux/p32/bin/../lib/gcc/mips-elf/4.5.2/soft-float/el/libgcc.a(_si_to_sf.o)
 .debug_line    0x0000000000001248       0xb0 /home/fazzi/dev/Pinguino-svn/pinguino32/trunk/linux/p32/bin/../lib/gcc/mips-elf/4.5.2/soft-float/el/libgcc.a(_sf_to_si.o)
 .debug_line    0x00000000000012f8       0x8d /home/fazzi/dev/Pinguino-svn/pinguino32/trunk/linux/p32/bin/../lib/gcc/mips-elf/4.5.2/soft-float/el/libgcc.a(_sf_to_df.o)
 .debug_line    0x0000000000001385       0x75 /home/fazzi/dev/Pinguino-svn/pinguino32/trunk/linux/p32/bin/../lib/gcc/mips-elf/4.5.2/soft-float/el/libgcc.a(_thenan_sf.o)
 .debug_line    0x00000000000013fa      0x157 /home/fazzi/dev/Pinguino-svn/pinguino32/trunk/linux/p32/bin/../lib/gcc/mips-elf/4.5.2/soft-float/el/libgcc.a(_addsub_df.o)
 .debug_line    0x0000000000001551      0x152 /home/fazzi/dev/Pinguino-svn/pinguino32/trunk/linux/p32/bin/../lib/gcc/mips-elf/4.5.2/soft-float/el/libgcc.a(_mul_df.o)
 .debug_line    0x00000000000016a3       0xff /home/fazzi/dev/Pinguino-svn/pinguino32/trunk/linux/p32/bin/../lib/gcc/mips-elf/4.5.2/soft-float/el/libgcc.a(_div_df.o)
 .debug_line    0x00000000000017a2       0xa0 /home/fazzi/dev/Pinguino-svn/pinguino32/trunk/linux/p32/bin/../lib/gcc/mips-elf/4.5.2/soft-float/el/libgcc.a(_eq_df.o)
 .debug_line    0x0000000000001842       0xa0 /home/fazzi/dev/Pinguino-svn/pinguino32/trunk/linux/p32/bin/../lib/gcc/mips-elf/4.5.2/soft-float/el/libgcc.a(_ne_df.o)
 .debug_line    0x00000000000018e2       0xa0 /home/fazzi/dev/Pinguino-svn/pinguino32/trunk/linux/p32/bin/../lib/gcc/mips-elf/4.5.2/soft-float/el/libgcc.a(_gt_df.o)
 .debug_line    0x0000000000001982       0xa0 /home/fazzi/dev/Pinguino-svn/pinguino32/trunk/linux/p32/bin/../lib/gcc/mips-elf/4.5.2/soft-float/el/libgcc.a(_lt_df.o)
 .debug_line    0x0000000000001a22       0xba /home/fazzi/dev/Pinguino-svn/pinguino32/trunk/linux/p32/bin/../lib/gcc/mips-elf/4.5.2/soft-float/el/libgcc.a(_si_to_df.o)
 .debug_line    0x0000000000001adc       0xb5 /home/fazzi/dev/Pinguino-svn/pinguino32/trunk/linux/p32/bin/../lib/gcc/mips-elf/4.5.2/soft-float/el/libgcc.a(_df_to_si.o)
 .debug_line    0x0000000000001b91       0x90 /home/fazzi/dev/Pinguino-svn/pinguino32/trunk/linux/p32/bin/../lib/gcc/mips-elf/4.5.2/soft-float/el/libgcc.a(_make_df.o)
 .debug_line    0x0000000000001c21       0x93 /home/fazzi/dev/Pinguino-svn/pinguino32/trunk/linux/p32/bin/../lib/gcc/mips-elf/4.5.2/soft-float/el/libgcc.a(_df_to_sf.o)
 .debug_line    0x0000000000001cb4       0x75 /home/fazzi/dev/Pinguino-svn/pinguino32/trunk/linux/p32/bin/../lib/gcc/mips-elf/4.5.2/soft-float/el/libgcc.a(_thenan_df.o)
 .debug_line    0x0000000000001d29       0x97 /home/fazzi/dev/Pinguino-svn/pinguino32/trunk/linux/p32/bin/../lib/gcc/mips-elf/4.5.2/soft-float/el/libgcc.a(_clzsi2.o)
 .debug_line    0x0000000000001dc0       0xe4 /home/fazzi/dev/Pinguino-svn/pinguino32/trunk/linux/p32/bin/../lib/gcc/mips-elf/4.5.2/soft-float/el/libgcc.a(_pack_sf.o)
 .debug_line    0x0000000000001ea4       0xb5 /home/fazzi/dev/Pinguino-svn/pinguino32/trunk/linux/p32/bin/../lib/gcc/mips-elf/4.5.2/soft-float/el/libgcc.a(_unpack_sf.o)
 .debug_line    0x0000000000001f59       0xcf /home/fazzi/dev/Pinguino-svn/pinguino32/trunk/linux/p32/bin/../lib/gcc/mips-elf/4.5.2/soft-float/el/libgcc.a(_fpcmp_parts_sf.o)
 .debug_line    0x0000000000002028       0x8e /home/fazzi/dev/Pinguino-svn/pinguino32/trunk/linux/p32/bin/../lib/gcc/mips-elf/4.5.2/soft-float/el/libgcc.a(_make_sf.o)
 .debug_line    0x00000000000020b6       0xfb /home/fazzi/dev/Pinguino-svn/pinguino32/trunk/linux/p32/bin/../lib/gcc/mips-elf/4.5.2/soft-float/el/libgcc.a(_pack_df.o)
 .debug_line    0x00000000000021b1       0xb9 /home/fazzi/dev/Pinguino-svn/pinguino32/trunk/linux/p32/bin/../lib/gcc/mips-elf/4.5.2/soft-float/el/libgcc.a(_unpack_df.o)
 .debug_line    0x000000000000226a       0xd5 /home/fazzi/dev/Pinguino-svn/pinguino32/trunk/linux/p32/bin/../lib/gcc/mips-elf/4.5.2/soft-float/el/libgcc.a(_fpcmp_parts_df.o)
 .debug_line    0x000000000000233f       0x7f /home/fazzi/dev/Pinguino-svn/pinguino32/trunk/linux/p32/bin/../lib/gcc/mips-elf/4.5.2/soft-float/el/libgcc.a(_lshrdi3.o)
 .debug_line    0x00000000000023be       0x81 /home/fazzi/dev/Pinguino-svn/pinguino32/trunk/linux/p32/bin/../lib/gcc/mips-elf/4.5.2/soft-float/el/libgcc.a(_ashldi3.o)
 .debug_line    0x000000000000243f       0x5e /home/fazzi/dev/Pinguino-svn/pinguino32/trunk/linux/p32/bin/../lib/gcc/mips-elf/4.5.2/soft-float/el/libgcc.a(_clz.o)
 .debug_line    0x000000000000249d       0xec /home/fazzi/dev/Pinguino-svn/pinguino32/trunk/linux/p32/bin/../lib/gcc/mips-elf/4.5.2/../../../../mips-elf/lib/libc.a(lib_a-atoi.o)
 .debug_line    0x0000000000002589       0xe8 /home/fazzi/dev/Pinguino-svn/pinguino32/trunk/linux/p32/bin/../lib/gcc/mips-elf/4.5.2/../../../../mips-elf/lib/libc.a(lib_a-errno.o)
 .debug_line    0x0000000000002671       0xda /home/fazzi/dev/Pinguino-svn/pinguino32/trunk/linux/p32/bin/../lib/gcc/mips-elf/4.5.2/../../../../mips-elf/lib/libc.a(lib_a-impure.o)
 .debug_line    0x000000000000274b       0xd0 /home/fazzi/dev/Pinguino-svn/pinguino32/trunk/linux/p32/bin/../lib/gcc/mips-elf/4.5.2/../../../../mips-elf/lib/libc.a(lib_a-memset.o)
 .debug_line    0x000000000000281b      0x16c /home/fazzi/dev/Pinguino-svn/pinguino32/trunk/linux/p32/bin/../lib/gcc/mips-elf/4.5.2/../../../../mips-elf/lib/libc.a(lib_a-sprintf.o)
 .debug_line    0x0000000000002987       0x84 /home/fazzi/dev/Pinguino-svn/pinguino32/trunk/linux/p32/bin/../lib/gcc/mips-elf/4.5.2/../../../../mips-elf/lib/libc.a(lib_a-strcat.o)
 .debug_line    0x0000000000002a0b       0x8e /home/fazzi/dev/Pinguino-svn/pinguino32/trunk/linux/p32/bin/../lib/gcc/mips-elf/4.5.2/../../../../mips-elf/lib/libc.a(lib_a-strcmp.o)
 .debug_line    0x0000000000002a99       0x7b /home/fazzi/dev/Pinguino-svn/pinguino32/trunk/linux/p32/bin/../lib/gcc/mips-elf/4.5.2/../../../../mips-elf/lib/libc.a(lib_a-strcpy.o)
 .debug_line    0x0000000000002b14       0x1d /home/fazzi/dev/Pinguino-svn/pinguino32/trunk/linux/p32/bin/../lib/gcc/mips-elf/4.5.2/../../../../mips-elf/lib/libc.a(lib_a-strlen.o)
 .debug_line    0x0000000000002b31      0x10b /home/fazzi/dev/Pinguino-svn/pinguino32/trunk/linux/p32/bin/../lib/gcc/mips-elf/4.5.2/../../../../mips-elf/lib/libc.a(lib_a-strncpy.o)
 .debug_line    0x0000000000002c3c      0x183 /home/fazzi/dev/Pinguino-svn/pinguino32/trunk/linux/p32/bin/../lib/gcc/mips-elf/4.5.2/../../../../mips-elf/lib/libc.a(lib_a-strtol.o)
 .debug_line    0x0000000000002dbf      0x61b /home/fazzi/dev/Pinguino-svn/pinguino32/trunk/linux/p32/bin/../lib/gcc/mips-elf/4.5.2/../../../../mips-elf/lib/libc.a(lib_a-svfprintf.o)
 .debug_line    0x00000000000033da       0x5b /home/fazzi/dev/Pinguino-svn/pinguino32/trunk/linux/p32/bin/../lib/gcc/mips-elf/4.5.2/../../../../mips-elf/lib/libc.a(lib_a-ctype_.o)
 .debug_line    0x0000000000003435      0x4b9 /home/fazzi/dev/Pinguino-svn/pinguino32/trunk/linux/p32/bin/../lib/gcc/mips-elf/4.5.2/../../../../mips-elf/lib/libc.a(lib_a-dtoa.o)
 .debug_line    0x00000000000038ee      0x175 /home/fazzi/dev/Pinguino-svn/pinguino32/trunk/linux/p32/bin/../lib/gcc/mips-elf/4.5.2/../../../../mips-elf/lib/libc.a(lib_a-freer.o)
 .debug_line    0x0000000000003a63      0x14d /home/fazzi/dev/Pinguino-svn/pinguino32/trunk/linux/p32/bin/../lib/gcc/mips-elf/4.5.2/../../../../mips-elf/lib/libc.a(lib_a-locale.o)
 .debug_line    0x0000000000003bb0      0x246 /home/fazzi/dev/Pinguino-svn/pinguino32/trunk/linux/p32/bin/../lib/gcc/mips-elf/4.5.2/../../../../mips-elf/lib/libc.a(lib_a-mallocr.o)
 .debug_line    0x0000000000003df6       0xc7 /home/fazzi/dev/Pinguino-svn/pinguino32/trunk/linux/p32/bin/../lib/gcc/mips-elf/4.5.2/../../../../mips-elf/lib/libc.a(lib_a-memchr.o)
 .debug_line    0x0000000000003ebd       0xf7 /home/fazzi/dev/Pinguino-svn/pinguino32/trunk/linux/p32/bin/../lib/gcc/mips-elf/4.5.2/../../../../mips-elf/lib/libc.a(lib_a-memcpy.o)
 .debug_line    0x0000000000003fb4       0xe4 /home/fazzi/dev/Pinguino-svn/pinguino32/trunk/linux/p32/bin/../lib/gcc/mips-elf/4.5.2/../../../../mips-elf/lib/libc.a(lib_a-memmove.o)
 .debug_line    0x0000000000004098       0xec /home/fazzi/dev/Pinguino-svn/pinguino32/trunk/linux/p32/bin/../lib/gcc/mips-elf/4.5.2/../../../../mips-elf/lib/libc.a(lib_a-mlock.o)
 .debug_line    0x0000000000004184      0x493 /home/fazzi/dev/Pinguino-svn/pinguino32/trunk/linux/p32/bin/../lib/gcc/mips-elf/4.5.2/../../../../mips-elf/lib/libc.a(lib_a-mprec.o)
 .debug_line    0x0000000000004617      0x1a7 /home/fazzi/dev/Pinguino-svn/pinguino32/trunk/linux/p32/bin/../lib/gcc/mips-elf/4.5.2/../../../../mips-elf/lib/libc.a(lib_a-reallocr.o)
 .debug_line    0x00000000000047be       0xf0 /home/fazzi/dev/Pinguino-svn/pinguino32/trunk/linux/p32/bin/../lib/gcc/mips-elf/4.5.2/../../../../mips-elf/lib/libc.a(lib_a-sbrkr.o)
 .debug_line    0x00000000000048ae       0xb7 /home/fazzi/dev/Pinguino-svn/pinguino32/trunk/linux/p32/bin/../lib/gcc/mips-elf/4.5.2/../../../../mips-elf/lib/libc.a(lib_a-s_isinfd.o)
 .debug_line    0x0000000000004965       0xb7 /home/fazzi/dev/Pinguino-svn/pinguino32/trunk/linux/p32/bin/../lib/gcc/mips-elf/4.5.2/../../../../mips-elf/lib/libc.a(lib_a-s_isnand.o)
 .debug_line    0x0000000000004a1c       0xfc /home/fazzi/dev/Pinguino-svn/pinguino32/trunk/linux/p32/bin/../lib/gcc/mips-elf/4.5.2/../../../../mips-elf/lib/libc.a(lib_a-callocr.o)
 .debug_line    0x0000000000004b18      0x131 /home/fazzi/dev/Pinguino-svn/pinguino32/trunk/linux/p32/bin/../lib/gcc/mips-elf/4.5.2/../../../../mips-elf/lib/libc.a(lib_a-reent.o)
 .debug_line    0x0000000000004c49      0x120 /home/fazzi/dev/Pinguino-svn/pinguino32/trunk/linux/p32/bin/../lib/gcc/mips-elf/4.5.2/soft-float/el/libgcc.a(_udivdi3.o)
 .debug_line    0x0000000000004d69      0x12a /home/fazzi/dev/Pinguino-svn/pinguino32/trunk/linux/p32/bin/../lib/gcc/mips-elf/4.5.2/soft-float/el/libgcc.a(_umoddi3.o)
 .debug_line    0x0000000000004e93       0xa0 /home/fazzi/dev/Pinguino-svn/pinguino32/trunk/linux/p32/bin/../lib/gcc/mips-elf/4.5.2/soft-float/el/libgcc.a(_ge_df.o)
 .debug_line    0x0000000000004f33       0xb6 /home/fazzi/dev/Pinguino-svn/pinguino32/trunk/linux/p32/bin/../lib/gcc/mips-elf/4.5.2/soft-float/el/libgcc.a(_usi_to_df.o)
 .debug_line    0x0000000000004fe9       0x6b /home/fazzi/dev/Pinguino-svn/pinguino32/trunk/linux/p32/bin/../lib/gcc/mips-elf/4.5.2/soft-float/el/crtn.o

.debug_frame    0x0000000000000000      0xe34
 *(.debug_frame)
 .debug_frame   0x0000000000000000       0x30 /home/fazzi/dev/Pinguino-svn/pinguino32/trunk/linux/p32/bin/../lib/gcc/mips-elf/4.5.2/../../../../mips-elf/lib/libm.a(lib_a-wf_pow.o)
 .debug_frame   0x0000000000000030       0x3c /home/fazzi/dev/Pinguino-svn/pinguino32/trunk/linux/p32/bin/../lib/gcc/mips-elf/4.5.2/../../../../mips-elf/lib/libm.a(lib_a-ef_pow.o)
 .debug_frame   0x000000000000006c       0x28 /home/fazzi/dev/Pinguino-svn/pinguino32/trunk/linux/p32/bin/../lib/gcc/mips-elf/4.5.2/../../../../mips-elf/lib/libm.a(lib_a-ef_sqrt.o)
 .debug_frame   0x0000000000000094       0x20 /home/fazzi/dev/Pinguino-svn/pinguino32/trunk/linux/p32/bin/../lib/gcc/mips-elf/4.5.2/../../../../mips-elf/lib/libm.a(lib_a-sf_fabs.o)
 .debug_frame   0x00000000000000b4       0x20 /home/fazzi/dev/Pinguino-svn/pinguino32/trunk/linux/p32/bin/../lib/gcc/mips-elf/4.5.2/../../../../mips-elf/lib/libm.a(lib_a-sf_finite.o)
 .debug_frame   0x00000000000000d4       0x20 /home/fazzi/dev/Pinguino-svn/pinguino32/trunk/linux/p32/bin/../lib/gcc/mips-elf/4.5.2/../../../../mips-elf/lib/libm.a(lib_a-sf_isnan.o)
 .debug_frame   0x00000000000000f4       0x20 /home/fazzi/dev/Pinguino-svn/pinguino32/trunk/linux/p32/bin/../lib/gcc/mips-elf/4.5.2/../../../../mips-elf/lib/libm.a(lib_a-sf_nan.o)
 .debug_frame   0x0000000000000114       0x2c /home/fazzi/dev/Pinguino-svn/pinguino32/trunk/linux/p32/bin/../lib/gcc/mips-elf/4.5.2/../../../../mips-elf/lib/libm.a(lib_a-sf_scalbn.o)
 .debug_frame   0x0000000000000140       0x20 /home/fazzi/dev/Pinguino-svn/pinguino32/trunk/linux/p32/bin/../lib/gcc/mips-elf/4.5.2/../../../../mips-elf/lib/libm.a(lib_a-s_matherr.o)
 .debug_frame   0x0000000000000160       0x30 /home/fazzi/dev/Pinguino-svn/pinguino32/trunk/linux/p32/bin/../lib/gcc/mips-elf/4.5.2/../../../../mips-elf/lib/libm.a(lib_a-s_rint.o)
 .debug_frame   0x0000000000000190       0x20 /home/fazzi/dev/Pinguino-svn/pinguino32/trunk/linux/p32/bin/../lib/gcc/mips-elf/4.5.2/../../../../mips-elf/lib/libm.a(lib_a-sf_copysign.o)
 .debug_frame   0x00000000000001b0       0x58 /home/fazzi/dev/Pinguino-svn/pinguino32/trunk/linux/p32/bin/../lib/gcc/mips-elf/4.5.2/soft-float/el/libgcc.a(_addsub_sf.o)
 .debug_frame   0x0000000000000208       0x2c /home/fazzi/dev/Pinguino-svn/pinguino32/trunk/linux/p32/bin/../lib/gcc/mips-elf/4.5.2/soft-float/el/libgcc.a(_mul_sf.o)
 .debug_frame   0x0000000000000234       0x2c /home/fazzi/dev/Pinguino-svn/pinguino32/trunk/linux/p32/bin/../lib/gcc/mips-elf/4.5.2/soft-float/el/libgcc.a(_div_sf.o)
 .debug_frame   0x0000000000000260       0x2c /home/fazzi/dev/Pinguino-svn/pinguino32/trunk/linux/p32/bin/../lib/gcc/mips-elf/4.5.2/soft-float/el/libgcc.a(_eq_sf.o)
 .debug_frame   0x000000000000028c       0x2c /home/fazzi/dev/Pinguino-svn/pinguino32/trunk/linux/p32/bin/../lib/gcc/mips-elf/4.5.2/soft-float/el/libgcc.a(_gt_sf.o)
 .debug_frame   0x00000000000002b8       0x2c /home/fazzi/dev/Pinguino-svn/pinguino32/trunk/linux/p32/bin/../lib/gcc/mips-elf/4.5.2/soft-float/el/libgcc.a(_lt_sf.o)
 .debug_frame   0x00000000000002e4       0x2c /home/fazzi/dev/Pinguino-svn/pinguino32/trunk/linux/p32/bin/../lib/gcc/mips-elf/4.5.2/soft-float/el/libgcc.a(_le_sf.o)
 .debug_frame   0x0000000000000310       0x28 /home/fazzi/dev/Pinguino-svn/pinguino32/trunk/linux/p32/bin/../lib/gcc/mips-elf/4.5.2/soft-float/el/libgcc.a(_si_to_sf.o)
 .debug_frame   0x0000000000000338       0x28 /home/fazzi/dev/Pinguino-svn/pinguino32/trunk/linux/p32/bin/../lib/gcc/mips-elf/4.5.2/soft-float/el/libgcc.a(_sf_to_si.o)
 .debug_frame   0x0000000000000360       0x28 /home/fazzi/dev/Pinguino-svn/pinguino32/trunk/linux/p32/bin/../lib/gcc/mips-elf/4.5.2/soft-float/el/libgcc.a(_sf_to_df.o)
 .debug_frame   0x0000000000000388       0x58 /home/fazzi/dev/Pinguino-svn/pinguino32/trunk/linux/p32/bin/../lib/gcc/mips-elf/4.5.2/soft-float/el/libgcc.a(_addsub_df.o)
 .debug_frame   0x00000000000003e0       0x2c /home/fazzi/dev/Pinguino-svn/pinguino32/trunk/linux/p32/bin/../lib/gcc/mips-elf/4.5.2/soft-float/el/libgcc.a(_mul_df.o)
 .debug_frame   0x000000000000040c       0x2c /home/fazzi/dev/Pinguino-svn/pinguino32/trunk/linux/p32/bin/../lib/gcc/mips-elf/4.5.2/soft-float/el/libgcc.a(_div_df.o)
 .debug_frame   0x0000000000000438       0x2c /home/fazzi/dev/Pinguino-svn/pinguino32/trunk/linux/p32/bin/../lib/gcc/mips-elf/4.5.2/soft-float/el/libgcc.a(_eq_df.o)
 .debug_frame   0x0000000000000464       0x2c /home/fazzi/dev/Pinguino-svn/pinguino32/trunk/linux/p32/bin/../lib/gcc/mips-elf/4.5.2/soft-float/el/libgcc.a(_ne_df.o)
 .debug_frame   0x0000000000000490       0x2c /home/fazzi/dev/Pinguino-svn/pinguino32/trunk/linux/p32/bin/../lib/gcc/mips-elf/4.5.2/soft-float/el/libgcc.a(_gt_df.o)
 .debug_frame   0x00000000000004bc       0x2c /home/fazzi/dev/Pinguino-svn/pinguino32/trunk/linux/p32/bin/../lib/gcc/mips-elf/4.5.2/soft-float/el/libgcc.a(_lt_df.o)
 .debug_frame   0x00000000000004e8       0x28 /home/fazzi/dev/Pinguino-svn/pinguino32/trunk/linux/p32/bin/../lib/gcc/mips-elf/4.5.2/soft-float/el/libgcc.a(_si_to_df.o)
 .debug_frame   0x0000000000000510       0x28 /home/fazzi/dev/Pinguino-svn/pinguino32/trunk/linux/p32/bin/../lib/gcc/mips-elf/4.5.2/soft-float/el/libgcc.a(_df_to_si.o)
 .debug_frame   0x0000000000000538       0x28 /home/fazzi/dev/Pinguino-svn/pinguino32/trunk/linux/p32/bin/../lib/gcc/mips-elf/4.5.2/soft-float/el/libgcc.a(_make_df.o)
 .debug_frame   0x0000000000000560       0x28 /home/fazzi/dev/Pinguino-svn/pinguino32/trunk/linux/p32/bin/../lib/gcc/mips-elf/4.5.2/soft-float/el/libgcc.a(_df_to_sf.o)
 .debug_frame   0x0000000000000588       0x20 /home/fazzi/dev/Pinguino-svn/pinguino32/trunk/linux/p32/bin/../lib/gcc/mips-elf/4.5.2/soft-float/el/libgcc.a(_clzsi2.o)
 .debug_frame   0x00000000000005a8       0x20 /home/fazzi/dev/Pinguino-svn/pinguino32/trunk/linux/p32/bin/../lib/gcc/mips-elf/4.5.2/soft-float/el/libgcc.a(_pack_sf.o)
 .debug_frame   0x00000000000005c8       0x20 /home/fazzi/dev/Pinguino-svn/pinguino32/trunk/linux/p32/bin/../lib/gcc/mips-elf/4.5.2/soft-float/el/libgcc.a(_unpack_sf.o)
 .debug_frame   0x00000000000005e8       0x20 /home/fazzi/dev/Pinguino-svn/pinguino32/trunk/linux/p32/bin/../lib/gcc/mips-elf/4.5.2/soft-float/el/libgcc.a(_fpcmp_parts_sf.o)
 .debug_frame   0x0000000000000608       0x28 /home/fazzi/dev/Pinguino-svn/pinguino32/trunk/linux/p32/bin/../lib/gcc/mips-elf/4.5.2/soft-float/el/libgcc.a(_make_sf.o)
 .debug_frame   0x0000000000000630       0x34 /home/fazzi/dev/Pinguino-svn/pinguino32/trunk/linux/p32/bin/../lib/gcc/mips-elf/4.5.2/soft-float/el/libgcc.a(_pack_df.o)
 .debug_frame   0x0000000000000664       0x20 /home/fazzi/dev/Pinguino-svn/pinguino32/trunk/linux/p32/bin/../lib/gcc/mips-elf/4.5.2/soft-float/el/libgcc.a(_unpack_df.o)
 .debug_frame   0x0000000000000684       0x20 /home/fazzi/dev/Pinguino-svn/pinguino32/trunk/linux/p32/bin/../lib/gcc/mips-elf/4.5.2/soft-float/el/libgcc.a(_fpcmp_parts_df.o)
 .debug_frame   0x00000000000006a4       0x20 /home/fazzi/dev/Pinguino-svn/pinguino32/trunk/linux/p32/bin/../lib/gcc/mips-elf/4.5.2/soft-float/el/libgcc.a(_lshrdi3.o)
 .debug_frame   0x00000000000006c4       0x20 /home/fazzi/dev/Pinguino-svn/pinguino32/trunk/linux/p32/bin/../lib/gcc/mips-elf/4.5.2/soft-float/el/libgcc.a(_ashldi3.o)
 .debug_frame   0x00000000000006e4       0x30 /home/fazzi/dev/Pinguino-svn/pinguino32/trunk/linux/p32/bin/../lib/gcc/mips-elf/4.5.2/../../../../mips-elf/lib/libc.a(lib_a-atoi.o)
 .debug_frame   0x0000000000000714       0x20 /home/fazzi/dev/Pinguino-svn/pinguino32/trunk/linux/p32/bin/../lib/gcc/mips-elf/4.5.2/../../../../mips-elf/lib/libc.a(lib_a-errno.o)
 .debug_frame   0x0000000000000734       0x20 /home/fazzi/dev/Pinguino-svn/pinguino32/trunk/linux/p32/bin/../lib/gcc/mips-elf/4.5.2/../../../../mips-elf/lib/libc.a(lib_a-memset.o)
 .debug_frame   0x0000000000000754       0x40 /home/fazzi/dev/Pinguino-svn/pinguino32/trunk/linux/p32/bin/../lib/gcc/mips-elf/4.5.2/../../../../mips-elf/lib/libc.a(lib_a-sprintf.o)
 .debug_frame   0x0000000000000794       0x28 /home/fazzi/dev/Pinguino-svn/pinguino32/trunk/linux/p32/bin/../lib/gcc/mips-elf/4.5.2/../../../../mips-elf/lib/libc.a(lib_a-strcat.o)
 .debug_frame   0x00000000000007bc       0x20 /home/fazzi/dev/Pinguino-svn/pinguino32/trunk/linux/p32/bin/../lib/gcc/mips-elf/4.5.2/../../../../mips-elf/lib/libc.a(lib_a-strcmp.o)
 .debug_frame   0x00000000000007dc       0x20 /home/fazzi/dev/Pinguino-svn/pinguino32/trunk/linux/p32/bin/../lib/gcc/mips-elf/4.5.2/../../../../mips-elf/lib/libc.a(lib_a-strcpy.o)
 .debug_frame   0x00000000000007fc       0x20 /home/fazzi/dev/Pinguino-svn/pinguino32/trunk/linux/p32/bin/../lib/gcc/mips-elf/4.5.2/../../../../mips-elf/lib/libc.a(lib_a-strncpy.o)
 .debug_frame   0x000000000000081c       0x38 /home/fazzi/dev/Pinguino-svn/pinguino32/trunk/linux/p32/bin/../lib/gcc/mips-elf/4.5.2/../../../../mips-elf/lib/libc.a(lib_a-strtol.o)
 .debug_frame   0x0000000000000854       0x64 /home/fazzi/dev/Pinguino-svn/pinguino32/trunk/linux/p32/bin/../lib/gcc/mips-elf/4.5.2/../../../../mips-elf/lib/libc.a(lib_a-svfprintf.o)
 .debug_frame   0x00000000000008b8       0x64 /home/fazzi/dev/Pinguino-svn/pinguino32/trunk/linux/p32/bin/../lib/gcc/mips-elf/4.5.2/../../../../mips-elf/lib/libc.a(lib_a-dtoa.o)
 .debug_frame   0x000000000000091c       0x4c /home/fazzi/dev/Pinguino-svn/pinguino32/trunk/linux/p32/bin/../lib/gcc/mips-elf/4.5.2/../../../../mips-elf/lib/libc.a(lib_a-freer.o)
 .debug_frame   0x0000000000000968       0x70 /home/fazzi/dev/Pinguino-svn/pinguino32/trunk/linux/p32/bin/../lib/gcc/mips-elf/4.5.2/../../../../mips-elf/lib/libc.a(lib_a-locale.o)
 .debug_frame   0x00000000000009d8       0x38 /home/fazzi/dev/Pinguino-svn/pinguino32/trunk/linux/p32/bin/../lib/gcc/mips-elf/4.5.2/../../../../mips-elf/lib/libc.a(lib_a-mallocr.o)
 .debug_frame   0x0000000000000a10       0x20 /home/fazzi/dev/Pinguino-svn/pinguino32/trunk/linux/p32/bin/../lib/gcc/mips-elf/4.5.2/../../../../mips-elf/lib/libc.a(lib_a-memchr.o)
 .debug_frame   0x0000000000000a30       0x20 /home/fazzi/dev/Pinguino-svn/pinguino32/trunk/linux/p32/bin/../lib/gcc/mips-elf/4.5.2/../../../../mips-elf/lib/libc.a(lib_a-memcpy.o)
 .debug_frame   0x0000000000000a50       0x20 /home/fazzi/dev/Pinguino-svn/pinguino32/trunk/linux/p32/bin/../lib/gcc/mips-elf/4.5.2/../../../../mips-elf/lib/libc.a(lib_a-memmove.o)
 .debug_frame   0x0000000000000a70       0x30 /home/fazzi/dev/Pinguino-svn/pinguino32/trunk/linux/p32/bin/../lib/gcc/mips-elf/4.5.2/../../../../mips-elf/lib/libc.a(lib_a-mlock.o)
 .debug_frame   0x0000000000000aa0      0x208 /home/fazzi/dev/Pinguino-svn/pinguino32/trunk/linux/p32/bin/../lib/gcc/mips-elf/4.5.2/../../../../mips-elf/lib/libc.a(lib_a-mprec.o)
 .debug_frame   0x0000000000000ca8       0x38 /home/fazzi/dev/Pinguino-svn/pinguino32/trunk/linux/p32/bin/../lib/gcc/mips-elf/4.5.2/../../../../mips-elf/lib/libc.a(lib_a-reallocr.o)
 .debug_frame   0x0000000000000ce0       0x2c /home/fazzi/dev/Pinguino-svn/pinguino32/trunk/linux/p32/bin/../lib/gcc/mips-elf/4.5.2/../../../../mips-elf/lib/libc.a(lib_a-sbrkr.o)
 .debug_frame   0x0000000000000d0c       0x20 /home/fazzi/dev/Pinguino-svn/pinguino32/trunk/linux/p32/bin/../lib/gcc/mips-elf/4.5.2/../../../../mips-elf/lib/libc.a(lib_a-s_isinfd.o)
 .debug_frame   0x0000000000000d2c       0x20 /home/fazzi/dev/Pinguino-svn/pinguino32/trunk/linux/p32/bin/../lib/gcc/mips-elf/4.5.2/../../../../mips-elf/lib/libc.a(lib_a-s_isnand.o)
 .debug_frame   0x0000000000000d4c       0x28 /home/fazzi/dev/Pinguino-svn/pinguino32/trunk/linux/p32/bin/../lib/gcc/mips-elf/4.5.2/../../../../mips-elf/lib/libc.a(lib_a-callocr.o)
 .debug_frame   0x0000000000000d74       0x6c /home/fazzi/dev/Pinguino-svn/pinguino32/trunk/linux/p32/bin/../lib/gcc/mips-elf/4.5.2/../../../../mips-elf/lib/libc.a(lib_a-reent.o)
 .debug_frame   0x0000000000000de0       0x2c /home/fazzi/dev/Pinguino-svn/pinguino32/trunk/linux/p32/bin/../lib/gcc/mips-elf/4.5.2/soft-float/el/libgcc.a(_ge_df.o)
 .debug_frame   0x0000000000000e0c       0x28 /home/fazzi/dev/Pinguino-svn/pinguino32/trunk/linux/p32/bin/../lib/gcc/mips-elf/4.5.2/soft-float/el/libgcc.a(_usi_to_df.o)

.debug_str      0x0000000000000000     0x1ec2
 *(.debug_str)
 .debug_str     0x0000000000000000      0x15e /home/fazzi/dev/Pinguino-svn/pinguino32/trunk/linux/p32/bin/../lib/gcc/mips-elf/4.5.2/../../../../mips-elf/lib/libm.a(lib_a-wf_pow.o)
                                        0x1ae (size before relaxing)
 .debug_str     0x000000000000015e       0xd0 /home/fazzi/dev/Pinguino-svn/pinguino32/trunk/linux/p32/bin/../lib/gcc/mips-elf/4.5.2/../../../../mips-elf/lib/libm.a(lib_a-ef_pow.o)
                                        0x1ca (size before relaxing)
 .debug_str     0x000000000000022e       0x4b /home/fazzi/dev/Pinguino-svn/pinguino32/trunk/linux/p32/bin/../lib/gcc/mips-elf/4.5.2/../../../../mips-elf/lib/libm.a(lib_a-ef_sqrt.o)
                                        0x17f (size before relaxing)
 .debug_str     0x0000000000000279       0x41 /home/fazzi/dev/Pinguino-svn/pinguino32/trunk/linux/p32/bin/../lib/gcc/mips-elf/4.5.2/../../../../mips-elf/lib/libm.a(lib_a-sf_fabs.o)
                                        0x161 (size before relaxing)
 .debug_str     0x00000000000002ba       0x87 /home/fazzi/dev/Pinguino-svn/pinguino32/trunk/linux/p32/bin/../lib/gcc/mips-elf/4.5.2/../../../../mips-elf/lib/libm.a(lib_a-sf_finite.o)
                                        0x173 (size before relaxing)
 .debug_str     0x0000000000000341       0x45 /home/fazzi/dev/Pinguino-svn/pinguino32/trunk/linux/p32/bin/../lib/gcc/mips-elf/4.5.2/../../../../mips-elf/lib/libm.a(lib_a-sf_isnan.o)
                                        0x171 (size before relaxing)
 .debug_str     0x0000000000000386       0x3c /home/fazzi/dev/Pinguino-svn/pinguino32/trunk/linux/p32/bin/../lib/gcc/mips-elf/4.5.2/../../../../mips-elf/lib/libm.a(lib_a-sf_nan.o)
                                        0x139 (size before relaxing)
 .debug_str     0x00000000000003c2       0x54 /home/fazzi/dev/Pinguino-svn/pinguino32/trunk/linux/p32/bin/../lib/gcc/mips-elf/4.5.2/../../../../mips-elf/lib/libm.a(lib_a-sf_scalbn.o)
                                        0x18f (size before relaxing)
 .debug_str     0x0000000000000416       0x3f /home/fazzi/dev/Pinguino-svn/pinguino32/trunk/linux/p32/bin/../lib/gcc/mips-elf/4.5.2/../../../../mips-elf/lib/libm.a(lib_a-s_lib_ver.o)
                                        0x18b (size before relaxing)
 .debug_str     0x0000000000000455       0x47 /home/fazzi/dev/Pinguino-svn/pinguino32/trunk/linux/p32/bin/../lib/gcc/mips-elf/4.5.2/../../../../mips-elf/lib/libm.a(lib_a-s_matherr.o)
                                        0x15d (size before relaxing)
 .debug_str     0x000000000000049c       0x6d /home/fazzi/dev/Pinguino-svn/pinguino32/trunk/linux/p32/bin/../lib/gcc/mips-elf/4.5.2/../../../../mips-elf/lib/libm.a(lib_a-s_rint.o)
                                        0x17f (size before relaxing)
 .debug_str     0x0000000000000509       0x4b /home/fazzi/dev/Pinguino-svn/pinguino32/trunk/linux/p32/bin/../lib/gcc/mips-elf/4.5.2/../../../../mips-elf/lib/libm.a(lib_a-sf_copysign.o)
                                        0x16d (size before relaxing)
 .debug_str     0x0000000000000554      0x1e6 /home/fazzi/dev/Pinguino-svn/pinguino32/trunk/linux/p32/bin/../lib/gcc/mips-elf/4.5.2/soft-float/el/libgcc.a(_addsub_sf.o)
                                        0x280 (size before relaxing)
 .debug_str     0x000000000000073a       0x2a /home/fazzi/dev/Pinguino-svn/pinguino32/trunk/linux/p32/bin/../lib/gcc/mips-elf/4.5.2/soft-float/el/libgcc.a(_mul_sf.o)
                                        0x237 (size before relaxing)
 .debug_str     0x0000000000000764       0x35 /home/fazzi/dev/Pinguino-svn/pinguino32/trunk/linux/p32/bin/../lib/gcc/mips-elf/4.5.2/soft-float/el/libgcc.a(_div_sf.o)
                                        0x242 (size before relaxing)
 .debug_str     0x0000000000000799       0x10 /home/fazzi/dev/Pinguino-svn/pinguino32/trunk/linux/p32/bin/../lib/gcc/mips-elf/4.5.2/soft-float/el/libgcc.a(_eq_sf.o)
                                        0x208 (size before relaxing)
 .debug_str     0x00000000000007a9        0x8 /home/fazzi/dev/Pinguino-svn/pinguino32/trunk/linux/p32/bin/../lib/gcc/mips-elf/4.5.2/soft-float/el/libgcc.a(_gt_sf.o)
                                        0x208 (size before relaxing)
 .debug_str     0x00000000000007b1        0x8 /home/fazzi/dev/Pinguino-svn/pinguino32/trunk/linux/p32/bin/../lib/gcc/mips-elf/4.5.2/soft-float/el/libgcc.a(_lt_sf.o)
                                        0x208 (size before relaxing)
 .debug_str     0x00000000000007b9        0x8 /home/fazzi/dev/Pinguino-svn/pinguino32/trunk/linux/p32/bin/../lib/gcc/mips-elf/4.5.2/soft-float/el/libgcc.a(_le_sf.o)
                                        0x208 (size before relaxing)
 .debug_str     0x00000000000007c1       0x21 /home/fazzi/dev/Pinguino-svn/pinguino32/trunk/linux/p32/bin/../lib/gcc/mips-elf/4.5.2/soft-float/el/libgcc.a(_si_to_sf.o)
                                        0x1f6 (size before relaxing)
 .debug_str     0x00000000000007e2        0xa /home/fazzi/dev/Pinguino-svn/pinguino32/trunk/linux/p32/bin/../lib/gcc/mips-elf/4.5.2/soft-float/el/libgcc.a(_sf_to_si.o)
                                        0x210 (size before relaxing)
 .debug_str     0x00000000000007ec       0x15 /home/fazzi/dev/Pinguino-svn/pinguino32/trunk/linux/p32/bin/../lib/gcc/mips-elf/4.5.2/soft-float/el/libgcc.a(_sf_to_df.o)
                                        0x209 (size before relaxing)
 .debug_str     0x0000000000000000      0x1b2 /home/fazzi/dev/Pinguino-svn/pinguino32/trunk/linux/p32/bin/../lib/gcc/mips-elf/4.5.2/soft-float/el/libgcc.a(_thenan_sf.o)
 .debug_str     0x0000000000000801       0x3f /home/fazzi/dev/Pinguino-svn/pinguino32/trunk/linux/p32/bin/../lib/gcc/mips-elf/4.5.2/soft-float/el/libgcc.a(_addsub_df.o)
                                        0x286 (size before relaxing)
 .debug_str     0x0000000000000840       0x33 /home/fazzi/dev/Pinguino-svn/pinguino32/trunk/linux/p32/bin/../lib/gcc/mips-elf/4.5.2/soft-float/el/libgcc.a(_mul_df.o)
                                        0x258 (size before relaxing)
 .debug_str     0x0000000000000873        0x9 /home/fazzi/dev/Pinguino-svn/pinguino32/trunk/linux/p32/bin/../lib/gcc/mips-elf/4.5.2/soft-float/el/libgcc.a(_div_df.o)
                                        0x248 (size before relaxing)
 .debug_str     0x000000000000087c        0x8 /home/fazzi/dev/Pinguino-svn/pinguino32/trunk/linux/p32/bin/../lib/gcc/mips-elf/4.5.2/soft-float/el/libgcc.a(_eq_df.o)
                                        0x20e (size before relaxing)
 .debug_str     0x0000000000000884        0x8 /home/fazzi/dev/Pinguino-svn/pinguino32/trunk/linux/p32/bin/../lib/gcc/mips-elf/4.5.2/soft-float/el/libgcc.a(_ne_df.o)
                                        0x20e (size before relaxing)
 .debug_str     0x000000000000088c        0x8 /home/fazzi/dev/Pinguino-svn/pinguino32/trunk/linux/p32/bin/../lib/gcc/mips-elf/4.5.2/soft-float/el/libgcc.a(_gt_df.o)
                                        0x20e (size before relaxing)
 .debug_str     0x0000000000000894        0x8 /home/fazzi/dev/Pinguino-svn/pinguino32/trunk/linux/p32/bin/../lib/gcc/mips-elf/4.5.2/soft-float/el/libgcc.a(_lt_df.o)
                                        0x20e (size before relaxing)
 .debug_str     0x000000000000089c        0xc /home/fazzi/dev/Pinguino-svn/pinguino32/trunk/linux/p32/bin/../lib/gcc/mips-elf/4.5.2/soft-float/el/libgcc.a(_si_to_df.o)
                                        0x1f6 (size before relaxing)
 .debug_str     0x00000000000008a8        0xa /home/fazzi/dev/Pinguino-svn/pinguino32/trunk/linux/p32/bin/../lib/gcc/mips-elf/4.5.2/soft-float/el/libgcc.a(_df_to_si.o)
                                        0x216 (size before relaxing)
 .debug_str     0x00000000000008b2        0xa /home/fazzi/dev/Pinguino-svn/pinguino32/trunk/linux/p32/bin/../lib/gcc/mips-elf/4.5.2/soft-float/el/libgcc.a(_make_df.o)
                                        0x1c8 (size before relaxing)
 .debug_str     0x00000000000008bc       0x14 /home/fazzi/dev/Pinguino-svn/pinguino32/trunk/linux/p32/bin/../lib/gcc/mips-elf/4.5.2/soft-float/el/libgcc.a(_df_to_sf.o)
                                        0x20d (size before relaxing)
 .debug_str     0x0000000000000000      0x1b2 /home/fazzi/dev/Pinguino-svn/pinguino32/trunk/linux/p32/bin/../lib/gcc/mips-elf/4.5.2/soft-float/el/libgcc.a(_thenan_df.o)
 .debug_str     0x00000000000008d0       0x65 /home/fazzi/dev/Pinguino-svn/pinguino32/trunk/linux/p32/bin/../lib/gcc/mips-elf/4.5.2/soft-float/el/libgcc.a(_clzsi2.o)
                                        0x183 (size before relaxing)
 .debug_str     0x0000000000000935       0x10 /home/fazzi/dev/Pinguino-svn/pinguino32/trunk/linux/p32/bin/../lib/gcc/mips-elf/4.5.2/soft-float/el/libgcc.a(_pack_sf.o)
                                        0x20f (size before relaxing)
 .debug_str     0x0000000000000945        0xb /home/fazzi/dev/Pinguino-svn/pinguino32/trunk/linux/p32/bin/../lib/gcc/mips-elf/4.5.2/soft-float/el/libgcc.a(_unpack_sf.o)
                                        0x1f1 (size before relaxing)
 .debug_str     0x0000000000000950       0x10 /home/fazzi/dev/Pinguino-svn/pinguino32/trunk/linux/p32/bin/../lib/gcc/mips-elf/4.5.2/soft-float/el/libgcc.a(_fpcmp_parts_sf.o)
                                        0x1d5 (size before relaxing)
 .debug_str     0x0000000000000960        0xa /home/fazzi/dev/Pinguino-svn/pinguino32/trunk/linux/p32/bin/../lib/gcc/mips-elf/4.5.2/soft-float/el/libgcc.a(_make_sf.o)
                                        0x1c8 (size before relaxing)
 .debug_str     0x000000000000096a        0x9 /home/fazzi/dev/Pinguino-svn/pinguino32/trunk/linux/p32/bin/../lib/gcc/mips-elf/4.5.2/soft-float/el/libgcc.a(_pack_df.o)
                                        0x215 (size before relaxing)
 .debug_str     0x0000000000000973        0xb /home/fazzi/dev/Pinguino-svn/pinguino32/trunk/linux/p32/bin/../lib/gcc/mips-elf/4.5.2/soft-float/el/libgcc.a(_unpack_df.o)
                                        0x1f7 (size before relaxing)
 .debug_str     0x000000000000097e       0x10 /home/fazzi/dev/Pinguino-svn/pinguino32/trunk/linux/p32/bin/../lib/gcc/mips-elf/4.5.2/soft-float/el/libgcc.a(_fpcmp_parts_df.o)
                                        0x1d5 (size before relaxing)
 .debug_str     0x000000000000098e       0x34 /home/fazzi/dev/Pinguino-svn/pinguino32/trunk/linux/p32/bin/../lib/gcc/mips-elf/4.5.2/soft-float/el/libgcc.a(_lshrdi3.o)
                                        0x1a3 (size before relaxing)
 .debug_str     0x00000000000009c2        0xa /home/fazzi/dev/Pinguino-svn/pinguino32/trunk/linux/p32/bin/../lib/gcc/mips-elf/4.5.2/soft-float/el/libgcc.a(_ashldi3.o)
                                        0x1a3 (size before relaxing)
 .debug_str     0x0000000000000000      0x166 /home/fazzi/dev/Pinguino-svn/pinguino32/trunk/linux/p32/bin/../lib/gcc/mips-elf/4.5.2/soft-float/el/libgcc.a(_clz.o)
 .debug_str     0x00000000000009cc      0x3ed /home/fazzi/dev/Pinguino-svn/pinguino32/trunk/linux/p32/bin/../lib/gcc/mips-elf/4.5.2/../../../../mips-elf/lib/libc.a(lib_a-atoi.o)
                                        0x4bd (size before relaxing)
 .debug_str     0x0000000000000db9       0x81 /home/fazzi/dev/Pinguino-svn/pinguino32/trunk/linux/p32/bin/../lib/gcc/mips-elf/4.5.2/../../../../mips-elf/lib/libc.a(lib_a-errno.o)
                                        0x4c3 (size before relaxing)
 .debug_str     0x0000000000000e3a       0x99 /home/fazzi/dev/Pinguino-svn/pinguino32/trunk/linux/p32/bin/../lib/gcc/mips-elf/4.5.2/../../../../mips-elf/lib/libc.a(lib_a-impure.o)
                                        0x4db (size before relaxing)
 .debug_str     0x0000000000000ed3       0xc7 /home/fazzi/dev/Pinguino-svn/pinguino32/trunk/linux/p32/bin/../lib/gcc/mips-elf/4.5.2/../../../../mips-elf/lib/libc.a(lib_a-memset.o)
                                        0x15f (size before relaxing)
 .debug_str     0x0000000000000f9a       0xaf /home/fazzi/dev/Pinguino-svn/pinguino32/trunk/linux/p32/bin/../lib/gcc/mips-elf/4.5.2/../../../../mips-elf/lib/libc.a(lib_a-sprintf.o)
                                        0x4fe (size before relaxing)
 .debug_str     0x0000000000001049       0x8e /home/fazzi/dev/Pinguino-svn/pinguino32/trunk/linux/p32/bin/../lib/gcc/mips-elf/4.5.2/../../../../mips-elf/lib/libc.a(lib_a-strcat.o)
                                        0x126 (size before relaxing)
 .debug_str     0x00000000000010d7       0x51 /home/fazzi/dev/Pinguino-svn/pinguino32/trunk/linux/p32/bin/../lib/gcc/mips-elf/4.5.2/../../../../mips-elf/lib/libc.a(lib_a-strcmp.o)
                                        0x12f (size before relaxing)
 .debug_str     0x0000000000001128       0x65 /home/fazzi/dev/Pinguino-svn/pinguino32/trunk/linux/p32/bin/../lib/gcc/mips-elf/4.5.2/../../../../mips-elf/lib/libc.a(lib_a-strcpy.o)
                                        0x13d (size before relaxing)
 .debug_str     0x000000000000118d       0x45 /home/fazzi/dev/Pinguino-svn/pinguino32/trunk/linux/p32/bin/../lib/gcc/mips-elf/4.5.2/../../../../mips-elf/lib/libc.a(lib_a-strlen.o)
                                        0x123 (size before relaxing)
 .debug_str     0x00000000000011d2       0x9b /home/fazzi/dev/Pinguino-svn/pinguino32/trunk/linux/p32/bin/../lib/gcc/mips-elf/4.5.2/../../../../mips-elf/lib/libc.a(lib_a-strncpy.o)
                                        0x190 (size before relaxing)
 .debug_str     0x000000000000126d       0x75 /home/fazzi/dev/Pinguino-svn/pinguino32/trunk/linux/p32/bin/../lib/gcc/mips-elf/4.5.2/../../../../mips-elf/lib/libc.a(lib_a-strtol.o)
                                        0x501 (size before relaxing)
 .debug_str     0x00000000000012e2      0x18c /home/fazzi/dev/Pinguino-svn/pinguino32/trunk/linux/p32/bin/../lib/gcc/mips-elf/4.5.2/../../../../mips-elf/lib/libc.a(lib_a-svfprintf.o)
                                        0x694 (size before relaxing)
 .debug_str     0x000000000000146e       0x97 /home/fazzi/dev/Pinguino-svn/pinguino32/trunk/linux/p32/bin/../lib/gcc/mips-elf/4.5.2/../../../../mips-elf/lib/libc.a(lib_a-ctype_.o)
                                         0xb9 (size before relaxing)
 .debug_str     0x0000000000001505       0xfe /home/fazzi/dev/Pinguino-svn/pinguino32/trunk/linux/p32/bin/../lib/gcc/mips-elf/4.5.2/../../../../mips-elf/lib/libc.a(lib_a-dtoa.o)
                                        0x5c2 (size before relaxing)
 .debug_str     0x0000000000001603      0x15c /home/fazzi/dev/Pinguino-svn/pinguino32/trunk/linux/p32/bin/../lib/gcc/mips-elf/4.5.2/../../../../mips-elf/lib/libc.a(lib_a-freer.o)
                                        0x604 (size before relaxing)
 .debug_str     0x000000000000175f      0x1da /home/fazzi/dev/Pinguino-svn/pinguino32/trunk/linux/p32/bin/../lib/gcc/mips-elf/4.5.2/../../../../mips-elf/lib/libc.a(lib_a-locale.o)
                                        0x66a (size before relaxing)
 .debug_str     0x0000000000001939       0xe9 /home/fazzi/dev/Pinguino-svn/pinguino32/trunk/linux/p32/bin/../lib/gcc/mips-elf/4.5.2/../../../../mips-elf/lib/libc.a(lib_a-mallocr.o)
                                        0x6b2 (size before relaxing)
 .debug_str     0x0000000000001a22       0x56 /home/fazzi/dev/Pinguino-svn/pinguino32/trunk/linux/p32/bin/../lib/gcc/mips-elf/4.5.2/../../../../mips-elf/lib/libc.a(lib_a-memchr.o)
                                        0x13c (size before relaxing)
 .debug_str     0x0000000000001a78       0x75 /home/fazzi/dev/Pinguino-svn/pinguino32/trunk/linux/p32/bin/../lib/gcc/mips-elf/4.5.2/../../../../mips-elf/lib/libc.a(lib_a-memcpy.o)
                                        0x113 (size before relaxing)
 .debug_str     0x0000000000001aed       0x4e /home/fazzi/dev/Pinguino-svn/pinguino32/trunk/linux/p32/bin/../lib/gcc/mips-elf/4.5.2/../../../../mips-elf/lib/libc.a(lib_a-memmove.o)
                                        0x155 (size before relaxing)
 .debug_str     0x0000000000001b3b       0x6e /home/fazzi/dev/Pinguino-svn/pinguino32/trunk/linux/p32/bin/../lib/gcc/mips-elf/4.5.2/../../../../mips-elf/lib/libc.a(lib_a-mlock.o)
                                        0x4e4 (size before relaxing)
 .debug_str     0x0000000000001ba9       0xf9 /home/fazzi/dev/Pinguino-svn/pinguino32/trunk/linux/p32/bin/../lib/gcc/mips-elf/4.5.2/../../../../mips-elf/lib/libc.a(lib_a-mprec.o)
                                        0x5cf (size before relaxing)
 .debug_str     0x0000000000001ca2       0x59 /home/fazzi/dev/Pinguino-svn/pinguino32/trunk/linux/p32/bin/../lib/gcc/mips-elf/4.5.2/../../../../mips-elf/lib/libc.a(lib_a-reallocr.o)
                                        0x584 (size before relaxing)
 .debug_str     0x0000000000001cfb       0x51 /home/fazzi/dev/Pinguino-svn/pinguino32/trunk/linux/p32/bin/../lib/gcc/mips-elf/4.5.2/../../../../mips-elf/lib/libc.a(lib_a-sbrkr.o)
                                        0x4cc (size before relaxing)
 .debug_str     0x0000000000001d4c       0x47 /home/fazzi/dev/Pinguino-svn/pinguino32/trunk/linux/p32/bin/../lib/gcc/mips-elf/4.5.2/../../../../mips-elf/lib/libc.a(lib_a-s_isinfd.o)
                                        0x142 (size before relaxing)
 .debug_str     0x0000000000001d93       0x47 /home/fazzi/dev/Pinguino-svn/pinguino32/trunk/linux/p32/bin/../lib/gcc/mips-elf/4.5.2/../../../../mips-elf/lib/libc.a(lib_a-s_isnand.o)
                                        0x142 (size before relaxing)
 .debug_str     0x0000000000001dda       0x19 /home/fazzi/dev/Pinguino-svn/pinguino32/trunk/linux/p32/bin/../lib/gcc/mips-elf/4.5.2/../../../../mips-elf/lib/libc.a(lib_a-callocr.o)
                                        0x503 (size before relaxing)
 .debug_str     0x0000000000001df3       0x74 /home/fazzi/dev/Pinguino-svn/pinguino32/trunk/linux/p32/bin/../lib/gcc/mips-elf/4.5.2/../../../../mips-elf/lib/libc.a(lib_a-reent.o)
                                        0x500 (size before relaxing)
 .debug_str     0x0000000000001e67       0x35 /home/fazzi/dev/Pinguino-svn/pinguino32/trunk/linux/p32/bin/../lib/gcc/mips-elf/4.5.2/soft-float/el/libgcc.a(_udivdi3.o)
                                        0x1d4 (size before relaxing)
 .debug_str     0x0000000000001e9c        0xa /home/fazzi/dev/Pinguino-svn/pinguino32/trunk/linux/p32/bin/../lib/gcc/mips-elf/4.5.2/soft-float/el/libgcc.a(_umoddi3.o)
                                        0x1d4 (size before relaxing)
 .debug_str     0x0000000000001ea6        0x8 /home/fazzi/dev/Pinguino-svn/pinguino32/trunk/linux/p32/bin/../lib/gcc/mips-elf/4.5.2/soft-float/el/libgcc.a(_ge_df.o)
                                        0x20e (size before relaxing)
 .debug_str     0x0000000000001eae       0x14 /home/fazzi/dev/Pinguino-svn/pinguino32/trunk/linux/p32/bin/../lib/gcc/mips-elf/4.5.2/soft-float/el/libgcc.a(_usi_to_df.o)
                                        0x1f2 (size before relaxing)

.debug_loc      0x0000000000000000     0xd3de
 *(.debug_loc)
 .debug_loc     0x0000000000000000       0xbc /home/fazzi/dev/Pinguino-svn/pinguino32/trunk/linux/p32/bin/../lib/gcc/mips-elf/4.5.2/../../../../mips-elf/lib/libm.a(lib_a-wf_pow.o)
 .debug_loc     0x00000000000000bc      0x723 /home/fazzi/dev/Pinguino-svn/pinguino32/trunk/linux/p32/bin/../lib/gcc/mips-elf/4.5.2/../../../../mips-elf/lib/libm.a(lib_a-ef_pow.o)
 .debug_loc     0x00000000000007df      0x1b4 /home/fazzi/dev/Pinguino-svn/pinguino32/trunk/linux/p32/bin/../lib/gcc/mips-elf/4.5.2/../../../../mips-elf/lib/libm.a(lib_a-ef_sqrt.o)
 .debug_loc     0x0000000000000993       0x13 /home/fazzi/dev/Pinguino-svn/pinguino32/trunk/linux/p32/bin/../lib/gcc/mips-elf/4.5.2/../../../../mips-elf/lib/libm.a(lib_a-sf_finite.o)
 .debug_loc     0x00000000000009a6       0x13 /home/fazzi/dev/Pinguino-svn/pinguino32/trunk/linux/p32/bin/../lib/gcc/mips-elf/4.5.2/../../../../mips-elf/lib/libm.a(lib_a-sf_isnan.o)
 .debug_loc     0x00000000000009b9      0x17b /home/fazzi/dev/Pinguino-svn/pinguino32/trunk/linux/p32/bin/../lib/gcc/mips-elf/4.5.2/../../../../mips-elf/lib/libm.a(lib_a-sf_scalbn.o)
 .debug_loc     0x0000000000000b34      0x2f0 /home/fazzi/dev/Pinguino-svn/pinguino32/trunk/linux/p32/bin/../lib/gcc/mips-elf/4.5.2/../../../../mips-elf/lib/libm.a(lib_a-s_rint.o)
 .debug_loc     0x0000000000000e24       0x13 /home/fazzi/dev/Pinguino-svn/pinguino32/trunk/linux/p32/bin/../lib/gcc/mips-elf/4.5.2/../../../../mips-elf/lib/libm.a(lib_a-sf_copysign.o)
 .debug_loc     0x0000000000000e37      0x33e /home/fazzi/dev/Pinguino-svn/pinguino32/trunk/linux/p32/bin/../lib/gcc/mips-elf/4.5.2/soft-float/el/libgcc.a(_addsub_sf.o)
 .debug_loc     0x0000000000001175      0x224 /home/fazzi/dev/Pinguino-svn/pinguino32/trunk/linux/p32/bin/../lib/gcc/mips-elf/4.5.2/soft-float/el/libgcc.a(_mul_sf.o)
 .debug_loc     0x0000000000001399      0x1c8 /home/fazzi/dev/Pinguino-svn/pinguino32/trunk/linux/p32/bin/../lib/gcc/mips-elf/4.5.2/soft-float/el/libgcc.a(_div_sf.o)
 .debug_loc     0x0000000000001561       0x5f /home/fazzi/dev/Pinguino-svn/pinguino32/trunk/linux/p32/bin/../lib/gcc/mips-elf/4.5.2/soft-float/el/libgcc.a(_eq_sf.o)
 .debug_loc     0x00000000000015c0       0x5f /home/fazzi/dev/Pinguino-svn/pinguino32/trunk/linux/p32/bin/../lib/gcc/mips-elf/4.5.2/soft-float/el/libgcc.a(_gt_sf.o)
 .debug_loc     0x000000000000161f       0x5f /home/fazzi/dev/Pinguino-svn/pinguino32/trunk/linux/p32/bin/../lib/gcc/mips-elf/4.5.2/soft-float/el/libgcc.a(_lt_sf.o)
 .debug_loc     0x000000000000167e       0x5f /home/fazzi/dev/Pinguino-svn/pinguino32/trunk/linux/p32/bin/../lib/gcc/mips-elf/4.5.2/soft-float/el/libgcc.a(_le_sf.o)
 .debug_loc     0x00000000000016dd       0x82 /home/fazzi/dev/Pinguino-svn/pinguino32/trunk/linux/p32/bin/../lib/gcc/mips-elf/4.5.2/soft-float/el/libgcc.a(_si_to_sf.o)
 .debug_loc     0x000000000000175f       0x60 /home/fazzi/dev/Pinguino-svn/pinguino32/trunk/linux/p32/bin/../lib/gcc/mips-elf/4.5.2/soft-float/el/libgcc.a(_sf_to_si.o)
 .debug_loc     0x00000000000017bf       0x3f /home/fazzi/dev/Pinguino-svn/pinguino32/trunk/linux/p32/bin/../lib/gcc/mips-elf/4.5.2/soft-float/el/libgcc.a(_sf_to_df.o)
 .debug_loc     0x00000000000017fe      0x3e4 /home/fazzi/dev/Pinguino-svn/pinguino32/trunk/linux/p32/bin/../lib/gcc/mips-elf/4.5.2/soft-float/el/libgcc.a(_addsub_df.o)
 .debug_loc     0x0000000000001be2      0x4d8 /home/fazzi/dev/Pinguino-svn/pinguino32/trunk/linux/p32/bin/../lib/gcc/mips-elf/4.5.2/soft-float/el/libgcc.a(_mul_df.o)
 .debug_loc     0x00000000000020ba      0x233 /home/fazzi/dev/Pinguino-svn/pinguino32/trunk/linux/p32/bin/../lib/gcc/mips-elf/4.5.2/soft-float/el/libgcc.a(_div_df.o)
 .debug_loc     0x00000000000022ed       0x51 /home/fazzi/dev/Pinguino-svn/pinguino32/trunk/linux/p32/bin/../lib/gcc/mips-elf/4.5.2/soft-float/el/libgcc.a(_eq_df.o)
 .debug_loc     0x000000000000233e       0x51 /home/fazzi/dev/Pinguino-svn/pinguino32/trunk/linux/p32/bin/../lib/gcc/mips-elf/4.5.2/soft-float/el/libgcc.a(_ne_df.o)
 .debug_loc     0x000000000000238f       0x51 /home/fazzi/dev/Pinguino-svn/pinguino32/trunk/linux/p32/bin/../lib/gcc/mips-elf/4.5.2/soft-float/el/libgcc.a(_gt_df.o)
 .debug_loc     0x00000000000023e0       0x51 /home/fazzi/dev/Pinguino-svn/pinguino32/trunk/linux/p32/bin/../lib/gcc/mips-elf/4.5.2/soft-float/el/libgcc.a(_lt_df.o)
 .debug_loc     0x0000000000002431       0xae /home/fazzi/dev/Pinguino-svn/pinguino32/trunk/linux/p32/bin/../lib/gcc/mips-elf/4.5.2/soft-float/el/libgcc.a(_si_to_df.o)
 .debug_loc     0x00000000000024df       0x59 /home/fazzi/dev/Pinguino-svn/pinguino32/trunk/linux/p32/bin/../lib/gcc/mips-elf/4.5.2/soft-float/el/libgcc.a(_df_to_si.o)
 .debug_loc     0x0000000000002538       0x65 /home/fazzi/dev/Pinguino-svn/pinguino32/trunk/linux/p32/bin/../lib/gcc/mips-elf/4.5.2/soft-float/el/libgcc.a(_make_df.o)
 .debug_loc     0x000000000000259d       0x56 /home/fazzi/dev/Pinguino-svn/pinguino32/trunk/linux/p32/bin/../lib/gcc/mips-elf/4.5.2/soft-float/el/libgcc.a(_df_to_sf.o)
 .debug_loc     0x00000000000025f3       0x68 /home/fazzi/dev/Pinguino-svn/pinguino32/trunk/linux/p32/bin/../lib/gcc/mips-elf/4.5.2/soft-float/el/libgcc.a(_clzsi2.o)
 .debug_loc     0x000000000000265b      0x1dc /home/fazzi/dev/Pinguino-svn/pinguino32/trunk/linux/p32/bin/../lib/gcc/mips-elf/4.5.2/soft-float/el/libgcc.a(_pack_sf.o)
 .debug_loc     0x0000000000002837       0xaf /home/fazzi/dev/Pinguino-svn/pinguino32/trunk/linux/p32/bin/../lib/gcc/mips-elf/4.5.2/soft-float/el/libgcc.a(_unpack_sf.o)
 .debug_loc     0x00000000000028e6       0x68 /home/fazzi/dev/Pinguino-svn/pinguino32/trunk/linux/p32/bin/../lib/gcc/mips-elf/4.5.2/soft-float/el/libgcc.a(_fpcmp_parts_sf.o)
 .debug_loc     0x000000000000294e       0x78 /home/fazzi/dev/Pinguino-svn/pinguino32/trunk/linux/p32/bin/../lib/gcc/mips-elf/4.5.2/soft-float/el/libgcc.a(_make_sf.o)
 .debug_loc     0x00000000000029c6      0x1dc /home/fazzi/dev/Pinguino-svn/pinguino32/trunk/linux/p32/bin/../lib/gcc/mips-elf/4.5.2/soft-float/el/libgcc.a(_pack_df.o)
 .debug_loc     0x0000000000002ba2       0xd3 /home/fazzi/dev/Pinguino-svn/pinguino32/trunk/linux/p32/bin/../lib/gcc/mips-elf/4.5.2/soft-float/el/libgcc.a(_unpack_df.o)
 .debug_loc     0x0000000000002c75       0x68 /home/fazzi/dev/Pinguino-svn/pinguino32/trunk/linux/p32/bin/../lib/gcc/mips-elf/4.5.2/soft-float/el/libgcc.a(_fpcmp_parts_df.o)
 .debug_loc     0x0000000000002cdd       0x5f /home/fazzi/dev/Pinguino-svn/pinguino32/trunk/linux/p32/bin/../lib/gcc/mips-elf/4.5.2/soft-float/el/libgcc.a(_lshrdi3.o)
 .debug_loc     0x0000000000002d3c       0x3c /home/fazzi/dev/Pinguino-svn/pinguino32/trunk/linux/p32/bin/../lib/gcc/mips-elf/4.5.2/soft-float/el/libgcc.a(_ashldi3.o)
 .debug_loc     0x0000000000002d78       0x39 /home/fazzi/dev/Pinguino-svn/pinguino32/trunk/linux/p32/bin/../lib/gcc/mips-elf/4.5.2/../../../../mips-elf/lib/libc.a(lib_a-atoi.o)
 .debug_loc     0x0000000000002db1      0x101 /home/fazzi/dev/Pinguino-svn/pinguino32/trunk/linux/p32/bin/../lib/gcc/mips-elf/4.5.2/../../../../mips-elf/lib/libc.a(lib_a-memset.o)
 .debug_loc     0x0000000000002eb2       0xb5 /home/fazzi/dev/Pinguino-svn/pinguino32/trunk/linux/p32/bin/../lib/gcc/mips-elf/4.5.2/../../../../mips-elf/lib/libc.a(lib_a-sprintf.o)
 .debug_loc     0x0000000000002f67       0x84 /home/fazzi/dev/Pinguino-svn/pinguino32/trunk/linux/p32/bin/../lib/gcc/mips-elf/4.5.2/../../../../mips-elf/lib/libc.a(lib_a-strcat.o)
 .debug_loc     0x0000000000002feb       0xf6 /home/fazzi/dev/Pinguino-svn/pinguino32/trunk/linux/p32/bin/../lib/gcc/mips-elf/4.5.2/../../../../mips-elf/lib/libc.a(lib_a-strcmp.o)
 .debug_loc     0x00000000000030e1       0xb4 /home/fazzi/dev/Pinguino-svn/pinguino32/trunk/linux/p32/bin/../lib/gcc/mips-elf/4.5.2/../../../../mips-elf/lib/libc.a(lib_a-strcpy.o)
 .debug_loc     0x0000000000003195      0x167 /home/fazzi/dev/Pinguino-svn/pinguino32/trunk/linux/p32/bin/../lib/gcc/mips-elf/4.5.2/../../../../mips-elf/lib/libc.a(lib_a-strncpy.o)
 .debug_loc     0x00000000000032fc      0x232 /home/fazzi/dev/Pinguino-svn/pinguino32/trunk/linux/p32/bin/../lib/gcc/mips-elf/4.5.2/../../../../mips-elf/lib/libc.a(lib_a-strtol.o)
 .debug_loc     0x000000000000352e     0x3007 /home/fazzi/dev/Pinguino-svn/pinguino32/trunk/linux/p32/bin/../lib/gcc/mips-elf/4.5.2/../../../../mips-elf/lib/libc.a(lib_a-svfprintf.o)
 .debug_loc     0x0000000000006535     0x2373 /home/fazzi/dev/Pinguino-svn/pinguino32/trunk/linux/p32/bin/../lib/gcc/mips-elf/4.5.2/../../../../mips-elf/lib/libc.a(lib_a-dtoa.o)
 .debug_loc     0x00000000000088a8      0x418 /home/fazzi/dev/Pinguino-svn/pinguino32/trunk/linux/p32/bin/../lib/gcc/mips-elf/4.5.2/../../../../mips-elf/lib/libc.a(lib_a-freer.o)
 .debug_loc     0x0000000000008cc0      0x10d /home/fazzi/dev/Pinguino-svn/pinguino32/trunk/linux/p32/bin/../lib/gcc/mips-elf/4.5.2/../../../../mips-elf/lib/libc.a(lib_a-locale.o)
 .debug_loc     0x0000000000008dcd      0x7f4 /home/fazzi/dev/Pinguino-svn/pinguino32/trunk/linux/p32/bin/../lib/gcc/mips-elf/4.5.2/../../../../mips-elf/lib/libc.a(lib_a-mallocr.o)
 .debug_loc     0x00000000000095c1       0xcd /home/fazzi/dev/Pinguino-svn/pinguino32/trunk/linux/p32/bin/../lib/gcc/mips-elf/4.5.2/../../../../mips-elf/lib/libc.a(lib_a-memchr.o)
 .debug_loc     0x000000000000968e      0x2c5 /home/fazzi/dev/Pinguino-svn/pinguino32/trunk/linux/p32/bin/../lib/gcc/mips-elf/4.5.2/../../../../mips-elf/lib/libc.a(lib_a-memcpy.o)
 .debug_loc     0x0000000000009953      0x17f /home/fazzi/dev/Pinguino-svn/pinguino32/trunk/linux/p32/bin/../lib/gcc/mips-elf/4.5.2/../../../../mips-elf/lib/libc.a(lib_a-memmove.o)
 .debug_loc     0x0000000000009ad2     0x13af /home/fazzi/dev/Pinguino-svn/pinguino32/trunk/linux/p32/bin/../lib/gcc/mips-elf/4.5.2/../../../../mips-elf/lib/libc.a(lib_a-mprec.o)
 .debug_loc     0x000000000000ae81      0x79b /home/fazzi/dev/Pinguino-svn/pinguino32/trunk/linux/p32/bin/../lib/gcc/mips-elf/4.5.2/../../../../mips-elf/lib/libc.a(lib_a-reallocr.o)
 .debug_loc     0x000000000000b61c       0x5b /home/fazzi/dev/Pinguino-svn/pinguino32/trunk/linux/p32/bin/../lib/gcc/mips-elf/4.5.2/../../../../mips-elf/lib/libc.a(lib_a-sbrkr.o)
 .debug_loc     0x000000000000b677       0xb2 /home/fazzi/dev/Pinguino-svn/pinguino32/trunk/linux/p32/bin/../lib/gcc/mips-elf/4.5.2/../../../../mips-elf/lib/libc.a(lib_a-callocr.o)
 .debug_loc     0x000000000000b729      0x1e7 /home/fazzi/dev/Pinguino-svn/pinguino32/trunk/linux/p32/bin/../lib/gcc/mips-elf/4.5.2/../../../../mips-elf/lib/libc.a(lib_a-reent.o)
 .debug_loc     0x000000000000b910      0xc89 /home/fazzi/dev/Pinguino-svn/pinguino32/trunk/linux/p32/bin/../lib/gcc/mips-elf/4.5.2/soft-float/el/libgcc.a(_udivdi3.o)
 .debug_loc     0x000000000000c599      0xd17 /home/fazzi/dev/Pinguino-svn/pinguino32/trunk/linux/p32/bin/../lib/gcc/mips-elf/4.5.2/soft-float/el/libgcc.a(_umoddi3.o)
 .debug_loc     0x000000000000d2b0       0x51 /home/fazzi/dev/Pinguino-svn/pinguino32/trunk/linux/p32/bin/../lib/gcc/mips-elf/4.5.2/soft-float/el/libgcc.a(_ge_df.o)
 .debug_loc     0x000000000000d301       0xdd /home/fazzi/dev/Pinguino-svn/pinguino32/trunk/linux/p32/bin/../lib/gcc/mips-elf/4.5.2/soft-float/el/libgcc.a(_usi_to_df.o)

.debug_macinfo
 *(.debug_macinfo)

.debug_weaknames
 *(.debug_weaknames)

.debug_funcnames
 *(.debug_funcnames)

.debug_typenames
 *(.debug_typenames)

.debug_varnames
 *(.debug_varnames)

/DISCARD/
 *(.note.GNU-stack)
OUTPUT(/home/fazzi/dev/Pinguino-svn/pinguino32/trunk/source/main32.elf elf32-littlemips)

.debug_ranges   0x0000000000000000      0x8f8
 .debug_ranges  0x0000000000000000       0x20 /home/fazzi/dev/Pinguino-svn/pinguino32/trunk/linux/p32/bin/../lib/gcc/mips-elf/4.5.2/soft-float/el/crti.o
 .debug_ranges  0x0000000000000020       0x78 /home/fazzi/dev/Pinguino-svn/pinguino32/trunk/linux/p32/bin/../lib/gcc/mips-elf/4.5.2/../../../../mips-elf/lib/libm.a(lib_a-ef_pow.o)
 .debug_ranges  0x0000000000000098       0x20 /home/fazzi/dev/Pinguino-svn/pinguino32/trunk/linux/p32/bin/../lib/gcc/mips-elf/4.5.2/../../../../mips-elf/lib/libm.a(lib_a-s_rint.o)
 .debug_ranges  0x00000000000000b8       0x28 /home/fazzi/dev/Pinguino-svn/pinguino32/trunk/linux/p32/bin/../lib/gcc/mips-elf/4.5.2/soft-float/el/libgcc.a(_addsub_sf.o)
 .debug_ranges  0x00000000000000e0       0x78 /home/fazzi/dev/Pinguino-svn/pinguino32/trunk/linux/p32/bin/../lib/gcc/mips-elf/4.5.2/soft-float/el/libgcc.a(_mul_sf.o)
 .debug_ranges  0x0000000000000158       0x58 /home/fazzi/dev/Pinguino-svn/pinguino32/trunk/linux/p32/bin/../lib/gcc/mips-elf/4.5.2/soft-float/el/libgcc.a(_div_sf.o)
 .debug_ranges  0x00000000000001b0       0x30 /home/fazzi/dev/Pinguino-svn/pinguino32/trunk/linux/p32/bin/../lib/gcc/mips-elf/4.5.2/soft-float/el/libgcc.a(_addsub_df.o)
 .debug_ranges  0x00000000000001e0       0x80 /home/fazzi/dev/Pinguino-svn/pinguino32/trunk/linux/p32/bin/../lib/gcc/mips-elf/4.5.2/soft-float/el/libgcc.a(_mul_df.o)
 .debug_ranges  0x0000000000000260       0x58 /home/fazzi/dev/Pinguino-svn/pinguino32/trunk/linux/p32/bin/../lib/gcc/mips-elf/4.5.2/soft-float/el/libgcc.a(_div_df.o)
 .debug_ranges  0x00000000000002b8       0x30 /home/fazzi/dev/Pinguino-svn/pinguino32/trunk/linux/p32/bin/../lib/gcc/mips-elf/4.5.2/soft-float/el/libgcc.a(_si_to_df.o)
 .debug_ranges  0x00000000000002e8       0x28 /home/fazzi/dev/Pinguino-svn/pinguino32/trunk/linux/p32/bin/../lib/gcc/mips-elf/4.5.2/soft-float/el/libgcc.a(_clzsi2.o)
 .debug_ranges  0x0000000000000310       0xe0 /home/fazzi/dev/Pinguino-svn/pinguino32/trunk/linux/p32/bin/../lib/gcc/mips-elf/4.5.2/../../../../mips-elf/lib/libc.a(lib_a-svfprintf.o)
 .debug_ranges  0x00000000000003f0       0x80 /home/fazzi/dev/Pinguino-svn/pinguino32/trunk/linux/p32/bin/../lib/gcc/mips-elf/4.5.2/../../../../mips-elf/lib/libc.a(lib_a-mallocr.o)
 .debug_ranges  0x0000000000000470       0x18 /home/fazzi/dev/Pinguino-svn/pinguino32/trunk/linux/p32/bin/../lib/gcc/mips-elf/4.5.2/../../../../mips-elf/lib/libc.a(lib_a-memcpy.o)
 .debug_ranges  0x0000000000000488       0x80 /home/fazzi/dev/Pinguino-svn/pinguino32/trunk/linux/p32/bin/../lib/gcc/mips-elf/4.5.2/../../../../mips-elf/lib/libc.a(lib_a-mprec.o)
 .debug_ranges  0x0000000000000508       0x70 /home/fazzi/dev/Pinguino-svn/pinguino32/trunk/linux/p32/bin/../lib/gcc/mips-elf/4.5.2/../../../../mips-elf/lib/libc.a(lib_a-reallocr.o)
 .debug_ranges  0x0000000000000578       0x18 /home/fazzi/dev/Pinguino-svn/pinguino32/trunk/linux/p32/bin/../lib/gcc/mips-elf/4.5.2/../../../../mips-elf/lib/libc.a(lib_a-callocr.o)
 .debug_ranges  0x0000000000000590      0x168 /home/fazzi/dev/Pinguino-svn/pinguino32/trunk/linux/p32/bin/../lib/gcc/mips-elf/4.5.2/soft-float/el/libgcc.a(_udivdi3.o)
 .debug_ranges  0x00000000000006f8      0x198 /home/fazzi/dev/Pinguino-svn/pinguino32/trunk/linux/p32/bin/../lib/gcc/mips-elf/4.5.2/soft-float/el/libgcc.a(_umoddi3.o)
 .debug_ranges  0x0000000000000890       0x48 /home/fazzi/dev/Pinguino-svn/pinguino32/trunk/linux/p32/bin/../lib/gcc/mips-elf/4.5.2/soft-float/el/libgcc.a(_usi_to_df.o)
 .debug_ranges  0x00000000000008d8       0x20 /home/fazzi/dev/Pinguino-svn/pinguino32/trunk/linux/p32/bin/../lib/gcc/mips-elf/4.5.2/soft-float/el/crtn.o

.debug_pubtypes
                0x0000000000000000     0x14b0
 .debug_pubtypes
                0x0000000000000000       0xaf /home/fazzi/dev/Pinguino-svn/pinguino32/trunk/linux/p32/bin/../lib/gcc/mips-elf/4.5.2/soft-float/el/libgcc.a(_addsub_sf.o)
 .debug_pubtypes
                0x00000000000000af       0xa4 /home/fazzi/dev/Pinguino-svn/pinguino32/trunk/linux/p32/bin/../lib/gcc/mips-elf/4.5.2/soft-float/el/libgcc.a(_mul_sf.o)
 .debug_pubtypes
                0x0000000000000153       0x98 /home/fazzi/dev/Pinguino-svn/pinguino32/trunk/linux/p32/bin/../lib/gcc/mips-elf/4.5.2/soft-float/el/libgcc.a(_div_sf.o)
 .debug_pubtypes
                0x00000000000001eb       0xa4 /home/fazzi/dev/Pinguino-svn/pinguino32/trunk/linux/p32/bin/../lib/gcc/mips-elf/4.5.2/soft-float/el/libgcc.a(_eq_sf.o)
 .debug_pubtypes
                0x000000000000028f       0xa4 /home/fazzi/dev/Pinguino-svn/pinguino32/trunk/linux/p32/bin/../lib/gcc/mips-elf/4.5.2/soft-float/el/libgcc.a(_gt_sf.o)
 .debug_pubtypes
                0x0000000000000333       0xa4 /home/fazzi/dev/Pinguino-svn/pinguino32/trunk/linux/p32/bin/../lib/gcc/mips-elf/4.5.2/soft-float/el/libgcc.a(_lt_sf.o)
 .debug_pubtypes
                0x00000000000003d7       0xa4 /home/fazzi/dev/Pinguino-svn/pinguino32/trunk/linux/p32/bin/../lib/gcc/mips-elf/4.5.2/soft-float/el/libgcc.a(_le_sf.o)
 .debug_pubtypes
                0x000000000000047b       0x90 /home/fazzi/dev/Pinguino-svn/pinguino32/trunk/linux/p32/bin/../lib/gcc/mips-elf/4.5.2/soft-float/el/libgcc.a(_si_to_sf.o)
 .debug_pubtypes
                0x000000000000050b       0xa3 /home/fazzi/dev/Pinguino-svn/pinguino32/trunk/linux/p32/bin/../lib/gcc/mips-elf/4.5.2/soft-float/el/libgcc.a(_sf_to_si.o)
 .debug_pubtypes
                0x00000000000005ae       0xaf /home/fazzi/dev/Pinguino-svn/pinguino32/trunk/linux/p32/bin/../lib/gcc/mips-elf/4.5.2/soft-float/el/libgcc.a(_sf_to_df.o)
 .debug_pubtypes
                0x000000000000065d       0x6d /home/fazzi/dev/Pinguino-svn/pinguino32/trunk/linux/p32/bin/../lib/gcc/mips-elf/4.5.2/soft-float/el/libgcc.a(_thenan_sf.o)
 .debug_pubtypes
                0x00000000000006ca       0xaf /home/fazzi/dev/Pinguino-svn/pinguino32/trunk/linux/p32/bin/../lib/gcc/mips-elf/4.5.2/soft-float/el/libgcc.a(_addsub_df.o)
 .debug_pubtypes
                0x0000000000000779       0x98 /home/fazzi/dev/Pinguino-svn/pinguino32/trunk/linux/p32/bin/../lib/gcc/mips-elf/4.5.2/soft-float/el/libgcc.a(_mul_df.o)
 .debug_pubtypes
                0x0000000000000811       0x98 /home/fazzi/dev/Pinguino-svn/pinguino32/trunk/linux/p32/bin/../lib/gcc/mips-elf/4.5.2/soft-float/el/libgcc.a(_div_df.o)
 .debug_pubtypes
                0x00000000000008a9       0xa4 /home/fazzi/dev/Pinguino-svn/pinguino32/trunk/linux/p32/bin/../lib/gcc/mips-elf/4.5.2/soft-float/el/libgcc.a(_eq_df.o)
 .debug_pubtypes
                0x000000000000094d       0xa4 /home/fazzi/dev/Pinguino-svn/pinguino32/trunk/linux/p32/bin/../lib/gcc/mips-elf/4.5.2/soft-float/el/libgcc.a(_ne_df.o)
 .debug_pubtypes
                0x00000000000009f1       0xa4 /home/fazzi/dev/Pinguino-svn/pinguino32/trunk/linux/p32/bin/../lib/gcc/mips-elf/4.5.2/soft-float/el/libgcc.a(_gt_df.o)
 .debug_pubtypes
                0x0000000000000a95       0xa4 /home/fazzi/dev/Pinguino-svn/pinguino32/trunk/linux/p32/bin/../lib/gcc/mips-elf/4.5.2/soft-float/el/libgcc.a(_lt_df.o)
 .debug_pubtypes
                0x0000000000000b39       0x90 /home/fazzi/dev/Pinguino-svn/pinguino32/trunk/linux/p32/bin/../lib/gcc/mips-elf/4.5.2/soft-float/el/libgcc.a(_si_to_df.o)
 .debug_pubtypes
                0x0000000000000bc9       0xa3 /home/fazzi/dev/Pinguino-svn/pinguino32/trunk/linux/p32/bin/../lib/gcc/mips-elf/4.5.2/soft-float/el/libgcc.a(_df_to_si.o)
 .debug_pubtypes
                0x0000000000000c6c       0x78 /home/fazzi/dev/Pinguino-svn/pinguino32/trunk/linux/p32/bin/../lib/gcc/mips-elf/4.5.2/soft-float/el/libgcc.a(_make_df.o)
 .debug_pubtypes
                0x0000000000000ce4       0xa3 /home/fazzi/dev/Pinguino-svn/pinguino32/trunk/linux/p32/bin/../lib/gcc/mips-elf/4.5.2/soft-float/el/libgcc.a(_df_to_sf.o)
 .debug_pubtypes
                0x0000000000000d87       0x6d /home/fazzi/dev/Pinguino-svn/pinguino32/trunk/linux/p32/bin/../lib/gcc/mips-elf/4.5.2/soft-float/el/libgcc.a(_thenan_df.o)
 .debug_pubtypes
                0x0000000000000df4       0x35 /home/fazzi/dev/Pinguino-svn/pinguino32/trunk/linux/p32/bin/../lib/gcc/mips-elf/4.5.2/soft-float/el/libgcc.a(_clzsi2.o)
 .debug_pubtypes
                0x0000000000000e29       0x98 /home/fazzi/dev/Pinguino-svn/pinguino32/trunk/linux/p32/bin/../lib/gcc/mips-elf/4.5.2/soft-float/el/libgcc.a(_pack_sf.o)
 .debug_pubtypes
                0x0000000000000ec1       0x98 /home/fazzi/dev/Pinguino-svn/pinguino32/trunk/linux/p32/bin/../lib/gcc/mips-elf/4.5.2/soft-float/el/libgcc.a(_unpack_sf.o)
 .debug_pubtypes
                0x0000000000000f59       0x6d /home/fazzi/dev/Pinguino-svn/pinguino32/trunk/linux/p32/bin/../lib/gcc/mips-elf/4.5.2/soft-float/el/libgcc.a(_fpcmp_parts_sf.o)
 .debug_pubtypes
                0x0000000000000fc6       0x78 /home/fazzi/dev/Pinguino-svn/pinguino32/trunk/linux/p32/bin/../lib/gcc/mips-elf/4.5.2/soft-float/el/libgcc.a(_make_sf.o)
 .debug_pubtypes
                0x000000000000103e       0x98 /home/fazzi/dev/Pinguino-svn/pinguino32/trunk/linux/p32/bin/../lib/gcc/mips-elf/4.5.2/soft-float/el/libgcc.a(_pack_df.o)
 .debug_pubtypes
                0x00000000000010d6       0x98 /home/fazzi/dev/Pinguino-svn/pinguino32/trunk/linux/p32/bin/../lib/gcc/mips-elf/4.5.2/soft-float/el/libgcc.a(_unpack_df.o)
 .debug_pubtypes
                0x000000000000116e       0x6d /home/fazzi/dev/Pinguino-svn/pinguino32/trunk/linux/p32/bin/../lib/gcc/mips-elf/4.5.2/soft-float/el/libgcc.a(_fpcmp_parts_df.o)
 .debug_pubtypes
                0x00000000000011db       0x62 /home/fazzi/dev/Pinguino-svn/pinguino32/trunk/linux/p32/bin/../lib/gcc/mips-elf/4.5.2/soft-float/el/libgcc.a(_lshrdi3.o)
 .debug_pubtypes
                0x000000000000123d       0x62 /home/fazzi/dev/Pinguino-svn/pinguino32/trunk/linux/p32/bin/../lib/gcc/mips-elf/4.5.2/soft-float/el/libgcc.a(_ashldi3.o)
 .debug_pubtypes
                0x000000000000129f       0x1e /home/fazzi/dev/Pinguino-svn/pinguino32/trunk/linux/p32/bin/../lib/gcc/mips-elf/4.5.2/soft-float/el/libgcc.a(_clz.o)
 .debug_pubtypes
                0x00000000000012bd       0x65 /home/fazzi/dev/Pinguino-svn/pinguino32/trunk/linux/p32/bin/../lib/gcc/mips-elf/4.5.2/soft-float/el/libgcc.a(_udivdi3.o)
 .debug_pubtypes
                0x0000000000001322       0x65 /home/fazzi/dev/Pinguino-svn/pinguino32/trunk/linux/p32/bin/../lib/gcc/mips-elf/4.5.2/soft-float/el/libgcc.a(_umoddi3.o)
 .debug_pubtypes
                0x0000000000001387       0xa4 /home/fazzi/dev/Pinguino-svn/pinguino32/trunk/linux/p32/bin/../lib/gcc/mips-elf/4.5.2/soft-float/el/libgcc.a(_ge_df.o)
 .debug_pubtypes
                0x000000000000142b       0x85 /home/fazzi/dev/Pinguino-svn/pinguino32/trunk/linux/p32/bin/../lib/gcc/mips-elf/4.5.2/soft-float/el/libgcc.a(_usi_to_df.o)
