gplink-0.13.7 beta
Copyright (c) 1998-2005 gputils project
Listing File Generated: 11-26-2011  12:22:29
 
 
Address  Value    Disassembly              Source
-------  -----    -----------              ------
                                           ;--------------------------------------------------------
                                           ; File Created by SDCC : free open source ANSI-C Compiler
                                           ; Version 2.9.0 #5416 (Aug  9 2009) (UNIX)
                                           ; This file was generated Sat Nov 26 12:22:29 2011
                                           ;--------------------------------------------------------
                                           ; PIC16 port for the Microchip 16-bit core micros
                                           ;--------------------------------------------------------
                                           	list	p=18f4550
                                           
                                           	radix dec
                                           
                                           ;--------------------------------------------------------
                                           ; public variables in this module
                                           ;--------------------------------------------------------
                                           	global _hidRxLen
                                           	global _hidProtocol
                                           	global _hidIdleRate
                                           	global _HIDPostProcess
                                           	global _deviceAddress
                                           	global _EnableUSBModule
                                           	global _ProcessUSBTransactions
                                           	global _ProcessCDCRequest
                                           	global _CDCgets
                                           	global _CDCInitEndpoint
                                           	global _CONTROL_LINE
                                           	global _deviceState
                                           	global _remoteWakeup
                                           	global _selfPowered
                                           	global _currentConfiguration
                                           	global _ctrlTransferStage
                                           	global _requestHandled
                                           	global _outPtr
                                           	global _inPtr
                                           	global _wCount
                                           	global _ep_bdt
                                           	global _SetupPacket
                                           	global _controlTransferBuffer
                                           	global _CDCControlBuffer
                                           	global _CDCRxBuffer
                                           	global _CDCTxBuffer
                                           	global _line_config
                                           	global _zlp
                                           	global _i
                                           	global _ProcessStandardRequest
                                           	global _InDataStage
                                           	global _OutDataStage
                                           	global _SetupStage
                                           	global _WaitForSetupStage
                                           	global _ProcessControlTransfer
                                           	global _UnSuspend
                                           	global _StartOfFrame
                                           	global _Stall
                                           	global _Suspend
                                           	global _BusReset
                                           	global _CDCputs
                                           	global _Delayms
                                           	global _Delayus
                                           	global _pprintf
                                           	global _psprintf
                                           	global _CDC_init
                                           	global _CDCwrite
                                           	global _CDCprintf
                                           	global _CDCprintln
                                           	global _CDCprint
                                           	global _CDCgetkey
                                           	global _CDCgetstring
                                           	global _epap_in
                                           	global _epap_out
                                           	global _epapin_init
                                           	global _epapout_init
                                           	global _setup
                                           	global _loop
                                           	global _pinguino_main
                                           	global _high_priority_isr
                                           	global _low_priority_isr
                                           	global _pinguino_interrupt
                                           	global _libdevice_descriptor
                                           	global _libconfiguration_descriptor
                                           	global _libstring_descriptor
                                           
                                           ;--------------------------------------------------------
                                           ; extern variables in this module
                                           ;--------------------------------------------------------
                                           	extern __gptrget1
                                           	extern __gptrput1
                                           	extern __gptrget3
                                           	extern __gptrput3
                                           	extern __gptrget4
                                           	extern __gptrget2
                                           	extern _SPPDATAbits
                                           	extern _SPPCFGbits
                                           	extern _SPPEPSbits
                                           	extern _SPPCONbits
                                           	extern _UFRMLbits
                                           	extern _UFRMHbits
                                           	extern _UIRbits
                                           	extern _UIEbits
                                           	extern _UEIRbits
                                           	extern _UEIEbits
                                           	extern _USTATbits
                                           	extern _UCONbits
                                           	extern _UADDRbits
                                           	extern _UCFGbits
                                           	extern _UEP0bits
                                           	extern _UEP1bits
                                           	extern _UEP2bits
                                           	extern _UEP3bits
                                           	extern _UEP4bits
                                           	extern _UEP5bits
                                           	extern _UEP6bits
                                           	extern _UEP7bits
                                           	extern _UEP8bits
                                           	extern _UEP9bits
                                           	extern _UEP10bits
                                           	extern _UEP11bits
                                           	extern _UEP12bits
                                           	extern _UEP13bits
                                           	extern _UEP14bits
                                           	extern _UEP15bits
                                           	extern _PORTAbits
                                           	extern _PORTBbits
                                           	extern _PORTCbits
                                           	extern _PORTDbits
                                           	extern _PORTEbits
                                           	extern _LATAbits
                                           	extern _LATBbits
                                           	extern _LATCbits
                                           	extern _LATDbits
                                           	extern _LATEbits
                                           	extern _TRISAbits
                                           	extern _TRISBbits
                                           	extern _TRISCbits
                                           	extern _TRISDbits
                                           	extern _TRISEbits
                                           	extern _OSCTUNEbits
                                           	extern _PIE1bits
                                           	extern _PIR1bits
                                           	extern _IPR1bits
                                           	extern _PIE2bits
                                           	extern _PIR2bits
                                           	extern _IPR2bits
                                           	extern _EECON1bits
                                           	extern _RCSTAbits
                                           	extern _TXSTAbits
                                           	extern _T3CONbits
                                           	extern _CMCONbits
                                           	extern _CVRCONbits
                                           	extern _ECCP1ASbits
                                           	extern _ECCP1DELbits
                                           	extern _BAUDCONbits
                                           	extern _CCP2CONbits
                                           	extern _CCP1CONbits
                                           	extern _ADCON2bits
                                           	extern _ADCON1bits
                                           	extern _ADCON0bits
                                           	extern _SSPCON2bits
                                           	extern _SSPCON1bits
                                           	extern _SSPSTATbits
                                           	extern _T2CONbits
                                           	extern _T1CONbits
                                           	extern _RCONbits
                                           	extern _WDTCONbits
                                           	extern _HLVDCONbits
                                           	extern _OSCCONbits
                                           	extern _T0CONbits
                                           	extern _STATUSbits
                                           	extern _FSR2Hbits
                                           	extern _BSRbits
                                           	extern _FSR1Hbits
                                           	extern _FSR0Hbits
                                           	extern _INTCON3bits
                                           	extern _INTCON2bits
                                           	extern _INTCONbits
                                           	extern _TBLPTRUbits
                                           	extern _PCLATHbits
                                           	extern _PCLATUbits
                                           	extern _STKPTRbits
                                           	extern _TOSUbits
                                           	extern _usb_device_state
                                           	extern _usb_active_cfg
                                           	extern _usb_active_alt_setting
                                           	extern _SPPDATA
                                           	extern _SPPCFG
                                           	extern _SPPEPS
                                           	extern _SPPCON
                                           	extern _UFRML
                                           	extern _UFRMH
                                           	extern _UIR
                                           	extern _UIE
                                           	extern _UEIR
                                           	extern _UEIE
                                           	extern _USTAT
                                           	extern _UCON
                                           	extern _UADDR
                                           	extern _UCFG
                                           	extern _UEP0
                                           	extern _UEP1
                                           	extern _UEP2
                                           	extern _UEP3
                                           	extern _UEP4
                                           	extern _UEP5
                                           	extern _UEP6
                                           	extern _UEP7
                                           	extern _UEP8
                                           	extern _UEP9
                                           	extern _UEP10
                                           	extern _UEP11
                                           	extern _UEP12
                                           	extern _UEP13
                                           	extern _UEP14
                                           	extern _UEP15
                                           	extern _PORTA
                                           	extern _PORTB
                                           	extern _PORTC
                                           	extern _PORTD
                                           	extern _PORTE
                                           	extern _LATA
                                           	extern _LATB
                                           	extern _LATC
                                           	extern _LATD
                                           	extern _LATE
                                           	extern _TRISA
                                           	extern _TRISB
                                           	extern _TRISC
                                           	extern _TRISD
                                           	extern _TRISE
                                           	extern _OSCTUNE
                                           	extern _PIE1
                                           	extern _PIR1
                                           	extern _IPR1
                                           	extern _PIE2
                                           	extern _PIR2
                                           	extern _IPR2
                                           	extern _EECON1
                                           	extern _EECON2
                                           	extern _EEDATA
                                           	extern _EEADR
                                           	extern _RCSTA
                                           	extern _TXSTA
                                           	extern _TXREG
                                           	extern _RCREG
                                           	extern _SPBRG
                                           	extern _SPBRGH
                                           	extern _T3CON
                                           	extern _TMR3L
                                           	extern _TMR3H
                                           	extern _CMCON
                                           	extern _CVRCON
                                           	extern _ECCP1AS
                                           	extern _ECCP1DEL
                                           	extern _BAUDCON
                                           	extern _CCP2CON
                                           	extern _CCPR2L
                                           	extern _CCPR2H
                                           	extern _CCP1CON
                                           	extern _CCPR1L
                                           	extern _CCPR1H
                                           	extern _ADCON2
                                           	extern _ADCON1
                                           	extern _ADCON0
                                           	extern _ADRESL
                                           	extern _ADRESH
                                           	extern _SSPCON2
                                           	extern _SSPCON1
                                           	extern _SSPSTAT
                                           	extern _SSPADD
                                           	extern _SSPBUF
                                           	extern _T2CON
                                           	extern _PR2
                                           	extern _TMR2
                                           	extern _T1CON
                                           	extern _TMR1L
                                           	extern _TMR1H
                                           	extern _RCON
                                           	extern _WDTCON
                                           	extern _HLVDCON
                                           	extern _OSCCON
                                           	extern _T0CON
                                           	extern _TMR0L
                                           	extern _TMR0H
                                           	extern _STATUS
                                           	extern _FSR2L
                                           	extern _FSR2H
                                           	extern _PLUSW2
                                           	extern _PREINC2
                                           	extern _POSTDEC2
                                           	extern _POSTINC2
                                           	extern _INDF2
                                           	extern _BSR
                                           	extern _FSR1L
                                           	extern _FSR1H
                                           	extern _PLUSW1
                                           	extern _PREINC1
                                           	extern _POSTDEC1
                                           	extern _POSTINC1
                                           	extern _INDF1
                                           	extern _WREG
                                           	extern _FSR0L
                                           	extern _FSR0H
                                           	extern _PLUSW0
                                           	extern _PREINC0
                                           	extern _POSTDEC0
                                           	extern _POSTINC0
                                           	extern _INDF0
                                           	extern _INTCON3
                                           	extern _INTCON2
                                           	extern _INTCON
                                           	extern _PRODL
                                           	extern _PRODH
                                           	extern _TABLAT
                                           	extern _TBLPTRL
                                           	extern _TBLPTRH
                                           	extern _TBLPTRU
                                           	extern _PCL
                                           	extern _PCLATH
                                           	extern _PCLATU
                                           	extern _STKPTR
                                           	extern _TOSL
                                           	extern _TOSH
                                           	extern _TOSU
                                           	extern _delay10ktcy
                                           	extern __modulong
                                           	extern __divulong
                                           	extern __moduint
                                           	extern __divuint
                                           	extern __mulint
                                           ;--------------------------------------------------------
                                           ;	Equates to used internal registers
                                           ;--------------------------------------------------------
                                           STATUS	equ	0xfd8
                                           PCL	equ	0xff9
                                           PCLATH	equ	0xffa
                                           PCLATU	equ	0xffb
                                           INTCON	equ	0xff2
                                           WREG	equ	0xfe8
                                           BSR	equ	0xfe0
                                           TOSL	equ	0xffd
                                           TOSH	equ	0xffe
                                           TOSU	equ	0xfff
                                           TBLPTRL	equ	0xff6
                                           TBLPTRH	equ	0xff7
                                           TBLPTRU	equ	0xff8
                                           TABLAT	equ	0xff5
                                           FSR0L	equ	0xfe9
                                           FSR0H	equ	0xfea
                                           FSR1L	equ	0xfe1
                                           FSR2L	equ	0xfd9
                                           FSR2H	equ	0xfda
                                           INDF0	equ	0xfef
                                           POSTINC0	equ	0xfee
                                           POSTDEC1	equ	0xfe5
                                           PREINC1	equ	0xfe4
                                           PLUSW2	equ	0xfdb
                                           PRODL	equ	0xff3
                                           PRODH	equ	0xff4
                                           
                                           
                                           	idata
                                           _CONTROL_LINE	db	0x00
                                           _i	db	0x00, 0x70, 0x00, 0x00
                                           
                                           
                                           ; Internal registers
                                           .registers	udata_ovr	0x0000
                                           r0x00	res	1
                                           r0x01	res	1
                                           r0x02	res	1
                                           r0x03	res	1
                                           r0x04	res	1
                                           r0x05	res	1
                                           r0x06	res	1
                                           r0x07	res	1
                                           r0x08	res	1
                                           r0x09	res	1
                                           r0x0a	res	1
                                           r0x0b	res	1
                                           r0x0c	res	1
                                           r0x0d	res	1
                                           r0x0e	res	1
                                           r0x0f	res	1
                                           r0x10	res	1
                                           r0x11	res	1
                                           r0x12	res	1
                                           r0x13	res	1
                                           r0x14	res	1
                                           r0x15	res	1
                                           r0x16	res	1
                                           r0x17	res	1
                                           r0x18	res	1
                                           r0x19	res	1
                                           r0x1a	res	1
                                           r0x1b	res	1
                                           r0x1c	res	1
                                           r0x1d	res	1
                                           r0x1e	res	1
                                           r0x1f	res	1
                                           r0x20	res	1
                                           r0x21	res	1
                                           
                                           
                                           usbram5	udata
                                           _SetupPacket	res	64
                                           _controlTransferBuffer	res	64
                                           _CDCRxBuffer	res	64
                                           _CDCTxBuffer	res	64
                                           
                                           udata_main_0	udata
                                           _deviceAddress	res	1
                                           
                                           udata_main_1	udata
                                           _HIDPostProcess	res	1
                                           
                                           udata_main_2	udata
                                           _hidIdleRate	res	1
                                           
                                           udata_main_3	udata
                                           _hidProtocol	res	1
                                           
                                           udata_main_4	udata
                                           _hidRxLen	res	1
                                           
                                           udata_main_5	udata
                                           _pputchar	res	3
                                           
                                           udata_main_6	udata
                                           _requestHandled	res	1
                                           
                                           udata_main_7	udata
                                           _outPtr	res	3
                                           
                                           udata_main_8	udata
                                           _wCount	res	2
                                           
                                           udata_main_9	udata
                                           _inPtr	res	3
                                           
                                           udata_main_10	udata
                                           _selfPowered	res	1
                                           
                                           udata_main_11	udata
                                           _remoteWakeup	res	1
                                           
                                           udata_main_12	udata
                                           _deviceState	res	1
                                           
                                           udata_main_13	udata
                                           _currentConfiguration	res	1
                                           
                                           udata_main_14	udata
                                           _ctrlTransferStage	res	1
                                           
                                           udata_main_15	udata
                                           _line_config	res	7
                                           
                                           udata_main_16	udata
                                           _zlp	res	8
                                           
                                           udata_main_17	udata
                                           _CDCControlBuffer	res	16
                                           
                                           udata_main_18	udata
                                           _pprinti_buffer_1_1	res	12
                                           
                                           udata_main_19	udata
                                           _pprintfl_helper_1_1	res	5
                                           
                                           udata_main_20	udata
                                           _pprintfl_buffer_1_1	res	12
                                           
                                           udata_main_21	udata
                                           _pprint_scr_1_1	res	2
                                           
                                           udata_main_22	udata
                                           _psprintf_out_1_1	res	3
                                           
                                           udata_main_23	udata
                                           _CDCprintf_buffer_1_1	res	80
                                           
                                           udata_main_24	udata
                                           _CDCgetkey_buffer_1_1	res	64
                                           
                                           udata_main_25	udata
                                           _CDCgetstring_buffer_1_1	res	80
                                           
                                           
                                           ustat_main_00	udata	0X0400
                                           _ep_bdt        	res	128
                                           
                                           ;--------------------------------------------------------
                                           ; global & static initialisations
                                           ;--------------------------------------------------------
                                           ; ; Starting pCode block
                                           S_main__high_priority_isr	code	0X002020
                                           _high_priority_isr:
                                           ;	.line	131; /home/regis/Hobbies/Electronique/Projets/Pinguino/local/trunk/source/main.c	void high_priority_isr(void) interrupt
002020   cfe8     movff	0xfe8, 0xfe5       	MOVFF	WREG, POSTDEC1
002022   ffe5
002024   cfd8     movff	0xfd8, 0xfe5       	MOVFF	STATUS, POSTDEC1
002026   ffe5
002028   cfe0     movff	0xfe0, 0xfe5       	MOVFF	BSR, POSTDEC1
00202a   ffe5
00202c   cff3     movff	0xff3, 0xfe5       	MOVFF	PRODL, POSTDEC1
00202e   ffe5
002030   cff4     movff	0xff4, 0xfe5       	MOVFF	PRODH, POSTDEC1
002032   ffe5
002034   cfe9     movff	0xfe9, 0xfe5       	MOVFF	FSR0L, POSTDEC1
002036   ffe5
002038   cfea     movff	0xfea, 0xfe5       	MOVFF	FSR0H, POSTDEC1
00203a   ffe5
00203c   cffa     movff	0xffa, 0xfe5       	MOVFF	PCLATH, POSTDEC1
00203e   ffe5
002040   cffb     movff	0xffb, 0xfe5       	MOVFF	PCLATU, POSTDEC1
002042   ffe5
                                           ;	.line	134; /home/regis/Hobbies/Electronique/Projets/Pinguino/local/trunk/source/main.c	if(PIR2bits.USBIF)
002044   aaa1     btfss	0xa1, 0x5, 0       	BTFSS	_PIR2bits, 5
002046   d006     bra	0x2054               	BRA	_01085_DS_
                                           ;	.line	136; /home/regis/Hobbies/Electronique/Projets/Pinguino/local/trunk/source/main.c	ProcessUSBTransactions();
002048   eca2     call	0x5344, 0           	CALL	_ProcessUSBTransactions
00204a   f029
                                           ;	.line	137; /home/regis/Hobbies/Electronique/Projets/Pinguino/local/trunk/source/main.c	UIRbits.SOFIF = 0;
00204c   9c68     bcf	0x68, 0x6, 0         	BCF	_UIRbits, 6
                                           ;	.line	138; /home/regis/Hobbies/Electronique/Projets/Pinguino/local/trunk/source/main.c	UIRbits.URSTIF = 0;
00204e   9068     bcf	0x68, 0, 0           	BCF	_UIRbits, 0
                                           ;	.line	139; /home/regis/Hobbies/Electronique/Projets/Pinguino/local/trunk/source/main.c	PIR2bits.USBIF = 0;
002050   9aa1     bcf	0xa1, 0x5, 0         	BCF	_PIR2bits, 5
                                           ;	.line	140; /home/regis/Hobbies/Electronique/Projets/Pinguino/local/trunk/source/main.c	UEIR = 0;
002052   6a6a     clrf	0x6a, 0             	CLRF	_UEIR
                                           _01085_DS_:
002054   cfe4     movff	0xfe4, 0xffb       	MOVFF	PREINC1, PCLATU
002056   fffb
002058   cfe4     movff	0xfe4, 0xffa       	MOVFF	PREINC1, PCLATH
00205a   fffa
00205c   cfe4     movff	0xfe4, 0xfea       	MOVFF	PREINC1, FSR0H
00205e   ffea
002060   cfe4     movff	0xfe4, 0xfe9       	MOVFF	PREINC1, FSR0L
002062   ffe9
002064   cfe4     movff	0xfe4, 0xff4       	MOVFF	PREINC1, PRODH
002066   fff4
002068   cfe4     movff	0xfe4, 0xff3       	MOVFF	PREINC1, PRODL
00206a   fff3
00206c   cfe4     movff	0xfe4, 0xfe0       	MOVFF	PREINC1, BSR
00206e   ffe0
002070   cfe4     movff	0xfe4, 0xfd8       	MOVFF	PREINC1, STATUS
002072   ffd8
002074   cfe4     movff	0xfe4, 0xfe8       	MOVFF	PREINC1, WREG
002076   ffe8
002078   0010     retfie	0                 	RETFIE	
                                           
                                           ; ; Starting pCode block
                                           S_main__low_priority_isr	code	0X004000
                                           _low_priority_isr:
                                           ;	.line	199; /home/regis/Hobbies/Electronique/Projets/Pinguino/local/trunk/source/main.c	void low_priority_isr(void) interrupt
004000   cfe8     movff	0xfe8, 0xfe5       	MOVFF	WREG, POSTDEC1
004002   ffe5
004004   cfd8     movff	0xfd8, 0xfe5       	MOVFF	STATUS, POSTDEC1
004006   ffe5
004008   cfe0     movff	0xfe0, 0xfe5       	MOVFF	BSR, POSTDEC1
00400a   ffe5
00400c   cff3     movff	0xff3, 0xfe5       	MOVFF	PRODL, POSTDEC1
00400e   ffe5
004010   cff4     movff	0xff4, 0xfe5       	MOVFF	PRODH, POSTDEC1
004012   ffe5
004014   cfe9     movff	0xfe9, 0xfe5       	MOVFF	FSR0L, POSTDEC1
004016   ffe5
004018   cfea     movff	0xfea, 0xfe5       	MOVFF	FSR0H, POSTDEC1
00401a   ffe5
00401c   cffa     movff	0xffa, 0xfe5       	MOVFF	PCLATH, POSTDEC1
00401e   ffe5
004020   cffb     movff	0xffb, 0xfe5       	MOVFF	PCLATU, POSTDEC1
004022   ffe5
                                           ;	.line	204; /home/regis/Hobbies/Electronique/Projets/Pinguino/local/trunk/source/main.c	}
004024   cfe4     movff	0xfe4, 0xffb       	MOVFF	PREINC1, PCLATU
004026   fffb
004028   cfe4     movff	0xfe4, 0xffa       	MOVFF	PREINC1, PCLATH
00402a   fffa
00402c   cfe4     movff	0xfe4, 0xfea       	MOVFF	PREINC1, FSR0H
00402e   ffea
004030   cfe4     movff	0xfe4, 0xfe9       	MOVFF	PREINC1, FSR0L
004032   ffe9
004034   cfe4     movff	0xfe4, 0xff4       	MOVFF	PREINC1, PRODH
004036   fff4
004038   cfe4     movff	0xfe4, 0xff3       	MOVFF	PREINC1, PRODL
00403a   fff3
00403c   cfe4     movff	0xfe4, 0xfe0       	MOVFF	PREINC1, BSR
00403e   ffe0
004040   cfe4     movff	0xfe4, 0xfd8       	MOVFF	PREINC1, STATUS
004042   ffd8
004044   cfe4     movff	0xfe4, 0xfe8       	MOVFF	PREINC1, WREG
004046   ffe8
004048   0010     retfie	0                 	RETFIE	
                                           
                                           ; I code from now on!
                                           ; ; Starting pCode block
                                           S_main__pinguino_interrupt	code
                                           _pinguino_interrupt:
                                           ;	.line	208; /home/regis/Hobbies/Electronique/Projets/Pinguino/local/trunk/source/main.c	}
0056a6   0012     return	0                 	RETURN	
                                           
                                           ; ; Starting pCode block
                                           S_main__pinguino_main	code
                                           _pinguino_main:
                                           ;	.line	59; /home/regis/Hobbies/Electronique/Projets/Pinguino/local/trunk/source/main.c	PIE1 = 0;
005622   6a9d     clrf	0x9d, 0             	CLRF	_PIE1
                                           ;	.line	60; /home/regis/Hobbies/Electronique/Projets/Pinguino/local/trunk/source/main.c	PIE2 = 0;
005624   6aa0     clrf	0xa0, 0             	CLRF	_PIE2
                                           ;	.line	61; /home/regis/Hobbies/Electronique/Projets/Pinguino/local/trunk/source/main.c	ADCON1 = 0b00001111;				// AN0 to AN12 Digital I/O
005626   0e0f     movlw	0xf                	MOVLW	0x0f
005628   6ec1     movwf	0xc1, 0            	MOVWF	_ADCON1
                                           ;	.line	73; /home/regis/Hobbies/Electronique/Projets/Pinguino/local/trunk/source/main.c	setup();
00562a   ec48     call	0x5690, 0           	CALL	_setup
00562c   f02b
                                           ;	.line	92; /home/regis/Hobbies/Electronique/Projets/Pinguino/local/trunk/source/main.c	CDC_init();
00562e   ec0d     call	0x541a, 0           	CALL	_CDC_init
005630   f02a
                                           ;	.line	93; /home/regis/Hobbies/Electronique/Projets/Pinguino/local/trunk/source/main.c	PIE2bits.USBIE  = 1;
005632   8aa0     bsf	0xa0, 0x5, 0         	BSF	_PIE2bits, 5
                                           ;	.line	94; /home/regis/Hobbies/Electronique/Projets/Pinguino/local/trunk/source/main.c	INTCONbits.PEIE = 1;
005634   8cf2     bsf	0xf2, 0x6, 0         	BSF	_INTCONbits, 6
                                           ;	.line	95; /home/regis/Hobbies/Electronique/Projets/Pinguino/local/trunk/source/main.c	INTCONbits.GIE  = 1;
005636   8ef2     bsf	0xf2, 0x7, 0         	BSF	_INTCONbits, 7
                                           _01076_DS_:
                                           ;	.line	121; /home/regis/Hobbies/Electronique/Projets/Pinguino/local/trunk/source/main.c	loop();
005638   ecd8     call	0x53b0, 0           	CALL	_loop
00563a   f029
00563c   d7fd     bra	0x5638               	BRA	_01076_DS_
00563e   0012     return	0                 	RETURN	
                                           
                                           ; ; Starting pCode block
                                           S_main__loop	code
                                           _loop:
                                           ;	.line	13; /home/regis/Hobbies/Electronique/Projets/Pinguino/local/trunk/source/user.c	void loop()
0053b0   c000     movff	0, 0xfe5           	MOVFF	r0x00, POSTDEC1
0053b2   ffe5
0053b4   c001     movff	0x1, 0xfe5         	MOVFF	r0x01, POSTDEC1
0053b6   ffe5
0053b8   c002     movff	0x2, 0xfe5         	MOVFF	r0x02, POSTDEC1
0053ba   ffe5
0053bc   c003     movff	0x3, 0xfe5         	MOVFF	r0x03, POSTDEC1
0053be   ffe5
                                           ;	.line	15; /home/regis/Hobbies/Electronique/Projets/Pinguino/local/trunk/source/user.c	CDCprintf("%lx\r\n", i++);
0053c0   c31d     movff	0x31d, 0           	MOVFF	_i, r0x00
0053c2   f000
0053c4   c31e     movff	0x31e, 0x1         	MOVFF	(_i + 1), r0x01
0053c6   f001
0053c8   c31f     movff	0x31f, 0x2         	MOVFF	(_i + 2), r0x02
0053ca   f002
0053cc   c320     movff	0x320, 0x3         	MOVFF	(_i + 3), r0x03
0053ce   f003
0053d0   0103     movlb	0x3                	BANKSEL	_i
0053d2   2b1d     incf	0x1d, 0x1, 0x1      	INCF	_i, F, B
0053d4   e301     bnc	0x53d8               	BNC	_11095_DS_
                                           ; removed redundant BANKSEL
0053d6   2b1e     incf	0x1e, 0x1, 0x1      	INCF	(_i + 1), F, B
                                           _11095_DS_:
0053d8   e302     bnc	0x53de               	BNC	_21096_DS_
0053da   0103     movlb	0x3                	BANKSEL	(_i + 2)
0053dc   2b1f     incf	0x1f, 0x1, 0x1      	INCF	(_i + 2), F, B
                                           _21096_DS_:
0053de   e302     bnc	0x53e4               	BNC	_31097_DS_
0053e0   0103     movlb	0x3                	BANKSEL	(_i + 3)
0053e2   2b20     incf	0x20, 0x1, 0x1      	INCF	(_i + 3), F, B
                                           _31097_DS_:
0053e4   5003     movf	0x3, 0, 0           	MOVF	r0x03, W
0053e6   6ee5     movwf	0xe5, 0            	MOVWF	POSTDEC1
0053e8   5002     movf	0x2, 0, 0           	MOVF	r0x02, W
0053ea   6ee5     movwf	0xe5, 0            	MOVWF	POSTDEC1
0053ec   5001     movf	0x1, 0, 0           	MOVF	r0x01, W
0053ee   6ee5     movwf	0xe5, 0            	MOVWF	POSTDEC1
0053f0   5000     movf	0, 0, 0             	MOVF	r0x00, W
0053f2   6ee5     movwf	0xe5, 0            	MOVWF	POSTDEC1
0053f4   0e00     movlw	0                  	MOVLW	UPPER(__str_7)
0053f6   6ee5     movwf	0xe5, 0            	MOVWF	POSTDEC1
0053f8   0e36     movlw	0x36               	MOVLW	HIGH(__str_7)
0053fa   6ee5     movwf	0xe5, 0            	MOVWF	POSTDEC1
0053fc   0eaa     movlw	0xaa               	MOVLW	LOW(__str_7)
0053fe   6ee5     movwf	0xe5, 0            	MOVWF	POSTDEC1
005400   ec63     call	0x52c6, 0           	CALL	_CDCprintf
005402   f029
005404   0e07     movlw	0x7                	MOVLW	0x07
005406   26e1     addwf	0xe1, 0x1, 0       	ADDWF	FSR1L, F
005408   cfe4     movff	0xfe4, 0x3         	MOVFF	PREINC1, r0x03
00540a   f003
00540c   cfe4     movff	0xfe4, 0x2         	MOVFF	PREINC1, r0x02
00540e   f002
005410   cfe4     movff	0xfe4, 0x1         	MOVFF	PREINC1, r0x01
005412   f001
005414   cfe4     movff	0xfe4, 0           	MOVFF	PREINC1, r0x00
005416   f000
005418   0012     return	0                 	RETURN	
                                           
                                           ; ; Starting pCode block
                                           S_main__setup	code
                                           _setup:
                                           _01058_DS_:
                                           ;	.line	10; /home/regis/Hobbies/Electronique/Projets/Pinguino/local/trunk/source/user.c	while (CDCgetkey() != '\r');
005690   ecfd     call	0x55fa, 0           	CALL	_CDCgetkey
005692   f02a
                                           ; #	MOVWF	r0x00
                                           ; #	MOVF	r0x00, W
005694   0a0d     xorlw	0xd                	XORLW	0x0d
005696   e1fc     bnz	0x5690               	BNZ	_01058_DS_
005698   0012     return	0                 	RETURN	
                                           
                                           ; ; Starting pCode block
                                           S_main__epapout_init	code
                                           _epapout_init:
                                           ;	.line	46; /home/regis/Hobbies/Electronique/Projets/Pinguino/local/trunk/source/main.c	void epapout_init() { return; }
0056a8   0012     return	0                 	RETURN	
                                           
                                           ; ; Starting pCode block
                                           S_main__epapin_init	code
                                           _epapin_init:
                                           ;	.line	45; /home/regis/Hobbies/Electronique/Projets/Pinguino/local/trunk/source/main.c	void epapin_init() { return; }
0056aa   0012     return	0                 	RETURN	
                                           
                                           ; ; Starting pCode block
                                           S_main__epap_out	code
                                           _epap_out:
                                           ;	.line	44; /home/regis/Hobbies/Electronique/Projets/Pinguino/local/trunk/source/main.c	void epap_out() { return; }
0056ac   0012     return	0                 	RETURN	
                                           
                                           ; ; Starting pCode block
                                           S_main__epap_in	code
                                           _epap_in:
                                           ;	.line	43; /home/regis/Hobbies/Electronique/Projets/Pinguino/local/trunk/source/main.c	void epap_in() { return; }
0056ae   0012     return	0                 	RETURN	
                                           
                                           ; ; Starting pCode block
                                           S_main__CDCgetstring	code
                                           _CDCgetstring:
                                           ;	.line	156; /home/regis/Hobbies/Electronique/Projets/Pinguino/local/trunk/p8/include/pinguino/libraries/__cdc.c	char * CDCgetstring(void)
00506a   c000     movff	0, 0xfe5           	MOVFF	r0x00, POSTDEC1
00506c   ffe5
00506e   c001     movff	0x1, 0xfe5         	MOVFF	r0x01, POSTDEC1
005070   ffe5
005072   c002     movff	0x2, 0xfe5         	MOVFF	r0x02, POSTDEC1
005074   ffe5
005076   c003     movff	0x3, 0xfe5         	MOVFF	r0x03, POSTDEC1
005078   ffe5
                                           ;	.line	162; /home/regis/Hobbies/Electronique/Projets/Pinguino/local/trunk/p8/include/pinguino/libraries/__cdc.c	do {
00507a   6a00     clrf	0, 0                	CLRF	r0x00
                                           _01024_DS_:
                                           ;	.line	163; /home/regis/Hobbies/Electronique/Projets/Pinguino/local/trunk/p8/include/pinguino/libraries/__cdc.c	c = CDCgetkey();
00507c   ecfd     call	0x55fa, 0           	CALL	_CDCgetkey
00507e   f02a
005080   6e01     movwf	0x1, 0             	MOVWF	r0x01
                                           ;	.line	164; /home/regis/Hobbies/Electronique/Projets/Pinguino/local/trunk/p8/include/pinguino/libraries/__cdc.c	CDCprintf("%c", c);
005082   c001     movff	0x1, 0x2           	MOVFF	r0x01, r0x02
005084   f002
005086   6a03     clrf	0x3, 0              	CLRF	r0x03
005088   be01     btfsc	0x1, 0x7, 0        	BTFSC	r0x01, 7
00508a   6803     setf	0x3, 0              	SETF	r0x03
00508c   5003     movf	0x3, 0, 0           	MOVF	r0x03, W
00508e   6ee5     movwf	0xe5, 0            	MOVWF	POSTDEC1
005090   5002     movf	0x2, 0, 0           	MOVF	r0x02, W
005092   6ee5     movwf	0xe5, 0            	MOVWF	POSTDEC1
005094   0e00     movlw	0                  	MOVLW	UPPER(__str_6)
005096   6ee5     movwf	0xe5, 0            	MOVWF	POSTDEC1
005098   0e36     movlw	0x36               	MOVLW	HIGH(__str_6)
00509a   6ee5     movwf	0xe5, 0            	MOVWF	POSTDEC1
00509c   0ea6     movlw	0xa6               	MOVLW	LOW(__str_6)
00509e   6ee5     movwf	0xe5, 0            	MOVWF	POSTDEC1
0050a0   ec63     call	0x52c6, 0           	CALL	_CDCprintf
0050a2   f029
0050a4   0e05     movlw	0x5                	MOVLW	0x05
0050a6   26e1     addwf	0xe1, 0x1, 0       	ADDWF	FSR1L, F
                                           ;	.line	165; /home/regis/Hobbies/Electronique/Projets/Pinguino/local/trunk/p8/include/pinguino/libraries/__cdc.c	buffer[i++] = c;
0050a8   c000     movff	0, 0x2             	MOVFF	r0x00, r0x02
0050aa   f002
0050ac   2a00     incf	0, 0x1, 0           	INCF	r0x00, F
0050ae   6a03     clrf	0x3, 0              	CLRF	r0x03
0050b0   be02     btfsc	0x2, 0x7, 0        	BTFSC	r0x02, 7
0050b2   6803     setf	0x3, 0              	SETF	r0x03
0050b4   0e50     movlw	0x50               	MOVLW	LOW(_CDCgetstring_buffer_1_1)
0050b6   2602     addwf	0x2, 0x1, 0        	ADDWF	r0x02, F
0050b8   0e02     movlw	0x2                	MOVLW	HIGH(_CDCgetstring_buffer_1_1)
0050ba   2203     addwfc	0x3, 0x1, 0       	ADDWFC	r0x03, F
0050bc   c002     movff	0x2, 0xfe9         	MOVFF	r0x02, FSR0L
0050be   ffe9
0050c0   c003     movff	0x3, 0xfea         	MOVFF	r0x03, FSR0H
0050c2   ffea
0050c4   c001     movff	0x1, 0xfef         	MOVFF	r0x01, INDF0
0050c6   ffef
                                           ;	.line	166; /home/regis/Hobbies/Electronique/Projets/Pinguino/local/trunk/p8/include/pinguino/libraries/__cdc.c	} while (c != '\r');
0050c8   5001     movf	0x1, 0, 0           	MOVF	r0x01, W
0050ca   0a0d     xorlw	0xd                	XORLW	0x0d
0050cc   e1d7     bnz	0x507c               	BNZ	_01024_DS_
                                           ;	.line	167; /home/regis/Hobbies/Electronique/Projets/Pinguino/local/trunk/p8/include/pinguino/libraries/__cdc.c	buffer[i] = '\0';
0050ce   6a01     clrf	0x1, 0              	CLRF	r0x01
0050d0   be00     btfsc	0, 0x7, 0          	BTFSC	r0x00, 7
0050d2   6801     setf	0x1, 0              	SETF	r0x01
0050d4   0e50     movlw	0x50               	MOVLW	LOW(_CDCgetstring_buffer_1_1)
0050d6   2600     addwf	0, 0x1, 0          	ADDWF	r0x00, F
0050d8   0e02     movlw	0x2                	MOVLW	HIGH(_CDCgetstring_buffer_1_1)
0050da   2201     addwfc	0x1, 0x1, 0       	ADDWFC	r0x01, F
0050dc   c000     movff	0, 0xfe9           	MOVFF	r0x00, FSR0L
0050de   ffe9
0050e0   c001     movff	0x1, 0xfea         	MOVFF	r0x01, FSR0H
0050e2   ffea
0050e4   6aef     clrf	0xef, 0             	CLRF	INDF0
                                           ;	.line	168; /home/regis/Hobbies/Electronique/Projets/Pinguino/local/trunk/p8/include/pinguino/libraries/__cdc.c	return buffer;
0050e6   6e01     movwf	0x1, 0             	MOVWF	r0x01
0050e8   0e80     movlw	0x80               	MOVLW	0x80
0050ea   6e02     movwf	0x2, 0             	MOVWF	r0x02
0050ec   c002     movff	0x2, 0xff4         	MOVFF	r0x02, PRODH
0050ee   fff4
0050f0   c001     movff	0x1, 0xff3         	MOVFF	r0x01, PRODL
0050f2   fff3
0050f4   0e50     movlw	0x50               	MOVLW	LOW(_CDCgetstring_buffer_1_1)
0050f6   cfe4     movff	0xfe4, 0x3         	MOVFF	PREINC1, r0x03
0050f8   f003
0050fa   cfe4     movff	0xfe4, 0x2         	MOVFF	PREINC1, r0x02
0050fc   f002
0050fe   cfe4     movff	0xfe4, 0x1         	MOVFF	PREINC1, r0x01
005100   f001
005102   cfe4     movff	0xfe4, 0           	MOVFF	PREINC1, r0x00
005104   f000
005106   0012     return	0                 	RETURN	
                                           
                                           ; ; Starting pCode block
                                           S_main__CDCgetkey	code
                                           _CDCgetkey:
                                           ;	.line	146; /home/regis/Hobbies/Electronique/Projets/Pinguino/local/trunk/p8/include/pinguino/libraries/__cdc.c	char CDCgetkey()
0055fa   c000     movff	0, 0xfe5           	MOVFF	r0x00, POSTDEC1
0055fc   ffe5
                                           _01016_DS_:
                                           ;	.line	150; /home/regis/Hobbies/Electronique/Projets/Pinguino/local/trunk/p8/include/pinguino/libraries/__cdc.c	while (!CDCgets(buffer));
0055fe   0e80     movlw	0x80               	MOVLW	0x80
                                           ; #	MOVWF	r0x02
                                           ; #	MOVF	r0x02, W
005600   6ee5     movwf	0xe5, 0            	MOVWF	POSTDEC1
005602   0e02     movlw	0x2                	MOVLW	HIGH(_CDCgetkey_buffer_1_1)
005604   6ee5     movwf	0xe5, 0            	MOVWF	POSTDEC1
005606   0ea0     movlw	0xa0               	MOVLW	LOW(_CDCgetkey_buffer_1_1)
005608   6ee5     movwf	0xe5, 0            	MOVWF	POSTDEC1
00560a   ec37     call	0x446e, 0           	CALL	_CDCgets
00560c   f022
00560e   6e00     movwf	0, 0               	MOVWF	r0x00
005610   0e03     movlw	0x3                	MOVLW	0x03
005612   26e1     addwf	0xe1, 0x1, 0       	ADDWF	FSR1L, F
005614   5000     movf	0, 0, 0             	MOVF	r0x00, W
005616   e0f3     bz	0x55fe                	BZ	_01016_DS_
005618   0102     movlb	0x2                	BANKSEL	_CDCgetkey_buffer_1_1
                                           ;	.line	151; /home/regis/Hobbies/Electronique/Projets/Pinguino/local/trunk/p8/include/pinguino/libraries/__cdc.c	return (buffer[0]);	// return only the first character
00561a   51a0     movf	0xa0, 0, 0x1        	MOVF	_CDCgetkey_buffer_1_1, W, B
00561c   cfe4     movff	0xfe4, 0           	MOVFF	PREINC1, r0x00
00561e   f000
005620   0012     return	0                 	RETURN	
                                           
                                           ; ; Starting pCode block
                                           S_main__CDCprint	code
                                           _CDCprint:
                                           ;	.line	104; /home/regis/Hobbies/Electronique/Projets/Pinguino/local/trunk/p8/include/pinguino/libraries/__cdc.c	void CDCprint(const char *fmt, ...)
003a88   cfd9     movff	0xfd9, 0xfe5       	MOVFF	FSR2L, POSTDEC1
003a8a   ffe5
003a8c   cfe1     movff	0xfe1, 0xfd9       	MOVFF	FSR1L, FSR2L
003a8e   ffd9
003a90   c000     movff	0, 0xfe5           	MOVFF	r0x00, POSTDEC1
003a92   ffe5
003a94   c001     movff	0x1, 0xfe5         	MOVFF	r0x01, POSTDEC1
003a96   ffe5
003a98   c002     movff	0x2, 0xfe5         	MOVFF	r0x02, POSTDEC1
003a9a   ffe5
                                           ;	.line	108; /home/regis/Hobbies/Electronique/Projets/Pinguino/local/trunk/p8/include/pinguino/libraries/__cdc.c	va_start(args, fmt);			// initialize the list
003a9c   0e02     movlw	0x2                	MOVLW	0x02
003a9e   24d9     addwf	0xd9, 0, 0         	ADDWF	FSR2L, W
003aa0   6e00     movwf	0, 0               	MOVWF	r0x00
003aa2   0e00     movlw	0                  	MOVLW	0x00
003aa4   20da     addwfc	0xda, 0, 0        	ADDWFC	FSR2H, W
003aa6   6e01     movwf	0x1, 0             	MOVWF	r0x01
003aa8   0e03     movlw	0x3                	MOVLW	0x03
003aaa   2600     addwf	0, 0x1, 0          	ADDWF	r0x00, F
003aac   b0d8     btfsc	0xd8, 0, 0         	BTFSC	STATUS, 0
003aae   2a01     incf	0x1, 0x1, 0         	INCF	r0x01, F
                                           ; #	MOVF	r0x01, W
                                           ; #	MOVWF	r0x01
                                           ; #	MOVF	r0x01, W
                                           ; #	MOVF	r0x00, W
                                           ; #	MOVF	r0x00, W
                                           ; #	MOVWF	r0x00
003ab0   0e80     movlw	0x80               	MOVLW	0x80
003ab2   6e02     movwf	0x2, 0             	MOVWF	r0x02
                                           ;	.line	109; /home/regis/Hobbies/Electronique/Projets/Pinguino/local/trunk/p8/include/pinguino/libraries/__cdc.c	s = (unsigned char) va_arg(args, int);		// get the first variable arg.
003ab4   0e02     movlw	0x2                	MOVLW	0x02
003ab6   2600     addwf	0, 0x1, 0          	ADDWF	r0x00, F
003ab8   0e00     movlw	0                  	MOVLW	0x00
003aba   2201     addwfc	0x1, 0x1, 0       	ADDWFC	r0x01, F
003abc   2202     addwfc	0x2, 0x1, 0       	ADDWFC	r0x02, F
003abe   0efe     movlw	0xfe               	MOVLW	0xfe
003ac0   2600     addwf	0, 0x1, 0          	ADDWF	r0x00, F
003ac2   0eff     movlw	0xff               	MOVLW	0xff
003ac4   2201     addwfc	0x1, 0x1, 0       	ADDWFC	r0x01, F
003ac6   2202     addwfc	0x2, 0x1, 0       	ADDWFC	r0x02, F
003ac8   c000     movff	0, 0xfe9           	MOVFF	r0x00, FSR0L
003aca   ffe9
003acc   c001     movff	0x1, 0xff3         	MOVFF	r0x01, PRODL
003ace   fff3
003ad0   5002     movf	0x2, 0, 0           	MOVF	r0x02, W
003ad2   ec2b     call	0x56, 0             	CALL	__gptrget2
003ad4   f000
003ad6   6e00     movwf	0, 0               	MOVWF	r0x00
                                           ;	.line	112; /home/regis/Hobbies/Electronique/Projets/Pinguino/local/trunk/p8/include/pinguino/libraries/__cdc.c	switch (s)
003ad8   0a01     xorlw	0x1                	XORLW	0x01
003ada   e101     bnz	0x3ade               	BNZ	_01003_DS_
003adc   d05b     bra	0x3b94               	BRA	_00990_DS_
                                           _01003_DS_:
003ade   5000     movf	0, 0, 0             	MOVF	r0x00, W
003ae0   0a02     xorlw	0x2                	XORLW	0x02
003ae2   e101     bnz	0x3ae6               	BNZ	_01005_DS_
003ae4   d09f     bra	0x3c24               	BRA	_00992_DS_
                                           _01005_DS_:
003ae6   5000     movf	0, 0, 0             	MOVF	r0x00, W
003ae8   0a08     xorlw	0x8                	XORLW	0x08
003aea   e101     bnz	0x3aee               	BNZ	_01007_DS_
003aec   d075     bra	0x3bd8               	BRA	_00991_DS_
                                           _01007_DS_:
003aee   5000     movf	0, 0, 0             	MOVF	r0x00, W
003af0   0a0a     xorlw	0xa                	XORLW	0x0a
003af2   e004     bz	0x3afc                	BZ	_00988_DS_
003af4   5000     movf	0, 0, 0             	MOVF	r0x00, W
003af6   0a10     xorlw	0x10               	XORLW	0x10
003af8   e027     bz	0x3b48                	BZ	_00989_DS_
003afa   d0ba     bra	0x3c70               	BRA	_00993_DS_
                                           _00988_DS_:
                                           ;	.line	115; /home/regis/Hobbies/Electronique/Projets/Pinguino/local/trunk/p8/include/pinguino/libraries/__cdc.c	CDCprintf("%d", (int)fmt);
003afc   c003     movff	0x3, 0xfe5         	MOVFF	r0x03, POSTDEC1
003afe   ffe5
003b00   c004     movff	0x4, 0xfe5         	MOVFF	r0x04, POSTDEC1
003b02   ffe5
003b04   c005     movff	0x5, 0xfe5         	MOVFF	r0x05, POSTDEC1
003b06   ffe5
003b08   0e02     movlw	0x2                	MOVLW	0x02
003b0a   cfdb     movff	0xfdb, 0x3         	MOVFF	PLUSW2, r0x03
003b0c   f003
003b0e   0e03     movlw	0x3                	MOVLW	0x03
003b10   cfdb     movff	0xfdb, 0x4         	MOVFF	PLUSW2, r0x04
003b12   f004
003b14   0e04     movlw	0x4                	MOVLW	0x04
003b16   cfdb     movff	0xfdb, 0x5         	MOVFF	PLUSW2, r0x05
003b18   f005
003b1a   5003     movf	0x3, 0, 0           	MOVF	r0x03, W
003b1c   6e00     movwf	0, 0               	MOVWF	r0x00
003b1e   5004     movf	0x4, 0, 0           	MOVF	r0x04, W
003b20   cfe4     movff	0xfe4, 0x5         	MOVFF	PREINC1, r0x05
003b22   f005
003b24   cfe4     movff	0xfe4, 0x4         	MOVFF	PREINC1, r0x04
003b26   f004
003b28   cfe4     movff	0xfe4, 0x3         	MOVFF	PREINC1, r0x03
003b2a   f003
003b2c   6ee5     movwf	0xe5, 0            	MOVWF	POSTDEC1
003b2e   5000     movf	0, 0, 0             	MOVF	r0x00, W
003b30   6ee5     movwf	0xe5, 0            	MOVWF	POSTDEC1
003b32   0e00     movlw	0                  	MOVLW	UPPER(__str_2)
003b34   6ee5     movwf	0xe5, 0            	MOVWF	POSTDEC1
003b36   0e36     movlw	0x36               	MOVLW	HIGH(__str_2)
003b38   6ee5     movwf	0xe5, 0            	MOVWF	POSTDEC1
003b3a   0e96     movlw	0x96               	MOVLW	LOW(__str_2)
003b3c   6ee5     movwf	0xe5, 0            	MOVWF	POSTDEC1
003b3e   ec63     call	0x52c6, 0           	CALL	_CDCprintf
003b40   f029
003b42   0e05     movlw	0x5                	MOVLW	0x05
003b44   26e1     addwf	0xe1, 0x1, 0       	ADDWF	FSR1L, F
                                           ;	.line	116; /home/regis/Hobbies/Electronique/Projets/Pinguino/local/trunk/p8/include/pinguino/libraries/__cdc.c	break;
003b46   d0c8     bra	0x3cd8               	BRA	_00995_DS_
                                           _00989_DS_:
                                           ;	.line	118; /home/regis/Hobbies/Electronique/Projets/Pinguino/local/trunk/p8/include/pinguino/libraries/__cdc.c	CDCprintf("%x", (int)fmt);
003b48   c003     movff	0x3, 0xfe5         	MOVFF	r0x03, POSTDEC1
003b4a   ffe5
003b4c   c004     movff	0x4, 0xfe5         	MOVFF	r0x04, POSTDEC1
003b4e   ffe5
003b50   c005     movff	0x5, 0xfe5         	MOVFF	r0x05, POSTDEC1
003b52   ffe5
003b54   0e02     movlw	0x2                	MOVLW	0x02
003b56   cfdb     movff	0xfdb, 0x3         	MOVFF	PLUSW2, r0x03
003b58   f003
003b5a   0e03     movlw	0x3                	MOVLW	0x03
003b5c   cfdb     movff	0xfdb, 0x4         	MOVFF	PLUSW2, r0x04
003b5e   f004
003b60   0e04     movlw	0x4                	MOVLW	0x04
003b62   cfdb     movff	0xfdb, 0x5         	MOVFF	PLUSW2, r0x05
003b64   f005
003b66   5003     movf	0x3, 0, 0           	MOVF	r0x03, W
003b68   6e00     movwf	0, 0               	MOVWF	r0x00
003b6a   5004     movf	0x4, 0, 0           	MOVF	r0x04, W
003b6c   cfe4     movff	0xfe4, 0x5         	MOVFF	PREINC1, r0x05
003b6e   f005
003b70   cfe4     movff	0xfe4, 0x4         	MOVFF	PREINC1, r0x04
003b72   f004
003b74   cfe4     movff	0xfe4, 0x3         	MOVFF	PREINC1, r0x03
003b76   f003
003b78   6ee5     movwf	0xe5, 0            	MOVWF	POSTDEC1
003b7a   5000     movf	0, 0, 0             	MOVF	r0x00, W
003b7c   6ee5     movwf	0xe5, 0            	MOVWF	POSTDEC1
003b7e   0e00     movlw	0                  	MOVLW	UPPER(__str_3)
003b80   6ee5     movwf	0xe5, 0            	MOVWF	POSTDEC1
003b82   0e36     movlw	0x36               	MOVLW	HIGH(__str_3)
003b84   6ee5     movwf	0xe5, 0            	MOVWF	POSTDEC1
003b86   0e9a     movlw	0x9a               	MOVLW	LOW(__str_3)
003b88   6ee5     movwf	0xe5, 0            	MOVWF	POSTDEC1
003b8a   ec63     call	0x52c6, 0           	CALL	_CDCprintf
003b8c   f029
003b8e   0e05     movlw	0x5                	MOVLW	0x05
003b90   26e1     addwf	0xe1, 0x1, 0       	ADDWF	FSR1L, F
                                           ;	.line	119; /home/regis/Hobbies/Electronique/Projets/Pinguino/local/trunk/p8/include/pinguino/libraries/__cdc.c	break;
003b92   d0a2     bra	0x3cd8               	BRA	_00995_DS_
                                           _00990_DS_:
                                           ;	.line	121; /home/regis/Hobbies/Electronique/Projets/Pinguino/local/trunk/p8/include/pinguino/libraries/__cdc.c	CDCprintf("%d", (unsigned char)fmt);
003b94   c003     movff	0x3, 0xfe5         	MOVFF	r0x03, POSTDEC1
003b96   ffe5
003b98   c004     movff	0x4, 0xfe5         	MOVFF	r0x04, POSTDEC1
003b9a   ffe5
003b9c   c005     movff	0x5, 0xfe5         	MOVFF	r0x05, POSTDEC1
003b9e   ffe5
003ba0   0e02     movlw	0x2                	MOVLW	0x02
003ba2   cfdb     movff	0xfdb, 0x3         	MOVFF	PLUSW2, r0x03
003ba4   f003
003ba6   0e03     movlw	0x3                	MOVLW	0x03
003ba8   cfdb     movff	0xfdb, 0x4         	MOVFF	PLUSW2, r0x04
003baa   f004
003bac   0e04     movlw	0x4                	MOVLW	0x04
003bae   cfdb     movff	0xfdb, 0x5         	MOVFF	PLUSW2, r0x05
003bb0   f005
003bb2   5003     movf	0x3, 0, 0           	MOVF	r0x03, W
003bb4   cfe4     movff	0xfe4, 0x5         	MOVFF	PREINC1, r0x05
003bb6   f005
003bb8   cfe4     movff	0xfe4, 0x4         	MOVFF	PREINC1, r0x04
003bba   f004
003bbc   cfe4     movff	0xfe4, 0x3         	MOVFF	PREINC1, r0x03
003bbe   f003
003bc0   6ee5     movwf	0xe5, 0            	MOVWF	POSTDEC1
003bc2   0e00     movlw	0                  	MOVLW	UPPER(__str_2)
003bc4   6ee5     movwf	0xe5, 0            	MOVWF	POSTDEC1
003bc6   0e36     movlw	0x36               	MOVLW	HIGH(__str_2)
003bc8   6ee5     movwf	0xe5, 0            	MOVWF	POSTDEC1
003bca   0e96     movlw	0x96               	MOVLW	LOW(__str_2)
003bcc   6ee5     movwf	0xe5, 0            	MOVWF	POSTDEC1
003bce   ec63     call	0x52c6, 0           	CALL	_CDCprintf
003bd0   f029
003bd2   0e04     movlw	0x4                	MOVLW	0x04
003bd4   26e1     addwf	0xe1, 0x1, 0       	ADDWF	FSR1L, F
                                           ;	.line	122; /home/regis/Hobbies/Electronique/Projets/Pinguino/local/trunk/p8/include/pinguino/libraries/__cdc.c	break;
003bd6   d080     bra	0x3cd8               	BRA	_00995_DS_
                                           _00991_DS_:
                                           ;	.line	124; /home/regis/Hobbies/Electronique/Projets/Pinguino/local/trunk/p8/include/pinguino/libraries/__cdc.c	CDCprintf("%o", (int)fmt);
003bd8   c003     movff	0x3, 0xfe5         	MOVFF	r0x03, POSTDEC1
003bda   ffe5
003bdc   c004     movff	0x4, 0xfe5         	MOVFF	r0x04, POSTDEC1
003bde   ffe5
003be0   c005     movff	0x5, 0xfe5         	MOVFF	r0x05, POSTDEC1
003be2   ffe5
003be4   0e02     movlw	0x2                	MOVLW	0x02
003be6   cfdb     movff	0xfdb, 0x3         	MOVFF	PLUSW2, r0x03
003be8   f003
003bea   0e03     movlw	0x3                	MOVLW	0x03
003bec   cfdb     movff	0xfdb, 0x4         	MOVFF	PLUSW2, r0x04
003bee   f004
003bf0   0e04     movlw	0x4                	MOVLW	0x04
003bf2   cfdb     movff	0xfdb, 0x5         	MOVFF	PLUSW2, r0x05
003bf4   f005
003bf6   5003     movf	0x3, 0, 0           	MOVF	r0x03, W
003bf8   6e00     movwf	0, 0               	MOVWF	r0x00
003bfa   5004     movf	0x4, 0, 0           	MOVF	r0x04, W
003bfc   cfe4     movff	0xfe4, 0x5         	MOVFF	PREINC1, r0x05
003bfe   f005
003c00   cfe4     movff	0xfe4, 0x4         	MOVFF	PREINC1, r0x04
003c02   f004
003c04   cfe4     movff	0xfe4, 0x3         	MOVFF	PREINC1, r0x03
003c06   f003
003c08   6ee5     movwf	0xe5, 0            	MOVWF	POSTDEC1
003c0a   5000     movf	0, 0, 0             	MOVF	r0x00, W
003c0c   6ee5     movwf	0xe5, 0            	MOVWF	POSTDEC1
003c0e   0e00     movlw	0                  	MOVLW	UPPER(__str_4)
003c10   6ee5     movwf	0xe5, 0            	MOVWF	POSTDEC1
003c12   0e36     movlw	0x36               	MOVLW	HIGH(__str_4)
003c14   6ee5     movwf	0xe5, 0            	MOVWF	POSTDEC1
003c16   0e9e     movlw	0x9e               	MOVLW	LOW(__str_4)
003c18   6ee5     movwf	0xe5, 0            	MOVWF	POSTDEC1
003c1a   ec63     call	0x52c6, 0           	CALL	_CDCprintf
003c1c   f029
003c1e   0e05     movlw	0x5                	MOVLW	0x05
003c20   26e1     addwf	0xe1, 0x1, 0       	ADDWF	FSR1L, F
                                           ;	.line	125; /home/regis/Hobbies/Electronique/Projets/Pinguino/local/trunk/p8/include/pinguino/libraries/__cdc.c	break;
003c22   d05a     bra	0x3cd8               	BRA	_00995_DS_
                                           _00992_DS_:
                                           ;	.line	127; /home/regis/Hobbies/Electronique/Projets/Pinguino/local/trunk/p8/include/pinguino/libraries/__cdc.c	CDCprintf("%b", (int)fmt);
003c24   c003     movff	0x3, 0xfe5         	MOVFF	r0x03, POSTDEC1
003c26   ffe5
003c28   c004     movff	0x4, 0xfe5         	MOVFF	r0x04, POSTDEC1
003c2a   ffe5
003c2c   c005     movff	0x5, 0xfe5         	MOVFF	r0x05, POSTDEC1
003c2e   ffe5
003c30   0e02     movlw	0x2                	MOVLW	0x02
003c32   cfdb     movff	0xfdb, 0x3         	MOVFF	PLUSW2, r0x03
003c34   f003
003c36   0e03     movlw	0x3                	MOVLW	0x03
003c38   cfdb     movff	0xfdb, 0x4         	MOVFF	PLUSW2, r0x04
003c3a   f004
003c3c   0e04     movlw	0x4                	MOVLW	0x04
003c3e   cfdb     movff	0xfdb, 0x5         	MOVFF	PLUSW2, r0x05
003c40   f005
003c42   5003     movf	0x3, 0, 0           	MOVF	r0x03, W
003c44   6e00     movwf	0, 0               	MOVWF	r0x00
003c46   5004     movf	0x4, 0, 0           	MOVF	r0x04, W
003c48   cfe4     movff	0xfe4, 0x5         	MOVFF	PREINC1, r0x05
003c4a   f005
003c4c   cfe4     movff	0xfe4, 0x4         	MOVFF	PREINC1, r0x04
003c4e   f004
003c50   cfe4     movff	0xfe4, 0x3         	MOVFF	PREINC1, r0x03
003c52   f003
003c54   6ee5     movwf	0xe5, 0            	MOVWF	POSTDEC1
003c56   5000     movf	0, 0, 0             	MOVF	r0x00, W
003c58   6ee5     movwf	0xe5, 0            	MOVWF	POSTDEC1
003c5a   0e00     movlw	0                  	MOVLW	UPPER(__str_5)
003c5c   6ee5     movwf	0xe5, 0            	MOVWF	POSTDEC1
003c5e   0e36     movlw	0x36               	MOVLW	HIGH(__str_5)
003c60   6ee5     movwf	0xe5, 0            	MOVWF	POSTDEC1
003c62   0ea2     movlw	0xa2               	MOVLW	LOW(__str_5)
003c64   6ee5     movwf	0xe5, 0            	MOVWF	POSTDEC1
003c66   ec63     call	0x52c6, 0           	CALL	_CDCprintf
003c68   f029
003c6a   0e05     movlw	0x5                	MOVLW	0x05
003c6c   26e1     addwf	0xe1, 0x1, 0       	ADDWF	FSR1L, F
                                           ;	.line	128; /home/regis/Hobbies/Electronique/Projets/Pinguino/local/trunk/p8/include/pinguino/libraries/__cdc.c	break;           
003c6e   d034     bra	0x3cd8               	BRA	_00995_DS_
                                           _00993_DS_:
                                           ;	.line	130; /home/regis/Hobbies/Electronique/Projets/Pinguino/local/trunk/p8/include/pinguino/libraries/__cdc.c	CDCprintf(fmt);
003c70   c003     movff	0x3, 0xfe5         	MOVFF	r0x03, POSTDEC1
003c72   ffe5
003c74   c004     movff	0x4, 0xfe5         	MOVFF	r0x04, POSTDEC1
003c76   ffe5
003c78   c005     movff	0x5, 0xfe5         	MOVFF	r0x05, POSTDEC1
003c7a   ffe5
003c7c   0e02     movlw	0x2                	MOVLW	0x02
003c7e   cfdb     movff	0xfdb, 0x3         	MOVFF	PLUSW2, r0x03
003c80   f003
003c82   0e03     movlw	0x3                	MOVLW	0x03
003c84   cfdb     movff	0xfdb, 0x4         	MOVFF	PLUSW2, r0x04
003c86   f004
003c88   0e04     movlw	0x4                	MOVLW	0x04
003c8a   cfdb     movff	0xfdb, 0x5         	MOVFF	PLUSW2, r0x05
003c8c   f005
003c8e   cfe4     movff	0xfe4, 0x5         	MOVFF	PREINC1, r0x05
003c90   f005
003c92   cfe4     movff	0xfe4, 0x4         	MOVFF	PREINC1, r0x04
003c94   f004
003c96   cfe4     movff	0xfe4, 0x3         	MOVFF	PREINC1, r0x03
003c98   f003
003c9a   c003     movff	0x3, 0xfe5         	MOVFF	r0x03, POSTDEC1
003c9c   ffe5
003c9e   c004     movff	0x4, 0xfe5         	MOVFF	r0x04, POSTDEC1
003ca0   ffe5
003ca2   c005     movff	0x5, 0xfe5         	MOVFF	r0x05, POSTDEC1
003ca4   ffe5
003ca6   0e02     movlw	0x2                	MOVLW	0x02
003ca8   cfdb     movff	0xfdb, 0x3         	MOVFF	PLUSW2, r0x03
003caa   f003
003cac   0e03     movlw	0x3                	MOVLW	0x03
003cae   cfdb     movff	0xfdb, 0x4         	MOVFF	PLUSW2, r0x04
003cb0   f004
003cb2   0e04     movlw	0x4                	MOVLW	0x04
003cb4   cfdb     movff	0xfdb, 0x5         	MOVFF	PLUSW2, r0x05
003cb6   f005
003cb8   5005     movf	0x5, 0, 0           	MOVF	r0x05, W
003cba   6ee5     movwf	0xe5, 0            	MOVWF	POSTDEC1
003cbc   5004     movf	0x4, 0, 0           	MOVF	r0x04, W
003cbe   6ee5     movwf	0xe5, 0            	MOVWF	POSTDEC1
003cc0   5003     movf	0x3, 0, 0           	MOVF	r0x03, W
003cc2   6ee5     movwf	0xe5, 0            	MOVWF	POSTDEC1
003cc4   cfe4     movff	0xfe4, 0x5         	MOVFF	PREINC1, r0x05
003cc6   f005
003cc8   cfe4     movff	0xfe4, 0x4         	MOVFF	PREINC1, r0x04
003cca   f004
003ccc   cfe4     movff	0xfe4, 0x3         	MOVFF	PREINC1, r0x03
003cce   f003
003cd0   ec63     call	0x52c6, 0           	CALL	_CDCprintf
003cd2   f029
003cd4   0e03     movlw	0x3                	MOVLW	0x03
003cd6   26e1     addwf	0xe1, 0x1, 0       	ADDWF	FSR1L, F
                                           _00995_DS_:
                                           ;	.line	133; /home/regis/Hobbies/Electronique/Projets/Pinguino/local/trunk/p8/include/pinguino/libraries/__cdc.c	va_end(args);
003cd8   cfe4     movff	0xfe4, 0x2         	MOVFF	PREINC1, r0x02
003cda   f002
003cdc   cfe4     movff	0xfe4, 0x1         	MOVFF	PREINC1, r0x01
003cde   f001
003ce0   cfe4     movff	0xfe4, 0           	MOVFF	PREINC1, r0x00
003ce2   f000
003ce4   cfe4     movff	0xfe4, 0xfd9       	MOVFF	PREINC1, FSR2L
003ce6   ffd9
003ce8   0012     return	0                 	RETURN	
                                           
                                           ; ; Starting pCode block
                                           S_main__CDCprintln	code
                                           _CDCprintln:
                                           ;	.line	63; /home/regis/Hobbies/Electronique/Projets/Pinguino/local/trunk/p8/include/pinguino/libraries/__cdc.c	void CDCprintln(char *fmt,...)
00523c   cfd9     movff	0xfd9, 0xfe5       	MOVFF	FSR2L, POSTDEC1
00523e   ffe5
005240   cfe1     movff	0xfe1, 0xfd9       	MOVFF	FSR1L, FSR2L
005242   ffd9
                                           ;	.line	65; /home/regis/Hobbies/Electronique/Projets/Pinguino/local/trunk/p8/include/pinguino/libraries/__cdc.c	CDCprintf(fmt);
005244   c000     movff	0, 0xfe5           	MOVFF	r0x00, POSTDEC1
005246   ffe5
005248   c001     movff	0x1, 0xfe5         	MOVFF	r0x01, POSTDEC1
00524a   ffe5
00524c   c002     movff	0x2, 0xfe5         	MOVFF	r0x02, POSTDEC1
00524e   ffe5
005250   0e02     movlw	0x2                	MOVLW	0x02
005252   cfdb     movff	0xfdb, 0           	MOVFF	PLUSW2, r0x00
005254   f000
005256   0e03     movlw	0x3                	MOVLW	0x03
005258   cfdb     movff	0xfdb, 0x1         	MOVFF	PLUSW2, r0x01
00525a   f001
00525c   0e04     movlw	0x4                	MOVLW	0x04
00525e   cfdb     movff	0xfdb, 0x2         	MOVFF	PLUSW2, r0x02
005260   f002
005262   cfe4     movff	0xfe4, 0x2         	MOVFF	PREINC1, r0x02
005264   f002
005266   cfe4     movff	0xfe4, 0x1         	MOVFF	PREINC1, r0x01
005268   f001
00526a   cfe4     movff	0xfe4, 0           	MOVFF	PREINC1, r0x00
00526c   f000
00526e   c003     movff	0x3, 0xfe5         	MOVFF	r0x03, POSTDEC1
005270   ffe5
005272   c004     movff	0x4, 0xfe5         	MOVFF	r0x04, POSTDEC1
005274   ffe5
005276   c005     movff	0x5, 0xfe5         	MOVFF	r0x05, POSTDEC1
005278   ffe5
00527a   0e02     movlw	0x2                	MOVLW	0x02
00527c   cfdb     movff	0xfdb, 0x3         	MOVFF	PLUSW2, r0x03
00527e   f003
005280   0e03     movlw	0x3                	MOVLW	0x03
005282   cfdb     movff	0xfdb, 0x4         	MOVFF	PLUSW2, r0x04
005284   f004
005286   0e04     movlw	0x4                	MOVLW	0x04
005288   cfdb     movff	0xfdb, 0x5         	MOVFF	PLUSW2, r0x05
00528a   f005
00528c   5005     movf	0x5, 0, 0           	MOVF	r0x05, W
00528e   6ee5     movwf	0xe5, 0            	MOVWF	POSTDEC1
005290   5004     movf	0x4, 0, 0           	MOVF	r0x04, W
005292   6ee5     movwf	0xe5, 0            	MOVWF	POSTDEC1
005294   5003     movf	0x3, 0, 0           	MOVF	r0x03, W
005296   6ee5     movwf	0xe5, 0            	MOVWF	POSTDEC1
005298   cfe4     movff	0xfe4, 0x5         	MOVFF	PREINC1, r0x05
00529a   f005
00529c   cfe4     movff	0xfe4, 0x4         	MOVFF	PREINC1, r0x04
00529e   f004
0052a0   cfe4     movff	0xfe4, 0x3         	MOVFF	PREINC1, r0x03
0052a2   f003
0052a4   ec63     call	0x52c6, 0           	CALL	_CDCprintf
0052a6   f029
0052a8   0e03     movlw	0x3                	MOVLW	0x03
0052aa   26e1     addwf	0xe1, 0x1, 0       	ADDWF	FSR1L, F
                                           ;	.line	66; /home/regis/Hobbies/Electronique/Projets/Pinguino/local/trunk/p8/include/pinguino/libraries/__cdc.c	CDCprintf("\n\r");
0052ac   0e00     movlw	0                  	MOVLW	UPPER(__str_1)
0052ae   6ee5     movwf	0xe5, 0            	MOVWF	POSTDEC1
0052b0   0e36     movlw	0x36               	MOVLW	HIGH(__str_1)
0052b2   6ee5     movwf	0xe5, 0            	MOVWF	POSTDEC1
0052b4   0e92     movlw	0x92               	MOVLW	LOW(__str_1)
0052b6   6ee5     movwf	0xe5, 0            	MOVWF	POSTDEC1
0052b8   ec63     call	0x52c6, 0           	CALL	_CDCprintf
0052ba   f029
0052bc   0e03     movlw	0x3                	MOVLW	0x03
0052be   26e1     addwf	0xe1, 0x1, 0       	ADDWF	FSR1L, F
0052c0   cfe4     movff	0xfe4, 0xfd9       	MOVFF	PREINC1, FSR2L
0052c2   ffd9
0052c4   0012     return	0                 	RETURN	
                                           
                                           ; ; Starting pCode block
                                           S_main__CDCprintf	code
                                           _CDCprintf:
                                           ;	.line	50; /home/regis/Hobbies/Electronique/Projets/Pinguino/local/trunk/p8/include/pinguino/libraries/__cdc.c	void CDCprintf(char *fmt, ...)
0052c6   cfd9     movff	0xfd9, 0xfe5       	MOVFF	FSR2L, POSTDEC1
0052c8   ffe5
0052ca   cfe1     movff	0xfe1, 0xfd9       	MOVFF	FSR1L, FSR2L
0052cc   ffd9
0052ce   c000     movff	0, 0xfe5           	MOVFF	r0x00, POSTDEC1
0052d0   ffe5
0052d2   c001     movff	0x1, 0xfe5         	MOVFF	r0x01, POSTDEC1
0052d4   ffe5
                                           ;	.line	56; /home/regis/Hobbies/Electronique/Projets/Pinguino/local/trunk/p8/include/pinguino/libraries/__cdc.c	va_start(args, fmt);
0052d6   0e02     movlw	0x2                	MOVLW	0x02
0052d8   24d9     addwf	0xd9, 0, 0         	ADDWF	FSR2L, W
0052da   6e00     movwf	0, 0               	MOVWF	r0x00
0052dc   0e00     movlw	0                  	MOVLW	0x00
0052de   20da     addwfc	0xda, 0, 0        	ADDWFC	FSR2H, W
0052e0   6e01     movwf	0x1, 0             	MOVWF	r0x01
0052e2   0e03     movlw	0x3                	MOVLW	0x03
0052e4   2600     addwf	0, 0x1, 0          	ADDWF	r0x00, F
0052e6   b0d8     btfsc	0xd8, 0, 0         	BTFSC	STATUS, 0
0052e8   2a01     incf	0x1, 0x1, 0         	INCF	r0x01, F
                                           ; #	MOVF	r0x01, W
                                           ; #	MOVWF	r0x01
                                           ; #	MOVF	r0x01, W
                                           ; #	MOVF	r0x00, W
                                           ; #	MOVF	r0x00, W
                                           ; #	MOVWF	r0x00
                                           ;	.line	57; /home/regis/Hobbies/Electronique/Projets/Pinguino/local/trunk/p8/include/pinguino/libraries/__cdc.c	length = psprintf(buffer, fmt, args);
0052ea   0e80     movlw	0x80               	MOVLW	0x80
0052ec   6ee5     movwf	0xe5, 0            	MOVWF	POSTDEC1
0052ee   5001     movf	0x1, 0, 0           	MOVF	r0x01, W
0052f0   6ee5     movwf	0xe5, 0            	MOVWF	POSTDEC1
0052f2   5000     movf	0, 0, 0             	MOVF	r0x00, W
0052f4   6ee5     movwf	0xe5, 0            	MOVWF	POSTDEC1
0052f6   0e04     movlw	0x4                	MOVLW	0x04
0052f8   cfdb     movff	0xfdb, 0xfe5       	MOVFF	PLUSW2, POSTDEC1
0052fa   ffe5
0052fc   0e03     movlw	0x3                	MOVLW	0x03
0052fe   cfdb     movff	0xfdb, 0xfe5       	MOVFF	PLUSW2, POSTDEC1
005300   ffe5
005302   0e02     movlw	0x2                	MOVLW	0x02
005304   cfdb     movff	0xfdb, 0xfe5       	MOVFF	PLUSW2, POSTDEC1
005306   ffe5
005308   0e80     movlw	0x80               	MOVLW	0x80
00530a   6ee5     movwf	0xe5, 0            	MOVWF	POSTDEC1
00530c   0e02     movlw	0x2                	MOVLW	HIGH(_CDCprintf_buffer_1_1)
00530e   6ee5     movwf	0xe5, 0            	MOVWF	POSTDEC1
005310   0e00     movlw	0                  	MOVLW	LOW(_CDCprintf_buffer_1_1)
005312   6ee5     movwf	0xe5, 0            	MOVWF	POSTDEC1
005314   ec91     call	0x4d22, 0           	CALL	_psprintf
005316   f026
005318   6e00     movwf	0, 0               	MOVWF	r0x00
00531a   0e09     movlw	0x9                	MOVLW	0x09
00531c   26e1     addwf	0xe1, 0x1, 0       	ADDWF	FSR1L, F
                                           ;	.line	58; /home/regis/Hobbies/Electronique/Projets/Pinguino/local/trunk/p8/include/pinguino/libraries/__cdc.c	CDCputs(buffer,length);
00531e   5000     movf	0, 0, 0             	MOVF	r0x00, W
005320   6ee5     movwf	0xe5, 0            	MOVWF	POSTDEC1
005322   0e80     movlw	0x80               	MOVLW	0x80
005324   6ee5     movwf	0xe5, 0            	MOVWF	POSTDEC1
005326   0e02     movlw	0x2                	MOVLW	HIGH(_CDCprintf_buffer_1_1)
005328   6ee5     movwf	0xe5, 0            	MOVWF	POSTDEC1
00532a   0e00     movlw	0                  	MOVLW	LOW(_CDCprintf_buffer_1_1)
00532c   6ee5     movwf	0xe5, 0            	MOVWF	POSTDEC1
00532e   ecc6     call	0x458c, 0           	CALL	_CDCputs
005330   f022
005332   0e04     movlw	0x4                	MOVLW	0x04
005334   26e1     addwf	0xe1, 0x1, 0       	ADDWF	FSR1L, F
                                           ;	.line	59; /home/regis/Hobbies/Electronique/Projets/Pinguino/local/trunk/p8/include/pinguino/libraries/__cdc.c	va_end(args);
005336   cfe4     movff	0xfe4, 0x1         	MOVFF	PREINC1, r0x01
005338   f001
00533a   cfe4     movff	0xfe4, 0           	MOVFF	PREINC1, r0x00
00533c   f000
00533e   cfe4     movff	0xfe4, 0xfd9       	MOVFF	PREINC1, FSR2L
005340   ffd9
005342   0012     return	0                 	RETURN	
                                           
                                           ; ; Starting pCode block
                                           S_main__CDCwrite	code
                                           _CDCwrite:
                                           ;	.line	44; /home/regis/Hobbies/Electronique/Projets/Pinguino/local/trunk/p8/include/pinguino/libraries/__cdc.c	void CDCwrite(char c)
005572   cfd9     movff	0xfd9, 0xfe5       	MOVFF	FSR2L, POSTDEC1
005574   ffe5
005576   cfe1     movff	0xfe1, 0xfd9       	MOVFF	FSR1L, FSR2L
005578   ffd9
00557a   c000     movff	0, 0xfe5           	MOVFF	r0x00, POSTDEC1
00557c   ffe5
00557e   0e02     movlw	0x2                	MOVLW	0x02
005580   cfdb     movff	0xfdb, 0           	MOVFF	PLUSW2, r0x00
005582   f000
                                           ; #	MOVF	r0x00, W
                                           ; #	MOVWF	r0x00
                                           ;	.line	46; /home/regis/Hobbies/Electronique/Projets/Pinguino/local/trunk/p8/include/pinguino/libraries/__cdc.c	CDCputs(c, 1);
005584   0e01     movlw	0x1                	MOVLW	0x01
005586   6ee5     movwf	0xe5, 0            	MOVWF	POSTDEC1
005588   0e80     movlw	0x80               	MOVLW	0x80
00558a   6ee5     movwf	0xe5, 0            	MOVWF	POSTDEC1
00558c   6ae5     clrf	0xe5, 0             	CLRF	POSTDEC1
00558e   5000     movf	0, 0, 0             	MOVF	r0x00, W
005590   6ee5     movwf	0xe5, 0            	MOVWF	POSTDEC1
005592   ecc6     call	0x458c, 0           	CALL	_CDCputs
005594   f022
005596   0e04     movlw	0x4                	MOVLW	0x04
005598   26e1     addwf	0xe1, 0x1, 0       	ADDWF	FSR1L, F
00559a   cfe4     movff	0xfe4, 0           	MOVFF	PREINC1, r0x00
00559c   f000
00559e   cfe4     movff	0xfe4, 0xfd9       	MOVFF	PREINC1, FSR2L
0055a0   ffd9
0055a2   0012     return	0                 	RETURN	
                                           
                                           ; ; Starting pCode block
                                           S_main__CDC_init	code
                                           _CDC_init:
                                           ;	.line	19; /home/regis/Hobbies/Electronique/Projets/Pinguino/local/trunk/p8/include/pinguino/libraries/__cdc.c	INTCON=0;
00541a   6af2     clrf	0xf2, 0             	CLRF	_INTCON
                                           ;	.line	20; /home/regis/Hobbies/Electronique/Projets/Pinguino/local/trunk/p8/include/pinguino/libraries/__cdc.c	INTCON2=0xC0;
00541c   0ec0     movlw	0xc0               	MOVLW	0xc0
00541e   6ef1     movwf	0xf1, 0            	MOVWF	_INTCON2
                                           ;	.line	21; /home/regis/Hobbies/Electronique/Projets/Pinguino/local/trunk/p8/include/pinguino/libraries/__cdc.c	UCON=0;
005420   6a6d     clrf	0x6d, 0             	CLRF	_UCON
                                           ;	.line	22; /home/regis/Hobbies/Electronique/Projets/Pinguino/local/trunk/p8/include/pinguino/libraries/__cdc.c	UCFG=0;
005422   6a6f     clrf	0x6f, 0             	CLRF	_UCFG
                                           ;	.line	23; /home/regis/Hobbies/Electronique/Projets/Pinguino/local/trunk/p8/include/pinguino/libraries/__cdc.c	UEP0=0;UEP1=0;UEP2=0;UEP3=0;UEP4=0;UEP5=0;
005424   6a70     clrf	0x70, 0             	CLRF	_UEP0
005426   6a71     clrf	0x71, 0             	CLRF	_UEP1
005428   6a72     clrf	0x72, 0             	CLRF	_UEP2
00542a   6a73     clrf	0x73, 0             	CLRF	_UEP3
00542c   6a74     clrf	0x74, 0             	CLRF	_UEP4
00542e   6a75     clrf	0x75, 0             	CLRF	_UEP5
                                           ;	.line	24; /home/regis/Hobbies/Electronique/Projets/Pinguino/local/trunk/p8/include/pinguino/libraries/__cdc.c	UEP6=0;UEP7=0;UEP8=0;UEP9=0;UEP10=0;UEP11=0;
005430   6a76     clrf	0x76, 0             	CLRF	_UEP6
005432   6a77     clrf	0x77, 0             	CLRF	_UEP7
005434   6a78     clrf	0x78, 0             	CLRF	_UEP8
005436   6a79     clrf	0x79, 0             	CLRF	_UEP9
005438   6a7a     clrf	0x7a, 0             	CLRF	_UEP10
00543a   6a7b     clrf	0x7b, 0             	CLRF	_UEP11
                                           ;	.line	25; /home/regis/Hobbies/Electronique/Projets/Pinguino/local/trunk/p8/include/pinguino/libraries/__cdc.c	UEP12=0;UEP13=0;UEP14=0;UEP15=0;
00543c   6a7c     clrf	0x7c, 0             	CLRF	_UEP12
00543e   6a7d     clrf	0x7d, 0             	CLRF	_UEP13
005440   6a7e     clrf	0x7e, 0             	CLRF	_UEP14
005442   6a7f     clrf	0x7f, 0             	CLRF	_UEP15
                                           ;	.line	27; /home/regis/Hobbies/Electronique/Projets/Pinguino/local/trunk/p8/include/pinguino/libraries/__cdc.c	Delayms(2000);
005444   6ae5     clrf	0xe5, 0             	CLRF	POSTDEC1
005446   6ae5     clrf	0xe5, 0             	CLRF	POSTDEC1
005448   0e07     movlw	0x7                	MOVLW	0x07
00544a   6ee5     movwf	0xe5, 0            	MOVWF	POSTDEC1
00544c   0ed0     movlw	0xd0               	MOVLW	0xd0
00544e   6ee5     movwf	0xe5, 0            	MOVWF	POSTDEC1
005450   ec84     call	0x5108, 0           	CALL	_Delayms
005452   f028
005454   0e04     movlw	0x4                	MOVLW	0x04
005456   26e1     addwf	0xe1, 0x1, 0       	ADDWF	FSR1L, F
                                           ;	.line	29; /home/regis/Hobbies/Electronique/Projets/Pinguino/local/trunk/p8/include/pinguino/libraries/__cdc.c	UCFG = 0x14; 				// Enable pullup resistors; full speed mode
005458   0e14     movlw	0x14               	MOVLW	0x14
00545a   6e6f     movwf	0x6f, 0            	MOVWF	_UCFG
00545c   0103     movlb	0x3                	BANKSEL	_deviceState
                                           ;	.line	30; /home/regis/Hobbies/Electronique/Projets/Pinguino/local/trunk/p8/include/pinguino/libraries/__cdc.c	deviceState = DETACHED;
00545e   6b3b     clrf	0x3b, 0x1           	CLRF	_deviceState, B
005460   0103     movlb	0x3                	BANKSEL	_remoteWakeup
                                           ;	.line	31; /home/regis/Hobbies/Electronique/Projets/Pinguino/local/trunk/p8/include/pinguino/libraries/__cdc.c	remoteWakeup = 0x00;
005462   6b3a     clrf	0x3a, 0x1           	CLRF	_remoteWakeup, B
005464   0103     movlb	0x3                	BANKSEL	_currentConfiguration
                                           ;	.line	32; /home/regis/Hobbies/Electronique/Projets/Pinguino/local/trunk/p8/include/pinguino/libraries/__cdc.c	currentConfiguration = 0x00;
005466   6b3c     clrf	0x3c, 0x1           	CLRF	_currentConfiguration, B
                                           _00960_DS_:
005468   0103     movlb	0x3                	BANKSEL	_deviceState
                                           ;	.line	34; /home/regis/Hobbies/Electronique/Projets/Pinguino/local/trunk/p8/include/pinguino/libraries/__cdc.c	while(deviceState != CONFIGURED)
00546a   513b     movf	0x3b, 0, 0x1        	MOVF	_deviceState, W, B
00546c   0a05     xorlw	0x5                	XORLW	0x05
00546e   e005     bz	0x547a                	BZ	_00963_DS_
                                           ;	.line	36; /home/regis/Hobbies/Electronique/Projets/Pinguino/local/trunk/p8/include/pinguino/libraries/__cdc.c	EnableUSBModule();
005470   ecd2     call	0x55a4, 0           	CALL	_EnableUSBModule
005472   f02a
                                           ;	.line	37; /home/regis/Hobbies/Electronique/Projets/Pinguino/local/trunk/p8/include/pinguino/libraries/__cdc.c	ProcessUSBTransactions();
005474   eca2     call	0x5344, 0           	CALL	_ProcessUSBTransactions
005476   f029
005478   d7f7     bra	0x5468               	BRA	_00960_DS_
                                           _00963_DS_:
00547a   0012     return	0                 	RETURN	
                                           
                                           ; ; Starting pCode block
                                           S_main__psprintf	code
                                           _psprintf:
                                           ;	.line	443; /home/regis/Hobbies/Electronique/Projets/Pinguino/local/trunk/p8/include/pinguino/core/stdio.c	int psprintf(char *out, const char *format, va_list args)
004d22   cfd9     movff	0xfd9, 0xfe5       	MOVFF	FSR2L, POSTDEC1
004d24   ffe5
004d26   cfe1     movff	0xfe1, 0xfd9       	MOVFF	FSR1L, FSR2L
004d28   ffd9
004d2a   c000     movff	0, 0xfe5           	MOVFF	r0x00, POSTDEC1
004d2c   ffe5
004d2e   c001     movff	0x1, 0xfe5         	MOVFF	r0x01, POSTDEC1
004d30   ffe5
004d32   c002     movff	0x2, 0xfe5         	MOVFF	r0x02, POSTDEC1
004d34   ffe5
004d36   c003     movff	0x3, 0xfe5         	MOVFF	r0x03, POSTDEC1
004d38   ffe5
004d3a   c004     movff	0x4, 0xfe5         	MOVFF	r0x04, POSTDEC1
004d3c   ffe5
004d3e   c005     movff	0x5, 0xfe5         	MOVFF	r0x05, POSTDEC1
004d40   ffe5
004d42   0e02     movlw	0x2                	MOVLW	0x02
004d44   cfdb     movff	0xfdb, 0x32c       	MOVFF	PLUSW2, _psprintf_out_1_1
004d46   f32c
004d48   0e03     movlw	0x3                	MOVLW	0x03
004d4a   cfdb     movff	0xfdb, 0x32d       	MOVFF	PLUSW2, (_psprintf_out_1_1 + 1)
004d4c   f32d
004d4e   0e04     movlw	0x4                	MOVLW	0x04
004d50   cfdb     movff	0xfdb, 0x32e       	MOVFF	PLUSW2, (_psprintf_out_1_1 + 2)
004d52   f32e
004d54   0e05     movlw	0x5                	MOVLW	0x05
004d56   cfdb     movff	0xfdb, 0           	MOVFF	PLUSW2, r0x00
004d58   f000
004d5a   0e06     movlw	0x6                	MOVLW	0x06
004d5c   cfdb     movff	0xfdb, 0x1         	MOVFF	PLUSW2, r0x01
004d5e   f001
004d60   0e07     movlw	0x7                	MOVLW	0x07
004d62   cfdb     movff	0xfdb, 0x2         	MOVFF	PLUSW2, r0x02
004d64   f002
004d66   0e08     movlw	0x8                	MOVLW	0x08
004d68   cfdb     movff	0xfdb, 0x3         	MOVFF	PLUSW2, r0x03
004d6a   f003
004d6c   0e09     movlw	0x9                	MOVLW	0x09
004d6e   cfdb     movff	0xfdb, 0x4         	MOVFF	PLUSW2, r0x04
004d70   f004
004d72   0e0a     movlw	0xa                	MOVLW	0x0a
004d74   cfdb     movff	0xfdb, 0x5         	MOVFF	PLUSW2, r0x05
004d76   f005
                                           ;	.line	448; /home/regis/Hobbies/Electronique/Projets/Pinguino/local/trunk/p8/include/pinguino/core/stdio.c	return pprint(&out, format, args);
004d78   5005     movf	0x5, 0, 0           	MOVF	r0x05, W
004d7a   6ee5     movwf	0xe5, 0            	MOVWF	POSTDEC1
004d7c   5004     movf	0x4, 0, 0           	MOVF	r0x04, W
004d7e   6ee5     movwf	0xe5, 0            	MOVWF	POSTDEC1
004d80   5003     movf	0x3, 0, 0           	MOVF	r0x03, W
004d82   6ee5     movwf	0xe5, 0            	MOVWF	POSTDEC1
004d84   5002     movf	0x2, 0, 0           	MOVF	r0x02, W
004d86   6ee5     movwf	0xe5, 0            	MOVWF	POSTDEC1
004d88   5001     movf	0x1, 0, 0           	MOVF	r0x01, W
004d8a   6ee5     movwf	0xe5, 0            	MOVWF	POSTDEC1
004d8c   5000     movf	0, 0, 0             	MOVF	r0x00, W
004d8e   6ee5     movwf	0xe5, 0            	MOVWF	POSTDEC1
004d90   0e80     movlw	0x80               	MOVLW	0x80
004d92   6ee5     movwf	0xe5, 0            	MOVWF	POSTDEC1
004d94   0e03     movlw	0x3                	MOVLW	HIGH(_psprintf_out_1_1)
004d96   6ee5     movwf	0xe5, 0            	MOVWF	POSTDEC1
004d98   0e2c     movlw	0x2c               	MOVLW	LOW(_psprintf_out_1_1)
004d9a   6ee5     movwf	0xe5, 0            	MOVWF	POSTDEC1
004d9c   ec3d     call	0x207a, 0           	CALL	_pprint
004d9e   f010
004da0   6e00     movwf	0, 0               	MOVWF	r0x00
004da2   cff3     movff	0xff3, 0x1         	MOVFF	PRODL, r0x01
004da4   f001
004da6   0e09     movlw	0x9                	MOVLW	0x09
004da8   26e1     addwf	0xe1, 0x1, 0       	ADDWF	FSR1L, F
004daa   c001     movff	0x1, 0xff3         	MOVFF	r0x01, PRODL
004dac   fff3
004dae   5000     movf	0, 0, 0             	MOVF	r0x00, W
004db0   cfe4     movff	0xfe4, 0x5         	MOVFF	PREINC1, r0x05
004db2   f005
004db4   cfe4     movff	0xfe4, 0x4         	MOVFF	PREINC1, r0x04
004db6   f004
004db8   cfe4     movff	0xfe4, 0x3         	MOVFF	PREINC1, r0x03
004dba   f003
004dbc   cfe4     movff	0xfe4, 0x2         	MOVFF	PREINC1, r0x02
004dbe   f002
004dc0   cfe4     movff	0xfe4, 0x1         	MOVFF	PREINC1, r0x01
004dc2   f001
004dc4   cfe4     movff	0xfe4, 0           	MOVFF	PREINC1, r0x00
004dc6   f000
004dc8   cfe4     movff	0xfe4, 0xfd9       	MOVFF	PREINC1, FSR2L
004dca   ffd9
004dcc   0012     return	0                 	RETURN	
                                           
                                           ; ; Starting pCode block
                                           S_main__pprintf	code
                                           _pprintf:
                                           ;	.line	429; /home/regis/Hobbies/Electronique/Projets/Pinguino/local/trunk/p8/include/pinguino/core/stdio.c	int pprintf(stdout func, const char *format, va_list args)
004e78   cfd9     movff	0xfd9, 0xfe5       	MOVFF	FSR2L, POSTDEC1
004e7a   ffe5
004e7c   cfe1     movff	0xfe1, 0xfd9       	MOVFF	FSR1L, FSR2L
004e7e   ffd9
004e80   c000     movff	0, 0xfe5           	MOVFF	r0x00, POSTDEC1
004e82   ffe5
004e84   c001     movff	0x1, 0xfe5         	MOVFF	r0x01, POSTDEC1
004e86   ffe5
004e88   c002     movff	0x2, 0xfe5         	MOVFF	r0x02, POSTDEC1
004e8a   ffe5
004e8c   c003     movff	0x3, 0xfe5         	MOVFF	r0x03, POSTDEC1
004e8e   ffe5
004e90   c004     movff	0x4, 0xfe5         	MOVFF	r0x04, POSTDEC1
004e92   ffe5
004e94   c005     movff	0x5, 0xfe5         	MOVFF	r0x05, POSTDEC1
004e96   ffe5
004e98   0e02     movlw	0x2                	MOVLW	0x02
004e9a   cfdb     movff	0xfdb, 0x2fc       	MOVFF	PLUSW2, _pputchar
004e9c   f2fc
004e9e   0e03     movlw	0x3                	MOVLW	0x03
004ea0   cfdb     movff	0xfdb, 0x2fd       	MOVFF	PLUSW2, (_pputchar + 1)
004ea2   f2fd
004ea4   0e04     movlw	0x4                	MOVLW	0x04
004ea6   cfdb     movff	0xfdb, 0x2fe       	MOVFF	PLUSW2, (_pputchar + 2)
004ea8   f2fe
004eaa   0e05     movlw	0x5                	MOVLW	0x05
004eac   cfdb     movff	0xfdb, 0           	MOVFF	PLUSW2, r0x00
004eae   f000
004eb0   0e06     movlw	0x6                	MOVLW	0x06
004eb2   cfdb     movff	0xfdb, 0x1         	MOVFF	PLUSW2, r0x01
004eb4   f001
004eb6   0e07     movlw	0x7                	MOVLW	0x07
004eb8   cfdb     movff	0xfdb, 0x2         	MOVFF	PLUSW2, r0x02
004eba   f002
004ebc   0e08     movlw	0x8                	MOVLW	0x08
004ebe   cfdb     movff	0xfdb, 0x3         	MOVFF	PLUSW2, r0x03
004ec0   f003
004ec2   0e09     movlw	0x9                	MOVLW	0x09
004ec4   cfdb     movff	0xfdb, 0x4         	MOVFF	PLUSW2, r0x04
004ec6   f004
004ec8   0e0a     movlw	0xa                	MOVLW	0x0a
004eca   cfdb     movff	0xfdb, 0x5         	MOVFF	PLUSW2, r0x05
004ecc   f005
                                           ;	.line	435; /home/regis/Hobbies/Electronique/Projets/Pinguino/local/trunk/p8/include/pinguino/core/stdio.c	return pprint(0, format, args);
004ece   5005     movf	0x5, 0, 0           	MOVF	r0x05, W
004ed0   6ee5     movwf	0xe5, 0            	MOVWF	POSTDEC1
004ed2   5004     movf	0x4, 0, 0           	MOVF	r0x04, W
004ed4   6ee5     movwf	0xe5, 0            	MOVWF	POSTDEC1
004ed6   5003     movf	0x3, 0, 0           	MOVF	r0x03, W
004ed8   6ee5     movwf	0xe5, 0            	MOVWF	POSTDEC1
004eda   5002     movf	0x2, 0, 0           	MOVF	r0x02, W
004edc   6ee5     movwf	0xe5, 0            	MOVWF	POSTDEC1
004ede   5001     movf	0x1, 0, 0           	MOVF	r0x01, W
004ee0   6ee5     movwf	0xe5, 0            	MOVWF	POSTDEC1
004ee2   5000     movf	0, 0, 0             	MOVF	r0x00, W
004ee4   6ee5     movwf	0xe5, 0            	MOVWF	POSTDEC1
004ee6   0e00     movlw	0                  	MOVLW	0x00
004ee8   6ae5     clrf	0xe5, 0             	CLRF	POSTDEC1
004eea   6ae5     clrf	0xe5, 0             	CLRF	POSTDEC1
004eec   6ae5     clrf	0xe5, 0             	CLRF	POSTDEC1
004eee   ec3d     call	0x207a, 0           	CALL	_pprint
004ef0   f010
004ef2   6e00     movwf	0, 0               	MOVWF	r0x00
004ef4   cff3     movff	0xff3, 0x1         	MOVFF	PRODL, r0x01
004ef6   f001
004ef8   0e09     movlw	0x9                	MOVLW	0x09
004efa   26e1     addwf	0xe1, 0x1, 0       	ADDWF	FSR1L, F
004efc   c001     movff	0x1, 0xff3         	MOVFF	r0x01, PRODL
004efe   fff3
004f00   5000     movf	0, 0, 0             	MOVF	r0x00, W
004f02   cfe4     movff	0xfe4, 0x5         	MOVFF	PREINC1, r0x05
004f04   f005
004f06   cfe4     movff	0xfe4, 0x4         	MOVFF	PREINC1, r0x04
004f08   f004
004f0a   cfe4     movff	0xfe4, 0x3         	MOVFF	PREINC1, r0x03
004f0c   f003
004f0e   cfe4     movff	0xfe4, 0x2         	MOVFF	PREINC1, r0x02
004f10   f002
004f12   cfe4     movff	0xfe4, 0x1         	MOVFF	PREINC1, r0x01
004f14   f001
004f16   cfe4     movff	0xfe4, 0           	MOVFF	PREINC1, r0x00
004f18   f000
004f1a   cfe4     movff	0xfe4, 0xfd9       	MOVFF	PREINC1, FSR2L
004f1c   ffd9
004f1e   0012     return	0                 	RETURN	
                                           
                                           ; ; Starting pCode block
                                           S_main__pprint	code
                                           _pprint:
                                           ;	.line	305; /home/regis/Hobbies/Electronique/Projets/Pinguino/local/trunk/p8/include/pinguino/core/stdio.c	static int pprint(char **out, const char *format, va_list args)
00207a   cfd9     movff	0xfd9, 0xfe5       	MOVFF	FSR2L, POSTDEC1
00207c   ffe5
00207e   cfe1     movff	0xfe1, 0xfd9       	MOVFF	FSR1L, FSR2L
002080   ffd9
002082   c000     movff	0, 0xfe5           	MOVFF	r0x00, POSTDEC1
002084   ffe5
002086   c001     movff	0x1, 0xfe5         	MOVFF	r0x01, POSTDEC1
002088   ffe5
00208a   c002     movff	0x2, 0xfe5         	MOVFF	r0x02, POSTDEC1
00208c   ffe5
00208e   c003     movff	0x3, 0xfe5         	MOVFF	r0x03, POSTDEC1
002090   ffe5
002092   c004     movff	0x4, 0xfe5         	MOVFF	r0x04, POSTDEC1
002094   ffe5
002096   c005     movff	0x5, 0xfe5         	MOVFF	r0x05, POSTDEC1
002098   ffe5
00209a   c006     movff	0x6, 0xfe5         	MOVFF	r0x06, POSTDEC1
00209c   ffe5
00209e   c007     movff	0x7, 0xfe5         	MOVFF	r0x07, POSTDEC1
0020a0   ffe5
0020a2   c008     movff	0x8, 0xfe5         	MOVFF	r0x08, POSTDEC1
0020a4   ffe5
0020a6   c009     movff	0x9, 0xfe5         	MOVFF	r0x09, POSTDEC1
0020a8   ffe5
0020aa   c00a     movff	0xa, 0xfe5         	MOVFF	r0x0a, POSTDEC1
0020ac   ffe5
0020ae   c00b     movff	0xb, 0xfe5         	MOVFF	r0x0b, POSTDEC1
0020b0   ffe5
0020b2   c00c     movff	0xc, 0xfe5         	MOVFF	r0x0c, POSTDEC1
0020b4   ffe5
0020b6   c00d     movff	0xd, 0xfe5         	MOVFF	r0x0d, POSTDEC1
0020b8   ffe5
0020ba   c00e     movff	0xe, 0xfe5         	MOVFF	r0x0e, POSTDEC1
0020bc   ffe5
0020be   c00f     movff	0xf, 0xfe5         	MOVFF	r0x0f, POSTDEC1
0020c0   ffe5
0020c2   c010     movff	0x10, 0xfe5        	MOVFF	r0x10, POSTDEC1
0020c4   ffe5
0020c6   c011     movff	0x11, 0xfe5        	MOVFF	r0x11, POSTDEC1
0020c8   ffe5
0020ca   c012     movff	0x12, 0xfe5        	MOVFF	r0x12, POSTDEC1
0020cc   ffe5
0020ce   c013     movff	0x13, 0xfe5        	MOVFF	r0x13, POSTDEC1
0020d0   ffe5
0020d2   c014     movff	0x14, 0xfe5        	MOVFF	r0x14, POSTDEC1
0020d4   ffe5
0020d6   c015     movff	0x15, 0xfe5        	MOVFF	r0x15, POSTDEC1
0020d8   ffe5
0020da   c016     movff	0x16, 0xfe5        	MOVFF	r0x16, POSTDEC1
0020dc   ffe5
0020de   c017     movff	0x17, 0xfe5        	MOVFF	r0x17, POSTDEC1
0020e0   ffe5
0020e2   0e02     movlw	0x2                	MOVLW	0x02
0020e4   cfdb     movff	0xfdb, 0           	MOVFF	PLUSW2, r0x00
0020e6   f000
0020e8   0e03     movlw	0x3                	MOVLW	0x03
0020ea   cfdb     movff	0xfdb, 0x1         	MOVFF	PLUSW2, r0x01
0020ec   f001
0020ee   0e04     movlw	0x4                	MOVLW	0x04
0020f0   cfdb     movff	0xfdb, 0x2         	MOVFF	PLUSW2, r0x02
0020f2   f002
0020f4   0e05     movlw	0x5                	MOVLW	0x05
0020f6   cfdb     movff	0xfdb, 0x3         	MOVFF	PLUSW2, r0x03
0020f8   f003
0020fa   0e06     movlw	0x6                	MOVLW	0x06
0020fc   cfdb     movff	0xfdb, 0x4         	MOVFF	PLUSW2, r0x04
0020fe   f004
002100   0e07     movlw	0x7                	MOVLW	0x07
002102   cfdb     movff	0xfdb, 0x5         	MOVFF	PLUSW2, r0x05
002104   f005
002106   0e08     movlw	0x8                	MOVLW	0x08
002108   cfdb     movff	0xfdb, 0x6         	MOVFF	PLUSW2, r0x06
00210a   f006
00210c   0e09     movlw	0x9                	MOVLW	0x09
00210e   cfdb     movff	0xfdb, 0x7         	MOVFF	PLUSW2, r0x07
002110   f007
002112   0e0a     movlw	0xa                	MOVLW	0x0a
002114   cfdb     movff	0xfdb, 0x8         	MOVFF	PLUSW2, r0x08
002116   f008
                                           ;	.line	308; /home/regis/Hobbies/Electronique/Projets/Pinguino/local/trunk/p8/include/pinguino/core/stdio.c	register int pc = 0;
002118   6a09     clrf	0x9, 0              	CLRF	r0x09
00211a   6a0a     clrf	0xa, 0              	CLRF	r0x0a
                                           _00865_DS_:
                                           ;	.line	311; /home/regis/Hobbies/Electronique/Projets/Pinguino/local/trunk/p8/include/pinguino/core/stdio.c	for (; *format != 0; ++format)
00211c   c003     movff	0x3, 0xfe9         	MOVFF	r0x03, FSR0L
00211e   ffe9
002120   c004     movff	0x4, 0xff3         	MOVFF	r0x04, PRODL
002122   fff3
002124   5005     movf	0x5, 0, 0           	MOVF	r0x05, W
002126   ec29     call	0x52, 0             	CALL	__gptrget1
002128   f000
00212a   6e0b     movwf	0xb, 0             	MOVWF	r0x0b
00212c   500b     movf	0xb, 0, 0           	MOVF	r0x0b, W
00212e   b4d8     btfsc	0xd8, 0x2, 0       	BTFSC	STATUS, 2
002130   efd3     goto	0x2ba6              	GOTO	_00868_DS_
002132   f015
                                           ;	.line	313; /home/regis/Hobbies/Electronique/Projets/Pinguino/local/trunk/p8/include/pinguino/core/stdio.c	lng = 0; // int by default
002134   6a0c     clrf	0xc, 0              	CLRF	r0x0c
002136   6a0d     clrf	0xd, 0              	CLRF	r0x0d
                                           ;	.line	314; /home/regis/Hobbies/Electronique/Projets/Pinguino/local/trunk/p8/include/pinguino/core/stdio.c	if (*format == '%')
002138   500b     movf	0xb, 0, 0           	MOVF	r0x0b, W
00213a   0a25     xorlw	0x25               	XORLW	0x25
00213c   e002     bz	0x2142                	BZ	_00912_DS_
00213e   efb7     goto	0x2b6e              	GOTO	_00861_DS_
002140   f015
                                           _00912_DS_:
                                           ;	.line	316; /home/regis/Hobbies/Electronique/Projets/Pinguino/local/trunk/p8/include/pinguino/core/stdio.c	++format;
002142   2a03     incf	0x3, 0x1, 0         	INCF	r0x03, F
002144   b0d8     btfsc	0xd8, 0, 0         	BTFSC	STATUS, 0
002146   2a04     incf	0x4, 0x1, 0         	INCF	r0x04, F
002148   b0d8     btfsc	0xd8, 0, 0         	BTFSC	STATUS, 0
00214a   2a05     incf	0x5, 0x1, 0         	INCF	r0x05, F
                                           ;	.line	317; /home/regis/Hobbies/Electronique/Projets/Pinguino/local/trunk/p8/include/pinguino/core/stdio.c	width = pad = 0;
00214c   6a0b     clrf	0xb, 0              	CLRF	r0x0b
00214e   6a0e     clrf	0xe, 0              	CLRF	r0x0e
002150   6a0f     clrf	0xf, 0              	CLRF	r0x0f
002152   6a10     clrf	0x10, 0             	CLRF	r0x10
                                           ;	.line	318; /home/regis/Hobbies/Electronique/Projets/Pinguino/local/trunk/p8/include/pinguino/core/stdio.c	if (*format == '\0')	// end of line
002154   c003     movff	0x3, 0xfe9         	MOVFF	r0x03, FSR0L
002156   ffe9
002158   c004     movff	0x4, 0xff3         	MOVFF	r0x04, PRODL
00215a   fff3
00215c   5005     movf	0x5, 0, 0           	MOVF	r0x05, W
00215e   ec29     call	0x52, 0             	CALL	__gptrget1
002160   f000
002162   6e11     movwf	0x11, 0            	MOVWF	r0x11
002164   5011     movf	0x11, 0, 0          	MOVF	r0x11, W
002166   b4d8     btfsc	0xd8, 0x2, 0       	BTFSC	STATUS, 2
002168   efd3     goto	0x2ba6              	GOTO	_00868_DS_
00216a   f015
                                           ;	.line	320; /home/regis/Hobbies/Electronique/Projets/Pinguino/local/trunk/p8/include/pinguino/core/stdio.c	if (*format == '%')		// error
00216c   5011     movf	0x11, 0, 0          	MOVF	r0x11, W
00216e   0a25     xorlw	0x25               	XORLW	0x25
002170   e102     bnz	0x2176               	BNZ	_00914_DS_
002172   efb7     goto	0x2b6e              	GOTO	_00861_DS_
002174   f015
                                           _00914_DS_:
                                           ;	.line	322; /home/regis/Hobbies/Electronique/Projets/Pinguino/local/trunk/p8/include/pinguino/core/stdio.c	if (*format == '-')		// right justify
002176   5011     movf	0x11, 0, 0          	MOVF	r0x11, W
002178   0a2d     xorlw	0x2d               	XORLW	0x2d
00217a   e108     bnz	0x218c               	BNZ	_00886_DS_
                                           ;	.line	324; /home/regis/Hobbies/Electronique/Projets/Pinguino/local/trunk/p8/include/pinguino/core/stdio.c	++format;
00217c   2a03     incf	0x3, 0x1, 0         	INCF	r0x03, F
00217e   b0d8     btfsc	0xd8, 0, 0         	BTFSC	STATUS, 0
002180   2a04     incf	0x4, 0x1, 0         	INCF	r0x04, F
002182   b0d8     btfsc	0xd8, 0, 0         	BTFSC	STATUS, 0
002184   2a05     incf	0x5, 0x1, 0         	INCF	r0x05, F
                                           ;	.line	325; /home/regis/Hobbies/Electronique/Projets/Pinguino/local/trunk/p8/include/pinguino/core/stdio.c	pad = PAD_RIGHT;
002186   0e01     movlw	0x1                	MOVLW	0x01
002188   6e0b     movwf	0xb, 0             	MOVWF	r0x0b
00218a   6a0e     clrf	0xe, 0              	CLRF	r0x0e
                                           _00886_DS_:
                                           ;	.line	327; /home/regis/Hobbies/Electronique/Projets/Pinguino/local/trunk/p8/include/pinguino/core/stdio.c	while (*format == '0')	// 0-padded
00218c   c003     movff	0x3, 0x11          	MOVFF	r0x03, r0x11
00218e   f011
002190   c004     movff	0x4, 0x12          	MOVFF	r0x04, r0x12
002192   f012
002194   c005     movff	0x5, 0x13          	MOVFF	r0x05, r0x13
002196   f013
                                           _00818_DS_:
002198   c011     movff	0x11, 0xfe9        	MOVFF	r0x11, FSR0L
00219a   ffe9
00219c   c012     movff	0x12, 0xff3        	MOVFF	r0x12, PRODL
00219e   fff3
0021a0   5013     movf	0x13, 0, 0          	MOVF	r0x13, W
0021a2   ec29     call	0x52, 0             	CALL	__gptrget1
0021a4   f000
                                           ; #	MOVWF	r0x14
                                           ; #	MOVF	r0x14, W
0021a6   0a30     xorlw	0x30               	XORLW	0x30
0021a8   e107     bnz	0x21b8               	BNZ	_00872_DS_
                                           ;	.line	329; /home/regis/Hobbies/Electronique/Projets/Pinguino/local/trunk/p8/include/pinguino/core/stdio.c	++format;
0021aa   2a11     incf	0x11, 0x1, 0        	INCF	r0x11, F
0021ac   b0d8     btfsc	0xd8, 0, 0         	BTFSC	STATUS, 0
0021ae   2a12     incf	0x12, 0x1, 0        	INCF	r0x12, F
0021b0   b0d8     btfsc	0xd8, 0, 0         	BTFSC	STATUS, 0
0021b2   2a13     incf	0x13, 0x1, 0        	INCF	r0x13, F
                                           ;	.line	330; /home/regis/Hobbies/Electronique/Projets/Pinguino/local/trunk/p8/include/pinguino/core/stdio.c	pad |= PAD_ZERO;
0021b4   820b     bsf	0xb, 0x1, 0          	BSF	r0x0b, 1
0021b6   d7f0     bra	0x2198               	BRA	_00818_DS_
                                           _00872_DS_:
                                           ;	.line	332; /home/regis/Hobbies/Electronique/Projets/Pinguino/local/trunk/p8/include/pinguino/core/stdio.c	for ( ; *format >= '0' && *format <= '9'; ++format)
0021b8   c011     movff	0x11, 0xfe9        	MOVFF	r0x11, FSR0L
0021ba   ffe9
0021bc   c012     movff	0x12, 0xff3        	MOVFF	r0x12, PRODL
0021be   fff3
0021c0   5013     movf	0x13, 0, 0          	MOVF	r0x13, W
0021c2   ec29     call	0x52, 0             	CALL	__gptrget1
0021c4   f000
                                           ; #	MOVWF	r0x14
                                           ; #	MOVF	r0x14, W
0021c6   6e14     movwf	0x14, 0            	MOVWF	r0x14
0021c8   0f80     addlw	0x80               	ADDLW	0x80
0021ca   0f50     addlw	0x50               	ADDLW	0x50
0021cc   e323     bnc	0x2214               	BNC	_00910_DS_
0021ce   5014     movf	0x14, 0, 0          	MOVF	r0x14, W
0021d0   0f80     addlw	0x80               	ADDLW	0x80
0021d2   0f46     addlw	0x46               	ADDLW	0x46
0021d4   e21f     bc	0x2214                	BC	_00910_DS_
                                           ;	.line	334; /home/regis/Hobbies/Electronique/Projets/Pinguino/local/trunk/p8/include/pinguino/core/stdio.c	width *= 10;
0021d6   5010     movf	0x10, 0, 0          	MOVF	r0x10, W
0021d8   6ee5     movwf	0xe5, 0            	MOVWF	POSTDEC1
0021da   500f     movf	0xf, 0, 0           	MOVF	r0x0f, W
0021dc   6ee5     movwf	0xe5, 0            	MOVWF	POSTDEC1
0021de   6ae5     clrf	0xe5, 0             	CLRF	POSTDEC1
0021e0   0e0a     movlw	0xa                	MOVLW	0x0a
0021e2   6ee5     movwf	0xe5, 0            	MOVWF	POSTDEC1
0021e4   ec27     call	0x4e, 0             	CALL	__mulint
0021e6   f000
0021e8   6e0f     movwf	0xf, 0             	MOVWF	r0x0f
0021ea   cff3     movff	0xff3, 0x10        	MOVFF	PRODL, r0x10
0021ec   f010
0021ee   0e04     movlw	0x4                	MOVLW	0x04
0021f0   26e1     addwf	0xe1, 0x1, 0       	ADDWF	FSR1L, F
                                           ;	.line	335; /home/regis/Hobbies/Electronique/Projets/Pinguino/local/trunk/p8/include/pinguino/core/stdio.c	width += *format - '0';
0021f2   6a15     clrf	0x15, 0             	CLRF	r0x15
0021f4   be14     btfsc	0x14, 0x7, 0       	BTFSC	r0x14, 7
0021f6   6815     setf	0x15, 0             	SETF	r0x15
0021f8   0ed0     movlw	0xd0               	MOVLW	0xd0
0021fa   2614     addwf	0x14, 0x1, 0       	ADDWF	r0x14, F
0021fc   a0d8     btfss	0xd8, 0, 0         	BTFSS	STATUS, 0
0021fe   0615     decf	0x15, 0x1, 0        	DECF	r0x15, F
002200   5014     movf	0x14, 0, 0          	MOVF	r0x14, W
002202   260f     addwf	0xf, 0x1, 0        	ADDWF	r0x0f, F
002204   5015     movf	0x15, 0, 0          	MOVF	r0x15, W
002206   2210     addwfc	0x10, 0x1, 0      	ADDWFC	r0x10, F
                                           ;	.line	332; /home/regis/Hobbies/Electronique/Projets/Pinguino/local/trunk/p8/include/pinguino/core/stdio.c	for ( ; *format >= '0' && *format <= '9'; ++format)
002208   2a11     incf	0x11, 0x1, 0        	INCF	r0x11, F
00220a   b0d8     btfsc	0xd8, 0, 0         	BTFSC	STATUS, 0
00220c   2a12     incf	0x12, 0x1, 0        	INCF	r0x12, F
00220e   b0d8     btfsc	0xd8, 0, 0         	BTFSC	STATUS, 0
002210   2a13     incf	0x13, 0x1, 0        	INCF	r0x13, F
002212   d7d2     bra	0x21b8               	BRA	_00872_DS_
                                           _00910_DS_:
002214   c011     movff	0x11, 0x3          	MOVFF	r0x11, r0x03
002216   f003
002218   c012     movff	0x12, 0x4          	MOVFF	r0x12, r0x04
00221a   f004
00221c   c013     movff	0x13, 0x5          	MOVFF	r0x13, r0x05
00221e   f005
                                           ;	.line	337; /home/regis/Hobbies/Electronique/Projets/Pinguino/local/trunk/p8/include/pinguino/core/stdio.c	if (*format == 's')		// string
002220   c011     movff	0x11, 0xfe9        	MOVFF	r0x11, FSR0L
002222   ffe9
002224   c012     movff	0x12, 0xff3        	MOVFF	r0x12, PRODL
002226   fff3
002228   5013     movf	0x13, 0, 0          	MOVF	r0x13, W
00222a   ec29     call	0x52, 0             	CALL	__gptrget1
00222c   f000
                                           ; #	MOVWF	r0x14
                                           ; #	MOVF	r0x14, W
00222e   6e14     movwf	0x14, 0            	MOVWF	r0x14
002230   0a73     xorlw	0x73               	XORLW	0x73
002232   e001     bz	0x2236                	BZ	_00923_DS_
002234   d04a     bra	0x22ca               	BRA	_00822_DS_
                                           _00923_DS_:
                                           ;	.line	339; /home/regis/Hobbies/Electronique/Projets/Pinguino/local/trunk/p8/include/pinguino/core/stdio.c	char *s = va_arg(args, char*);
002236   5006     movf	0x6, 0, 0           	MOVF	r0x06, W
002238   0f03     addlw	0x3                	ADDLW	0x03
00223a   6e15     movwf	0x15, 0            	MOVWF	r0x15
00223c   0e00     movlw	0                  	MOVLW	0x00
00223e   2007     addwfc	0x7, 0, 0         	ADDWFC	r0x07, W
002240   6e16     movwf	0x16, 0            	MOVWF	r0x16
002242   0e00     movlw	0                  	MOVLW	0x00
002244   2008     addwfc	0x8, 0, 0         	ADDWFC	r0x08, W
002246   6e17     movwf	0x17, 0            	MOVWF	r0x17
002248   c015     movff	0x15, 0x6          	MOVFF	r0x15, r0x06
00224a   f006
00224c   c016     movff	0x16, 0x7          	MOVFF	r0x16, r0x07
00224e   f007
002250   c017     movff	0x17, 0x8          	MOVFF	r0x17, r0x08
002252   f008
002254   0efd     movlw	0xfd               	MOVLW	0xfd
002256   2615     addwf	0x15, 0x1, 0       	ADDWF	r0x15, F
002258   0eff     movlw	0xff               	MOVLW	0xff
00225a   2216     addwfc	0x16, 0x1, 0      	ADDWFC	r0x16, F
00225c   2217     addwfc	0x17, 0x1, 0      	ADDWFC	r0x17, F
00225e   c015     movff	0x15, 0xfe9        	MOVFF	r0x15, FSR0L
002260   ffe9
002262   c016     movff	0x16, 0xff3        	MOVFF	r0x16, PRODL
002264   fff3
002266   5017     movf	0x17, 0, 0          	MOVF	r0x17, W
002268   ec2d     call	0x5a, 0             	CALL	__gptrget3
00226a   f000
00226c   6e15     movwf	0x15, 0            	MOVWF	r0x15
00226e   cff3     movff	0xff3, 0x16        	MOVFF	PRODL, r0x16
002270   f016
002272   cff4     movff	0xff4, 0x17        	MOVFF	PRODH, r0x17
002274   f017
                                           ;	.line	340; /home/regis/Hobbies/Electronique/Projets/Pinguino/local/trunk/p8/include/pinguino/core/stdio.c	pc += pprints(out, s?s:"(null)", width, pad);
002276   1016     iorwf	0x16, 0, 0         	IORWF	r0x16, W
                                           ; #	IORWF	r0x17, W
                                           ; #	BTFSC	STATUS, 2
                                           ; #	GOTO	_00878_DS_
                                           ; #	GOTO	_00879_DS_
                                           ; #	MOVLW	LOW(__str_0)
002278   1017     iorwf	0x17, 0, 0         	IORWF	r0x17, W
00227a   e106     bnz	0x2288               	BNZ	_00879_DS_
00227c   0e8a     movlw	0x8a               	MOVLW	LOW(__str_0)
00227e   6e15     movwf	0x15, 0            	MOVWF	r0x15
002280   0e36     movlw	0x36               	MOVLW	HIGH(__str_0)
002282   6e16     movwf	0x16, 0            	MOVWF	r0x16
002284   0e00     movlw	0                  	MOVLW	UPPER(__str_0)
002286   6e17     movwf	0x17, 0            	MOVWF	r0x17
                                           _00879_DS_:
002288   500e     movf	0xe, 0, 0           	MOVF	r0x0e, W
00228a   6ee5     movwf	0xe5, 0            	MOVWF	POSTDEC1
00228c   500b     movf	0xb, 0, 0           	MOVF	r0x0b, W
00228e   6ee5     movwf	0xe5, 0            	MOVWF	POSTDEC1
002290   5010     movf	0x10, 0, 0          	MOVF	r0x10, W
002292   6ee5     movwf	0xe5, 0            	MOVWF	POSTDEC1
002294   500f     movf	0xf, 0, 0           	MOVF	r0x0f, W
002296   6ee5     movwf	0xe5, 0            	MOVWF	POSTDEC1
002298   5017     movf	0x17, 0, 0          	MOVF	r0x17, W
00229a   6ee5     movwf	0xe5, 0            	MOVWF	POSTDEC1
00229c   5016     movf	0x16, 0, 0          	MOVF	r0x16, W
00229e   6ee5     movwf	0xe5, 0            	MOVWF	POSTDEC1
0022a0   5015     movf	0x15, 0, 0          	MOVF	r0x15, W
0022a2   6ee5     movwf	0xe5, 0            	MOVWF	POSTDEC1
0022a4   5002     movf	0x2, 0, 0           	MOVF	r0x02, W
0022a6   6ee5     movwf	0xe5, 0            	MOVWF	POSTDEC1
0022a8   5001     movf	0x1, 0, 0           	MOVF	r0x01, W
0022aa   6ee5     movwf	0xe5, 0            	MOVWF	POSTDEC1
0022ac   5000     movf	0, 0, 0             	MOVF	r0x00, W
0022ae   6ee5     movwf	0xe5, 0            	MOVWF	POSTDEC1
0022b0   ec75     call	0x3cea, 0           	CALL	_pprints
0022b2   f01e
0022b4   6e15     movwf	0x15, 0            	MOVWF	r0x15
0022b6   cff3     movff	0xff3, 0x16        	MOVFF	PRODL, r0x16
0022b8   f016
0022ba   0e0a     movlw	0xa                	MOVLW	0x0a
0022bc   26e1     addwf	0xe1, 0x1, 0       	ADDWF	FSR1L, F
0022be   5015     movf	0x15, 0, 0          	MOVF	r0x15, W
0022c0   2609     addwf	0x9, 0x1, 0        	ADDWF	r0x09, F
0022c2   5016     movf	0x16, 0, 0          	MOVF	r0x16, W
0022c4   220a     addwfc	0xa, 0x1, 0       	ADDWFC	r0x0a, F
                                           ;	.line	341; /home/regis/Hobbies/Electronique/Projets/Pinguino/local/trunk/p8/include/pinguino/core/stdio.c	continue;
0022c6   efcc     goto	0x2b98              	GOTO	_00867_DS_
0022c8   f015
                                           _00822_DS_:
                                           ;	.line	343; /home/regis/Hobbies/Electronique/Projets/Pinguino/local/trunk/p8/include/pinguino/core/stdio.c	if (*format == 'l')		// long support
0022ca   5014     movf	0x14, 0, 0          	MOVF	r0x14, W
0022cc   0a6c     xorlw	0x6c               	XORLW	0x6c
0022ce   e10c     bnz	0x22e8               	BNZ	_00824_DS_
                                           ;	.line	345; /home/regis/Hobbies/Electronique/Projets/Pinguino/local/trunk/p8/include/pinguino/core/stdio.c	++format;
0022d0   5011     movf	0x11, 0, 0          	MOVF	r0x11, W
0022d2   0f01     addlw	0x1                	ADDLW	0x01
0022d4   6e03     movwf	0x3, 0             	MOVWF	r0x03
0022d6   0e00     movlw	0                  	MOVLW	0x00
0022d8   2012     addwfc	0x12, 0, 0        	ADDWFC	r0x12, W
0022da   6e04     movwf	0x4, 0             	MOVWF	r0x04
0022dc   0e00     movlw	0                  	MOVLW	0x00
0022de   2013     addwfc	0x13, 0, 0        	ADDWFC	r0x13, W
0022e0   6e05     movwf	0x5, 0             	MOVWF	r0x05
                                           ;	.line	346; /home/regis/Hobbies/Electronique/Projets/Pinguino/local/trunk/p8/include/pinguino/core/stdio.c	lng = 1;
0022e2   0e01     movlw	0x1                	MOVLW	0x01
0022e4   6e0c     movwf	0xc, 0             	MOVWF	r0x0c
0022e6   6a0d     clrf	0xd, 0              	CLRF	r0x0d
                                           _00824_DS_:
                                           ;	.line	348; /home/regis/Hobbies/Electronique/Projets/Pinguino/local/trunk/p8/include/pinguino/core/stdio.c	if (*format == 'u')		// unsigned decimal
0022e8   c003     movff	0x3, 0xfe9         	MOVFF	r0x03, FSR0L
0022ea   ffe9
0022ec   c004     movff	0x4, 0xff3         	MOVFF	r0x04, PRODL
0022ee   fff3
0022f0   5005     movf	0x5, 0, 0           	MOVF	r0x05, W
0022f2   ec29     call	0x52, 0             	CALL	__gptrget1
0022f4   f000
                                           ; #	MOVWF	r0x11
                                           ; #	MOVF	r0x11, W
0022f6   6e11     movwf	0x11, 0            	MOVWF	r0x11
0022f8   0a75     xorlw	0x75               	XORLW	0x75
0022fa   e001     bz	0x22fe                	BZ	_00927_DS_
0022fc   d098     bra	0x242e               	BRA	_00829_DS_
                                           _00927_DS_:
                                           ;	.line	350; /home/regis/Hobbies/Electronique/Projets/Pinguino/local/trunk/p8/include/pinguino/core/stdio.c	if (lng)
0022fe   500c     movf	0xc, 0, 0           	MOVF	r0x0c, W
002300   100d     iorwf	0xd, 0, 0          	IORWF	r0x0d, W
002302   b4d8     btfsc	0xd8, 0x2, 0       	BTFSC	STATUS, 2
002304   d04d     bra	0x23a0               	BRA	_00826_DS_
                                           ;	.line	351; /home/regis/Hobbies/Electronique/Projets/Pinguino/local/trunk/p8/include/pinguino/core/stdio.c	pc += pprinti(out, va_arg(args, unsigned long), 10, 0, width, pad, 'a');
002306   5006     movf	0x6, 0, 0           	MOVF	r0x06, W
002308   0f04     addlw	0x4                	ADDLW	0x04
00230a   6e12     movwf	0x12, 0            	MOVWF	r0x12
00230c   0e00     movlw	0                  	MOVLW	0x00
00230e   2007     addwfc	0x7, 0, 0         	ADDWFC	r0x07, W
002310   6e13     movwf	0x13, 0            	MOVWF	r0x13
002312   0e00     movlw	0                  	MOVLW	0x00
002314   2008     addwfc	0x8, 0, 0         	ADDWFC	r0x08, W
002316   6e14     movwf	0x14, 0            	MOVWF	r0x14
002318   c012     movff	0x12, 0x6          	MOVFF	r0x12, r0x06
00231a   f006
00231c   c013     movff	0x13, 0x7          	MOVFF	r0x13, r0x07
00231e   f007
002320   c014     movff	0x14, 0x8          	MOVFF	r0x14, r0x08
002322   f008
002324   0efc     movlw	0xfc               	MOVLW	0xfc
002326   2612     addwf	0x12, 0x1, 0       	ADDWF	r0x12, F
002328   0eff     movlw	0xff               	MOVLW	0xff
00232a   2213     addwfc	0x13, 0x1, 0      	ADDWFC	r0x13, F
00232c   2214     addwfc	0x14, 0x1, 0      	ADDWFC	r0x14, F
00232e   c012     movff	0x12, 0xfe9        	MOVFF	r0x12, FSR0L
002330   ffe9
002332   c013     movff	0x13, 0xff3        	MOVFF	r0x13, PRODL
002334   fff3
002336   5014     movf	0x14, 0, 0          	MOVF	r0x14, W
002338   ec2f     call	0x5e, 0             	CALL	__gptrget4
00233a   f000
00233c   6e12     movwf	0x12, 0            	MOVWF	r0x12
00233e   cff3     movff	0xff3, 0x13        	MOVFF	PRODL, r0x13
002340   f013
002342   cff4     movff	0xff4, 0x14        	MOVFF	PRODH, r0x14
002344   f014
002346   cfe9     movff	0xfe9, 0x15        	MOVFF	FSR0L, r0x15
002348   f015
00234a   6ae5     clrf	0xe5, 0             	CLRF	POSTDEC1
00234c   0e61     movlw	0x61               	MOVLW	0x61
00234e   6ee5     movwf	0xe5, 0            	MOVWF	POSTDEC1
002350   500e     movf	0xe, 0, 0           	MOVF	r0x0e, W
002352   6ee5     movwf	0xe5, 0            	MOVWF	POSTDEC1
002354   500b     movf	0xb, 0, 0           	MOVF	r0x0b, W
002356   6ee5     movwf	0xe5, 0            	MOVWF	POSTDEC1
002358   5010     movf	0x10, 0, 0          	MOVF	r0x10, W
00235a   6ee5     movwf	0xe5, 0            	MOVWF	POSTDEC1
00235c   500f     movf	0xf, 0, 0           	MOVF	r0x0f, W
00235e   6ee5     movwf	0xe5, 0            	MOVWF	POSTDEC1
002360   6ae5     clrf	0xe5, 0             	CLRF	POSTDEC1
002362   6ae5     clrf	0xe5, 0             	CLRF	POSTDEC1
002364   6ae5     clrf	0xe5, 0             	CLRF	POSTDEC1
002366   0e0a     movlw	0xa                	MOVLW	0x0a
002368   6ee5     movwf	0xe5, 0            	MOVWF	POSTDEC1
00236a   5015     movf	0x15, 0, 0          	MOVF	r0x15, W
00236c   6ee5     movwf	0xe5, 0            	MOVWF	POSTDEC1
00236e   5014     movf	0x14, 0, 0          	MOVF	r0x14, W
002370   6ee5     movwf	0xe5, 0            	MOVWF	POSTDEC1
002372   5013     movf	0x13, 0, 0          	MOVF	r0x13, W
002374   6ee5     movwf	0xe5, 0            	MOVWF	POSTDEC1
002376   5012     movf	0x12, 0, 0          	MOVF	r0x12, W
002378   6ee5     movwf	0xe5, 0            	MOVWF	POSTDEC1
00237a   5002     movf	0x2, 0, 0           	MOVF	r0x02, W
00237c   6ee5     movwf	0xe5, 0            	MOVWF	POSTDEC1
00237e   5001     movf	0x1, 0, 0           	MOVF	r0x01, W
002380   6ee5     movwf	0xe5, 0            	MOVWF	POSTDEC1
002382   5000     movf	0, 0, 0             	MOVF	r0x00, W
002384   6ee5     movwf	0xe5, 0            	MOVWF	POSTDEC1
002386   ec58     call	0x36b0, 0           	CALL	_pprinti
002388   f01b
00238a   6e12     movwf	0x12, 0            	MOVWF	r0x12
00238c   cff3     movff	0xff3, 0x13        	MOVFF	PRODL, r0x13
00238e   f013
002390   0e11     movlw	0x11               	MOVLW	0x11
002392   26e1     addwf	0xe1, 0x1, 0       	ADDWF	FSR1L, F
002394   5012     movf	0x12, 0, 0          	MOVF	r0x12, W
002396   2609     addwf	0x9, 0x1, 0        	ADDWF	r0x09, F
002398   5013     movf	0x13, 0, 0          	MOVF	r0x13, W
00239a   220a     addwfc	0xa, 0x1, 0       	ADDWFC	r0x0a, F
00239c   efcc     goto	0x2b98              	GOTO	_00867_DS_
00239e   f015
                                           _00826_DS_:
                                           ;	.line	353; /home/regis/Hobbies/Electronique/Projets/Pinguino/local/trunk/p8/include/pinguino/core/stdio.c	pc += pprinti(out, va_arg(args, unsigned int), 10, 0, width, pad, 'a');
0023a0   5006     movf	0x6, 0, 0           	MOVF	r0x06, W
0023a2   0f02     addlw	0x2                	ADDLW	0x02
0023a4   6e12     movwf	0x12, 0            	MOVWF	r0x12
0023a6   0e00     movlw	0                  	MOVLW	0x00
0023a8   2007     addwfc	0x7, 0, 0         	ADDWFC	r0x07, W
0023aa   6e13     movwf	0x13, 0            	MOVWF	r0x13
0023ac   0e00     movlw	0                  	MOVLW	0x00
0023ae   2008     addwfc	0x8, 0, 0         	ADDWFC	r0x08, W
0023b0   6e14     movwf	0x14, 0            	MOVWF	r0x14
0023b2   c012     movff	0x12, 0x6          	MOVFF	r0x12, r0x06
0023b4   f006
0023b6   c013     movff	0x13, 0x7          	MOVFF	r0x13, r0x07
0023b8   f007
0023ba   c014     movff	0x14, 0x8          	MOVFF	r0x14, r0x08
0023bc   f008
0023be   0efe     movlw	0xfe               	MOVLW	0xfe
0023c0   2612     addwf	0x12, 0x1, 0       	ADDWF	r0x12, F
0023c2   0eff     movlw	0xff               	MOVLW	0xff
0023c4   2213     addwfc	0x13, 0x1, 0      	ADDWFC	r0x13, F
0023c6   2214     addwfc	0x14, 0x1, 0      	ADDWFC	r0x14, F
0023c8   c012     movff	0x12, 0xfe9        	MOVFF	r0x12, FSR0L
0023ca   ffe9
0023cc   c013     movff	0x13, 0xff3        	MOVFF	r0x13, PRODL
0023ce   fff3
0023d0   5014     movf	0x14, 0, 0          	MOVF	r0x14, W
0023d2   ec2b     call	0x56, 0             	CALL	__gptrget2
0023d4   f000
0023d6   6e12     movwf	0x12, 0            	MOVWF	r0x12
0023d8   cff3     movff	0xff3, 0x13        	MOVFF	PRODL, r0x13
0023da   f013
0023dc   6ae5     clrf	0xe5, 0             	CLRF	POSTDEC1
0023de   0e61     movlw	0x61               	MOVLW	0x61
0023e0   6ee5     movwf	0xe5, 0            	MOVWF	POSTDEC1
0023e2   500e     movf	0xe, 0, 0           	MOVF	r0x0e, W
0023e4   6ee5     movwf	0xe5, 0            	MOVWF	POSTDEC1
0023e6   500b     movf	0xb, 0, 0           	MOVF	r0x0b, W
0023e8   6ee5     movwf	0xe5, 0            	MOVWF	POSTDEC1
0023ea   5010     movf	0x10, 0, 0          	MOVF	r0x10, W
0023ec   6ee5     movwf	0xe5, 0            	MOVWF	POSTDEC1
0023ee   500f     movf	0xf, 0, 0           	MOVF	r0x0f, W
0023f0   6ee5     movwf	0xe5, 0            	MOVWF	POSTDEC1
0023f2   6ae5     clrf	0xe5, 0             	CLRF	POSTDEC1
0023f4   6ae5     clrf	0xe5, 0             	CLRF	POSTDEC1
0023f6   6ae5     clrf	0xe5, 0             	CLRF	POSTDEC1
0023f8   0e0a     movlw	0xa                	MOVLW	0x0a
0023fa   6ee5     movwf	0xe5, 0            	MOVWF	POSTDEC1
0023fc   6ae5     clrf	0xe5, 0             	CLRF	POSTDEC1
0023fe   6ae5     clrf	0xe5, 0             	CLRF	POSTDEC1
002400   5013     movf	0x13, 0, 0          	MOVF	r0x13, W
002402   6ee5     movwf	0xe5, 0            	MOVWF	POSTDEC1
002404   5012     movf	0x12, 0, 0          	MOVF	r0x12, W
002406   6ee5     movwf	0xe5, 0            	MOVWF	POSTDEC1
002408   5002     movf	0x2, 0, 0           	MOVF	r0x02, W
00240a   6ee5     movwf	0xe5, 0            	MOVWF	POSTDEC1
00240c   5001     movf	0x1, 0, 0           	MOVF	r0x01, W
00240e   6ee5     movwf	0xe5, 0            	MOVWF	POSTDEC1
002410   5000     movf	0, 0, 0             	MOVF	r0x00, W
002412   6ee5     movwf	0xe5, 0            	MOVWF	POSTDEC1
002414   ec58     call	0x36b0, 0           	CALL	_pprinti
002416   f01b
002418   6e12     movwf	0x12, 0            	MOVWF	r0x12
00241a   cff3     movff	0xff3, 0x13        	MOVFF	PRODL, r0x13
00241c   f013
00241e   0e11     movlw	0x11               	MOVLW	0x11
002420   26e1     addwf	0xe1, 0x1, 0       	ADDWF	FSR1L, F
002422   5012     movf	0x12, 0, 0          	MOVF	r0x12, W
002424   2609     addwf	0x9, 0x1, 0        	ADDWF	r0x09, F
002426   5013     movf	0x13, 0, 0          	MOVF	r0x13, W
002428   220a     addwfc	0xa, 0x1, 0       	ADDWFC	r0x0a, F
                                           ;	.line	354; /home/regis/Hobbies/Electronique/Projets/Pinguino/local/trunk/p8/include/pinguino/core/stdio.c	continue;
00242a   efcc     goto	0x2b98              	GOTO	_00867_DS_
00242c   f015
                                           _00829_DS_:
                                           ;	.line	356; /home/regis/Hobbies/Electronique/Projets/Pinguino/local/trunk/p8/include/pinguino/core/stdio.c	if (*format == 'd')		// signed decimal
00242e   5011     movf	0x11, 0, 0          	MOVF	r0x11, W
002430   0a64     xorlw	0x64               	XORLW	0x64
002432   e001     bz	0x2436                	BZ	_00929_DS_
002434   d0a1     bra	0x2578               	BRA	_00834_DS_
                                           _00929_DS_:
                                           ;	.line	358; /home/regis/Hobbies/Electronique/Projets/Pinguino/local/trunk/p8/include/pinguino/core/stdio.c	if (lng)
002436   500c     movf	0xc, 0, 0           	MOVF	r0x0c, W
002438   100d     iorwf	0xd, 0, 0          	IORWF	r0x0d, W
00243a   b4d8     btfsc	0xd8, 0x2, 0       	BTFSC	STATUS, 2
00243c   d04e     bra	0x24da               	BRA	_00831_DS_
                                           ;	.line	359; /home/regis/Hobbies/Electronique/Projets/Pinguino/local/trunk/p8/include/pinguino/core/stdio.c	pc += pprinti(out, va_arg(args, long), 10, 1, width, pad, 'a');
00243e   5006     movf	0x6, 0, 0           	MOVF	r0x06, W
002440   0f04     addlw	0x4                	ADDLW	0x04
002442   6e12     movwf	0x12, 0            	MOVWF	r0x12
002444   0e00     movlw	0                  	MOVLW	0x00
002446   2007     addwfc	0x7, 0, 0         	ADDWFC	r0x07, W
002448   6e13     movwf	0x13, 0            	MOVWF	r0x13
00244a   0e00     movlw	0                  	MOVLW	0x00
00244c   2008     addwfc	0x8, 0, 0         	ADDWFC	r0x08, W
00244e   6e14     movwf	0x14, 0            	MOVWF	r0x14
002450   c012     movff	0x12, 0x6          	MOVFF	r0x12, r0x06
002452   f006
002454   c013     movff	0x13, 0x7          	MOVFF	r0x13, r0x07
002456   f007
002458   c014     movff	0x14, 0x8          	MOVFF	r0x14, r0x08
00245a   f008
00245c   0efc     movlw	0xfc               	MOVLW	0xfc
00245e   2612     addwf	0x12, 0x1, 0       	ADDWF	r0x12, F
002460   0eff     movlw	0xff               	MOVLW	0xff
002462   2213     addwfc	0x13, 0x1, 0      	ADDWFC	r0x13, F
002464   2214     addwfc	0x14, 0x1, 0      	ADDWFC	r0x14, F
002466   c012     movff	0x12, 0xfe9        	MOVFF	r0x12, FSR0L
002468   ffe9
00246a   c013     movff	0x13, 0xff3        	MOVFF	r0x13, PRODL
00246c   fff3
00246e   5014     movf	0x14, 0, 0          	MOVF	r0x14, W
002470   ec2f     call	0x5e, 0             	CALL	__gptrget4
002472   f000
002474   6e12     movwf	0x12, 0            	MOVWF	r0x12
002476   cff3     movff	0xff3, 0x13        	MOVFF	PRODL, r0x13
002478   f013
00247a   cff4     movff	0xff4, 0x14        	MOVFF	PRODH, r0x14
00247c   f014
00247e   cfe9     movff	0xfe9, 0x15        	MOVFF	FSR0L, r0x15
002480   f015
002482   6ae5     clrf	0xe5, 0             	CLRF	POSTDEC1
002484   0e61     movlw	0x61               	MOVLW	0x61
002486   6ee5     movwf	0xe5, 0            	MOVWF	POSTDEC1
002488   500e     movf	0xe, 0, 0           	MOVF	r0x0e, W
00248a   6ee5     movwf	0xe5, 0            	MOVWF	POSTDEC1
00248c   500b     movf	0xb, 0, 0           	MOVF	r0x0b, W
00248e   6ee5     movwf	0xe5, 0            	MOVWF	POSTDEC1
002490   5010     movf	0x10, 0, 0          	MOVF	r0x10, W
002492   6ee5     movwf	0xe5, 0            	MOVWF	POSTDEC1
002494   500f     movf	0xf, 0, 0           	MOVF	r0x0f, W
002496   6ee5     movwf	0xe5, 0            	MOVWF	POSTDEC1
002498   6ae5     clrf	0xe5, 0             	CLRF	POSTDEC1
00249a   0e01     movlw	0x1                	MOVLW	0x01
00249c   6ee5     movwf	0xe5, 0            	MOVWF	POSTDEC1
00249e   6ae5     clrf	0xe5, 0             	CLRF	POSTDEC1
0024a0   0e0a     movlw	0xa                	MOVLW	0x0a
0024a2   6ee5     movwf	0xe5, 0            	MOVWF	POSTDEC1
0024a4   5015     movf	0x15, 0, 0          	MOVF	r0x15, W
0024a6   6ee5     movwf	0xe5, 0            	MOVWF	POSTDEC1
0024a8   5014     movf	0x14, 0, 0          	MOVF	r0x14, W
0024aa   6ee5     movwf	0xe5, 0            	MOVWF	POSTDEC1
0024ac   5013     movf	0x13, 0, 0          	MOVF	r0x13, W
0024ae   6ee5     movwf	0xe5, 0            	MOVWF	POSTDEC1
0024b0   5012     movf	0x12, 0, 0          	MOVF	r0x12, W
0024b2   6ee5     movwf	0xe5, 0            	MOVWF	POSTDEC1
0024b4   5002     movf	0x2, 0, 0           	MOVF	r0x02, W
0024b6   6ee5     movwf	0xe5, 0            	MOVWF	POSTDEC1
0024b8   5001     movf	0x1, 0, 0           	MOVF	r0x01, W
0024ba   6ee5     movwf	0xe5, 0            	MOVWF	POSTDEC1
0024bc   5000     movf	0, 0, 0             	MOVF	r0x00, W
0024be   6ee5     movwf	0xe5, 0            	MOVWF	POSTDEC1
0024c0   ec58     call	0x36b0, 0           	CALL	_pprinti
0024c2   f01b
0024c4   6e12     movwf	0x12, 0            	MOVWF	r0x12
0024c6   cff3     movff	0xff3, 0x13        	MOVFF	PRODL, r0x13
0024c8   f013
0024ca   0e11     movlw	0x11               	MOVLW	0x11
0024cc   26e1     addwf	0xe1, 0x1, 0       	ADDWF	FSR1L, F
0024ce   5012     movf	0x12, 0, 0          	MOVF	r0x12, W
0024d0   2609     addwf	0x9, 0x1, 0        	ADDWF	r0x09, F
0024d2   5013     movf	0x13, 0, 0          	MOVF	r0x13, W
0024d4   220a     addwfc	0xa, 0x1, 0       	ADDWFC	r0x0a, F
0024d6   efcc     goto	0x2b98              	GOTO	_00867_DS_
0024d8   f015
                                           _00831_DS_:
                                           ;	.line	361; /home/regis/Hobbies/Electronique/Projets/Pinguino/local/trunk/p8/include/pinguino/core/stdio.c	pc += pprinti(out, va_arg(args, int), 10, 1, width, pad, 'a');
0024da   5006     movf	0x6, 0, 0           	MOVF	r0x06, W
0024dc   0f02     addlw	0x2                	ADDLW	0x02
0024de   6e12     movwf	0x12, 0            	MOVWF	r0x12
0024e0   0e00     movlw	0                  	MOVLW	0x00
0024e2   2007     addwfc	0x7, 0, 0         	ADDWFC	r0x07, W
0024e4   6e13     movwf	0x13, 0            	MOVWF	r0x13
0024e6   0e00     movlw	0                  	MOVLW	0x00
0024e8   2008     addwfc	0x8, 0, 0         	ADDWFC	r0x08, W
0024ea   6e14     movwf	0x14, 0            	MOVWF	r0x14
0024ec   c012     movff	0x12, 0x6          	MOVFF	r0x12, r0x06
0024ee   f006
0024f0   c013     movff	0x13, 0x7          	MOVFF	r0x13, r0x07
0024f2   f007
0024f4   c014     movff	0x14, 0x8          	MOVFF	r0x14, r0x08
0024f6   f008
0024f8   0efe     movlw	0xfe               	MOVLW	0xfe
0024fa   2612     addwf	0x12, 0x1, 0       	ADDWF	r0x12, F
0024fc   0eff     movlw	0xff               	MOVLW	0xff
0024fe   2213     addwfc	0x13, 0x1, 0      	ADDWFC	r0x13, F
002500   2214     addwfc	0x14, 0x1, 0      	ADDWFC	r0x14, F
002502   c012     movff	0x12, 0xfe9        	MOVFF	r0x12, FSR0L
002504   ffe9
002506   c013     movff	0x13, 0xff3        	MOVFF	r0x13, PRODL
002508   fff3
00250a   5014     movf	0x14, 0, 0          	MOVF	r0x14, W
00250c   ec2b     call	0x56, 0             	CALL	__gptrget2
00250e   f000
002510   6e12     movwf	0x12, 0            	MOVWF	r0x12
002512   cff3     movff	0xff3, 0x13        	MOVFF	PRODL, r0x13
002514   f013
002516   6ae8     clrf	0xe8, 0             	CLRF	WREG
002518   be13     btfsc	0x13, 0x7, 0       	BTFSC	r0x13, 7
00251a   0eff     movlw	0xff               	MOVLW	0xff
00251c   6e14     movwf	0x14, 0            	MOVWF	r0x14
00251e   6e15     movwf	0x15, 0            	MOVWF	r0x15
002520   6ae5     clrf	0xe5, 0             	CLRF	POSTDEC1
002522   0e61     movlw	0x61               	MOVLW	0x61
002524   6ee5     movwf	0xe5, 0            	MOVWF	POSTDEC1
002526   500e     movf	0xe, 0, 0           	MOVF	r0x0e, W
002528   6ee5     movwf	0xe5, 0            	MOVWF	POSTDEC1
00252a   500b     movf	0xb, 0, 0           	MOVF	r0x0b, W
00252c   6ee5     movwf	0xe5, 0            	MOVWF	POSTDEC1
00252e   5010     movf	0x10, 0, 0          	MOVF	r0x10, W
002530   6ee5     movwf	0xe5, 0            	MOVWF	POSTDEC1
002532   500f     movf	0xf, 0, 0           	MOVF	r0x0f, W
002534   6ee5     movwf	0xe5, 0            	MOVWF	POSTDEC1
002536   6ae5     clrf	0xe5, 0             	CLRF	POSTDEC1
002538   0e01     movlw	0x1                	MOVLW	0x01
00253a   6ee5     movwf	0xe5, 0            	MOVWF	POSTDEC1
00253c   6ae5     clrf	0xe5, 0             	CLRF	POSTDEC1
00253e   0e0a     movlw	0xa                	MOVLW	0x0a
002540   6ee5     movwf	0xe5, 0            	MOVWF	POSTDEC1
002542   5015     movf	0x15, 0, 0          	MOVF	r0x15, W
002544   6ee5     movwf	0xe5, 0            	MOVWF	POSTDEC1
002546   5014     movf	0x14, 0, 0          	MOVF	r0x14, W
002548   6ee5     movwf	0xe5, 0            	MOVWF	POSTDEC1
00254a   5013     movf	0x13, 0, 0          	MOVF	r0x13, W
00254c   6ee5     movwf	0xe5, 0            	MOVWF	POSTDEC1
00254e   5012     movf	0x12, 0, 0          	MOVF	r0x12, W
002550   6ee5     movwf	0xe5, 0            	MOVWF	POSTDEC1
002552   5002     movf	0x2, 0, 0           	MOVF	r0x02, W
002554   6ee5     movwf	0xe5, 0            	MOVWF	POSTDEC1
002556   5001     movf	0x1, 0, 0           	MOVF	r0x01, W
002558   6ee5     movwf	0xe5, 0            	MOVWF	POSTDEC1
00255a   5000     movf	0, 0, 0             	MOVF	r0x00, W
00255c   6ee5     movwf	0xe5, 0            	MOVWF	POSTDEC1
00255e   ec58     call	0x36b0, 0           	CALL	_pprinti
002560   f01b
002562   6e12     movwf	0x12, 0            	MOVWF	r0x12
002564   cff3     movff	0xff3, 0x13        	MOVFF	PRODL, r0x13
002566   f013
002568   0e11     movlw	0x11               	MOVLW	0x11
00256a   26e1     addwf	0xe1, 0x1, 0       	ADDWF	FSR1L, F
00256c   5012     movf	0x12, 0, 0          	MOVF	r0x12, W
00256e   2609     addwf	0x9, 0x1, 0        	ADDWF	r0x09, F
002570   5013     movf	0x13, 0, 0          	MOVF	r0x13, W
002572   220a     addwfc	0xa, 0x1, 0       	ADDWFC	r0x0a, F
                                           ;	.line	362; /home/regis/Hobbies/Electronique/Projets/Pinguino/local/trunk/p8/include/pinguino/core/stdio.c	continue;
002574   efcc     goto	0x2b98              	GOTO	_00867_DS_
002576   f015
                                           _00834_DS_:
                                           ;	.line	364; /home/regis/Hobbies/Electronique/Projets/Pinguino/local/trunk/p8/include/pinguino/core/stdio.c	if (*format == 'x' || *format == 'p')	// lower hexa or pointer
002578   5011     movf	0x11, 0, 0          	MOVF	r0x11, W
00257a   0a78     xorlw	0x78               	XORLW	0x78
00257c   e004     bz	0x2586                	BZ	_00838_DS_
00257e   5011     movf	0x11, 0, 0          	MOVF	r0x11, W
002580   0a70     xorlw	0x70               	XORLW	0x70
002582   e001     bz	0x2586                	BZ	_00838_DS_
002584   d098     bra	0x26b6               	BRA	_00839_DS_
                                           _00838_DS_:
                                           ;	.line	366; /home/regis/Hobbies/Electronique/Projets/Pinguino/local/trunk/p8/include/pinguino/core/stdio.c	if (lng)
002586   500c     movf	0xc, 0, 0           	MOVF	r0x0c, W
002588   100d     iorwf	0xd, 0, 0          	IORWF	r0x0d, W
00258a   b4d8     btfsc	0xd8, 0x2, 0       	BTFSC	STATUS, 2
00258c   d04d     bra	0x2628               	BRA	_00836_DS_
                                           ;	.line	367; /home/regis/Hobbies/Electronique/Projets/Pinguino/local/trunk/p8/include/pinguino/core/stdio.c	pc += pprinti(out, va_arg(args, unsigned long), 16, 0, width, pad, 'a');
00258e   5006     movf	0x6, 0, 0           	MOVF	r0x06, W
002590   0f04     addlw	0x4                	ADDLW	0x04
002592   6e12     movwf	0x12, 0            	MOVWF	r0x12
002594   0e00     movlw	0                  	MOVLW	0x00
002596   2007     addwfc	0x7, 0, 0         	ADDWFC	r0x07, W
002598   6e13     movwf	0x13, 0            	MOVWF	r0x13
00259a   0e00     movlw	0                  	MOVLW	0x00
00259c   2008     addwfc	0x8, 0, 0         	ADDWFC	r0x08, W
00259e   6e14     movwf	0x14, 0            	MOVWF	r0x14
0025a0   c012     movff	0x12, 0x6          	MOVFF	r0x12, r0x06
0025a2   f006
0025a4   c013     movff	0x13, 0x7          	MOVFF	r0x13, r0x07
0025a6   f007
0025a8   c014     movff	0x14, 0x8          	MOVFF	r0x14, r0x08
0025aa   f008
0025ac   0efc     movlw	0xfc               	MOVLW	0xfc
0025ae   2612     addwf	0x12, 0x1, 0       	ADDWF	r0x12, F
0025b0   0eff     movlw	0xff               	MOVLW	0xff
0025b2   2213     addwfc	0x13, 0x1, 0      	ADDWFC	r0x13, F
0025b4   2214     addwfc	0x14, 0x1, 0      	ADDWFC	r0x14, F
0025b6   c012     movff	0x12, 0xfe9        	MOVFF	r0x12, FSR0L
0025b8   ffe9
0025ba   c013     movff	0x13, 0xff3        	MOVFF	r0x13, PRODL
0025bc   fff3
0025be   5014     movf	0x14, 0, 0          	MOVF	r0x14, W
0025c0   ec2f     call	0x5e, 0             	CALL	__gptrget4
0025c2   f000
0025c4   6e12     movwf	0x12, 0            	MOVWF	r0x12
0025c6   cff3     movff	0xff3, 0x13        	MOVFF	PRODL, r0x13
0025c8   f013
0025ca   cff4     movff	0xff4, 0x14        	MOVFF	PRODH, r0x14
0025cc   f014
0025ce   cfe9     movff	0xfe9, 0x15        	MOVFF	FSR0L, r0x15
0025d0   f015
0025d2   6ae5     clrf	0xe5, 0             	CLRF	POSTDEC1
0025d4   0e61     movlw	0x61               	MOVLW	0x61
0025d6   6ee5     movwf	0xe5, 0            	MOVWF	POSTDEC1
0025d8   500e     movf	0xe, 0, 0           	MOVF	r0x0e, W
0025da   6ee5     movwf	0xe5, 0            	MOVWF	POSTDEC1
0025dc   500b     movf	0xb, 0, 0           	MOVF	r0x0b, W
0025de   6ee5     movwf	0xe5, 0            	MOVWF	POSTDEC1
0025e0   5010     movf	0x10, 0, 0          	MOVF	r0x10, W
0025e2   6ee5     movwf	0xe5, 0            	MOVWF	POSTDEC1
0025e4   500f     movf	0xf, 0, 0           	MOVF	r0x0f, W
0025e6   6ee5     movwf	0xe5, 0            	MOVWF	POSTDEC1
0025e8   6ae5     clrf	0xe5, 0             	CLRF	POSTDEC1
0025ea   6ae5     clrf	0xe5, 0             	CLRF	POSTDEC1
0025ec   6ae5     clrf	0xe5, 0             	CLRF	POSTDEC1
0025ee   0e10     movlw	0x10               	MOVLW	0x10
0025f0   6ee5     movwf	0xe5, 0            	MOVWF	POSTDEC1
0025f2   5015     movf	0x15, 0, 0          	MOVF	r0x15, W
0025f4   6ee5     movwf	0xe5, 0            	MOVWF	POSTDEC1
0025f6   5014     movf	0x14, 0, 0          	MOVF	r0x14, W
0025f8   6ee5     movwf	0xe5, 0            	MOVWF	POSTDEC1
0025fa   5013     movf	0x13, 0, 0          	MOVF	r0x13, W
0025fc   6ee5     movwf	0xe5, 0            	MOVWF	POSTDEC1
0025fe   5012     movf	0x12, 0, 0          	MOVF	r0x12, W
002600   6ee5     movwf	0xe5, 0            	MOVWF	POSTDEC1
002602   5002     movf	0x2, 0, 0           	MOVF	r0x02, W
002604   6ee5     movwf	0xe5, 0            	MOVWF	POSTDEC1
002606   5001     movf	0x1, 0, 0           	MOVF	r0x01, W
002608   6ee5     movwf	0xe5, 0            	MOVWF	POSTDEC1
00260a   5000     movf	0, 0, 0             	MOVF	r0x00, W
00260c   6ee5     movwf	0xe5, 0            	MOVWF	POSTDEC1
00260e   ec58     call	0x36b0, 0           	CALL	_pprinti
002610   f01b
002612   6e12     movwf	0x12, 0            	MOVWF	r0x12
002614   cff3     movff	0xff3, 0x13        	MOVFF	PRODL, r0x13
002616   f013
002618   0e11     movlw	0x11               	MOVLW	0x11
00261a   26e1     addwf	0xe1, 0x1, 0       	ADDWF	FSR1L, F
00261c   5012     movf	0x12, 0, 0          	MOVF	r0x12, W
00261e   2609     addwf	0x9, 0x1, 0        	ADDWF	r0x09, F
002620   5013     movf	0x13, 0, 0          	MOVF	r0x13, W
002622   220a     addwfc	0xa, 0x1, 0       	ADDWFC	r0x0a, F
002624   efcc     goto	0x2b98              	GOTO	_00867_DS_
002626   f015
                                           _00836_DS_:
                                           ;	.line	369; /home/regis/Hobbies/Electronique/Projets/Pinguino/local/trunk/p8/include/pinguino/core/stdio.c	pc += pprinti(out, va_arg(args, unsigned int), 16, 0, width, pad, 'a');
002628   5006     movf	0x6, 0, 0           	MOVF	r0x06, W
00262a   0f02     addlw	0x2                	ADDLW	0x02
00262c   6e12     movwf	0x12, 0            	MOVWF	r0x12
00262e   0e00     movlw	0                  	MOVLW	0x00
002630   2007     addwfc	0x7, 0, 0         	ADDWFC	r0x07, W
002632   6e13     movwf	0x13, 0            	MOVWF	r0x13
002634   0e00     movlw	0                  	MOVLW	0x00
002636   2008     addwfc	0x8, 0, 0         	ADDWFC	r0x08, W
002638   6e14     movwf	0x14, 0            	MOVWF	r0x14
00263a   c012     movff	0x12, 0x6          	MOVFF	r0x12, r0x06
00263c   f006
00263e   c013     movff	0x13, 0x7          	MOVFF	r0x13, r0x07
002640   f007
002642   c014     movff	0x14, 0x8          	MOVFF	r0x14, r0x08
002644   f008
002646   0efe     movlw	0xfe               	MOVLW	0xfe
002648   2612     addwf	0x12, 0x1, 0       	ADDWF	r0x12, F
00264a   0eff     movlw	0xff               	MOVLW	0xff
00264c   2213     addwfc	0x13, 0x1, 0      	ADDWFC	r0x13, F
00264e   2214     addwfc	0x14, 0x1, 0      	ADDWFC	r0x14, F
002650   c012     movff	0x12, 0xfe9        	MOVFF	r0x12, FSR0L
002652   ffe9
002654   c013     movff	0x13, 0xff3        	MOVFF	r0x13, PRODL
002656   fff3
002658   5014     movf	0x14, 0, 0          	MOVF	r0x14, W
00265a   ec2b     call	0x56, 0             	CALL	__gptrget2
00265c   f000
00265e   6e12     movwf	0x12, 0            	MOVWF	r0x12
002660   cff3     movff	0xff3, 0x13        	MOVFF	PRODL, r0x13
002662   f013
002664   6ae5     clrf	0xe5, 0             	CLRF	POSTDEC1
002666   0e61     movlw	0x61               	MOVLW	0x61
002668   6ee5     movwf	0xe5, 0            	MOVWF	POSTDEC1
00266a   500e     movf	0xe, 0, 0           	MOVF	r0x0e, W
00266c   6ee5     movwf	0xe5, 0            	MOVWF	POSTDEC1
00266e   500b     movf	0xb, 0, 0           	MOVF	r0x0b, W
002670   6ee5     movwf	0xe5, 0            	MOVWF	POSTDEC1
002672   5010     movf	0x10, 0, 0          	MOVF	r0x10, W
002674   6ee5     movwf	0xe5, 0            	MOVWF	POSTDEC1
002676   500f     movf	0xf, 0, 0           	MOVF	r0x0f, W
002678   6ee5     movwf	0xe5, 0            	MOVWF	POSTDEC1
00267a   6ae5     clrf	0xe5, 0             	CLRF	POSTDEC1
00267c   6ae5     clrf	0xe5, 0             	CLRF	POSTDEC1
00267e   6ae5     clrf	0xe5, 0             	CLRF	POSTDEC1
002680   0e10     movlw	0x10               	MOVLW	0x10
002682   6ee5     movwf	0xe5, 0            	MOVWF	POSTDEC1
002684   6ae5     clrf	0xe5, 0             	CLRF	POSTDEC1
002686   6ae5     clrf	0xe5, 0             	CLRF	POSTDEC1
002688   5013     movf	0x13, 0, 0          	MOVF	r0x13, W
00268a   6ee5     movwf	0xe5, 0            	MOVWF	POSTDEC1
00268c   5012     movf	0x12, 0, 0          	MOVF	r0x12, W
00268e   6ee5     movwf	0xe5, 0            	MOVWF	POSTDEC1
002690   5002     movf	0x2, 0, 0           	MOVF	r0x02, W
002692   6ee5     movwf	0xe5, 0            	MOVWF	POSTDEC1
002694   5001     movf	0x1, 0, 0           	MOVF	r0x01, W
002696   6ee5     movwf	0xe5, 0            	MOVWF	POSTDEC1
002698   5000     movf	0, 0, 0             	MOVF	r0x00, W
00269a   6ee5     movwf	0xe5, 0            	MOVWF	POSTDEC1
00269c   ec58     call	0x36b0, 0           	CALL	_pprinti
00269e   f01b
0026a0   6e12     movwf	0x12, 0            	MOVWF	r0x12
0026a2   cff3     movff	0xff3, 0x13        	MOVFF	PRODL, r0x13
0026a4   f013
0026a6   0e11     movlw	0x11               	MOVLW	0x11
0026a8   26e1     addwf	0xe1, 0x1, 0       	ADDWF	FSR1L, F
0026aa   5012     movf	0x12, 0, 0          	MOVF	r0x12, W
0026ac   2609     addwf	0x9, 0x1, 0        	ADDWF	r0x09, F
0026ae   5013     movf	0x13, 0, 0          	MOVF	r0x13, W
0026b0   220a     addwfc	0xa, 0x1, 0       	ADDWFC	r0x0a, F
                                           ;	.line	370; /home/regis/Hobbies/Electronique/Projets/Pinguino/local/trunk/p8/include/pinguino/core/stdio.c	continue;
0026b2   efcc     goto	0x2b98              	GOTO	_00867_DS_
0026b4   f015
                                           _00839_DS_:
                                           ;	.line	372; /home/regis/Hobbies/Electronique/Projets/Pinguino/local/trunk/p8/include/pinguino/core/stdio.c	if (*format == 'X' || *format == 'P')	// upper hexa or pointer
0026b6   5011     movf	0x11, 0, 0          	MOVF	r0x11, W
0026b8   0a58     xorlw	0x58               	XORLW	0x58
0026ba   e004     bz	0x26c4                	BZ	_00844_DS_
0026bc   5011     movf	0x11, 0, 0          	MOVF	r0x11, W
0026be   0a50     xorlw	0x50               	XORLW	0x50
0026c0   e001     bz	0x26c4                	BZ	_00844_DS_
0026c2   d097     bra	0x27f2               	BRA	_00845_DS_
                                           _00844_DS_:
                                           ;	.line	374; /home/regis/Hobbies/Electronique/Projets/Pinguino/local/trunk/p8/include/pinguino/core/stdio.c	if (lng)
0026c4   500c     movf	0xc, 0, 0           	MOVF	r0x0c, W
0026c6   100d     iorwf	0xd, 0, 0          	IORWF	r0x0d, W
0026c8   b4d8     btfsc	0xd8, 0x2, 0       	BTFSC	STATUS, 2
0026ca   d04d     bra	0x2766               	BRA	_00842_DS_
                                           ;	.line	375; /home/regis/Hobbies/Electronique/Projets/Pinguino/local/trunk/p8/include/pinguino/core/stdio.c	pc += pprinti(out, va_arg(args, unsigned long), 16, 0, width, pad, 'A');
0026cc   5006     movf	0x6, 0, 0           	MOVF	r0x06, W
0026ce   0f04     addlw	0x4                	ADDLW	0x04
0026d0   6e12     movwf	0x12, 0            	MOVWF	r0x12
0026d2   0e00     movlw	0                  	MOVLW	0x00
0026d4   2007     addwfc	0x7, 0, 0         	ADDWFC	r0x07, W
0026d6   6e13     movwf	0x13, 0            	MOVWF	r0x13
0026d8   0e00     movlw	0                  	MOVLW	0x00
0026da   2008     addwfc	0x8, 0, 0         	ADDWFC	r0x08, W
0026dc   6e14     movwf	0x14, 0            	MOVWF	r0x14
0026de   c012     movff	0x12, 0x6          	MOVFF	r0x12, r0x06
0026e0   f006
0026e2   c013     movff	0x13, 0x7          	MOVFF	r0x13, r0x07
0026e4   f007
0026e6   c014     movff	0x14, 0x8          	MOVFF	r0x14, r0x08
0026e8   f008
0026ea   0efc     movlw	0xfc               	MOVLW	0xfc
0026ec   2612     addwf	0x12, 0x1, 0       	ADDWF	r0x12, F
0026ee   0eff     movlw	0xff               	MOVLW	0xff
0026f0   2213     addwfc	0x13, 0x1, 0      	ADDWFC	r0x13, F
0026f2   2214     addwfc	0x14, 0x1, 0      	ADDWFC	r0x14, F
0026f4   c012     movff	0x12, 0xfe9        	MOVFF	r0x12, FSR0L
0026f6   ffe9
0026f8   c013     movff	0x13, 0xff3        	MOVFF	r0x13, PRODL
0026fa   fff3
0026fc   5014     movf	0x14, 0, 0          	MOVF	r0x14, W
0026fe   ec2f     call	0x5e, 0             	CALL	__gptrget4
002700   f000
002702   6e12     movwf	0x12, 0            	MOVWF	r0x12
002704   cff3     movff	0xff3, 0x13        	MOVFF	PRODL, r0x13
002706   f013
002708   cff4     movff	0xff4, 0x14        	MOVFF	PRODH, r0x14
00270a   f014
00270c   cfe9     movff	0xfe9, 0x15        	MOVFF	FSR0L, r0x15
00270e   f015
002710   6ae5     clrf	0xe5, 0             	CLRF	POSTDEC1
002712   0e41     movlw	0x41               	MOVLW	0x41
002714   6ee5     movwf	0xe5, 0            	MOVWF	POSTDEC1
002716   500e     movf	0xe, 0, 0           	MOVF	r0x0e, W
002718   6ee5     movwf	0xe5, 0            	MOVWF	POSTDEC1
00271a   500b     movf	0xb, 0, 0           	MOVF	r0x0b, W
00271c   6ee5     movwf	0xe5, 0            	MOVWF	POSTDEC1
00271e   5010     movf	0x10, 0, 0          	MOVF	r0x10, W
002720   6ee5     movwf	0xe5, 0            	MOVWF	POSTDEC1
002722   500f     movf	0xf, 0, 0           	MOVF	r0x0f, W
002724   6ee5     movwf	0xe5, 0            	MOVWF	POSTDEC1
002726   6ae5     clrf	0xe5, 0             	CLRF	POSTDEC1
002728   6ae5     clrf	0xe5, 0             	CLRF	POSTDEC1
00272a   6ae5     clrf	0xe5, 0             	CLRF	POSTDEC1
00272c   0e10     movlw	0x10               	MOVLW	0x10
00272e   6ee5     movwf	0xe5, 0            	MOVWF	POSTDEC1
002730   5015     movf	0x15, 0, 0          	MOVF	r0x15, W
002732   6ee5     movwf	0xe5, 0            	MOVWF	POSTDEC1
002734   5014     movf	0x14, 0, 0          	MOVF	r0x14, W
002736   6ee5     movwf	0xe5, 0            	MOVWF	POSTDEC1
002738   5013     movf	0x13, 0, 0          	MOVF	r0x13, W
00273a   6ee5     movwf	0xe5, 0            	MOVWF	POSTDEC1
00273c   5012     movf	0x12, 0, 0          	MOVF	r0x12, W
00273e   6ee5     movwf	0xe5, 0            	MOVWF	POSTDEC1
002740   5002     movf	0x2, 0, 0           	MOVF	r0x02, W
002742   6ee5     movwf	0xe5, 0            	MOVWF	POSTDEC1
002744   5001     movf	0x1, 0, 0           	MOVF	r0x01, W
002746   6ee5     movwf	0xe5, 0            	MOVWF	POSTDEC1
002748   5000     movf	0, 0, 0             	MOVF	r0x00, W
00274a   6ee5     movwf	0xe5, 0            	MOVWF	POSTDEC1
00274c   ec58     call	0x36b0, 0           	CALL	_pprinti
00274e   f01b
002750   6e12     movwf	0x12, 0            	MOVWF	r0x12
002752   cff3     movff	0xff3, 0x13        	MOVFF	PRODL, r0x13
002754   f013
002756   0e11     movlw	0x11               	MOVLW	0x11
002758   26e1     addwf	0xe1, 0x1, 0       	ADDWF	FSR1L, F
00275a   5012     movf	0x12, 0, 0          	MOVF	r0x12, W
00275c   2609     addwf	0x9, 0x1, 0        	ADDWF	r0x09, F
00275e   5013     movf	0x13, 0, 0          	MOVF	r0x13, W
002760   220a     addwfc	0xa, 0x1, 0       	ADDWFC	r0x0a, F
002762   efcc     goto	0x2b98              	GOTO	_00867_DS_
002764   f015
                                           _00842_DS_:
                                           ;	.line	377; /home/regis/Hobbies/Electronique/Projets/Pinguino/local/trunk/p8/include/pinguino/core/stdio.c	pc += pprinti(out, va_arg(args, unsigned int), 16, 0, width, pad, 'A');
002766   5006     movf	0x6, 0, 0           	MOVF	r0x06, W
002768   0f02     addlw	0x2                	ADDLW	0x02
00276a   6e12     movwf	0x12, 0            	MOVWF	r0x12
00276c   0e00     movlw	0                  	MOVLW	0x00
00276e   2007     addwfc	0x7, 0, 0         	ADDWFC	r0x07, W
002770   6e13     movwf	0x13, 0            	MOVWF	r0x13
002772   0e00     movlw	0                  	MOVLW	0x00
002774   2008     addwfc	0x8, 0, 0         	ADDWFC	r0x08, W
002776   6e14     movwf	0x14, 0            	MOVWF	r0x14
002778   c012     movff	0x12, 0x6          	MOVFF	r0x12, r0x06
00277a   f006
00277c   c013     movff	0x13, 0x7          	MOVFF	r0x13, r0x07
00277e   f007
002780   c014     movff	0x14, 0x8          	MOVFF	r0x14, r0x08
002782   f008
002784   0efe     movlw	0xfe               	MOVLW	0xfe
002786   2612     addwf	0x12, 0x1, 0       	ADDWF	r0x12, F
002788   0eff     movlw	0xff               	MOVLW	0xff
00278a   2213     addwfc	0x13, 0x1, 0      	ADDWFC	r0x13, F
00278c   2214     addwfc	0x14, 0x1, 0      	ADDWFC	r0x14, F
00278e   c012     movff	0x12, 0xfe9        	MOVFF	r0x12, FSR0L
002790   ffe9
002792   c013     movff	0x13, 0xff3        	MOVFF	r0x13, PRODL
002794   fff3
002796   5014     movf	0x14, 0, 0          	MOVF	r0x14, W
002798   ec2b     call	0x56, 0             	CALL	__gptrget2
00279a   f000
00279c   6e12     movwf	0x12, 0            	MOVWF	r0x12
00279e   cff3     movff	0xff3, 0x13        	MOVFF	PRODL, r0x13
0027a0   f013
0027a2   6ae5     clrf	0xe5, 0             	CLRF	POSTDEC1
0027a4   0e41     movlw	0x41               	MOVLW	0x41
0027a6   6ee5     movwf	0xe5, 0            	MOVWF	POSTDEC1
0027a8   500e     movf	0xe, 0, 0           	MOVF	r0x0e, W
0027aa   6ee5     movwf	0xe5, 0            	MOVWF	POSTDEC1
0027ac   500b     movf	0xb, 0, 0           	MOVF	r0x0b, W
0027ae   6ee5     movwf	0xe5, 0            	MOVWF	POSTDEC1
0027b0   5010     movf	0x10, 0, 0          	MOVF	r0x10, W
0027b2   6ee5     movwf	0xe5, 0            	MOVWF	POSTDEC1
0027b4   500f     movf	0xf, 0, 0           	MOVF	r0x0f, W
0027b6   6ee5     movwf	0xe5, 0            	MOVWF	POSTDEC1
0027b8   6ae5     clrf	0xe5, 0             	CLRF	POSTDEC1
0027ba   6ae5     clrf	0xe5, 0             	CLRF	POSTDEC1
0027bc   6ae5     clrf	0xe5, 0             	CLRF	POSTDEC1
0027be   0e10     movlw	0x10               	MOVLW	0x10
0027c0   6ee5     movwf	0xe5, 0            	MOVWF	POSTDEC1
0027c2   6ae5     clrf	0xe5, 0             	CLRF	POSTDEC1
0027c4   6ae5     clrf	0xe5, 0             	CLRF	POSTDEC1
0027c6   5013     movf	0x13, 0, 0          	MOVF	r0x13, W
0027c8   6ee5     movwf	0xe5, 0            	MOVWF	POSTDEC1
0027ca   5012     movf	0x12, 0, 0          	MOVF	r0x12, W
0027cc   6ee5     movwf	0xe5, 0            	MOVWF	POSTDEC1
0027ce   5002     movf	0x2, 0, 0           	MOVF	r0x02, W
0027d0   6ee5     movwf	0xe5, 0            	MOVWF	POSTDEC1
0027d2   5001     movf	0x1, 0, 0           	MOVF	r0x01, W
0027d4   6ee5     movwf	0xe5, 0            	MOVWF	POSTDEC1
0027d6   5000     movf	0, 0, 0             	MOVF	r0x00, W
0027d8   6ee5     movwf	0xe5, 0            	MOVWF	POSTDEC1
0027da   ec58     call	0x36b0, 0           	CALL	_pprinti
0027dc   f01b
0027de   6e12     movwf	0x12, 0            	MOVWF	r0x12
0027e0   cff3     movff	0xff3, 0x13        	MOVFF	PRODL, r0x13
0027e2   f013
0027e4   0e11     movlw	0x11               	MOVLW	0x11
0027e6   26e1     addwf	0xe1, 0x1, 0       	ADDWF	FSR1L, F
0027e8   5012     movf	0x12, 0, 0          	MOVF	r0x12, W
0027ea   2609     addwf	0x9, 0x1, 0        	ADDWF	r0x09, F
0027ec   5013     movf	0x13, 0, 0          	MOVF	r0x13, W
0027ee   220a     addwfc	0xa, 0x1, 0       	ADDWFC	r0x0a, F
                                           ;	.line	378; /home/regis/Hobbies/Electronique/Projets/Pinguino/local/trunk/p8/include/pinguino/core/stdio.c	continue;
0027f0   d1d3     bra	0x2b98               	BRA	_00867_DS_
                                           _00845_DS_:
                                           ;	.line	380; /home/regis/Hobbies/Electronique/Projets/Pinguino/local/trunk/p8/include/pinguino/core/stdio.c	if (*format == 'b')		// binary
0027f2   5011     movf	0x11, 0, 0          	MOVF	r0x11, W
0027f4   0a62     xorlw	0x62               	XORLW	0x62
0027f6   e001     bz	0x27fa                	BZ	_00939_DS_
0027f8   d096     bra	0x2926               	BRA	_00851_DS_
                                           _00939_DS_:
                                           ;	.line	382; /home/regis/Hobbies/Electronique/Projets/Pinguino/local/trunk/p8/include/pinguino/core/stdio.c	if (lng)
0027fa   500c     movf	0xc, 0, 0           	MOVF	r0x0c, W
0027fc   100d     iorwf	0xd, 0, 0          	IORWF	r0x0d, W
0027fe   b4d8     btfsc	0xd8, 0x2, 0       	BTFSC	STATUS, 2
002800   d04c     bra	0x289a               	BRA	_00848_DS_
                                           ;	.line	383; /home/regis/Hobbies/Electronique/Projets/Pinguino/local/trunk/p8/include/pinguino/core/stdio.c	pc += pprinti(out, va_arg(args, unsigned long), 2, 0, width, pad, 'a');
002802   5006     movf	0x6, 0, 0           	MOVF	r0x06, W
002804   0f04     addlw	0x4                	ADDLW	0x04
002806   6e12     movwf	0x12, 0            	MOVWF	r0x12
002808   0e00     movlw	0                  	MOVLW	0x00
00280a   2007     addwfc	0x7, 0, 0         	ADDWFC	r0x07, W
00280c   6e13     movwf	0x13, 0            	MOVWF	r0x13
00280e   0e00     movlw	0                  	MOVLW	0x00
002810   2008     addwfc	0x8, 0, 0         	ADDWFC	r0x08, W
002812   6e14     movwf	0x14, 0            	MOVWF	r0x14
002814   c012     movff	0x12, 0x6          	MOVFF	r0x12, r0x06
002816   f006
002818   c013     movff	0x13, 0x7          	MOVFF	r0x13, r0x07
00281a   f007
00281c   c014     movff	0x14, 0x8          	MOVFF	r0x14, r0x08
00281e   f008
002820   0efc     movlw	0xfc               	MOVLW	0xfc
002822   2612     addwf	0x12, 0x1, 0       	ADDWF	r0x12, F
002824   0eff     movlw	0xff               	MOVLW	0xff
002826   2213     addwfc	0x13, 0x1, 0      	ADDWFC	r0x13, F
002828   2214     addwfc	0x14, 0x1, 0      	ADDWFC	r0x14, F
00282a   c012     movff	0x12, 0xfe9        	MOVFF	r0x12, FSR0L
00282c   ffe9
00282e   c013     movff	0x13, 0xff3        	MOVFF	r0x13, PRODL
002830   fff3
002832   5014     movf	0x14, 0, 0          	MOVF	r0x14, W
002834   ec2f     call	0x5e, 0             	CALL	__gptrget4
002836   f000
002838   6e12     movwf	0x12, 0            	MOVWF	r0x12
00283a   cff3     movff	0xff3, 0x13        	MOVFF	PRODL, r0x13
00283c   f013
00283e   cff4     movff	0xff4, 0x14        	MOVFF	PRODH, r0x14
002840   f014
002842   cfe9     movff	0xfe9, 0x15        	MOVFF	FSR0L, r0x15
002844   f015
002846   6ae5     clrf	0xe5, 0             	CLRF	POSTDEC1
002848   0e61     movlw	0x61               	MOVLW	0x61
00284a   6ee5     movwf	0xe5, 0            	MOVWF	POSTDEC1
00284c   500e     movf	0xe, 0, 0           	MOVF	r0x0e, W
00284e   6ee5     movwf	0xe5, 0            	MOVWF	POSTDEC1
002850   500b     movf	0xb, 0, 0           	MOVF	r0x0b, W
002852   6ee5     movwf	0xe5, 0            	MOVWF	POSTDEC1
002854   5010     movf	0x10, 0, 0          	MOVF	r0x10, W
002856   6ee5     movwf	0xe5, 0            	MOVWF	POSTDEC1
002858   500f     movf	0xf, 0, 0           	MOVF	r0x0f, W
00285a   6ee5     movwf	0xe5, 0            	MOVWF	POSTDEC1
00285c   6ae5     clrf	0xe5, 0             	CLRF	POSTDEC1
00285e   6ae5     clrf	0xe5, 0             	CLRF	POSTDEC1
002860   6ae5     clrf	0xe5, 0             	CLRF	POSTDEC1
002862   0e02     movlw	0x2                	MOVLW	0x02
002864   6ee5     movwf	0xe5, 0            	MOVWF	POSTDEC1
002866   5015     movf	0x15, 0, 0          	MOVF	r0x15, W
002868   6ee5     movwf	0xe5, 0            	MOVWF	POSTDEC1
00286a   5014     movf	0x14, 0, 0          	MOVF	r0x14, W
00286c   6ee5     movwf	0xe5, 0            	MOVWF	POSTDEC1
00286e   5013     movf	0x13, 0, 0          	MOVF	r0x13, W
002870   6ee5     movwf	0xe5, 0            	MOVWF	POSTDEC1
002872   5012     movf	0x12, 0, 0          	MOVF	r0x12, W
002874   6ee5     movwf	0xe5, 0            	MOVWF	POSTDEC1
002876   5002     movf	0x2, 0, 0           	MOVF	r0x02, W
002878   6ee5     movwf	0xe5, 0            	MOVWF	POSTDEC1
00287a   5001     movf	0x1, 0, 0           	MOVF	r0x01, W
00287c   6ee5     movwf	0xe5, 0            	MOVWF	POSTDEC1
00287e   5000     movf	0, 0, 0             	MOVF	r0x00, W
002880   6ee5     movwf	0xe5, 0            	MOVWF	POSTDEC1
002882   ec58     call	0x36b0, 0           	CALL	_pprinti
002884   f01b
002886   6e12     movwf	0x12, 0            	MOVWF	r0x12
002888   cff3     movff	0xff3, 0x13        	MOVFF	PRODL, r0x13
00288a   f013
00288c   0e11     movlw	0x11               	MOVLW	0x11
00288e   26e1     addwf	0xe1, 0x1, 0       	ADDWF	FSR1L, F
002890   5012     movf	0x12, 0, 0          	MOVF	r0x12, W
002892   2609     addwf	0x9, 0x1, 0        	ADDWF	r0x09, F
002894   5013     movf	0x13, 0, 0          	MOVF	r0x13, W
002896   220a     addwfc	0xa, 0x1, 0       	ADDWFC	r0x0a, F
002898   d17f     bra	0x2b98               	BRA	_00867_DS_
                                           _00848_DS_:
                                           ;	.line	385; /home/regis/Hobbies/Electronique/Projets/Pinguino/local/trunk/p8/include/pinguino/core/stdio.c	pc += pprinti(out, va_arg(args, unsigned int), 2, 0, width, pad, 'a');
00289a   5006     movf	0x6, 0, 0           	MOVF	r0x06, W
00289c   0f02     addlw	0x2                	ADDLW	0x02
00289e   6e12     movwf	0x12, 0            	MOVWF	r0x12
0028a0   0e00     movlw	0                  	MOVLW	0x00
0028a2   2007     addwfc	0x7, 0, 0         	ADDWFC	r0x07, W
0028a4   6e13     movwf	0x13, 0            	MOVWF	r0x13
0028a6   0e00     movlw	0                  	MOVLW	0x00
0028a8   2008     addwfc	0x8, 0, 0         	ADDWFC	r0x08, W
0028aa   6e14     movwf	0x14, 0            	MOVWF	r0x14
0028ac   c012     movff	0x12, 0x6          	MOVFF	r0x12, r0x06
0028ae   f006
0028b0   c013     movff	0x13, 0x7          	MOVFF	r0x13, r0x07
0028b2   f007
0028b4   c014     movff	0x14, 0x8          	MOVFF	r0x14, r0x08
0028b6   f008
0028b8   0efe     movlw	0xfe               	MOVLW	0xfe
0028ba   2612     addwf	0x12, 0x1, 0       	ADDWF	r0x12, F
0028bc   0eff     movlw	0xff               	MOVLW	0xff
0028be   2213     addwfc	0x13, 0x1, 0      	ADDWFC	r0x13, F
0028c0   2214     addwfc	0x14, 0x1, 0      	ADDWFC	r0x14, F
0028c2   c012     movff	0x12, 0xfe9        	MOVFF	r0x12, FSR0L
0028c4   ffe9
0028c6   c013     movff	0x13, 0xff3        	MOVFF	r0x13, PRODL
0028c8   fff3
0028ca   5014     movf	0x14, 0, 0          	MOVF	r0x14, W
0028cc   ec2b     call	0x56, 0             	CALL	__gptrget2
0028ce   f000
0028d0   6e12     movwf	0x12, 0            	MOVWF	r0x12
0028d2   cff3     movff	0xff3, 0x13        	MOVFF	PRODL, r0x13
0028d4   f013
0028d6   6ae5     clrf	0xe5, 0             	CLRF	POSTDEC1
0028d8   0e61     movlw	0x61               	MOVLW	0x61
0028da   6ee5     movwf	0xe5, 0            	MOVWF	POSTDEC1
0028dc   500e     movf	0xe, 0, 0           	MOVF	r0x0e, W
0028de   6ee5     movwf	0xe5, 0            	MOVWF	POSTDEC1
0028e0   500b     movf	0xb, 0, 0           	MOVF	r0x0b, W
0028e2   6ee5     movwf	0xe5, 0            	MOVWF	POSTDEC1
0028e4   5010     movf	0x10, 0, 0          	MOVF	r0x10, W
0028e6   6ee5     movwf	0xe5, 0            	MOVWF	POSTDEC1
0028e8   500f     movf	0xf, 0, 0           	MOVF	r0x0f, W
0028ea   6ee5     movwf	0xe5, 0            	MOVWF	POSTDEC1
0028ec   6ae5     clrf	0xe5, 0             	CLRF	POSTDEC1
0028ee   6ae5     clrf	0xe5, 0             	CLRF	POSTDEC1
0028f0   6ae5     clrf	0xe5, 0             	CLRF	POSTDEC1
0028f2   0e02     movlw	0x2                	MOVLW	0x02
0028f4   6ee5     movwf	0xe5, 0            	MOVWF	POSTDEC1
0028f6   6ae5     clrf	0xe5, 0             	CLRF	POSTDEC1
0028f8   6ae5     clrf	0xe5, 0             	CLRF	POSTDEC1
0028fa   5013     movf	0x13, 0, 0          	MOVF	r0x13, W
0028fc   6ee5     movwf	0xe5, 0            	MOVWF	POSTDEC1
0028fe   5012     movf	0x12, 0, 0          	MOVF	r0x12, W
002900   6ee5     movwf	0xe5, 0            	MOVWF	POSTDEC1
002902   5002     movf	0x2, 0, 0           	MOVF	r0x02, W
002904   6ee5     movwf	0xe5, 0            	MOVWF	POSTDEC1
002906   5001     movf	0x1, 0, 0           	MOVF	r0x01, W
002908   6ee5     movwf	0xe5, 0            	MOVWF	POSTDEC1
00290a   5000     movf	0, 0, 0             	MOVF	r0x00, W
00290c   6ee5     movwf	0xe5, 0            	MOVWF	POSTDEC1
00290e   ec58     call	0x36b0, 0           	CALL	_pprinti
002910   f01b
002912   6e12     movwf	0x12, 0            	MOVWF	r0x12
002914   cff3     movff	0xff3, 0x13        	MOVFF	PRODL, r0x13
002916   f013
002918   0e11     movlw	0x11               	MOVLW	0x11
00291a   26e1     addwf	0xe1, 0x1, 0       	ADDWF	FSR1L, F
00291c   5012     movf	0x12, 0, 0          	MOVF	r0x12, W
00291e   2609     addwf	0x9, 0x1, 0        	ADDWF	r0x09, F
002920   5013     movf	0x13, 0, 0          	MOVF	r0x13, W
002922   220a     addwfc	0xa, 0x1, 0       	ADDWFC	r0x0a, F
                                           ;	.line	386; /home/regis/Hobbies/Electronique/Projets/Pinguino/local/trunk/p8/include/pinguino/core/stdio.c	continue;
002924   d139     bra	0x2b98               	BRA	_00867_DS_
                                           _00851_DS_:
                                           ;	.line	388; /home/regis/Hobbies/Electronique/Projets/Pinguino/local/trunk/p8/include/pinguino/core/stdio.c	if (*format == 'o')		// octal
002926   5011     movf	0x11, 0, 0          	MOVF	r0x11, W
002928   0a6f     xorlw	0x6f               	XORLW	0x6f
00292a   e001     bz	0x292e                	BZ	_00941_DS_
00292c   d096     bra	0x2a5a               	BRA	_00856_DS_
                                           _00941_DS_:
                                           ;	.line	390; /home/regis/Hobbies/Electronique/Projets/Pinguino/local/trunk/p8/include/pinguino/core/stdio.c	if (lng)
00292e   500c     movf	0xc, 0, 0           	MOVF	r0x0c, W
002930   100d     iorwf	0xd, 0, 0          	IORWF	r0x0d, W
002932   b4d8     btfsc	0xd8, 0x2, 0       	BTFSC	STATUS, 2
002934   d04c     bra	0x29ce               	BRA	_00853_DS_
                                           ;	.line	391; /home/regis/Hobbies/Electronique/Projets/Pinguino/local/trunk/p8/include/pinguino/core/stdio.c	pc += pprinti(out, va_arg(args, unsigned long), 8, 0, width, pad, 'a');
002936   5006     movf	0x6, 0, 0           	MOVF	r0x06, W
002938   0f04     addlw	0x4                	ADDLW	0x04
00293a   6e0c     movwf	0xc, 0             	MOVWF	r0x0c
00293c   0e00     movlw	0                  	MOVLW	0x00
00293e   2007     addwfc	0x7, 0, 0         	ADDWFC	r0x07, W
002940   6e0d     movwf	0xd, 0             	MOVWF	r0x0d
002942   0e00     movlw	0                  	MOVLW	0x00
002944   2008     addwfc	0x8, 0, 0         	ADDWFC	r0x08, W
002946   6e12     movwf	0x12, 0            	MOVWF	r0x12
002948   c00c     movff	0xc, 0x6           	MOVFF	r0x0c, r0x06
00294a   f006
00294c   c00d     movff	0xd, 0x7           	MOVFF	r0x0d, r0x07
00294e   f007
002950   c012     movff	0x12, 0x8          	MOVFF	r0x12, r0x08
002952   f008
002954   0efc     movlw	0xfc               	MOVLW	0xfc
002956   260c     addwf	0xc, 0x1, 0        	ADDWF	r0x0c, F
002958   0eff     movlw	0xff               	MOVLW	0xff
00295a   220d     addwfc	0xd, 0x1, 0       	ADDWFC	r0x0d, F
00295c   2212     addwfc	0x12, 0x1, 0      	ADDWFC	r0x12, F
00295e   c00c     movff	0xc, 0xfe9         	MOVFF	r0x0c, FSR0L
002960   ffe9
002962   c00d     movff	0xd, 0xff3         	MOVFF	r0x0d, PRODL
002964   fff3
002966   5012     movf	0x12, 0, 0          	MOVF	r0x12, W
002968   ec2f     call	0x5e, 0             	CALL	__gptrget4
00296a   f000
00296c   6e0c     movwf	0xc, 0             	MOVWF	r0x0c
00296e   cff3     movff	0xff3, 0xd         	MOVFF	PRODL, r0x0d
002970   f00d
002972   cff4     movff	0xff4, 0x12        	MOVFF	PRODH, r0x12
002974   f012
002976   cfe9     movff	0xfe9, 0x13        	MOVFF	FSR0L, r0x13
002978   f013
00297a   6ae5     clrf	0xe5, 0             	CLRF	POSTDEC1
00297c   0e61     movlw	0x61               	MOVLW	0x61
00297e   6ee5     movwf	0xe5, 0            	MOVWF	POSTDEC1
002980   500e     movf	0xe, 0, 0           	MOVF	r0x0e, W
002982   6ee5     movwf	0xe5, 0            	MOVWF	POSTDEC1
002984   500b     movf	0xb, 0, 0           	MOVF	r0x0b, W
002986   6ee5     movwf	0xe5, 0            	MOVWF	POSTDEC1
002988   5010     movf	0x10, 0, 0          	MOVF	r0x10, W
00298a   6ee5     movwf	0xe5, 0            	MOVWF	POSTDEC1
00298c   500f     movf	0xf, 0, 0           	MOVF	r0x0f, W
00298e   6ee5     movwf	0xe5, 0            	MOVWF	POSTDEC1
002990   6ae5     clrf	0xe5, 0             	CLRF	POSTDEC1
002992   6ae5     clrf	0xe5, 0             	CLRF	POSTDEC1
002994   6ae5     clrf	0xe5, 0             	CLRF	POSTDEC1
002996   0e08     movlw	0x8                	MOVLW	0x08
002998   6ee5     movwf	0xe5, 0            	MOVWF	POSTDEC1
00299a   5013     movf	0x13, 0, 0          	MOVF	r0x13, W
00299c   6ee5     movwf	0xe5, 0            	MOVWF	POSTDEC1
00299e   5012     movf	0x12, 0, 0          	MOVF	r0x12, W
0029a0   6ee5     movwf	0xe5, 0            	MOVWF	POSTDEC1
0029a2   500d     movf	0xd, 0, 0           	MOVF	r0x0d, W
0029a4   6ee5     movwf	0xe5, 0            	MOVWF	POSTDEC1
0029a6   500c     movf	0xc, 0, 0           	MOVF	r0x0c, W
0029a8   6ee5     movwf	0xe5, 0            	MOVWF	POSTDEC1
0029aa   5002     movf	0x2, 0, 0           	MOVF	r0x02, W
0029ac   6ee5     movwf	0xe5, 0            	MOVWF	POSTDEC1
0029ae   5001     movf	0x1, 0, 0           	MOVF	r0x01, W
0029b0   6ee5     movwf	0xe5, 0            	MOVWF	POSTDEC1
0029b2   5000     movf	0, 0, 0             	MOVF	r0x00, W
0029b4   6ee5     movwf	0xe5, 0            	MOVWF	POSTDEC1
0029b6   ec58     call	0x36b0, 0           	CALL	_pprinti
0029b8   f01b
0029ba   6e0c     movwf	0xc, 0             	MOVWF	r0x0c
0029bc   cff3     movff	0xff3, 0xd         	MOVFF	PRODL, r0x0d
0029be   f00d
0029c0   0e11     movlw	0x11               	MOVLW	0x11
0029c2   26e1     addwf	0xe1, 0x1, 0       	ADDWF	FSR1L, F
0029c4   500c     movf	0xc, 0, 0           	MOVF	r0x0c, W
0029c6   2609     addwf	0x9, 0x1, 0        	ADDWF	r0x09, F
0029c8   500d     movf	0xd, 0, 0           	MOVF	r0x0d, W
0029ca   220a     addwfc	0xa, 0x1, 0       	ADDWFC	r0x0a, F
0029cc   d0e5     bra	0x2b98               	BRA	_00867_DS_
                                           _00853_DS_:
                                           ;	.line	393; /home/regis/Hobbies/Electronique/Projets/Pinguino/local/trunk/p8/include/pinguino/core/stdio.c	pc += pprinti(out, va_arg(args, unsigned int), 8, 0, width, pad, 'a');
0029ce   5006     movf	0x6, 0, 0           	MOVF	r0x06, W
0029d0   0f02     addlw	0x2                	ADDLW	0x02
0029d2   6e0c     movwf	0xc, 0             	MOVWF	r0x0c
0029d4   0e00     movlw	0                  	MOVLW	0x00
0029d6   2007     addwfc	0x7, 0, 0         	ADDWFC	r0x07, W
0029d8   6e0d     movwf	0xd, 0             	MOVWF	r0x0d
0029da   0e00     movlw	0                  	MOVLW	0x00
0029dc   2008     addwfc	0x8, 0, 0         	ADDWFC	r0x08, W
0029de   6e12     movwf	0x12, 0            	MOVWF	r0x12
0029e0   c00c     movff	0xc, 0x6           	MOVFF	r0x0c, r0x06
0029e2   f006
0029e4   c00d     movff	0xd, 0x7           	MOVFF	r0x0d, r0x07
0029e6   f007
0029e8   c012     movff	0x12, 0x8          	MOVFF	r0x12, r0x08
0029ea   f008
0029ec   0efe     movlw	0xfe               	MOVLW	0xfe
0029ee   260c     addwf	0xc, 0x1, 0        	ADDWF	r0x0c, F
0029f0   0eff     movlw	0xff               	MOVLW	0xff
0029f2   220d     addwfc	0xd, 0x1, 0       	ADDWFC	r0x0d, F
0029f4   2212     addwfc	0x12, 0x1, 0      	ADDWFC	r0x12, F
0029f6   c00c     movff	0xc, 0xfe9         	MOVFF	r0x0c, FSR0L
0029f8   ffe9
0029fa   c00d     movff	0xd, 0xff3         	MOVFF	r0x0d, PRODL
0029fc   fff3
0029fe   5012     movf	0x12, 0, 0          	MOVF	r0x12, W
002a00   ec2b     call	0x56, 0             	CALL	__gptrget2
002a02   f000
002a04   6e0c     movwf	0xc, 0             	MOVWF	r0x0c
002a06   cff3     movff	0xff3, 0xd         	MOVFF	PRODL, r0x0d
002a08   f00d
002a0a   6ae5     clrf	0xe5, 0             	CLRF	POSTDEC1
002a0c   0e61     movlw	0x61               	MOVLW	0x61
002a0e   6ee5     movwf	0xe5, 0            	MOVWF	POSTDEC1
002a10   500e     movf	0xe, 0, 0           	MOVF	r0x0e, W
002a12   6ee5     movwf	0xe5, 0            	MOVWF	POSTDEC1
002a14   500b     movf	0xb, 0, 0           	MOVF	r0x0b, W
002a16   6ee5     movwf	0xe5, 0            	MOVWF	POSTDEC1
002a18   5010     movf	0x10, 0, 0          	MOVF	r0x10, W
002a1a   6ee5     movwf	0xe5, 0            	MOVWF	POSTDEC1
002a1c   500f     movf	0xf, 0, 0           	MOVF	r0x0f, W
002a1e   6ee5     movwf	0xe5, 0            	MOVWF	POSTDEC1
002a20   6ae5     clrf	0xe5, 0             	CLRF	POSTDEC1
002a22   6ae5     clrf	0xe5, 0             	CLRF	POSTDEC1
002a24   6ae5     clrf	0xe5, 0             	CLRF	POSTDEC1
002a26   0e08     movlw	0x8                	MOVLW	0x08
002a28   6ee5     movwf	0xe5, 0            	MOVWF	POSTDEC1
002a2a   6ae5     clrf	0xe5, 0             	CLRF	POSTDEC1
002a2c   6ae5     clrf	0xe5, 0             	CLRF	POSTDEC1
002a2e   500d     movf	0xd, 0, 0           	MOVF	r0x0d, W
002a30   6ee5     movwf	0xe5, 0            	MOVWF	POSTDEC1
002a32   500c     movf	0xc, 0, 0           	MOVF	r0x0c, W
002a34   6ee5     movwf	0xe5, 0            	MOVWF	POSTDEC1
002a36   5002     movf	0x2, 0, 0           	MOVF	r0x02, W
002a38   6ee5     movwf	0xe5, 0            	MOVWF	POSTDEC1
002a3a   5001     movf	0x1, 0, 0           	MOVF	r0x01, W
002a3c   6ee5     movwf	0xe5, 0            	MOVWF	POSTDEC1
002a3e   5000     movf	0, 0, 0             	MOVF	r0x00, W
002a40   6ee5     movwf	0xe5, 0            	MOVWF	POSTDEC1
002a42   ec58     call	0x36b0, 0           	CALL	_pprinti
002a44   f01b
002a46   6e0c     movwf	0xc, 0             	MOVWF	r0x0c
002a48   cff3     movff	0xff3, 0xd         	MOVFF	PRODL, r0x0d
002a4a   f00d
002a4c   0e11     movlw	0x11               	MOVLW	0x11
002a4e   26e1     addwf	0xe1, 0x1, 0       	ADDWF	FSR1L, F
002a50   500c     movf	0xc, 0, 0           	MOVF	r0x0c, W
002a52   2609     addwf	0x9, 0x1, 0        	ADDWF	r0x09, F
002a54   500d     movf	0xd, 0, 0           	MOVF	r0x0d, W
002a56   220a     addwfc	0xa, 0x1, 0       	ADDWFC	r0x0a, F
                                           ;	.line	394; /home/regis/Hobbies/Electronique/Projets/Pinguino/local/trunk/p8/include/pinguino/core/stdio.c	continue;
002a58   d09f     bra	0x2b98               	BRA	_00867_DS_
                                           _00856_DS_:
                                           ;	.line	396; /home/regis/Hobbies/Electronique/Projets/Pinguino/local/trunk/p8/include/pinguino/core/stdio.c	if (*format == 'c') 	// ascii
002a5a   5011     movf	0x11, 0, 0          	MOVF	r0x11, W
002a5c   0a63     xorlw	0x63               	XORLW	0x63
002a5e   e001     bz	0x2a62                	BZ	_00943_DS_
002a60   d03e     bra	0x2ade               	BRA	_00858_DS_
                                           _00943_DS_:
                                           ;	.line	399; /home/regis/Hobbies/Electronique/Projets/Pinguino/local/trunk/p8/include/pinguino/core/stdio.c	scr[0] = (char)va_arg(args, long);
002a62   5006     movf	0x6, 0, 0           	MOVF	r0x06, W
002a64   0f04     addlw	0x4                	ADDLW	0x04
002a66   6e0c     movwf	0xc, 0             	MOVWF	r0x0c
002a68   0e00     movlw	0                  	MOVLW	0x00
002a6a   2007     addwfc	0x7, 0, 0         	ADDWFC	r0x07, W
002a6c   6e0d     movwf	0xd, 0             	MOVWF	r0x0d
002a6e   0e00     movlw	0                  	MOVLW	0x00
002a70   2008     addwfc	0x8, 0, 0         	ADDWFC	r0x08, W
002a72   6e12     movwf	0x12, 0            	MOVWF	r0x12
002a74   c00c     movff	0xc, 0x6           	MOVFF	r0x0c, r0x06
002a76   f006
002a78   c00d     movff	0xd, 0x7           	MOVFF	r0x0d, r0x07
002a7a   f007
002a7c   c012     movff	0x12, 0x8          	MOVFF	r0x12, r0x08
002a7e   f008
002a80   0efc     movlw	0xfc               	MOVLW	0xfc
002a82   260c     addwf	0xc, 0x1, 0        	ADDWF	r0x0c, F
002a84   0eff     movlw	0xff               	MOVLW	0xff
002a86   220d     addwfc	0xd, 0x1, 0       	ADDWFC	r0x0d, F
002a88   2212     addwfc	0x12, 0x1, 0      	ADDWFC	r0x12, F
002a8a   c00c     movff	0xc, 0xfe9         	MOVFF	r0x0c, FSR0L
002a8c   ffe9
002a8e   c00d     movff	0xd, 0xff3         	MOVFF	r0x0d, PRODL
002a90   fff3
002a92   5012     movf	0x12, 0, 0          	MOVF	r0x12, W
002a94   ec2f     call	0x5e, 0             	CALL	__gptrget4
002a96   f000
002a98   0103     movlb	0x3                	BANKSEL	_pprint_scr_1_1
002a9a   6f31     movwf	0x31, 0x1          	MOVWF	_pprint_scr_1_1, B
                                           ; removed redundant BANKSEL
                                           ;	.line	401; /home/regis/Hobbies/Electronique/Projets/Pinguino/local/trunk/p8/include/pinguino/core/stdio.c	scr[1] = '\0';
002a9c   6b32     clrf	0x32, 0x1           	CLRF	(_pprint_scr_1_1 + 1), B
                                           ;	.line	402; /home/regis/Hobbies/Electronique/Projets/Pinguino/local/trunk/p8/include/pinguino/core/stdio.c	pc += pprints(out, scr, width, pad);
002a9e   500e     movf	0xe, 0, 0           	MOVF	r0x0e, W
002aa0   6ee5     movwf	0xe5, 0            	MOVWF	POSTDEC1
002aa2   500b     movf	0xb, 0, 0           	MOVF	r0x0b, W
002aa4   6ee5     movwf	0xe5, 0            	MOVWF	POSTDEC1
002aa6   5010     movf	0x10, 0, 0          	MOVF	r0x10, W
002aa8   6ee5     movwf	0xe5, 0            	MOVWF	POSTDEC1
002aaa   500f     movf	0xf, 0, 0           	MOVF	r0x0f, W
002aac   6ee5     movwf	0xe5, 0            	MOVWF	POSTDEC1
002aae   0e80     movlw	0x80               	MOVLW	0x80
002ab0   6ee5     movwf	0xe5, 0            	MOVWF	POSTDEC1
002ab2   0e03     movlw	0x3                	MOVLW	HIGH(_pprint_scr_1_1)
002ab4   6ee5     movwf	0xe5, 0            	MOVWF	POSTDEC1
002ab6   0e31     movlw	0x31               	MOVLW	LOW(_pprint_scr_1_1)
002ab8   6ee5     movwf	0xe5, 0            	MOVWF	POSTDEC1
002aba   5002     movf	0x2, 0, 0           	MOVF	r0x02, W
002abc   6ee5     movwf	0xe5, 0            	MOVWF	POSTDEC1
002abe   5001     movf	0x1, 0, 0           	MOVF	r0x01, W
002ac0   6ee5     movwf	0xe5, 0            	MOVWF	POSTDEC1
002ac2   5000     movf	0, 0, 0             	MOVF	r0x00, W
002ac4   6ee5     movwf	0xe5, 0            	MOVWF	POSTDEC1
002ac6   ec75     call	0x3cea, 0           	CALL	_pprints
002ac8   f01e
002aca   6e0c     movwf	0xc, 0             	MOVWF	r0x0c
002acc   cff3     movff	0xff3, 0xd         	MOVFF	PRODL, r0x0d
002ace   f00d
002ad0   0e0a     movlw	0xa                	MOVLW	0x0a
002ad2   26e1     addwf	0xe1, 0x1, 0       	ADDWF	FSR1L, F
002ad4   500c     movf	0xc, 0, 0           	MOVF	r0x0c, W
002ad6   2609     addwf	0x9, 0x1, 0        	ADDWF	r0x09, F
002ad8   500d     movf	0xd, 0, 0           	MOVF	r0x0d, W
002ada   220a     addwfc	0xa, 0x1, 0       	ADDWFC	r0x0a, F
                                           ;	.line	403; /home/regis/Hobbies/Electronique/Projets/Pinguino/local/trunk/p8/include/pinguino/core/stdio.c	continue;
002adc   d05d     bra	0x2b98               	BRA	_00867_DS_
                                           _00858_DS_:
                                           ;	.line	405; /home/regis/Hobbies/Electronique/Projets/Pinguino/local/trunk/p8/include/pinguino/core/stdio.c	if (*format == 'f') 	// float
002ade   5011     movf	0x11, 0, 0          	MOVF	r0x11, W
002ae0   0a66     xorlw	0x66               	XORLW	0x66
002ae2   e001     bz	0x2ae6                	BZ	_00945_DS_
002ae4   d059     bra	0x2b98               	BRA	_00867_DS_
                                           _00945_DS_:
                                           ;	.line	408; /home/regis/Hobbies/Electronique/Projets/Pinguino/local/trunk/p8/include/pinguino/core/stdio.c	pc += pprintfl(out, va_arg(args, float), width, pad);
002ae6   5006     movf	0x6, 0, 0           	MOVF	r0x06, W
002ae8   0f04     addlw	0x4                	ADDLW	0x04
002aea   6e0c     movwf	0xc, 0             	MOVWF	r0x0c
002aec   0e00     movlw	0                  	MOVLW	0x00
002aee   2007     addwfc	0x7, 0, 0         	ADDWFC	r0x07, W
002af0   6e0d     movwf	0xd, 0             	MOVWF	r0x0d
002af2   0e00     movlw	0                  	MOVLW	0x00
002af4   2008     addwfc	0x8, 0, 0         	ADDWFC	r0x08, W
002af6   6e11     movwf	0x11, 0            	MOVWF	r0x11
002af8   c00c     movff	0xc, 0x6           	MOVFF	r0x0c, r0x06
002afa   f006
002afc   c00d     movff	0xd, 0x7           	MOVFF	r0x0d, r0x07
002afe   f007
002b00   c011     movff	0x11, 0x8          	MOVFF	r0x11, r0x08
002b02   f008
002b04   0efc     movlw	0xfc               	MOVLW	0xfc
002b06   260c     addwf	0xc, 0x1, 0        	ADDWF	r0x0c, F
002b08   0eff     movlw	0xff               	MOVLW	0xff
002b0a   220d     addwfc	0xd, 0x1, 0       	ADDWFC	r0x0d, F
002b0c   2211     addwfc	0x11, 0x1, 0      	ADDWFC	r0x11, F
002b0e   c00c     movff	0xc, 0xfe9         	MOVFF	r0x0c, FSR0L
002b10   ffe9
002b12   c00d     movff	0xd, 0xff3         	MOVFF	r0x0d, PRODL
002b14   fff3
002b16   5011     movf	0x11, 0, 0          	MOVF	r0x11, W
002b18   ec2f     call	0x5e, 0             	CALL	__gptrget4
002b1a   f000
002b1c   6e0c     movwf	0xc, 0             	MOVWF	r0x0c
002b1e   cff3     movff	0xff3, 0xd         	MOVFF	PRODL, r0x0d
002b20   f00d
002b22   cff4     movff	0xff4, 0x11        	MOVFF	PRODH, r0x11
002b24   f011
002b26   cfe9     movff	0xfe9, 0x12        	MOVFF	FSR0L, r0x12
002b28   f012
002b2a   500e     movf	0xe, 0, 0           	MOVF	r0x0e, W
002b2c   6ee5     movwf	0xe5, 0            	MOVWF	POSTDEC1
002b2e   500b     movf	0xb, 0, 0           	MOVF	r0x0b, W
002b30   6ee5     movwf	0xe5, 0            	MOVWF	POSTDEC1
002b32   5010     movf	0x10, 0, 0          	MOVF	r0x10, W
002b34   6ee5     movwf	0xe5, 0            	MOVWF	POSTDEC1
002b36   500f     movf	0xf, 0, 0           	MOVF	r0x0f, W
002b38   6ee5     movwf	0xe5, 0            	MOVWF	POSTDEC1
002b3a   5012     movf	0x12, 0, 0          	MOVF	r0x12, W
002b3c   6ee5     movwf	0xe5, 0            	MOVWF	POSTDEC1
002b3e   5011     movf	0x11, 0, 0          	MOVF	r0x11, W
002b40   6ee5     movwf	0xe5, 0            	MOVWF	POSTDEC1
002b42   500d     movf	0xd, 0, 0           	MOVF	r0x0d, W
002b44   6ee5     movwf	0xe5, 0            	MOVWF	POSTDEC1
002b46   500c     movf	0xc, 0, 0           	MOVF	r0x0c, W
002b48   6ee5     movwf	0xe5, 0            	MOVWF	POSTDEC1
002b4a   5002     movf	0x2, 0, 0           	MOVF	r0x02, W
002b4c   6ee5     movwf	0xe5, 0            	MOVWF	POSTDEC1
002b4e   5001     movf	0x1, 0, 0           	MOVF	r0x01, W
002b50   6ee5     movwf	0xe5, 0            	MOVWF	POSTDEC1
002b52   5000     movf	0, 0, 0             	MOVF	r0x00, W
002b54   6ee5     movwf	0xe5, 0            	MOVWF	POSTDEC1
002b56   ec21     call	0x2c42, 0           	CALL	_pprintfl
002b58   f016
002b5a   6e0b     movwf	0xb, 0             	MOVWF	r0x0b
002b5c   cff3     movff	0xff3, 0xc         	MOVFF	PRODL, r0x0c
002b5e   f00c
002b60   0e0b     movlw	0xb                	MOVLW	0x0b
002b62   26e1     addwf	0xe1, 0x1, 0       	ADDWF	FSR1L, F
002b64   500b     movf	0xb, 0, 0           	MOVF	r0x0b, W
002b66   2609     addwf	0x9, 0x1, 0        	ADDWF	r0x09, F
002b68   500c     movf	0xc, 0, 0           	MOVF	r0x0c, W
002b6a   220a     addwfc	0xa, 0x1, 0       	ADDWFC	r0x0a, F
                                           ;	.line	409; /home/regis/Hobbies/Electronique/Projets/Pinguino/local/trunk/p8/include/pinguino/core/stdio.c	continue;
002b6c   d015     bra	0x2b98               	BRA	_00867_DS_
                                           _00861_DS_:
                                           ;	.line	415; /home/regis/Hobbies/Electronique/Projets/Pinguino/local/trunk/p8/include/pinguino/core/stdio.c	pprintc(out, *format);
002b6e   c003     movff	0x3, 0xfe9         	MOVFF	r0x03, FSR0L
002b70   ffe9
002b72   c004     movff	0x4, 0xff3         	MOVFF	r0x04, PRODL
002b74   fff3
002b76   5005     movf	0x5, 0, 0           	MOVF	r0x05, W
002b78   ec29     call	0x52, 0             	CALL	__gptrget1
002b7a   f000
                                           ; #	MOVWF	r0x0b
                                           ; #	MOVF	r0x0b, W
002b7c   6ee5     movwf	0xe5, 0            	MOVWF	POSTDEC1
002b7e   5002     movf	0x2, 0, 0           	MOVF	r0x02, W
002b80   6ee5     movwf	0xe5, 0            	MOVWF	POSTDEC1
002b82   5001     movf	0x1, 0, 0           	MOVF	r0x01, W
002b84   6ee5     movwf	0xe5, 0            	MOVWF	POSTDEC1
002b86   5000     movf	0, 0, 0             	MOVF	r0x00, W
002b88   6ee5     movwf	0xe5, 0            	MOVWF	POSTDEC1
002b8a   ec56     call	0x4aac, 0           	CALL	_pprintc
002b8c   f025
002b8e   0e04     movlw	0x4                	MOVLW	0x04
002b90   26e1     addwf	0xe1, 0x1, 0       	ADDWF	FSR1L, F
                                           ;	.line	416; /home/regis/Hobbies/Electronique/Projets/Pinguino/local/trunk/p8/include/pinguino/core/stdio.c	++pc;
002b92   2a09     incf	0x9, 0x1, 0         	INCF	r0x09, F
002b94   b0d8     btfsc	0xd8, 0, 0         	BTFSC	STATUS, 0
002b96   2a0a     incf	0xa, 0x1, 0         	INCF	r0x0a, F
                                           _00867_DS_:
                                           ;	.line	311; /home/regis/Hobbies/Electronique/Projets/Pinguino/local/trunk/p8/include/pinguino/core/stdio.c	for (; *format != 0; ++format)
002b98   2a03     incf	0x3, 0x1, 0         	INCF	r0x03, F
002b9a   b0d8     btfsc	0xd8, 0, 0         	BTFSC	STATUS, 0
002b9c   2a04     incf	0x4, 0x1, 0         	INCF	r0x04, F
002b9e   b0d8     btfsc	0xd8, 0, 0         	BTFSC	STATUS, 0
002ba0   2a05     incf	0x5, 0x1, 0         	INCF	r0x05, F
002ba2   ef8e     goto	0x211c              	GOTO	_00865_DS_
002ba4   f010
                                           _00868_DS_:
                                           ;	.line	419; /home/regis/Hobbies/Electronique/Projets/Pinguino/local/trunk/p8/include/pinguino/core/stdio.c	if (out) **out = '\0';
002ba6   5000     movf	0, 0, 0             	MOVF	r0x00, W
002ba8   1001     iorwf	0x1, 0, 0          	IORWF	r0x01, W
002baa   1002     iorwf	0x2, 0, 0          	IORWF	r0x02, W
002bac   e014     bz	0x2bd6                	BZ	_00870_DS_
002bae   c000     movff	0, 0xfe9           	MOVFF	r0x00, FSR0L
002bb0   ffe9
002bb2   c001     movff	0x1, 0xff3         	MOVFF	r0x01, PRODL
002bb4   fff3
002bb6   5002     movf	0x2, 0, 0           	MOVF	r0x02, W
002bb8   ec2d     call	0x5a, 0             	CALL	__gptrget3
002bba   f000
002bbc   6e00     movwf	0, 0               	MOVWF	r0x00
002bbe   cff3     movff	0xff3, 0x1         	MOVFF	PRODL, r0x01
002bc0   f001
002bc2   cff4     movff	0xff4, 0x2         	MOVFF	PRODH, r0x02
002bc4   f002
002bc6   6ae5     clrf	0xe5, 0             	CLRF	POSTDEC1
002bc8   c000     movff	0, 0xfe9           	MOVFF	r0x00, FSR0L
002bca   ffe9
002bcc   c001     movff	0x1, 0xff3         	MOVFF	r0x01, PRODL
002bce   fff3
002bd0   5002     movf	0x2, 0, 0           	MOVF	r0x02, W
002bd2   ec31     call	0x62, 0             	CALL	__gptrput1
002bd4   f000
                                           _00870_DS_:
                                           ;	.line	421; /home/regis/Hobbies/Electronique/Projets/Pinguino/local/trunk/p8/include/pinguino/core/stdio.c	return pc;
002bd6   c00a     movff	0xa, 0xff3         	MOVFF	r0x0a, PRODL
002bd8   fff3
002bda   5009     movf	0x9, 0, 0           	MOVF	r0x09, W
002bdc   cfe4     movff	0xfe4, 0x17        	MOVFF	PREINC1, r0x17
002bde   f017
002be0   cfe4     movff	0xfe4, 0x16        	MOVFF	PREINC1, r0x16
002be2   f016
002be4   cfe4     movff	0xfe4, 0x15        	MOVFF	PREINC1, r0x15
002be6   f015
002be8   cfe4     movff	0xfe4, 0x14        	MOVFF	PREINC1, r0x14
002bea   f014
002bec   cfe4     movff	0xfe4, 0x13        	MOVFF	PREINC1, r0x13
002bee   f013
002bf0   cfe4     movff	0xfe4, 0x12        	MOVFF	PREINC1, r0x12
002bf2   f012
002bf4   cfe4     movff	0xfe4, 0x11        	MOVFF	PREINC1, r0x11
002bf6   f011
002bf8   cfe4     movff	0xfe4, 0x10        	MOVFF	PREINC1, r0x10
002bfa   f010
002bfc   cfe4     movff	0xfe4, 0xf         	MOVFF	PREINC1, r0x0f
002bfe   f00f
002c00   cfe4     movff	0xfe4, 0xe         	MOVFF	PREINC1, r0x0e
002c02   f00e
002c04   cfe4     movff	0xfe4, 0xd         	MOVFF	PREINC1, r0x0d
002c06   f00d
002c08   cfe4     movff	0xfe4, 0xc         	MOVFF	PREINC1, r0x0c
002c0a   f00c
002c0c   cfe4     movff	0xfe4, 0xb         	MOVFF	PREINC1, r0x0b
002c0e   f00b
002c10   cfe4     movff	0xfe4, 0xa         	MOVFF	PREINC1, r0x0a
002c12   f00a
002c14   cfe4     movff	0xfe4, 0x9         	MOVFF	PREINC1, r0x09
002c16   f009
002c18   cfe4     movff	0xfe4, 0x8         	MOVFF	PREINC1, r0x08
002c1a   f008
002c1c   cfe4     movff	0xfe4, 0x7         	MOVFF	PREINC1, r0x07
002c1e   f007
002c20   cfe4     movff	0xfe4, 0x6         	MOVFF	PREINC1, r0x06
002c22   f006
002c24   cfe4     movff	0xfe4, 0x5         	MOVFF	PREINC1, r0x05
002c26   f005
002c28   cfe4     movff	0xfe4, 0x4         	MOVFF	PREINC1, r0x04
002c2a   f004
002c2c   cfe4     movff	0xfe4, 0x3         	MOVFF	PREINC1, r0x03
002c2e   f003
002c30   cfe4     movff	0xfe4, 0x2         	MOVFF	PREINC1, r0x02
002c32   f002
002c34   cfe4     movff	0xfe4, 0x1         	MOVFF	PREINC1, r0x01
002c36   f001
002c38   cfe4     movff	0xfe4, 0           	MOVFF	PREINC1, r0x00
002c3a   f000
002c3c   cfe4     movff	0xfe4, 0xfd9       	MOVFF	PREINC1, FSR2L
002c3e   ffd9
002c40   0012     return	0                 	RETURN	
                                           
                                           ; ; Starting pCode block
                                           S_main__pprintfl	code
                                           _pprintfl:
                                           ;	.line	163; /home/regis/Hobbies/Electronique/Projets/Pinguino/local/trunk/p8/include/pinguino/core/stdio.c	static int pprintfl(char **out, float value, int width, int pad)
002c42   cfd9     movff	0xfd9, 0xfe5       	MOVFF	FSR2L, POSTDEC1
002c44   ffe5
002c46   cfe1     movff	0xfe1, 0xfd9       	MOVFF	FSR1L, FSR2L
002c48   ffd9
002c4a   c000     movff	0, 0xfe5           	MOVFF	r0x00, POSTDEC1
002c4c   ffe5
002c4e   c001     movff	0x1, 0xfe5         	MOVFF	r0x01, POSTDEC1
002c50   ffe5
002c52   c002     movff	0x2, 0xfe5         	MOVFF	r0x02, POSTDEC1
002c54   ffe5
002c56   c003     movff	0x3, 0xfe5         	MOVFF	r0x03, POSTDEC1
002c58   ffe5
002c5a   c004     movff	0x4, 0xfe5         	MOVFF	r0x04, POSTDEC1
002c5c   ffe5
002c5e   c005     movff	0x5, 0xfe5         	MOVFF	r0x05, POSTDEC1
002c60   ffe5
002c62   c006     movff	0x6, 0xfe5         	MOVFF	r0x06, POSTDEC1
002c64   ffe5
002c66   c007     movff	0x7, 0xfe5         	MOVFF	r0x07, POSTDEC1
002c68   ffe5
002c6a   c008     movff	0x8, 0xfe5         	MOVFF	r0x08, POSTDEC1
002c6c   ffe5
002c6e   c009     movff	0x9, 0xfe5         	MOVFF	r0x09, POSTDEC1
002c70   ffe5
002c72   c00a     movff	0xa, 0xfe5         	MOVFF	r0x0a, POSTDEC1
002c74   ffe5
002c76   c00b     movff	0xb, 0xfe5         	MOVFF	r0x0b, POSTDEC1
002c78   ffe5
002c7a   c00c     movff	0xc, 0xfe5         	MOVFF	r0x0c, POSTDEC1
002c7c   ffe5
002c7e   c00d     movff	0xd, 0xfe5         	MOVFF	r0x0d, POSTDEC1
002c80   ffe5
002c82   c00e     movff	0xe, 0xfe5         	MOVFF	r0x0e, POSTDEC1
002c84   ffe5
002c86   c00f     movff	0xf, 0xfe5         	MOVFF	r0x0f, POSTDEC1
002c88   ffe5
002c8a   c010     movff	0x10, 0xfe5        	MOVFF	r0x10, POSTDEC1
002c8c   ffe5
002c8e   c011     movff	0x11, 0xfe5        	MOVFF	r0x11, POSTDEC1
002c90   ffe5
002c92   c012     movff	0x12, 0xfe5        	MOVFF	r0x12, POSTDEC1
002c94   ffe5
002c96   c013     movff	0x13, 0xfe5        	MOVFF	r0x13, POSTDEC1
002c98   ffe5
002c9a   c014     movff	0x14, 0xfe5        	MOVFF	r0x14, POSTDEC1
002c9c   ffe5
002c9e   c015     movff	0x15, 0xfe5        	MOVFF	r0x15, POSTDEC1
002ca0   ffe5
002ca2   0e02     movlw	0x2                	MOVLW	0x02
002ca4   cfdb     movff	0xfdb, 0           	MOVFF	PLUSW2, r0x00
002ca6   f000
002ca8   0e03     movlw	0x3                	MOVLW	0x03
002caa   cfdb     movff	0xfdb, 0x1         	MOVFF	PLUSW2, r0x01
002cac   f001
002cae   0e04     movlw	0x4                	MOVLW	0x04
002cb0   cfdb     movff	0xfdb, 0x2         	MOVFF	PLUSW2, r0x02
002cb2   f002
002cb4   0e05     movlw	0x5                	MOVLW	0x05
002cb6   cfdb     movff	0xfdb, 0x3         	MOVFF	PLUSW2, r0x03
002cb8   f003
002cba   0e06     movlw	0x6                	MOVLW	0x06
002cbc   cfdb     movff	0xfdb, 0x4         	MOVFF	PLUSW2, r0x04
002cbe   f004
002cc0   0e07     movlw	0x7                	MOVLW	0x07
002cc2   cfdb     movff	0xfdb, 0x5         	MOVFF	PLUSW2, r0x05
002cc4   f005
002cc6   0e08     movlw	0x8                	MOVLW	0x08
002cc8   cfdb     movff	0xfdb, 0x6         	MOVFF	PLUSW2, r0x06
002cca   f006
002ccc   0e09     movlw	0x9                	MOVLW	0x09
002cce   cfdb     movff	0xfdb, 0x7         	MOVFF	PLUSW2, r0x07
002cd0   f007
002cd2   0e0a     movlw	0xa                	MOVLW	0x0a
002cd4   cfdb     movff	0xfdb, 0x8         	MOVFF	PLUSW2, r0x08
002cd6   f008
002cd8   0e0b     movlw	0xb                	MOVLW	0x0b
002cda   cfdb     movff	0xfdb, 0x9         	MOVFF	PLUSW2, r0x09
002cdc   f009
002cde   0e0c     movlw	0xc                	MOVLW	0x0c
002ce0   cfdb     movff	0xfdb, 0xa         	MOVFF	PLUSW2, r0x0a
002ce2   f00a
                                           ;	.line	183; /home/regis/Hobbies/Electronique/Projets/Pinguino/local/trunk/p8/include/pinguino/core/stdio.c	int count = 0;
002ce4   6a0b     clrf	0xb, 0              	CLRF	r0x0b
002ce6   6a0c     clrf	0xc, 0              	CLRF	r0x0c
                                           ;	.line	186; /home/regis/Hobbies/Electronique/Projets/Pinguino/local/trunk/p8/include/pinguino/core/stdio.c	helper.f = value;
002ce8   5003     movf	0x3, 0, 0           	MOVF	r0x03, W
002cea   0103     movlb	0x3                	BANKSEL	_pprintfl_helper_1_1
002cec   6f21     movwf	0x21, 0x1          	MOVWF	_pprintfl_helper_1_1, B
002cee   5004     movf	0x4, 0, 0           	MOVF	r0x04, W
                                           ; removed redundant BANKSEL
002cf0   6f22     movwf	0x22, 0x1          	MOVWF	(_pprintfl_helper_1_1 + 1), B
002cf2   5005     movf	0x5, 0, 0           	MOVF	r0x05, W
                                           ; removed redundant BANKSEL
002cf4   6f23     movwf	0x23, 0x1          	MOVWF	(_pprintfl_helper_1_1 + 2), B
002cf6   5006     movf	0x6, 0, 0           	MOVF	r0x06, W
                                           ; removed redundant BANKSEL
002cf8   6f24     movwf	0x24, 0x1          	MOVWF	(_pprintfl_helper_1_1 + 3), B
                                           ; removed redundant BANKSEL
                                           ;	.line	188; /home/regis/Hobbies/Electronique/Projets/Pinguino/local/trunk/p8/include/pinguino/core/stdio.c	mantissa = helper.mantissa_lo;
002cfa   5121     movf	0x21, 0, 0x1        	MOVF	_pprintfl_helper_1_1, W, B
002cfc   0bff     andlw	0xff               	ANDLW	0xff
002cfe   6e03     movwf	0x3, 0             	MOVWF	r0x03
002d00   6a04     clrf	0x4, 0              	CLRF	r0x04
002d02   6a05     clrf	0x5, 0              	CLRF	r0x05
002d04   6a06     clrf	0x6, 0              	CLRF	r0x06
                                           ; removed redundant BANKSEL
                                           ;	.line	189; /home/regis/Hobbies/Electronique/Projets/Pinguino/local/trunk/p8/include/pinguino/core/stdio.c	mantissa += ((unsigned long) helper.mantissa_hi << 8);
002d06   5122     movf	0x22, 0, 0x1        	MOVF	(_pprintfl_helper_1_1 + 1), W, B
002d08   0bff     andlw	0xff               	ANDLW	0xff
002d0a   6a14     clrf	0x14, 0             	CLRF	r0x14
002d0c   6a13     clrf	0x13, 0             	CLRF	r0x13
002d0e   6e12     movwf	0x12, 0            	MOVWF	r0x12
002d10   6a11     clrf	0x11, 0             	CLRF	r0x11
002d12   5011     movf	0x11, 0, 0          	MOVF	r0x11, W
002d14   2603     addwf	0x3, 0x1, 0        	ADDWF	r0x03, F
002d16   5012     movf	0x12, 0, 0          	MOVF	r0x12, W
002d18   2204     addwfc	0x4, 0x1, 0       	ADDWFC	r0x04, F
002d1a   5013     movf	0x13, 0, 0          	MOVF	r0x13, W
002d1c   2205     addwfc	0x5, 0x1, 0       	ADDWFC	r0x05, F
002d1e   5014     movf	0x14, 0, 0          	MOVF	r0x14, W
002d20   2206     addwfc	0x6, 0x1, 0       	ADDWFC	r0x06, F
                                           ; removed redundant BANKSEL
                                           ;	.line	190; /home/regis/Hobbies/Electronique/Projets/Pinguino/local/trunk/p8/include/pinguino/core/stdio.c	mantissa += ((unsigned long) helper.mantissa_up << 8);
002d22   5123     movf	0x23, 0, 0x1        	MOVF	(_pprintfl_helper_1_1 + 2), W, B
002d24   0b7f     andlw	0x7f               	ANDLW	0x7f
002d26   6e12     movwf	0x12, 0            	MOVWF	r0x12
002d28   5011     movf	0x11, 0, 0          	MOVF	r0x11, W
002d2a   2603     addwf	0x3, 0x1, 0        	ADDWF	r0x03, F
002d2c   5012     movf	0x12, 0, 0          	MOVF	r0x12, W
002d2e   2204     addwfc	0x4, 0x1, 0       	ADDWFC	r0x04, F
002d30   5013     movf	0x13, 0, 0          	MOVF	r0x13, W
002d32   2205     addwfc	0x5, 0x1, 0       	ADDWFC	r0x05, F
002d34   5014     movf	0x14, 0, 0          	MOVF	r0x14, W
002d36   2206     addwfc	0x6, 0x1, 0       	ADDWFC	r0x06, F
                                           ;	.line	192; /home/regis/Hobbies/Electronique/Projets/Pinguino/local/trunk/p8/include/pinguino/core/stdio.c	mantissa += 0x00800000;
002d38   0e80     movlw	0x80               	MOVLW	0x80
002d3a   2605     addwf	0x5, 0x1, 0        	ADDWF	r0x05, F
002d3c   0e00     movlw	0                  	MOVLW	0x00
002d3e   2206     addwfc	0x6, 0x1, 0       	ADDWFC	r0x06, F
                                           ; removed redundant BANKSEL
                                           ;	.line	194; /home/regis/Hobbies/Electronique/Projets/Pinguino/local/trunk/p8/include/pinguino/core/stdio.c	exponent = (signed char) helper.exponent - 127;
002d40   5124     movf	0x24, 0, 0x1        	MOVF	(_pprintfl_helper_1_1 + 3), W, B
002d42   0bff     andlw	0xff               	ANDLW	0xff
002d44   6e0d     movwf	0xd, 0             	MOVWF	r0x0d
002d46   0e81     movlw	0x81               	MOVLW	0x81
002d48   260d     addwf	0xd, 0x1, 0        	ADDWF	r0x0d, F
                                           ;	.line	213; /home/regis/Hobbies/Electronique/Projets/Pinguino/local/trunk/p8/include/pinguino/core/stdio.c	if (exponent < -3)
002d4a   500d     movf	0xd, 0, 0           	MOVF	r0x0d, W
002d4c   0f80     addlw	0x80               	ADDLW	0x80
002d4e   0f83     addlw	0x83               	ADDLW	0x83
002d50   e224     bc	0x2d9a                	BC	_00766_DS_
                                           ;	.line	215; /home/regis/Hobbies/Electronique/Projets/Pinguino/local/trunk/p8/include/pinguino/core/stdio.c	buffer[0] = '0';
002d52   0e30     movlw	0x30               	MOVLW	0x30
002d54   0103     movlb	0x3                	BANKSEL	_pprintfl_buffer_1_1
002d56   6f00     movwf	0, 0x1             	MOVWF	_pprintfl_buffer_1_1, B
                                           ; removed redundant BANKSEL
                                           ;	.line	216; /home/regis/Hobbies/Electronique/Projets/Pinguino/local/trunk/p8/include/pinguino/core/stdio.c	buffer[1] = '\0';
002d58   6b01     clrf	0x1, 0x1            	CLRF	(_pprintfl_buffer_1_1 + 1), B
                                           ;	.line	217; /home/regis/Hobbies/Electronique/Projets/Pinguino/local/trunk/p8/include/pinguino/core/stdio.c	return pprints(out, buffer, width, pad);
002d5a   500a     movf	0xa, 0, 0           	MOVF	r0x0a, W
002d5c   6ee5     movwf	0xe5, 0            	MOVWF	POSTDEC1
002d5e   5009     movf	0x9, 0, 0           	MOVF	r0x09, W
002d60   6ee5     movwf	0xe5, 0            	MOVWF	POSTDEC1
002d62   5008     movf	0x8, 0, 0           	MOVF	r0x08, W
002d64   6ee5     movwf	0xe5, 0            	MOVWF	POSTDEC1
002d66   5007     movf	0x7, 0, 0           	MOVF	r0x07, W
002d68   6ee5     movwf	0xe5, 0            	MOVWF	POSTDEC1
002d6a   0e80     movlw	0x80               	MOVLW	0x80
002d6c   6ee5     movwf	0xe5, 0            	MOVWF	POSTDEC1
002d6e   0e03     movlw	0x3                	MOVLW	HIGH(_pprintfl_buffer_1_1)
002d70   6ee5     movwf	0xe5, 0            	MOVWF	POSTDEC1
002d72   0e00     movlw	0                  	MOVLW	LOW(_pprintfl_buffer_1_1)
002d74   6ee5     movwf	0xe5, 0            	MOVWF	POSTDEC1
002d76   5002     movf	0x2, 0, 0           	MOVF	r0x02, W
002d78   6ee5     movwf	0xe5, 0            	MOVWF	POSTDEC1
002d7a   5001     movf	0x1, 0, 0           	MOVF	r0x01, W
002d7c   6ee5     movwf	0xe5, 0            	MOVWF	POSTDEC1
002d7e   5000     movf	0, 0, 0             	MOVF	r0x00, W
002d80   6ee5     movwf	0xe5, 0            	MOVWF	POSTDEC1
002d82   ec75     call	0x3cea, 0           	CALL	_pprints
002d84   f01e
002d86   6e0e     movwf	0xe, 0             	MOVWF	r0x0e
002d88   cff3     movff	0xff3, 0xf         	MOVFF	PRODL, r0x0f
002d8a   f00f
002d8c   0e0a     movlw	0xa                	MOVLW	0x0a
002d8e   26e1     addwf	0xe1, 0x1, 0       	ADDWF	FSR1L, F
002d90   c00f     movff	0xf, 0xff3         	MOVFF	r0x0f, PRODL
002d92   fff3
002d94   500e     movf	0xe, 0, 0           	MOVF	r0x0e, W
002d96   ef21     goto	0x3242              	GOTO	_00785_DS_
002d98   f019
                                           _00766_DS_:
                                           ;	.line	221; /home/regis/Hobbies/Electronique/Projets/Pinguino/local/trunk/p8/include/pinguino/core/stdio.c	string = buffer + PRINT_BUF_LEN - 1;
002d9a   0e03     movlw	0x3                	MOVLW	HIGH(_pprintfl_buffer_1_1 + 11)
002d9c   6e0f     movwf	0xf, 0             	MOVWF	r0x0f
002d9e   0e0b     movlw	0xb                	MOVLW	LOW(_pprintfl_buffer_1_1 + 11)
002da0   6e0e     movwf	0xe, 0             	MOVWF	r0x0e
002da2   0e80     movlw	0x80               	MOVLW	0x80
002da4   6e10     movwf	0x10, 0            	MOVWF	r0x10
                                           ;	.line	222; /home/regis/Hobbies/Electronique/Projets/Pinguino/local/trunk/p8/include/pinguino/core/stdio.c	*string = '\0';
002da6   6ae5     clrf	0xe5, 0             	CLRF	POSTDEC1
002da8   c00e     movff	0xe, 0xfe9         	MOVFF	r0x0e, FSR0L
002daa   ffe9
002dac   c00f     movff	0xf, 0xff3         	MOVFF	r0x0f, PRODL
002dae   fff3
002db0   ec31     call	0x62, 0             	CALL	__gptrput1
002db2   f000
                                           ;	.line	225; /home/regis/Hobbies/Electronique/Projets/Pinguino/local/trunk/p8/include/pinguino/core/stdio.c	switch (0x7 & (mantissa  >> (20 - exponent)))
002db4   6a11     clrf	0x11, 0             	CLRF	r0x11
002db6   be0d     btfsc	0xd, 0x7, 0        	BTFSC	r0x0d, 7
002db8   6811     setf	0x11, 0             	SETF	r0x11
002dba   500d     movf	0xd, 0, 0           	MOVF	r0x0d, W
002dbc   0814     sublw	0x14               	SUBLW	0x14
002dbe   0e00     movlw	0                  	MOVLW	0x00
002dc0   5411     subfwb	0x11, 0, 0        	SUBFWB	r0x11, W
002dc2   c003     movff	0x3, 0x12          	MOVFF	r0x03, r0x12
002dc4   f012
002dc6   c004     movff	0x4, 0x13          	MOVFF	r0x04, r0x13
002dc8   f013
002dca   c005     movff	0x5, 0x14          	MOVFF	r0x05, r0x14
002dcc   f014
002dce   c006     movff	0x6, 0x15          	MOVFF	r0x06, r0x15
002dd0   f015
002dd2   5012     movf	0x12, 0, 0          	MOVF	r0x12, W
002dd4   e011     bz	0x2df8                	BZ	_00796_DS_
002dd6   e609     bn	0x2dea                	BN	_00799_DS_
002dd8   6ce8     negf	0xe8, 0             	NEGF	WREG
002dda   90d8     bcf	0xd8, 0, 0           	BCF	STATUS, 0
                                           _00797_DS_:
002ddc   3215     rrcf	0x15, 0x1, 0        	RRCF	r0x15, F
002dde   3214     rrcf	0x14, 0x1, 0        	RRCF	r0x14, F
002de0   3213     rrcf	0x13, 0x1, 0        	RRCF	r0x13, F
002de2   3212     rrcf	0x12, 0x1, 0        	RRCF	r0x12, F
002de4   0f01     addlw	0x1                	ADDLW	0x01
002de6   e3fa     bnc	0x2ddc               	BNC	_00797_DS_
002de8   d007     bra	0x2df8               	BRA	_00796_DS_
                                           _00799_DS_:
002dea   90d8     bcf	0xd8, 0, 0           	BCF	STATUS, 0
                                           _00798_DS_:
002dec   3612     rlcf	0x12, 0x1, 0        	RLCF	r0x12, F
002dee   3613     rlcf	0x13, 0x1, 0        	RLCF	r0x13, F
002df0   3614     rlcf	0x14, 0x1, 0        	RLCF	r0x14, F
002df2   3615     rlcf	0x15, 0x1, 0        	RLCF	r0x15, F
002df4   0f01     addlw	0x1                	ADDLW	0x01
002df6   e3fa     bnc	0x2dec               	BNC	_00798_DS_
                                           _00796_DS_:
002df8   0e07     movlw	0x7                	MOVLW	0x07
002dfa   1612     andwf	0x12, 0x1, 0       	ANDWF	r0x12, F
002dfc   6a13     clrf	0x13, 0             	CLRF	r0x13
002dfe   6a14     clrf	0x14, 0             	CLRF	r0x14
002e00   6a15     clrf	0x15, 0             	CLRF	r0x15
002e02   0e00     movlw	0                  	MOVLW	0x00
002e04   5c15     subwf	0x15, 0, 0         	SUBWF	r0x15, W
002e06   e108     bnz	0x2e18               	BNZ	_00801_DS_
002e08   0e00     movlw	0                  	MOVLW	0x00
002e0a   5c14     subwf	0x14, 0, 0         	SUBWF	r0x14, W
002e0c   e105     bnz	0x2e18               	BNZ	_00801_DS_
002e0e   0e00     movlw	0                  	MOVLW	0x00
002e10   5c13     subwf	0x13, 0, 0         	SUBWF	r0x13, W
002e12   e102     bnz	0x2e18               	BNZ	_00801_DS_
002e14   0e08     movlw	0x8                	MOVLW	0x08
002e16   5c12     subwf	0x12, 0, 0         	SUBWF	r0x12, W
                                           _00801_DS_:
002e18   b0d8     btfsc	0xd8, 0, 0         	BTFSC	STATUS, 0
002e1a   d16a     bra	0x30f0               	BRA	_00775_DS_
002e1c   c016     movff	0x16, 0xfe5        	MOVFF	r0x16, POSTDEC1
002e1e   ffe5
002e20   c017     movff	0x17, 0xfe5        	MOVFF	r0x17, POSTDEC1
002e22   ffe5
002e24   6a17     clrf	0x17, 0             	CLRF	r0x17
002e26   3412     rlcf	0x12, 0, 0          	RLCF	r0x12, W
002e28   3617     rlcf	0x17, 0x1, 0        	RLCF	r0x17, F
002e2a   34e8     rlcf	0xe8, 0, 0          	RLCF	WREG, W
002e2c   3617     rlcf	0x17, 0x1, 0        	RLCF	r0x17, F
002e2e   0bfc     andlw	0xfc               	ANDLW	0xfc
002e30   6e16     movwf	0x16, 0            	MOVWF	r0x16
002e32   0e00     movlw	0                  	MOVLW	UPPER(_00802_DS_)
002e34   6efb     movwf	0xfb, 0            	MOVWF	PCLATU
002e36   0e2e     movlw	0x2e               	MOVLW	HIGH(_00802_DS_)
002e38   6efa     movwf	0xfa, 0            	MOVWF	PCLATH
002e3a   0e52     movlw	0x52               	MOVLW	LOW(_00802_DS_)
002e3c   2616     addwf	0x16, 0x1, 0       	ADDWF	r0x16, F
002e3e   5017     movf	0x17, 0, 0          	MOVF	r0x17, W
002e40   22fa     addwfc	0xfa, 0x1, 0      	ADDWFC	PCLATH, F
002e42   b0d8     btfsc	0xd8, 0, 0         	BTFSC	STATUS, 0
002e44   2afb     incf	0xfb, 0x1, 0        	INCF	PCLATU, F
002e46   5016     movf	0x16, 0, 0          	MOVF	r0x16, W
002e48   cfe4     movff	0xfe4, 0x17        	MOVFF	PREINC1, r0x17
002e4a   f017
002e4c   cfe4     movff	0xfe4, 0x16        	MOVFF	PREINC1, r0x16
002e4e   f016
002e50   6ef9     movwf	0xf9, 0            	MOVWF	PCL
                                           _00802_DS_:
002e52   ef39     goto	0x2e72              	GOTO	_00767_DS_
002e54   f017
002e56   ef61     goto	0x2ec2              	GOTO	_00768_DS_
002e58   f017
002e5a   ef89     goto	0x2f12              	GOTO	_00769_DS_
002e5c   f017
002e5e   efb1     goto	0x2f62              	GOTO	_00770_DS_
002e60   f017
002e62   efd9     goto	0x2fb2              	GOTO	_00771_DS_
002e64   f017
002e66   ef01     goto	0x3002              	GOTO	_00772_DS_
002e68   f018
002e6a   ef29     goto	0x3052              	GOTO	_00773_DS_
002e6c   f018
002e6e   ef51     goto	0x30a2              	GOTO	_00774_DS_
002e70   f018
                                           _00767_DS_:
                                           ;	.line	228; /home/regis/Hobbies/Electronique/Projets/Pinguino/local/trunk/p8/include/pinguino/core/stdio.c	*--string = '0';
002e72   0eff     movlw	0xff               	MOVLW	0xff
002e74   260e     addwf	0xe, 0x1, 0        	ADDWF	r0x0e, F
002e76   220f     addwfc	0xf, 0x1, 0       	ADDWFC	r0x0f, F
002e78   2210     addwfc	0x10, 0x1, 0      	ADDWFC	r0x10, F
002e7a   0e30     movlw	0x30               	MOVLW	0x30
002e7c   6ee5     movwf	0xe5, 0            	MOVWF	POSTDEC1
002e7e   c00e     movff	0xe, 0xfe9         	MOVFF	r0x0e, FSR0L
002e80   ffe9
002e82   c00f     movff	0xf, 0xff3         	MOVFF	r0x0f, PRODL
002e84   fff3
002e86   5010     movf	0x10, 0, 0          	MOVF	r0x10, W
002e88   ec31     call	0x62, 0             	CALL	__gptrput1
002e8a   f000
                                           ;	.line	229; /home/regis/Hobbies/Electronique/Projets/Pinguino/local/trunk/p8/include/pinguino/core/stdio.c	*--string = '0';
002e8c   0eff     movlw	0xff               	MOVLW	0xff
002e8e   260e     addwf	0xe, 0x1, 0        	ADDWF	r0x0e, F
002e90   220f     addwfc	0xf, 0x1, 0       	ADDWFC	r0x0f, F
002e92   2210     addwfc	0x10, 0x1, 0      	ADDWFC	r0x10, F
002e94   0e30     movlw	0x30               	MOVLW	0x30
002e96   6ee5     movwf	0xe5, 0            	MOVWF	POSTDEC1
002e98   c00e     movff	0xe, 0xfe9         	MOVFF	r0x0e, FSR0L
002e9a   ffe9
002e9c   c00f     movff	0xf, 0xff3         	MOVFF	r0x0f, PRODL
002e9e   fff3
002ea0   5010     movf	0x10, 0, 0          	MOVF	r0x10, W
002ea2   ec31     call	0x62, 0             	CALL	__gptrput1
002ea4   f000
                                           ;	.line	230; /home/regis/Hobbies/Electronique/Projets/Pinguino/local/trunk/p8/include/pinguino/core/stdio.c	*--string = '0';
002ea6   0eff     movlw	0xff               	MOVLW	0xff
002ea8   260e     addwf	0xe, 0x1, 0        	ADDWF	r0x0e, F
002eaa   220f     addwfc	0xf, 0x1, 0       	ADDWFC	r0x0f, F
002eac   2210     addwfc	0x10, 0x1, 0      	ADDWFC	r0x10, F
002eae   0e30     movlw	0x30               	MOVLW	0x30
002eb0   6ee5     movwf	0xe5, 0            	MOVWF	POSTDEC1
002eb2   c00e     movff	0xe, 0xfe9         	MOVFF	r0x0e, FSR0L
002eb4   ffe9
002eb6   c00f     movff	0xf, 0xff3         	MOVFF	r0x0f, PRODL
002eb8   fff3
002eba   5010     movf	0x10, 0, 0          	MOVF	r0x10, W
002ebc   ec31     call	0x62, 0             	CALL	__gptrput1
002ebe   f000
                                           ;	.line	231; /home/regis/Hobbies/Electronique/Projets/Pinguino/local/trunk/p8/include/pinguino/core/stdio.c	break;
002ec0   d117     bra	0x30f0               	BRA	_00775_DS_
                                           _00768_DS_:
                                           ;	.line	233; /home/regis/Hobbies/Electronique/Projets/Pinguino/local/trunk/p8/include/pinguino/core/stdio.c	*--string = '5';		  
002ec2   0eff     movlw	0xff               	MOVLW	0xff
002ec4   260e     addwf	0xe, 0x1, 0        	ADDWF	r0x0e, F
002ec6   220f     addwfc	0xf, 0x1, 0       	ADDWFC	r0x0f, F
002ec8   2210     addwfc	0x10, 0x1, 0      	ADDWFC	r0x10, F
002eca   0e35     movlw	0x35               	MOVLW	0x35
002ecc   6ee5     movwf	0xe5, 0            	MOVWF	POSTDEC1
002ece   c00e     movff	0xe, 0xfe9         	MOVFF	r0x0e, FSR0L
002ed0   ffe9
002ed2   c00f     movff	0xf, 0xff3         	MOVFF	r0x0f, PRODL
002ed4   fff3
002ed6   5010     movf	0x10, 0, 0          	MOVF	r0x10, W
002ed8   ec31     call	0x62, 0             	CALL	__gptrput1
002eda   f000
                                           ;	.line	234; /home/regis/Hobbies/Electronique/Projets/Pinguino/local/trunk/p8/include/pinguino/core/stdio.c	*--string = '2';
002edc   0eff     movlw	0xff               	MOVLW	0xff
002ede   260e     addwf	0xe, 0x1, 0        	ADDWF	r0x0e, F
002ee0   220f     addwfc	0xf, 0x1, 0       	ADDWFC	r0x0f, F
002ee2   2210     addwfc	0x10, 0x1, 0      	ADDWFC	r0x10, F
002ee4   0e32     movlw	0x32               	MOVLW	0x32
002ee6   6ee5     movwf	0xe5, 0            	MOVWF	POSTDEC1
002ee8   c00e     movff	0xe, 0xfe9         	MOVFF	r0x0e, FSR0L
002eea   ffe9
002eec   c00f     movff	0xf, 0xff3         	MOVFF	r0x0f, PRODL
002eee   fff3
002ef0   5010     movf	0x10, 0, 0          	MOVF	r0x10, W
002ef2   ec31     call	0x62, 0             	CALL	__gptrput1
002ef4   f000
                                           ;	.line	235; /home/regis/Hobbies/Electronique/Projets/Pinguino/local/trunk/p8/include/pinguino/core/stdio.c	*--string = '1';
002ef6   0eff     movlw	0xff               	MOVLW	0xff
002ef8   260e     addwf	0xe, 0x1, 0        	ADDWF	r0x0e, F
002efa   220f     addwfc	0xf, 0x1, 0       	ADDWFC	r0x0f, F
002efc   2210     addwfc	0x10, 0x1, 0      	ADDWFC	r0x10, F
002efe   0e31     movlw	0x31               	MOVLW	0x31
002f00   6ee5     movwf	0xe5, 0            	MOVWF	POSTDEC1
002f02   c00e     movff	0xe, 0xfe9         	MOVFF	r0x0e, FSR0L
002f04   ffe9
002f06   c00f     movff	0xf, 0xff3         	MOVFF	r0x0f, PRODL
002f08   fff3
002f0a   5010     movf	0x10, 0, 0          	MOVF	r0x10, W
002f0c   ec31     call	0x62, 0             	CALL	__gptrput1
002f0e   f000
                                           ;	.line	236; /home/regis/Hobbies/Electronique/Projets/Pinguino/local/trunk/p8/include/pinguino/core/stdio.c	break;
002f10   d0ef     bra	0x30f0               	BRA	_00775_DS_
                                           _00769_DS_:
                                           ;	.line	238; /home/regis/Hobbies/Electronique/Projets/Pinguino/local/trunk/p8/include/pinguino/core/stdio.c	*--string = '0';		  
002f12   0eff     movlw	0xff               	MOVLW	0xff
002f14   260e     addwf	0xe, 0x1, 0        	ADDWF	r0x0e, F
002f16   220f     addwfc	0xf, 0x1, 0       	ADDWFC	r0x0f, F
002f18   2210     addwfc	0x10, 0x1, 0      	ADDWFC	r0x10, F
002f1a   0e30     movlw	0x30               	MOVLW	0x30
002f1c   6ee5     movwf	0xe5, 0            	MOVWF	POSTDEC1
002f1e   c00e     movff	0xe, 0xfe9         	MOVFF	r0x0e, FSR0L
002f20   ffe9
002f22   c00f     movff	0xf, 0xff3         	MOVFF	r0x0f, PRODL
002f24   fff3
002f26   5010     movf	0x10, 0, 0          	MOVF	r0x10, W
002f28   ec31     call	0x62, 0             	CALL	__gptrput1
002f2a   f000
                                           ;	.line	239; /home/regis/Hobbies/Electronique/Projets/Pinguino/local/trunk/p8/include/pinguino/core/stdio.c	*--string = '5';
002f2c   0eff     movlw	0xff               	MOVLW	0xff
002f2e   260e     addwf	0xe, 0x1, 0        	ADDWF	r0x0e, F
002f30   220f     addwfc	0xf, 0x1, 0       	ADDWFC	r0x0f, F
002f32   2210     addwfc	0x10, 0x1, 0      	ADDWFC	r0x10, F
002f34   0e35     movlw	0x35               	MOVLW	0x35
002f36   6ee5     movwf	0xe5, 0            	MOVWF	POSTDEC1
002f38   c00e     movff	0xe, 0xfe9         	MOVFF	r0x0e, FSR0L
002f3a   ffe9
002f3c   c00f     movff	0xf, 0xff3         	MOVFF	r0x0f, PRODL
002f3e   fff3
002f40   5010     movf	0x10, 0, 0          	MOVF	r0x10, W
002f42   ec31     call	0x62, 0             	CALL	__gptrput1
002f44   f000
                                           ;	.line	240; /home/regis/Hobbies/Electronique/Projets/Pinguino/local/trunk/p8/include/pinguino/core/stdio.c	*--string = '2';
002f46   0eff     movlw	0xff               	MOVLW	0xff
002f48   260e     addwf	0xe, 0x1, 0        	ADDWF	r0x0e, F
002f4a   220f     addwfc	0xf, 0x1, 0       	ADDWFC	r0x0f, F
002f4c   2210     addwfc	0x10, 0x1, 0      	ADDWFC	r0x10, F
002f4e   0e32     movlw	0x32               	MOVLW	0x32
002f50   6ee5     movwf	0xe5, 0            	MOVWF	POSTDEC1
002f52   c00e     movff	0xe, 0xfe9         	MOVFF	r0x0e, FSR0L
002f54   ffe9
002f56   c00f     movff	0xf, 0xff3         	MOVFF	r0x0f, PRODL
002f58   fff3
002f5a   5010     movf	0x10, 0, 0          	MOVF	r0x10, W
002f5c   ec31     call	0x62, 0             	CALL	__gptrput1
002f5e   f000
                                           ;	.line	241; /home/regis/Hobbies/Electronique/Projets/Pinguino/local/trunk/p8/include/pinguino/core/stdio.c	break;
002f60   d0c7     bra	0x30f0               	BRA	_00775_DS_
                                           _00770_DS_:
                                           ;	.line	243; /home/regis/Hobbies/Electronique/Projets/Pinguino/local/trunk/p8/include/pinguino/core/stdio.c	*--string = '5';		  
002f62   0eff     movlw	0xff               	MOVLW	0xff
002f64   260e     addwf	0xe, 0x1, 0        	ADDWF	r0x0e, F
002f66   220f     addwfc	0xf, 0x1, 0       	ADDWFC	r0x0f, F
002f68   2210     addwfc	0x10, 0x1, 0      	ADDWFC	r0x10, F
002f6a   0e35     movlw	0x35               	MOVLW	0x35
002f6c   6ee5     movwf	0xe5, 0            	MOVWF	POSTDEC1
002f6e   c00e     movff	0xe, 0xfe9         	MOVFF	r0x0e, FSR0L
002f70   ffe9
002f72   c00f     movff	0xf, 0xff3         	MOVFF	r0x0f, PRODL
002f74   fff3
002f76   5010     movf	0x10, 0, 0          	MOVF	r0x10, W
002f78   ec31     call	0x62, 0             	CALL	__gptrput1
002f7a   f000
                                           ;	.line	244; /home/regis/Hobbies/Electronique/Projets/Pinguino/local/trunk/p8/include/pinguino/core/stdio.c	*--string = '7';
002f7c   0eff     movlw	0xff               	MOVLW	0xff
002f7e   260e     addwf	0xe, 0x1, 0        	ADDWF	r0x0e, F
002f80   220f     addwfc	0xf, 0x1, 0       	ADDWFC	r0x0f, F
002f82   2210     addwfc	0x10, 0x1, 0      	ADDWFC	r0x10, F
002f84   0e37     movlw	0x37               	MOVLW	0x37
002f86   6ee5     movwf	0xe5, 0            	MOVWF	POSTDEC1
002f88   c00e     movff	0xe, 0xfe9         	MOVFF	r0x0e, FSR0L
002f8a   ffe9
002f8c   c00f     movff	0xf, 0xff3         	MOVFF	r0x0f, PRODL
002f8e   fff3
002f90   5010     movf	0x10, 0, 0          	MOVF	r0x10, W
002f92   ec31     call	0x62, 0             	CALL	__gptrput1
002f94   f000
                                           ;	.line	245; /home/regis/Hobbies/Electronique/Projets/Pinguino/local/trunk/p8/include/pinguino/core/stdio.c	*--string = '3';
002f96   0eff     movlw	0xff               	MOVLW	0xff
002f98   260e     addwf	0xe, 0x1, 0        	ADDWF	r0x0e, F
002f9a   220f     addwfc	0xf, 0x1, 0       	ADDWFC	r0x0f, F
002f9c   2210     addwfc	0x10, 0x1, 0      	ADDWFC	r0x10, F
002f9e   0e33     movlw	0x33               	MOVLW	0x33
002fa0   6ee5     movwf	0xe5, 0            	MOVWF	POSTDEC1
002fa2   c00e     movff	0xe, 0xfe9         	MOVFF	r0x0e, FSR0L
002fa4   ffe9
002fa6   c00f     movff	0xf, 0xff3         	MOVFF	r0x0f, PRODL
002fa8   fff3
002faa   5010     movf	0x10, 0, 0          	MOVF	r0x10, W
002fac   ec31     call	0x62, 0             	CALL	__gptrput1
002fae   f000
                                           ;	.line	246; /home/regis/Hobbies/Electronique/Projets/Pinguino/local/trunk/p8/include/pinguino/core/stdio.c	break;
002fb0   d09f     bra	0x30f0               	BRA	_00775_DS_
                                           _00771_DS_:
                                           ;	.line	248; /home/regis/Hobbies/Electronique/Projets/Pinguino/local/trunk/p8/include/pinguino/core/stdio.c	*--string = '0';
002fb2   0eff     movlw	0xff               	MOVLW	0xff
002fb4   260e     addwf	0xe, 0x1, 0        	ADDWF	r0x0e, F
002fb6   220f     addwfc	0xf, 0x1, 0       	ADDWFC	r0x0f, F
002fb8   2210     addwfc	0x10, 0x1, 0      	ADDWFC	r0x10, F
002fba   0e30     movlw	0x30               	MOVLW	0x30
002fbc   6ee5     movwf	0xe5, 0            	MOVWF	POSTDEC1
002fbe   c00e     movff	0xe, 0xfe9         	MOVFF	r0x0e, FSR0L
002fc0   ffe9
002fc2   c00f     movff	0xf, 0xff3         	MOVFF	r0x0f, PRODL
002fc4   fff3
002fc6   5010     movf	0x10, 0, 0          	MOVF	r0x10, W
002fc8   ec31     call	0x62, 0             	CALL	__gptrput1
002fca   f000
                                           ;	.line	249; /home/regis/Hobbies/Electronique/Projets/Pinguino/local/trunk/p8/include/pinguino/core/stdio.c	*--string = '0';		  
002fcc   0eff     movlw	0xff               	MOVLW	0xff
002fce   260e     addwf	0xe, 0x1, 0        	ADDWF	r0x0e, F
002fd0   220f     addwfc	0xf, 0x1, 0       	ADDWFC	r0x0f, F
002fd2   2210     addwfc	0x10, 0x1, 0      	ADDWFC	r0x10, F
002fd4   0e30     movlw	0x30               	MOVLW	0x30
002fd6   6ee5     movwf	0xe5, 0            	MOVWF	POSTDEC1
002fd8   c00e     movff	0xe, 0xfe9         	MOVFF	r0x0e, FSR0L
002fda   ffe9
002fdc   c00f     movff	0xf, 0xff3         	MOVFF	r0x0f, PRODL
002fde   fff3
002fe0   5010     movf	0x10, 0, 0          	MOVF	r0x10, W
002fe2   ec31     call	0x62, 0             	CALL	__gptrput1
002fe4   f000
                                           ;	.line	250; /home/regis/Hobbies/Electronique/Projets/Pinguino/local/trunk/p8/include/pinguino/core/stdio.c	*--string = '5';
002fe6   0eff     movlw	0xff               	MOVLW	0xff
002fe8   260e     addwf	0xe, 0x1, 0        	ADDWF	r0x0e, F
002fea   220f     addwfc	0xf, 0x1, 0       	ADDWFC	r0x0f, F
002fec   2210     addwfc	0x10, 0x1, 0      	ADDWFC	r0x10, F
002fee   0e35     movlw	0x35               	MOVLW	0x35
002ff0   6ee5     movwf	0xe5, 0            	MOVWF	POSTDEC1
002ff2   c00e     movff	0xe, 0xfe9         	MOVFF	r0x0e, FSR0L
002ff4   ffe9
002ff6   c00f     movff	0xf, 0xff3         	MOVFF	r0x0f, PRODL
002ff8   fff3
002ffa   5010     movf	0x10, 0, 0          	MOVF	r0x10, W
002ffc   ec31     call	0x62, 0             	CALL	__gptrput1
002ffe   f000
                                           ;	.line	251; /home/regis/Hobbies/Electronique/Projets/Pinguino/local/trunk/p8/include/pinguino/core/stdio.c	break;
003000   d077     bra	0x30f0               	BRA	_00775_DS_
                                           _00772_DS_:
                                           ;	.line	253; /home/regis/Hobbies/Electronique/Projets/Pinguino/local/trunk/p8/include/pinguino/core/stdio.c	*--string = '5';		  
003002   0eff     movlw	0xff               	MOVLW	0xff
003004   260e     addwf	0xe, 0x1, 0        	ADDWF	r0x0e, F
003006   220f     addwfc	0xf, 0x1, 0       	ADDWFC	r0x0f, F
003008   2210     addwfc	0x10, 0x1, 0      	ADDWFC	r0x10, F
00300a   0e35     movlw	0x35               	MOVLW	0x35
00300c   6ee5     movwf	0xe5, 0            	MOVWF	POSTDEC1
00300e   c00e     movff	0xe, 0xfe9         	MOVFF	r0x0e, FSR0L
003010   ffe9
003012   c00f     movff	0xf, 0xff3         	MOVFF	r0x0f, PRODL
003014   fff3
003016   5010     movf	0x10, 0, 0          	MOVF	r0x10, W
003018   ec31     call	0x62, 0             	CALL	__gptrput1
00301a   f000
                                           ;	.line	254; /home/regis/Hobbies/Electronique/Projets/Pinguino/local/trunk/p8/include/pinguino/core/stdio.c	*--string = '2';
00301c   0eff     movlw	0xff               	MOVLW	0xff
00301e   260e     addwf	0xe, 0x1, 0        	ADDWF	r0x0e, F
003020   220f     addwfc	0xf, 0x1, 0       	ADDWFC	r0x0f, F
003022   2210     addwfc	0x10, 0x1, 0      	ADDWFC	r0x10, F
003024   0e32     movlw	0x32               	MOVLW	0x32
003026   6ee5     movwf	0xe5, 0            	MOVWF	POSTDEC1
003028   c00e     movff	0xe, 0xfe9         	MOVFF	r0x0e, FSR0L
00302a   ffe9
00302c   c00f     movff	0xf, 0xff3         	MOVFF	r0x0f, PRODL
00302e   fff3
003030   5010     movf	0x10, 0, 0          	MOVF	r0x10, W
003032   ec31     call	0x62, 0             	CALL	__gptrput1
003034   f000
                                           ;	.line	255; /home/regis/Hobbies/Electronique/Projets/Pinguino/local/trunk/p8/include/pinguino/core/stdio.c	*--string = '6';
003036   0eff     movlw	0xff               	MOVLW	0xff
003038   260e     addwf	0xe, 0x1, 0        	ADDWF	r0x0e, F
00303a   220f     addwfc	0xf, 0x1, 0       	ADDWFC	r0x0f, F
00303c   2210     addwfc	0x10, 0x1, 0      	ADDWFC	r0x10, F
00303e   0e36     movlw	0x36               	MOVLW	0x36
003040   6ee5     movwf	0xe5, 0            	MOVWF	POSTDEC1
003042   c00e     movff	0xe, 0xfe9         	MOVFF	r0x0e, FSR0L
003044   ffe9
003046   c00f     movff	0xf, 0xff3         	MOVFF	r0x0f, PRODL
003048   fff3
00304a   5010     movf	0x10, 0, 0          	MOVF	r0x10, W
00304c   ec31     call	0x62, 0             	CALL	__gptrput1
00304e   f000
                                           ;	.line	256; /home/regis/Hobbies/Electronique/Projets/Pinguino/local/trunk/p8/include/pinguino/core/stdio.c	break;
003050   d04f     bra	0x30f0               	BRA	_00775_DS_
                                           _00773_DS_:
                                           ;	.line	258; /home/regis/Hobbies/Electronique/Projets/Pinguino/local/trunk/p8/include/pinguino/core/stdio.c	*--string = '0';		  
003052   0eff     movlw	0xff               	MOVLW	0xff
003054   260e     addwf	0xe, 0x1, 0        	ADDWF	r0x0e, F
003056   220f     addwfc	0xf, 0x1, 0       	ADDWFC	r0x0f, F
003058   2210     addwfc	0x10, 0x1, 0      	ADDWFC	r0x10, F
00305a   0e30     movlw	0x30               	MOVLW	0x30
00305c   6ee5     movwf	0xe5, 0            	MOVWF	POSTDEC1
00305e   c00e     movff	0xe, 0xfe9         	MOVFF	r0x0e, FSR0L
003060   ffe9
003062   c00f     movff	0xf, 0xff3         	MOVFF	r0x0f, PRODL
003064   fff3
003066   5010     movf	0x10, 0, 0          	MOVF	r0x10, W
003068   ec31     call	0x62, 0             	CALL	__gptrput1
00306a   f000
                                           ;	.line	259; /home/regis/Hobbies/Electronique/Projets/Pinguino/local/trunk/p8/include/pinguino/core/stdio.c	*--string = '5';
00306c   0eff     movlw	0xff               	MOVLW	0xff
00306e   260e     addwf	0xe, 0x1, 0        	ADDWF	r0x0e, F
003070   220f     addwfc	0xf, 0x1, 0       	ADDWFC	r0x0f, F
003072   2210     addwfc	0x10, 0x1, 0      	ADDWFC	r0x10, F
003074   0e35     movlw	0x35               	MOVLW	0x35
003076   6ee5     movwf	0xe5, 0            	MOVWF	POSTDEC1
003078   c00e     movff	0xe, 0xfe9         	MOVFF	r0x0e, FSR0L
00307a   ffe9
00307c   c00f     movff	0xf, 0xff3         	MOVFF	r0x0f, PRODL
00307e   fff3
003080   5010     movf	0x10, 0, 0          	MOVF	r0x10, W
003082   ec31     call	0x62, 0             	CALL	__gptrput1
003084   f000
                                           ;	.line	260; /home/regis/Hobbies/Electronique/Projets/Pinguino/local/trunk/p8/include/pinguino/core/stdio.c	*--string = '7';
003086   0eff     movlw	0xff               	MOVLW	0xff
003088   260e     addwf	0xe, 0x1, 0        	ADDWF	r0x0e, F
00308a   220f     addwfc	0xf, 0x1, 0       	ADDWFC	r0x0f, F
00308c   2210     addwfc	0x10, 0x1, 0      	ADDWFC	r0x10, F
00308e   0e37     movlw	0x37               	MOVLW	0x37
003090   6ee5     movwf	0xe5, 0            	MOVWF	POSTDEC1
003092   c00e     movff	0xe, 0xfe9         	MOVFF	r0x0e, FSR0L
003094   ffe9
003096   c00f     movff	0xf, 0xff3         	MOVFF	r0x0f, PRODL
003098   fff3
00309a   5010     movf	0x10, 0, 0          	MOVF	r0x10, W
00309c   ec31     call	0x62, 0             	CALL	__gptrput1
00309e   f000
                                           ;	.line	261; /home/regis/Hobbies/Electronique/Projets/Pinguino/local/trunk/p8/include/pinguino/core/stdio.c	break;
0030a0   d027     bra	0x30f0               	BRA	_00775_DS_
                                           _00774_DS_:
                                           ;	.line	263; /home/regis/Hobbies/Electronique/Projets/Pinguino/local/trunk/p8/include/pinguino/core/stdio.c	*--string = '5';				
0030a2   0eff     movlw	0xff               	MOVLW	0xff
0030a4   260e     addwf	0xe, 0x1, 0        	ADDWF	r0x0e, F
0030a6   220f     addwfc	0xf, 0x1, 0       	ADDWFC	r0x0f, F
0030a8   2210     addwfc	0x10, 0x1, 0      	ADDWFC	r0x10, F
0030aa   0e35     movlw	0x35               	MOVLW	0x35
0030ac   6ee5     movwf	0xe5, 0            	MOVWF	POSTDEC1
0030ae   c00e     movff	0xe, 0xfe9         	MOVFF	r0x0e, FSR0L
0030b0   ffe9
0030b2   c00f     movff	0xf, 0xff3         	MOVFF	r0x0f, PRODL
0030b4   fff3
0030b6   5010     movf	0x10, 0, 0          	MOVF	r0x10, W
0030b8   ec31     call	0x62, 0             	CALL	__gptrput1
0030ba   f000
                                           ;	.line	264; /home/regis/Hobbies/Electronique/Projets/Pinguino/local/trunk/p8/include/pinguino/core/stdio.c	*--string = '7';
0030bc   0eff     movlw	0xff               	MOVLW	0xff
0030be   260e     addwf	0xe, 0x1, 0        	ADDWF	r0x0e, F
0030c0   220f     addwfc	0xf, 0x1, 0       	ADDWFC	r0x0f, F
0030c2   2210     addwfc	0x10, 0x1, 0      	ADDWFC	r0x10, F
0030c4   0e37     movlw	0x37               	MOVLW	0x37
0030c6   6ee5     movwf	0xe5, 0            	MOVWF	POSTDEC1
0030c8   c00e     movff	0xe, 0xfe9         	MOVFF	r0x0e, FSR0L
0030ca   ffe9
0030cc   c00f     movff	0xf, 0xff3         	MOVFF	r0x0f, PRODL
0030ce   fff3
0030d0   5010     movf	0x10, 0, 0          	MOVF	r0x10, W
0030d2   ec31     call	0x62, 0             	CALL	__gptrput1
0030d4   f000
                                           ;	.line	265; /home/regis/Hobbies/Electronique/Projets/Pinguino/local/trunk/p8/include/pinguino/core/stdio.c	*--string = '8';
0030d6   0eff     movlw	0xff               	MOVLW	0xff
0030d8   260e     addwf	0xe, 0x1, 0        	ADDWF	r0x0e, F
0030da   220f     addwfc	0xf, 0x1, 0       	ADDWFC	r0x0f, F
0030dc   2210     addwfc	0x10, 0x1, 0      	ADDWFC	r0x10, F
0030de   0e38     movlw	0x38               	MOVLW	0x38
0030e0   6ee5     movwf	0xe5, 0            	MOVWF	POSTDEC1
0030e2   c00e     movff	0xe, 0xfe9         	MOVFF	r0x0e, FSR0L
0030e4   ffe9
0030e6   c00f     movff	0xf, 0xff3         	MOVFF	r0x0f, PRODL
0030e8   fff3
0030ea   5010     movf	0x10, 0, 0          	MOVF	r0x10, W
0030ec   ec31     call	0x62, 0             	CALL	__gptrput1
0030ee   f000
                                           _00775_DS_:
                                           ;	.line	270; /home/regis/Hobbies/Electronique/Projets/Pinguino/local/trunk/p8/include/pinguino/core/stdio.c	*--string = '.';
0030f0   0eff     movlw	0xff               	MOVLW	0xff
0030f2   260e     addwf	0xe, 0x1, 0        	ADDWF	r0x0e, F
0030f4   220f     addwfc	0xf, 0x1, 0       	ADDWFC	r0x0f, F
0030f6   2210     addwfc	0x10, 0x1, 0      	ADDWFC	r0x10, F
0030f8   0e2e     movlw	0x2e               	MOVLW	0x2e
0030fa   6ee5     movwf	0xe5, 0            	MOVWF	POSTDEC1
0030fc   c00e     movff	0xe, 0xfe9         	MOVFF	r0x0e, FSR0L
0030fe   ffe9
003100   c00f     movff	0xf, 0xff3         	MOVFF	r0x0f, PRODL
003102   fff3
003104   5010     movf	0x10, 0, 0          	MOVF	r0x10, W
003106   ec31     call	0x62, 0             	CALL	__gptrput1
003108   f000
                                           ;	.line	273; /home/regis/Hobbies/Electronique/Projets/Pinguino/local/trunk/p8/include/pinguino/core/stdio.c	int_part = mantissa >> (23 - exponent);    
00310a   500d     movf	0xd, 0, 0           	MOVF	r0x0d, W
00310c   0817     sublw	0x17               	SUBLW	0x17
00310e   6e0d     movwf	0xd, 0             	MOVWF	r0x0d
003110   0e00     movlw	0                  	MOVLW	0x00
003112   5611     subfwb	0x11, 0x1, 0      	SUBFWB	r0x11, F
003114   500d     movf	0xd, 0, 0           	MOVF	r0x0d, W
003116   e011     bz	0x313a                	BZ	_00803_DS_
003118   e609     bn	0x312c                	BN	_00806_DS_
00311a   6ce8     negf	0xe8, 0             	NEGF	WREG
00311c   90d8     bcf	0xd8, 0, 0           	BCF	STATUS, 0
                                           _00804_DS_:
00311e   3206     rrcf	0x6, 0x1, 0         	RRCF	r0x06, F
003120   3205     rrcf	0x5, 0x1, 0         	RRCF	r0x05, F
003122   3204     rrcf	0x4, 0x1, 0         	RRCF	r0x04, F
003124   3203     rrcf	0x3, 0x1, 0         	RRCF	r0x03, F
003126   0f01     addlw	0x1                	ADDLW	0x01
003128   e3fa     bnc	0x311e               	BNC	_00804_DS_
00312a   d007     bra	0x313a               	BRA	_00803_DS_
                                           _00806_DS_:
00312c   90d8     bcf	0xd8, 0, 0           	BCF	STATUS, 0
                                           _00805_DS_:
00312e   3603     rlcf	0x3, 0x1, 0         	RLCF	r0x03, F
003130   3604     rlcf	0x4, 0x1, 0         	RLCF	r0x04, F
003132   3605     rlcf	0x5, 0x1, 0         	RLCF	r0x05, F
003134   3606     rlcf	0x6, 0x1, 0         	RLCF	r0x06, F
003136   0f01     addlw	0x1                	ADDLW	0x01
003138   e3fa     bnc	0x312e               	BNC	_00805_DS_
                                           _00803_DS_:
                                           ;	.line	276; /home/regis/Hobbies/Electronique/Projets/Pinguino/local/trunk/p8/include/pinguino/core/stdio.c	while (int_part)
00313a   c00e     movff	0xe, 0x5           	MOVFF	r0x0e, r0x05
00313c   f005
00313e   c00f     movff	0xf, 0x6           	MOVFF	r0x0f, r0x06
003140   f006
003142   c010     movff	0x10, 0xd          	MOVFF	r0x10, r0x0d
003144   f00d
                                           _00776_DS_:
003146   5003     movf	0x3, 0, 0           	MOVF	r0x03, W
003148   1004     iorwf	0x4, 0, 0          	IORWF	r0x04, W
00314a   e02a     bz	0x31a0                	BZ	_00794_DS_
                                           ;	.line	278; /home/regis/Hobbies/Electronique/Projets/Pinguino/local/trunk/p8/include/pinguino/core/stdio.c	t = int_part % 10;
00314c   6ae5     clrf	0xe5, 0             	CLRF	POSTDEC1
00314e   0e0a     movlw	0xa                	MOVLW	0x0a
003150   6ee5     movwf	0xe5, 0            	MOVWF	POSTDEC1
003152   5004     movf	0x4, 0, 0           	MOVF	r0x04, W
003154   6ee5     movwf	0xe5, 0            	MOVWF	POSTDEC1
003156   5003     movf	0x3, 0, 0           	MOVF	r0x03, W
003158   6ee5     movwf	0xe5, 0            	MOVWF	POSTDEC1
00315a   ec35     call	0x4c6a, 0           	CALL	__moduint
00315c   f026
00315e   6e11     movwf	0x11, 0            	MOVWF	r0x11
003160   0e04     movlw	0x4                	MOVLW	0x04
003162   26e1     addwf	0xe1, 0x1, 0       	ADDWF	FSR1L, F
                                           ;	.line	279; /home/regis/Hobbies/Electronique/Projets/Pinguino/local/trunk/p8/include/pinguino/core/stdio.c	*--string = t + '0';
003164   0eff     movlw	0xff               	MOVLW	0xff
003166   2605     addwf	0x5, 0x1, 0        	ADDWF	r0x05, F
003168   2206     addwfc	0x6, 0x1, 0       	ADDWFC	r0x06, F
00316a   220d     addwfc	0xd, 0x1, 0       	ADDWFC	r0x0d, F
00316c   0e30     movlw	0x30               	MOVLW	0x30
00316e   2611     addwf	0x11, 0x1, 0       	ADDWF	r0x11, F
003170   c011     movff	0x11, 0xfe5        	MOVFF	r0x11, POSTDEC1
003172   ffe5
003174   c005     movff	0x5, 0xfe9         	MOVFF	r0x05, FSR0L
003176   ffe9
003178   c006     movff	0x6, 0xff3         	MOVFF	r0x06, PRODL
00317a   fff3
00317c   500d     movf	0xd, 0, 0           	MOVF	r0x0d, W
00317e   ec31     call	0x62, 0             	CALL	__gptrput1
003180   f000
                                           ;	.line	280; /home/regis/Hobbies/Electronique/Projets/Pinguino/local/trunk/p8/include/pinguino/core/stdio.c	int_part /= 10;
003182   6ae5     clrf	0xe5, 0             	CLRF	POSTDEC1
003184   0e0a     movlw	0xa                	MOVLW	0x0a
003186   6ee5     movwf	0xe5, 0            	MOVWF	POSTDEC1
003188   5004     movf	0x4, 0, 0           	MOVF	r0x04, W
00318a   6ee5     movwf	0xe5, 0            	MOVWF	POSTDEC1
00318c   5003     movf	0x3, 0, 0           	MOVF	r0x03, W
00318e   6ee5     movwf	0xe5, 0            	MOVWF	POSTDEC1
003190   ece7     call	0x4dce, 0           	CALL	__divuint
003192   f026
003194   6e03     movwf	0x3, 0             	MOVWF	r0x03
003196   cff3     movff	0xff3, 0x4         	MOVFF	PRODL, r0x04
003198   f004
00319a   0e04     movlw	0x4                	MOVLW	0x04
00319c   26e1     addwf	0xe1, 0x1, 0       	ADDWF	FSR1L, F
00319e   d7d3     bra	0x3146               	BRA	_00776_DS_
                                           _00794_DS_:
0031a0   c005     movff	0x5, 0xe           	MOVFF	r0x05, r0x0e
0031a2   f00e
0031a4   c006     movff	0x6, 0xf           	MOVFF	r0x06, r0x0f
0031a6   f00f
0031a8   c00d     movff	0xd, 0x10          	MOVFF	r0x0d, r0x10
0031aa   f010
0031ac   0103     movlb	0x3                	BANKSEL	(_pprintfl_helper_1_1 + 4)
                                           ;	.line	284; /home/regis/Hobbies/Electronique/Projets/Pinguino/local/trunk/p8/include/pinguino/core/stdio.c	if (helper.sign)
0031ae   a125     btfss	0x25, 0, 0x1       	BTFSS	(_pprintfl_helper_1_1 + 4), 0, B
0031b0   d026     bra	0x31fe               	BRA	_00784_DS_
                                           ;	.line	286; /home/regis/Hobbies/Electronique/Projets/Pinguino/local/trunk/p8/include/pinguino/core/stdio.c	if (width && (pad & PAD_ZERO))
0031b2   5007     movf	0x7, 0, 0           	MOVF	r0x07, W
0031b4   1008     iorwf	0x8, 0, 0          	IORWF	r0x08, W
0031b6   e016     bz	0x31e4                	BZ	_00780_DS_
0031b8   a209     btfss	0x9, 0x1, 0        	BTFSS	r0x09, 1
0031ba   d014     bra	0x31e4               	BRA	_00780_DS_
                                           ;	.line	288; /home/regis/Hobbies/Electronique/Projets/Pinguino/local/trunk/p8/include/pinguino/core/stdio.c	pprintc(out, '-');
0031bc   0e2d     movlw	0x2d               	MOVLW	0x2d
0031be   6ee5     movwf	0xe5, 0            	MOVWF	POSTDEC1
0031c0   5002     movf	0x2, 0, 0           	MOVF	r0x02, W
0031c2   6ee5     movwf	0xe5, 0            	MOVWF	POSTDEC1
0031c4   5001     movf	0x1, 0, 0           	MOVF	r0x01, W
0031c6   6ee5     movwf	0xe5, 0            	MOVWF	POSTDEC1
0031c8   5000     movf	0, 0, 0             	MOVF	r0x00, W
0031ca   6ee5     movwf	0xe5, 0            	MOVWF	POSTDEC1
0031cc   ec56     call	0x4aac, 0           	CALL	_pprintc
0031ce   f025
0031d0   0e04     movlw	0x4                	MOVLW	0x04
0031d2   26e1     addwf	0xe1, 0x1, 0       	ADDWF	FSR1L, F
                                           ;	.line	289; /home/regis/Hobbies/Electronique/Projets/Pinguino/local/trunk/p8/include/pinguino/core/stdio.c	++count;
0031d4   0e01     movlw	0x1                	MOVLW	0x01
0031d6   6e0b     movwf	0xb, 0             	MOVWF	r0x0b
0031d8   6a0c     clrf	0xc, 0              	CLRF	r0x0c
                                           ;	.line	290; /home/regis/Hobbies/Electronique/Projets/Pinguino/local/trunk/p8/include/pinguino/core/stdio.c	--width;
0031da   0eff     movlw	0xff               	MOVLW	0xff
0031dc   2607     addwf	0x7, 0x1, 0        	ADDWF	r0x07, F
0031de   a0d8     btfss	0xd8, 0, 0         	BTFSS	STATUS, 0
0031e0   0608     decf	0x8, 0x1, 0         	DECF	r0x08, F
0031e2   d00d     bra	0x31fe               	BRA	_00784_DS_
                                           _00780_DS_:
                                           ;	.line	294; /home/regis/Hobbies/Electronique/Projets/Pinguino/local/trunk/p8/include/pinguino/core/stdio.c	*--string = '-';
0031e4   0eff     movlw	0xff               	MOVLW	0xff
0031e6   260e     addwf	0xe, 0x1, 0        	ADDWF	r0x0e, F
0031e8   220f     addwfc	0xf, 0x1, 0       	ADDWFC	r0x0f, F
0031ea   2210     addwfc	0x10, 0x1, 0      	ADDWFC	r0x10, F
0031ec   0e2d     movlw	0x2d               	MOVLW	0x2d
0031ee   6ee5     movwf	0xe5, 0            	MOVWF	POSTDEC1
0031f0   c00e     movff	0xe, 0xfe9         	MOVFF	r0x0e, FSR0L
0031f2   ffe9
0031f4   c00f     movff	0xf, 0xff3         	MOVFF	r0x0f, PRODL
0031f6   fff3
0031f8   5010     movf	0x10, 0, 0          	MOVF	r0x10, W
0031fa   ec31     call	0x62, 0             	CALL	__gptrput1
0031fc   f000
                                           _00784_DS_:
                                           ;	.line	298; /home/regis/Hobbies/Electronique/Projets/Pinguino/local/trunk/p8/include/pinguino/core/stdio.c	return count + pprints(out, string, width, pad);
0031fe   500a     movf	0xa, 0, 0           	MOVF	r0x0a, W
003200   6ee5     movwf	0xe5, 0            	MOVWF	POSTDEC1
003202   5009     movf	0x9, 0, 0           	MOVF	r0x09, W
003204   6ee5     movwf	0xe5, 0            	MOVWF	POSTDEC1
003206   5008     movf	0x8, 0, 0           	MOVF	r0x08, W
003208   6ee5     movwf	0xe5, 0            	MOVWF	POSTDEC1
00320a   5007     movf	0x7, 0, 0           	MOVF	r0x07, W
00320c   6ee5     movwf	0xe5, 0            	MOVWF	POSTDEC1
00320e   5010     movf	0x10, 0, 0          	MOVF	r0x10, W
003210   6ee5     movwf	0xe5, 0            	MOVWF	POSTDEC1
003212   500f     movf	0xf, 0, 0           	MOVF	r0x0f, W
003214   6ee5     movwf	0xe5, 0            	MOVWF	POSTDEC1
003216   500e     movf	0xe, 0, 0           	MOVF	r0x0e, W
003218   6ee5     movwf	0xe5, 0            	MOVWF	POSTDEC1
00321a   5002     movf	0x2, 0, 0           	MOVF	r0x02, W
00321c   6ee5     movwf	0xe5, 0            	MOVWF	POSTDEC1
00321e   5001     movf	0x1, 0, 0           	MOVF	r0x01, W
003220   6ee5     movwf	0xe5, 0            	MOVWF	POSTDEC1
003222   5000     movf	0, 0, 0             	MOVF	r0x00, W
003224   6ee5     movwf	0xe5, 0            	MOVWF	POSTDEC1
003226   ec75     call	0x3cea, 0           	CALL	_pprints
003228   f01e
00322a   6e00     movwf	0, 0               	MOVWF	r0x00
00322c   cff3     movff	0xff3, 0x1         	MOVFF	PRODL, r0x01
00322e   f001
003230   0e0a     movlw	0xa                	MOVLW	0x0a
003232   26e1     addwf	0xe1, 0x1, 0       	ADDWF	FSR1L, F
003234   5000     movf	0, 0, 0             	MOVF	r0x00, W
003236   260b     addwf	0xb, 0x1, 0        	ADDWF	r0x0b, F
003238   5001     movf	0x1, 0, 0           	MOVF	r0x01, W
00323a   220c     addwfc	0xc, 0x1, 0       	ADDWFC	r0x0c, F
00323c   c00c     movff	0xc, 0xff3         	MOVFF	r0x0c, PRODL
00323e   fff3
003240   500b     movf	0xb, 0, 0           	MOVF	r0x0b, W
                                           _00785_DS_:
003242   cfe4     movff	0xfe4, 0x15        	MOVFF	PREINC1, r0x15
003244   f015
003246   cfe4     movff	0xfe4, 0x14        	MOVFF	PREINC1, r0x14
003248   f014
00324a   cfe4     movff	0xfe4, 0x13        	MOVFF	PREINC1, r0x13
00324c   f013
00324e   cfe4     movff	0xfe4, 0x12        	MOVFF	PREINC1, r0x12
003250   f012
003252   cfe4     movff	0xfe4, 0x11        	MOVFF	PREINC1, r0x11
003254   f011
003256   cfe4     movff	0xfe4, 0x10        	MOVFF	PREINC1, r0x10
003258   f010
00325a   cfe4     movff	0xfe4, 0xf         	MOVFF	PREINC1, r0x0f
00325c   f00f
00325e   cfe4     movff	0xfe4, 0xe         	MOVFF	PREINC1, r0x0e
003260   f00e
003262   cfe4     movff	0xfe4, 0xd         	MOVFF	PREINC1, r0x0d
003264   f00d
003266   cfe4     movff	0xfe4, 0xc         	MOVFF	PREINC1, r0x0c
003268   f00c
00326a   cfe4     movff	0xfe4, 0xb         	MOVFF	PREINC1, r0x0b
00326c   f00b
00326e   cfe4     movff	0xfe4, 0xa         	MOVFF	PREINC1, r0x0a
003270   f00a
003272   cfe4     movff	0xfe4, 0x9         	MOVFF	PREINC1, r0x09
003274   f009
003276   cfe4     movff	0xfe4, 0x8         	MOVFF	PREINC1, r0x08
003278   f008
00327a   cfe4     movff	0xfe4, 0x7         	MOVFF	PREINC1, r0x07
00327c   f007
00327e   cfe4     movff	0xfe4, 0x6         	MOVFF	PREINC1, r0x06
003280   f006
003282   cfe4     movff	0xfe4, 0x5         	MOVFF	PREINC1, r0x05
003284   f005
003286   cfe4     movff	0xfe4, 0x4         	MOVFF	PREINC1, r0x04
003288   f004
00328a   cfe4     movff	0xfe4, 0x3         	MOVFF	PREINC1, r0x03
00328c   f003
00328e   cfe4     movff	0xfe4, 0x2         	MOVFF	PREINC1, r0x02
003290   f002
003292   cfe4     movff	0xfe4, 0x1         	MOVFF	PREINC1, r0x01
003294   f001
003296   cfe4     movff	0xfe4, 0           	MOVFF	PREINC1, r0x00
003298   f000
00329a   cfe4     movff	0xfe4, 0xfd9       	MOVFF	PREINC1, FSR2L
00329c   ffd9
00329e   0012     return	0                 	RETURN	
                                           
                                           ; ; Starting pCode block
                                           S_main__pprinti	code
                                           _pprinti:
                                           ;	.line	104; /home/regis/Hobbies/Electronique/Projets/Pinguino/local/trunk/p8/include/pinguino/core/stdio.c	static int pprinti(char **out, long i, int base, int sign, int width, int pad, int letterbase)
0036b0   cfd9     movff	0xfd9, 0xfe5       	MOVFF	FSR2L, POSTDEC1
0036b2   ffe5
0036b4   cfe1     movff	0xfe1, 0xfd9       	MOVFF	FSR1L, FSR2L
0036b6   ffd9
0036b8   c000     movff	0, 0xfe5           	MOVFF	r0x00, POSTDEC1
0036ba   ffe5
0036bc   c001     movff	0x1, 0xfe5         	MOVFF	r0x01, POSTDEC1
0036be   ffe5
0036c0   c002     movff	0x2, 0xfe5         	MOVFF	r0x02, POSTDEC1
0036c2   ffe5
0036c4   c003     movff	0x3, 0xfe5         	MOVFF	r0x03, POSTDEC1
0036c6   ffe5
0036c8   c004     movff	0x4, 0xfe5         	MOVFF	r0x04, POSTDEC1
0036ca   ffe5
0036cc   c005     movff	0x5, 0xfe5         	MOVFF	r0x05, POSTDEC1
0036ce   ffe5
0036d0   c006     movff	0x6, 0xfe5         	MOVFF	r0x06, POSTDEC1
0036d2   ffe5
0036d4   c007     movff	0x7, 0xfe5         	MOVFF	r0x07, POSTDEC1
0036d6   ffe5
0036d8   c008     movff	0x8, 0xfe5         	MOVFF	r0x08, POSTDEC1
0036da   ffe5
0036dc   c009     movff	0x9, 0xfe5         	MOVFF	r0x09, POSTDEC1
0036de   ffe5
0036e0   c00a     movff	0xa, 0xfe5         	MOVFF	r0x0a, POSTDEC1
0036e2   ffe5
0036e4   c00b     movff	0xb, 0xfe5         	MOVFF	r0x0b, POSTDEC1
0036e6   ffe5
0036e8   c00c     movff	0xc, 0xfe5         	MOVFF	r0x0c, POSTDEC1
0036ea   ffe5
0036ec   c00d     movff	0xd, 0xfe5         	MOVFF	r0x0d, POSTDEC1
0036ee   ffe5
0036f0   c00e     movff	0xe, 0xfe5         	MOVFF	r0x0e, POSTDEC1
0036f2   ffe5
0036f4   c00f     movff	0xf, 0xfe5         	MOVFF	r0x0f, POSTDEC1
0036f6   ffe5
0036f8   c010     movff	0x10, 0xfe5        	MOVFF	r0x10, POSTDEC1
0036fa   ffe5
0036fc   c011     movff	0x11, 0xfe5        	MOVFF	r0x11, POSTDEC1
0036fe   ffe5
003700   c012     movff	0x12, 0xfe5        	MOVFF	r0x12, POSTDEC1
003702   ffe5
003704   c013     movff	0x13, 0xfe5        	MOVFF	r0x13, POSTDEC1
003706   ffe5
003708   c014     movff	0x14, 0xfe5        	MOVFF	r0x14, POSTDEC1
00370a   ffe5
00370c   c015     movff	0x15, 0xfe5        	MOVFF	r0x15, POSTDEC1
00370e   ffe5
003710   c016     movff	0x16, 0xfe5        	MOVFF	r0x16, POSTDEC1
003712   ffe5
003714   c017     movff	0x17, 0xfe5        	MOVFF	r0x17, POSTDEC1
003716   ffe5
003718   c018     movff	0x18, 0xfe5        	MOVFF	r0x18, POSTDEC1
00371a   ffe5
00371c   c019     movff	0x19, 0xfe5        	MOVFF	r0x19, POSTDEC1
00371e   ffe5
003720   c01a     movff	0x1a, 0xfe5        	MOVFF	r0x1a, POSTDEC1
003722   ffe5
003724   c01b     movff	0x1b, 0xfe5        	MOVFF	r0x1b, POSTDEC1
003726   ffe5
003728   c01c     movff	0x1c, 0xfe5        	MOVFF	r0x1c, POSTDEC1
00372a   ffe5
00372c   c01d     movff	0x1d, 0xfe5        	MOVFF	r0x1d, POSTDEC1
00372e   ffe5
003730   c01e     movff	0x1e, 0xfe5        	MOVFF	r0x1e, POSTDEC1
003732   ffe5
003734   c01f     movff	0x1f, 0xfe5        	MOVFF	r0x1f, POSTDEC1
003736   ffe5
003738   c020     movff	0x20, 0xfe5        	MOVFF	r0x20, POSTDEC1
00373a   ffe5
00373c   c021     movff	0x21, 0xfe5        	MOVFF	r0x21, POSTDEC1
00373e   ffe5
003740   0e02     movlw	0x2                	MOVLW	0x02
003742   cfdb     movff	0xfdb, 0           	MOVFF	PLUSW2, r0x00
003744   f000
003746   0e03     movlw	0x3                	MOVLW	0x03
003748   cfdb     movff	0xfdb, 0x1         	MOVFF	PLUSW2, r0x01
00374a   f001
00374c   0e04     movlw	0x4                	MOVLW	0x04
00374e   cfdb     movff	0xfdb, 0x2         	MOVFF	PLUSW2, r0x02
003750   f002
003752   0e05     movlw	0x5                	MOVLW	0x05
003754   cfdb     movff	0xfdb, 0x3         	MOVFF	PLUSW2, r0x03
003756   f003
003758   0e06     movlw	0x6                	MOVLW	0x06
00375a   cfdb     movff	0xfdb, 0x4         	MOVFF	PLUSW2, r0x04
00375c   f004
00375e   0e07     movlw	0x7                	MOVLW	0x07
003760   cfdb     movff	0xfdb, 0x5         	MOVFF	PLUSW2, r0x05
003762   f005
003764   0e08     movlw	0x8                	MOVLW	0x08
003766   cfdb     movff	0xfdb, 0x6         	MOVFF	PLUSW2, r0x06
003768   f006
00376a   0e09     movlw	0x9                	MOVLW	0x09
00376c   cfdb     movff	0xfdb, 0x7         	MOVFF	PLUSW2, r0x07
00376e   f007
003770   0e0a     movlw	0xa                	MOVLW	0x0a
003772   cfdb     movff	0xfdb, 0x8         	MOVFF	PLUSW2, r0x08
003774   f008
003776   0e0b     movlw	0xb                	MOVLW	0x0b
003778   cfdb     movff	0xfdb, 0x9         	MOVFF	PLUSW2, r0x09
00377a   f009
00377c   0e0c     movlw	0xc                	MOVLW	0x0c
00377e   cfdb     movff	0xfdb, 0xa         	MOVFF	PLUSW2, r0x0a
003780   f00a
003782   0e0d     movlw	0xd                	MOVLW	0x0d
003784   cfdb     movff	0xfdb, 0xb         	MOVFF	PLUSW2, r0x0b
003786   f00b
003788   0e0e     movlw	0xe                	MOVLW	0x0e
00378a   cfdb     movff	0xfdb, 0xc         	MOVFF	PLUSW2, r0x0c
00378c   f00c
00378e   0e0f     movlw	0xf                	MOVLW	0x0f
003790   cfdb     movff	0xfdb, 0xd         	MOVFF	PLUSW2, r0x0d
003792   f00d
003794   0e10     movlw	0x10               	MOVLW	0x10
003796   cfdb     movff	0xfdb, 0xe         	MOVFF	PLUSW2, r0x0e
003798   f00e
00379a   0e11     movlw	0x11               	MOVLW	0x11
00379c   cfdb     movff	0xfdb, 0xf         	MOVFF	PLUSW2, r0x0f
00379e   f00f
0037a0   0e12     movlw	0x12               	MOVLW	0x12
0037a2   cfdb     movff	0xfdb, 0x10        	MOVFF	PLUSW2, r0x10
0037a4   f010
                                           ;	.line	108; /home/regis/Hobbies/Electronique/Projets/Pinguino/local/trunk/p8/include/pinguino/core/stdio.c	int neg = 0, pc = 0;
0037a6   6a11     clrf	0x11, 0             	CLRF	r0x11
0037a8   6a12     clrf	0x12, 0             	CLRF	r0x12
0037aa   6a13     clrf	0x13, 0             	CLRF	r0x13
0037ac   6a14     clrf	0x14, 0             	CLRF	r0x14
                                           ;	.line	110; /home/regis/Hobbies/Electronique/Projets/Pinguino/local/trunk/p8/include/pinguino/core/stdio.c	unsigned long unslng = i;
0037ae   c003     movff	0x3, 0x15          	MOVFF	r0x03, r0x15
0037b0   f015
0037b2   c004     movff	0x4, 0x16          	MOVFF	r0x04, r0x16
0037b4   f016
0037b6   c005     movff	0x5, 0x17          	MOVFF	r0x05, r0x17
0037b8   f017
0037ba   c006     movff	0x6, 0x18          	MOVFF	r0x06, r0x18
0037bc   f018
                                           ;	.line	112; /home/regis/Hobbies/Electronique/Projets/Pinguino/local/trunk/p8/include/pinguino/core/stdio.c	if (i == 0)
0037be   5003     movf	0x3, 0, 0           	MOVF	r0x03, W
0037c0   1004     iorwf	0x4, 0, 0          	IORWF	r0x04, W
0037c2   1005     iorwf	0x5, 0, 0          	IORWF	r0x05, W
0037c4   1006     iorwf	0x6, 0, 0          	IORWF	r0x06, W
0037c6   e123     bnz	0x380e               	BNZ	_00727_DS_
                                           ;	.line	114; /home/regis/Hobbies/Electronique/Projets/Pinguino/local/trunk/p8/include/pinguino/core/stdio.c	buffer[0] = '0';
0037c8   0e30     movlw	0x30               	MOVLW	0x30
0037ca   0102     movlb	0x2                	BANKSEL	_pprinti_buffer_1_1
0037cc   6ff0     movwf	0xf0, 0x1          	MOVWF	_pprinti_buffer_1_1, B
                                           ; removed redundant BANKSEL
                                           ;	.line	115; /home/regis/Hobbies/Electronique/Projets/Pinguino/local/trunk/p8/include/pinguino/core/stdio.c	buffer[1] = '\0';
0037ce   6bf1     clrf	0xf1, 0x1           	CLRF	(_pprinti_buffer_1_1 + 1), B
                                           ;	.line	116; /home/regis/Hobbies/Electronique/Projets/Pinguino/local/trunk/p8/include/pinguino/core/stdio.c	return pprints(out, buffer, width, pad);
0037d0   500e     movf	0xe, 0, 0           	MOVF	r0x0e, W
0037d2   6ee5     movwf	0xe5, 0            	MOVWF	POSTDEC1
0037d4   500d     movf	0xd, 0, 0           	MOVF	r0x0d, W
0037d6   6ee5     movwf	0xe5, 0            	MOVWF	POSTDEC1
0037d8   500c     movf	0xc, 0, 0           	MOVF	r0x0c, W
0037da   6ee5     movwf	0xe5, 0            	MOVWF	POSTDEC1
0037dc   500b     movf	0xb, 0, 0           	MOVF	r0x0b, W
0037de   6ee5     movwf	0xe5, 0            	MOVWF	POSTDEC1
0037e0   0e80     movlw	0x80               	MOVLW	0x80
0037e2   6ee5     movwf	0xe5, 0            	MOVWF	POSTDEC1
0037e4   0e02     movlw	0x2                	MOVLW	HIGH(_pprinti_buffer_1_1)
0037e6   6ee5     movwf	0xe5, 0            	MOVWF	POSTDEC1
0037e8   0ef0     movlw	0xf0               	MOVLW	LOW(_pprinti_buffer_1_1)
0037ea   6ee5     movwf	0xe5, 0            	MOVWF	POSTDEC1
0037ec   5002     movf	0x2, 0, 0           	MOVF	r0x02, W
0037ee   6ee5     movwf	0xe5, 0            	MOVWF	POSTDEC1
0037f0   5001     movf	0x1, 0, 0           	MOVF	r0x01, W
0037f2   6ee5     movwf	0xe5, 0            	MOVWF	POSTDEC1
0037f4   5000     movf	0, 0, 0             	MOVF	r0x00, W
0037f6   6ee5     movwf	0xe5, 0            	MOVWF	POSTDEC1
0037f8   ec75     call	0x3cea, 0           	CALL	_pprints
0037fa   f01e
0037fc   6e19     movwf	0x19, 0            	MOVWF	r0x19
0037fe   cff3     movff	0xff3, 0x1a        	MOVFF	PRODL, r0x1a
003800   f01a
003802   0e0a     movlw	0xa                	MOVLW	0x0a
003804   26e1     addwf	0xe1, 0x1, 0       	ADDWF	FSR1L, F
003806   c01a     movff	0x1a, 0xff3        	MOVFF	r0x1a, PRODL
003808   fff3
00380a   5019     movf	0x19, 0, 0          	MOVF	r0x19, W
00380c   d0f6     bra	0x39fa               	BRA	_00743_DS_
                                           _00727_DS_:
                                           ;	.line	119; /home/regis/Hobbies/Electronique/Projets/Pinguino/local/trunk/p8/include/pinguino/core/stdio.c	if (sign && base == 10 && i < 0)
00380e   5009     movf	0x9, 0, 0           	MOVF	r0x09, W
003810   100a     iorwf	0xa, 0, 0          	IORWF	r0x0a, W
003812   e027     bz	0x3862                	BZ	_00729_DS_
003814   5007     movf	0x7, 0, 0           	MOVF	r0x07, W
003816   0a0a     xorlw	0xa                	XORLW	0x0a
003818   e102     bnz	0x381e               	BNZ	_00756_DS_
00381a   5008     movf	0x8, 0, 0           	MOVF	r0x08, W
00381c   e001     bz	0x3820                	BZ	_00757_DS_
                                           _00756_DS_:
00381e   d021     bra	0x3862               	BRA	_00729_DS_
                                           _00757_DS_:
003820   80d8     bsf	0xd8, 0, 0           	BSF	STATUS, 0
003822   ae06     btfss	0x6, 0x7, 0        	BTFSS	r0x06, 7
003824   90d8     bcf	0xd8, 0, 0           	BCF	STATUS, 0
003826   e31d     bnc	0x3862               	BNC	_00729_DS_
                                           ;	.line	121; /home/regis/Hobbies/Electronique/Projets/Pinguino/local/trunk/p8/include/pinguino/core/stdio.c	neg = 1;
003828   0e01     movlw	0x1                	MOVLW	0x01
00382a   6e11     movwf	0x11, 0            	MOVWF	r0x11
00382c   6a12     clrf	0x12, 0             	CLRF	r0x12
                                           ;	.line	122; /home/regis/Hobbies/Electronique/Projets/Pinguino/local/trunk/p8/include/pinguino/core/stdio.c	unslng += -i;
00382e   1c06     comf	0x6, 0, 0           	COMF	r0x06, W
003830   6e1a     movwf	0x1a, 0            	MOVWF	r0x1a
003832   1c05     comf	0x5, 0, 0           	COMF	r0x05, W
003834   6e19     movwf	0x19, 0            	MOVWF	r0x19
003836   1c04     comf	0x4, 0, 0           	COMF	r0x04, W
003838   6e0a     movwf	0xa, 0             	MOVWF	r0x0a
00383a   1c03     comf	0x3, 0, 0           	COMF	r0x03, W
00383c   6e09     movwf	0x9, 0             	MOVWF	r0x09
00383e   2a09     incf	0x9, 0x1, 0         	INCF	r0x09, F
003840   e104     bnz	0x384a               	BNZ	_00758_DS_
003842   2a0a     incf	0xa, 0x1, 0         	INCF	r0x0a, F
003844   e102     bnz	0x384a               	BNZ	_00758_DS_
003846   4a19     infsnz	0x19, 0x1, 0      	INFSNZ	r0x19, F
003848   2a1a     incf	0x1a, 0x1, 0        	INCF	r0x1a, F
                                           _00758_DS_:
00384a   5009     movf	0x9, 0, 0           	MOVF	r0x09, W
00384c   2403     addwf	0x3, 0, 0          	ADDWF	r0x03, W
00384e   6e15     movwf	0x15, 0            	MOVWF	r0x15
003850   500a     movf	0xa, 0, 0           	MOVF	r0x0a, W
003852   2004     addwfc	0x4, 0, 0         	ADDWFC	r0x04, W
003854   6e16     movwf	0x16, 0            	MOVWF	r0x16
003856   5019     movf	0x19, 0, 0          	MOVF	r0x19, W
003858   2005     addwfc	0x5, 0, 0         	ADDWFC	r0x05, W
00385a   6e17     movwf	0x17, 0            	MOVWF	r0x17
00385c   501a     movf	0x1a, 0, 0          	MOVF	r0x1a, W
00385e   2006     addwfc	0x6, 0, 0         	ADDWFC	r0x06, W
003860   6e18     movwf	0x18, 0            	MOVWF	r0x18
                                           _00729_DS_:
                                           ;	.line	125; /home/regis/Hobbies/Electronique/Projets/Pinguino/local/trunk/p8/include/pinguino/core/stdio.c	string = buffer + PRINT_BUF_LEN-1;
003862   0e02     movlw	0x2                	MOVLW	HIGH(_pprinti_buffer_1_1 + 11)
003864   6e04     movwf	0x4, 0             	MOVWF	r0x04
003866   0efb     movlw	0xfb               	MOVLW	LOW(_pprinti_buffer_1_1 + 11)
003868   6e03     movwf	0x3, 0             	MOVWF	r0x03
00386a   0e80     movlw	0x80               	MOVLW	0x80
00386c   6e05     movwf	0x5, 0             	MOVWF	r0x05
                                           ;	.line	126; /home/regis/Hobbies/Electronique/Projets/Pinguino/local/trunk/p8/include/pinguino/core/stdio.c	*string = '\0';
00386e   6ae5     clrf	0xe5, 0             	CLRF	POSTDEC1
003870   c003     movff	0x3, 0xfe9         	MOVFF	r0x03, FSR0L
003872   ffe9
003874   c004     movff	0x4, 0xff3         	MOVFF	r0x04, PRODL
003876   fff3
003878   ec31     call	0x62, 0             	CALL	__gptrput1
00387a   f000
                                           ;	.line	128; /home/regis/Hobbies/Electronique/Projets/Pinguino/local/trunk/p8/include/pinguino/core/stdio.c	while (unslng)
00387c   500f     movf	0xf, 0, 0           	MOVF	r0x0f, W
00387e   0fc6     addlw	0xc6               	ADDLW	0xc6
003880   6e06     movwf	0x6, 0             	MOVWF	r0x06
003882   c003     movff	0x3, 0xa           	MOVFF	r0x03, r0x0a
003884   f00a
003886   c004     movff	0x4, 0xf           	MOVFF	r0x04, r0x0f
003888   f00f
00388a   c005     movff	0x5, 0x10          	MOVFF	r0x05, r0x10
00388c   f010
                                           _00734_DS_:
00388e   5015     movf	0x15, 0, 0          	MOVF	r0x15, W
003890   1016     iorwf	0x16, 0, 0         	IORWF	r0x16, W
003892   1017     iorwf	0x17, 0, 0         	IORWF	r0x17, W
003894   1018     iorwf	0x18, 0, 0         	IORWF	r0x18, W
003896   b4d8     btfsc	0xd8, 0x2, 0       	BTFSC	STATUS, 2
003898   d05f     bra	0x3958               	BRA	_00755_DS_
                                           ;	.line	130; /home/regis/Hobbies/Electronique/Projets/Pinguino/local/trunk/p8/include/pinguino/core/stdio.c	t = unslng % base;
00389a   c007     movff	0x7, 0x19          	MOVFF	r0x07, r0x19
00389c   f019
00389e   c008     movff	0x8, 0x1a          	MOVFF	r0x08, r0x1a
0038a0   f01a
0038a2   6ae8     clrf	0xe8, 0             	CLRF	WREG
0038a4   be08     btfsc	0x8, 0x7, 0        	BTFSC	r0x08, 7
0038a6   0eff     movlw	0xff               	MOVLW	0xff
0038a8   6e1b     movwf	0x1b, 0            	MOVWF	r0x1b
                                           ; #	MOVWF	r0x1c
                                           ; #	MOVF	r0x1c, W
0038aa   6e1c     movwf	0x1c, 0            	MOVWF	r0x1c
0038ac   6ee5     movwf	0xe5, 0            	MOVWF	POSTDEC1
0038ae   501b     movf	0x1b, 0, 0          	MOVF	r0x1b, W
0038b0   6ee5     movwf	0xe5, 0            	MOVWF	POSTDEC1
0038b2   501a     movf	0x1a, 0, 0          	MOVF	r0x1a, W
0038b4   6ee5     movwf	0xe5, 0            	MOVWF	POSTDEC1
0038b6   5019     movf	0x19, 0, 0          	MOVF	r0x19, W
0038b8   6ee5     movwf	0xe5, 0            	MOVWF	POSTDEC1
0038ba   5018     movf	0x18, 0, 0          	MOVF	r0x18, W
0038bc   6ee5     movwf	0xe5, 0            	MOVWF	POSTDEC1
0038be   5017     movf	0x17, 0, 0          	MOVF	r0x17, W
0038c0   6ee5     movwf	0xe5, 0            	MOVWF	POSTDEC1
0038c2   5016     movf	0x16, 0, 0          	MOVF	r0x16, W
0038c4   6ee5     movwf	0xe5, 0            	MOVWF	POSTDEC1
0038c6   5015     movf	0x15, 0, 0          	MOVF	r0x15, W
0038c8   6ee5     movwf	0xe5, 0            	MOVWF	POSTDEC1
0038ca   eca5     call	0x434a, 0           	CALL	__modulong
0038cc   f021
0038ce   6e1d     movwf	0x1d, 0            	MOVWF	r0x1d
0038d0   cff3     movff	0xff3, 0x1e        	MOVFF	PRODL, r0x1e
0038d2   f01e
0038d4   cff4     movff	0xff4, 0x1f        	MOVFF	PRODH, r0x1f
0038d6   f01f
0038d8   cfe9     movff	0xfe9, 0x20        	MOVFF	FSR0L, r0x20
0038da   f020
0038dc   0e08     movlw	0x8                	MOVLW	0x08
0038de   26e1     addwf	0xe1, 0x1, 0       	ADDWF	FSR1L, F
                                           ;	.line	131; /home/regis/Hobbies/Electronique/Projets/Pinguino/local/trunk/p8/include/pinguino/core/stdio.c	if( t >= 10 )
0038e0   5020     movf	0x20, 0, 0          	MOVF	r0x20, W
0038e2   0f80     addlw	0x80               	ADDLW	0x80
0038e4   0f80     addlw	0x80               	ADDLW	0x80
0038e6   e108     bnz	0x38f8               	BNZ	_00759_DS_
0038e8   0e00     movlw	0                  	MOVLW	0x00
0038ea   5c1f     subwf	0x1f, 0, 0         	SUBWF	r0x1f, W
0038ec   e105     bnz	0x38f8               	BNZ	_00759_DS_
0038ee   0e00     movlw	0                  	MOVLW	0x00
0038f0   5c1e     subwf	0x1e, 0, 0         	SUBWF	r0x1e, W
0038f2   e102     bnz	0x38f8               	BNZ	_00759_DS_
0038f4   0e0a     movlw	0xa                	MOVLW	0x0a
0038f6   5c1d     subwf	0x1d, 0, 0         	SUBWF	r0x1d, W
                                           _00759_DS_:
0038f8   e304     bnc	0x3902               	BNC	_00733_DS_
                                           ;	.line	132; /home/regis/Hobbies/Electronique/Projets/Pinguino/local/trunk/p8/include/pinguino/core/stdio.c	t += letterbase - '0' - 10;
0038fa   c006     movff	0x6, 0x21          	MOVFF	r0x06, r0x21
0038fc   f021
0038fe   5021     movf	0x21, 0, 0          	MOVF	r0x21, W
003900   261d     addwf	0x1d, 0x1, 0       	ADDWF	r0x1d, F
                                           _00733_DS_:
                                           ;	.line	133; /home/regis/Hobbies/Electronique/Projets/Pinguino/local/trunk/p8/include/pinguino/core/stdio.c	*--string = t + '0';
003902   0eff     movlw	0xff               	MOVLW	0xff
003904   260a     addwf	0xa, 0x1, 0        	ADDWF	r0x0a, F
003906   220f     addwfc	0xf, 0x1, 0       	ADDWFC	r0x0f, F
003908   2210     addwfc	0x10, 0x1, 0      	ADDWFC	r0x10, F
00390a   0e30     movlw	0x30               	MOVLW	0x30
00390c   261d     addwf	0x1d, 0x1, 0       	ADDWF	r0x1d, F
00390e   c01d     movff	0x1d, 0xfe5        	MOVFF	r0x1d, POSTDEC1
003910   ffe5
003912   c00a     movff	0xa, 0xfe9         	MOVFF	r0x0a, FSR0L
003914   ffe9
003916   c00f     movff	0xf, 0xff3         	MOVFF	r0x0f, PRODL
003918   fff3
00391a   5010     movf	0x10, 0, 0          	MOVF	r0x10, W
00391c   ec31     call	0x62, 0             	CALL	__gptrput1
00391e   f000
                                           ;	.line	134; /home/regis/Hobbies/Electronique/Projets/Pinguino/local/trunk/p8/include/pinguino/core/stdio.c	unslng /= base;
003920   501c     movf	0x1c, 0, 0          	MOVF	r0x1c, W
003922   6ee5     movwf	0xe5, 0            	MOVWF	POSTDEC1
003924   501b     movf	0x1b, 0, 0          	MOVF	r0x1b, W
003926   6ee5     movwf	0xe5, 0            	MOVWF	POSTDEC1
003928   501a     movf	0x1a, 0, 0          	MOVF	r0x1a, W
00392a   6ee5     movwf	0xe5, 0            	MOVWF	POSTDEC1
00392c   5019     movf	0x19, 0, 0          	MOVF	r0x19, W
00392e   6ee5     movwf	0xe5, 0            	MOVWF	POSTDEC1
003930   5018     movf	0x18, 0, 0          	MOVF	r0x18, W
003932   6ee5     movwf	0xe5, 0            	MOVWF	POSTDEC1
003934   5017     movf	0x17, 0, 0          	MOVF	r0x17, W
003936   6ee5     movwf	0xe5, 0            	MOVWF	POSTDEC1
003938   5016     movf	0x16, 0, 0          	MOVF	r0x16, W
00393a   6ee5     movwf	0xe5, 0            	MOVWF	POSTDEC1
00393c   5015     movf	0x15, 0, 0          	MOVF	r0x15, W
00393e   6ee5     movwf	0xe5, 0            	MOVWF	POSTDEC1
003940   ec54     call	0x46a8, 0           	CALL	__divulong
003942   f023
003944   6e15     movwf	0x15, 0            	MOVWF	r0x15
003946   cff3     movff	0xff3, 0x16        	MOVFF	PRODL, r0x16
003948   f016
00394a   cff4     movff	0xff4, 0x17        	MOVFF	PRODH, r0x17
00394c   f017
00394e   cfe9     movff	0xfe9, 0x18        	MOVFF	FSR0L, r0x18
003950   f018
003952   0e08     movlw	0x8                	MOVLW	0x08
003954   26e1     addwf	0xe1, 0x1, 0       	ADDWF	FSR1L, F
003956   d79b     bra	0x388e               	BRA	_00734_DS_
                                           _00755_DS_:
003958   c00a     movff	0xa, 0x3           	MOVFF	r0x0a, r0x03
00395a   f003
00395c   c00f     movff	0xf, 0x4           	MOVFF	r0x0f, r0x04
00395e   f004
003960   c010     movff	0x10, 0x5          	MOVFF	r0x10, r0x05
003962   f005
                                           ;	.line	137; /home/regis/Hobbies/Electronique/Projets/Pinguino/local/trunk/p8/include/pinguino/core/stdio.c	if (neg)
003964   5011     movf	0x11, 0, 0          	MOVF	r0x11, W
003966   1012     iorwf	0x12, 0, 0         	IORWF	r0x12, W
003968   e026     bz	0x39b6                	BZ	_00742_DS_
                                           ;	.line	139; /home/regis/Hobbies/Electronique/Projets/Pinguino/local/trunk/p8/include/pinguino/core/stdio.c	if (width && (pad & PAD_ZERO))
00396a   500b     movf	0xb, 0, 0           	MOVF	r0x0b, W
00396c   100c     iorwf	0xc, 0, 0          	IORWF	r0x0c, W
00396e   e016     bz	0x399c                	BZ	_00738_DS_
003970   a20d     btfss	0xd, 0x1, 0        	BTFSS	r0x0d, 1
003972   d014     bra	0x399c               	BRA	_00738_DS_
                                           ;	.line	141; /home/regis/Hobbies/Electronique/Projets/Pinguino/local/trunk/p8/include/pinguino/core/stdio.c	pprintc(out, '-');
003974   0e2d     movlw	0x2d               	MOVLW	0x2d
003976   6ee5     movwf	0xe5, 0            	MOVWF	POSTDEC1
003978   5002     movf	0x2, 0, 0           	MOVF	r0x02, W
00397a   6ee5     movwf	0xe5, 0            	MOVWF	POSTDEC1
00397c   5001     movf	0x1, 0, 0           	MOVF	r0x01, W
00397e   6ee5     movwf	0xe5, 0            	MOVWF	POSTDEC1
003980   5000     movf	0, 0, 0             	MOVF	r0x00, W
003982   6ee5     movwf	0xe5, 0            	MOVWF	POSTDEC1
003984   ec56     call	0x4aac, 0           	CALL	_pprintc
003986   f025
003988   0e04     movlw	0x4                	MOVLW	0x04
00398a   26e1     addwf	0xe1, 0x1, 0       	ADDWF	FSR1L, F
                                           ;	.line	142; /home/regis/Hobbies/Electronique/Projets/Pinguino/local/trunk/p8/include/pinguino/core/stdio.c	++pc;
00398c   0e01     movlw	0x1                	MOVLW	0x01
00398e   6e13     movwf	0x13, 0            	MOVWF	r0x13
003990   6a14     clrf	0x14, 0             	CLRF	r0x14
                                           ;	.line	143; /home/regis/Hobbies/Electronique/Projets/Pinguino/local/trunk/p8/include/pinguino/core/stdio.c	--width;
003992   0eff     movlw	0xff               	MOVLW	0xff
003994   260b     addwf	0xb, 0x1, 0        	ADDWF	r0x0b, F
003996   a0d8     btfss	0xd8, 0, 0         	BTFSS	STATUS, 0
003998   060c     decf	0xc, 0x1, 0         	DECF	r0x0c, F
00399a   d00d     bra	0x39b6               	BRA	_00742_DS_
                                           _00738_DS_:
                                           ;	.line	147; /home/regis/Hobbies/Electronique/Projets/Pinguino/local/trunk/p8/include/pinguino/core/stdio.c	*--string = '-';
00399c   0eff     movlw	0xff               	MOVLW	0xff
00399e   2603     addwf	0x3, 0x1, 0        	ADDWF	r0x03, F
0039a0   2204     addwfc	0x4, 0x1, 0       	ADDWFC	r0x04, F
0039a2   2205     addwfc	0x5, 0x1, 0       	ADDWFC	r0x05, F
0039a4   0e2d     movlw	0x2d               	MOVLW	0x2d
0039a6   6ee5     movwf	0xe5, 0            	MOVWF	POSTDEC1
0039a8   c003     movff	0x3, 0xfe9         	MOVFF	r0x03, FSR0L
0039aa   ffe9
0039ac   c004     movff	0x4, 0xff3         	MOVFF	r0x04, PRODL
0039ae   fff3
0039b0   5005     movf	0x5, 0, 0           	MOVF	r0x05, W
0039b2   ec31     call	0x62, 0             	CALL	__gptrput1
0039b4   f000
                                           _00742_DS_:
                                           ;	.line	151; /home/regis/Hobbies/Electronique/Projets/Pinguino/local/trunk/p8/include/pinguino/core/stdio.c	return pc + pprints(out, string, width, pad);
0039b6   500e     movf	0xe, 0, 0           	MOVF	r0x0e, W
0039b8   6ee5     movwf	0xe5, 0            	MOVWF	POSTDEC1
0039ba   500d     movf	0xd, 0, 0           	MOVF	r0x0d, W
0039bc   6ee5     movwf	0xe5, 0            	MOVWF	POSTDEC1
0039be   500c     movf	0xc, 0, 0           	MOVF	r0x0c, W
0039c0   6ee5     movwf	0xe5, 0            	MOVWF	POSTDEC1
0039c2   500b     movf	0xb, 0, 0           	MOVF	r0x0b, W
0039c4   6ee5     movwf	0xe5, 0            	MOVWF	POSTDEC1
0039c6   5005     movf	0x5, 0, 0           	MOVF	r0x05, W
0039c8   6ee5     movwf	0xe5, 0            	MOVWF	POSTDEC1
0039ca   5004     movf	0x4, 0, 0           	MOVF	r0x04, W
0039cc   6ee5     movwf	0xe5, 0            	MOVWF	POSTDEC1
0039ce   5003     movf	0x3, 0, 0           	MOVF	r0x03, W
0039d0   6ee5     movwf	0xe5, 0            	MOVWF	POSTDEC1
0039d2   5002     movf	0x2, 0, 0           	MOVF	r0x02, W
0039d4   6ee5     movwf	0xe5, 0            	MOVWF	POSTDEC1
0039d6   5001     movf	0x1, 0, 0           	MOVF	r0x01, W
0039d8   6ee5     movwf	0xe5, 0            	MOVWF	POSTDEC1
0039da   5000     movf	0, 0, 0             	MOVF	r0x00, W
0039dc   6ee5     movwf	0xe5, 0            	MOVWF	POSTDEC1
0039de   ec75     call	0x3cea, 0           	CALL	_pprints
0039e0   f01e
0039e2   6e00     movwf	0, 0               	MOVWF	r0x00
0039e4   cff3     movff	0xff3, 0x1         	MOVFF	PRODL, r0x01
0039e6   f001
0039e8   0e0a     movlw	0xa                	MOVLW	0x0a
0039ea   26e1     addwf	0xe1, 0x1, 0       	ADDWF	FSR1L, F
0039ec   5000     movf	0, 0, 0             	MOVF	r0x00, W
0039ee   2613     addwf	0x13, 0x1, 0       	ADDWF	r0x13, F
0039f0   5001     movf	0x1, 0, 0           	MOVF	r0x01, W
0039f2   2214     addwfc	0x14, 0x1, 0      	ADDWFC	r0x14, F
0039f4   c014     movff	0x14, 0xff3        	MOVFF	r0x14, PRODL
0039f6   fff3
0039f8   5013     movf	0x13, 0, 0          	MOVF	r0x13, W
                                           _00743_DS_:
0039fa   cfe4     movff	0xfe4, 0x21        	MOVFF	PREINC1, r0x21
0039fc   f021
0039fe   cfe4     movff	0xfe4, 0x20        	MOVFF	PREINC1, r0x20
003a00   f020
003a02   cfe4     movff	0xfe4, 0x1f        	MOVFF	PREINC1, r0x1f
003a04   f01f
003a06   cfe4     movff	0xfe4, 0x1e        	MOVFF	PREINC1, r0x1e
003a08   f01e
003a0a   cfe4     movff	0xfe4, 0x1d        	MOVFF	PREINC1, r0x1d
003a0c   f01d
003a0e   cfe4     movff	0xfe4, 0x1c        	MOVFF	PREINC1, r0x1c
003a10   f01c
003a12   cfe4     movff	0xfe4, 0x1b        	MOVFF	PREINC1, r0x1b
003a14   f01b
003a16   cfe4     movff	0xfe4, 0x1a        	MOVFF	PREINC1, r0x1a
003a18   f01a
003a1a   cfe4     movff	0xfe4, 0x19        	MOVFF	PREINC1, r0x19
003a1c   f019
003a1e   cfe4     movff	0xfe4, 0x18        	MOVFF	PREINC1, r0x18
003a20   f018
003a22   cfe4     movff	0xfe4, 0x17        	MOVFF	PREINC1, r0x17
003a24   f017
003a26   cfe4     movff	0xfe4, 0x16        	MOVFF	PREINC1, r0x16
003a28   f016
003a2a   cfe4     movff	0xfe4, 0x15        	MOVFF	PREINC1, r0x15
003a2c   f015
003a2e   cfe4     movff	0xfe4, 0x14        	MOVFF	PREINC1, r0x14
003a30   f014
003a32   cfe4     movff	0xfe4, 0x13        	MOVFF	PREINC1, r0x13
003a34   f013
003a36   cfe4     movff	0xfe4, 0x12        	MOVFF	PREINC1, r0x12
003a38   f012
003a3a   cfe4     movff	0xfe4, 0x11        	MOVFF	PREINC1, r0x11
003a3c   f011
003a3e   cfe4     movff	0xfe4, 0x10        	MOVFF	PREINC1, r0x10
003a40   f010
003a42   cfe4     movff	0xfe4, 0xf         	MOVFF	PREINC1, r0x0f
003a44   f00f
003a46   cfe4     movff	0xfe4, 0xe         	MOVFF	PREINC1, r0x0e
003a48   f00e
003a4a   cfe4     movff	0xfe4, 0xd         	MOVFF	PREINC1, r0x0d
003a4c   f00d
003a4e   cfe4     movff	0xfe4, 0xc         	MOVFF	PREINC1, r0x0c
003a50   f00c
003a52   cfe4     movff	0xfe4, 0xb         	MOVFF	PREINC1, r0x0b
003a54   f00b
003a56   cfe4     movff	0xfe4, 0xa         	MOVFF	PREINC1, r0x0a
003a58   f00a
003a5a   cfe4     movff	0xfe4, 0x9         	MOVFF	PREINC1, r0x09
003a5c   f009
003a5e   cfe4     movff	0xfe4, 0x8         	MOVFF	PREINC1, r0x08
003a60   f008
003a62   cfe4     movff	0xfe4, 0x7         	MOVFF	PREINC1, r0x07
003a64   f007
003a66   cfe4     movff	0xfe4, 0x6         	MOVFF	PREINC1, r0x06
003a68   f006
003a6a   cfe4     movff	0xfe4, 0x5         	MOVFF	PREINC1, r0x05
003a6c   f005
003a6e   cfe4     movff	0xfe4, 0x4         	MOVFF	PREINC1, r0x04
003a70   f004
003a72   cfe4     movff	0xfe4, 0x3         	MOVFF	PREINC1, r0x03
003a74   f003
003a76   cfe4     movff	0xfe4, 0x2         	MOVFF	PREINC1, r0x02
003a78   f002
003a7a   cfe4     movff	0xfe4, 0x1         	MOVFF	PREINC1, r0x01
003a7c   f001
003a7e   cfe4     movff	0xfe4, 0           	MOVFF	PREINC1, r0x00
003a80   f000
003a82   cfe4     movff	0xfe4, 0xfd9       	MOVFF	PREINC1, FSR2L
003a84   ffd9
003a86   0012     return	0                 	RETURN	
                                           
                                           ; ; Starting pCode block
                                           S_main__pprints	code
                                           _pprints:
                                           ;	.line	58; /home/regis/Hobbies/Electronique/Projets/Pinguino/local/trunk/p8/include/pinguino/core/stdio.c	static int pprints(char **out, const char *string, int width, int pad)
003cea   cfd9     movff	0xfd9, 0xfe5       	MOVFF	FSR2L, POSTDEC1
003cec   ffe5
003cee   cfe1     movff	0xfe1, 0xfd9       	MOVFF	FSR1L, FSR2L
003cf0   ffd9
003cf2   c000     movff	0, 0xfe5           	MOVFF	r0x00, POSTDEC1
003cf4   ffe5
003cf6   c001     movff	0x1, 0xfe5         	MOVFF	r0x01, POSTDEC1
003cf8   ffe5
003cfa   c002     movff	0x2, 0xfe5         	MOVFF	r0x02, POSTDEC1
003cfc   ffe5
003cfe   c003     movff	0x3, 0xfe5         	MOVFF	r0x03, POSTDEC1
003d00   ffe5
003d02   c004     movff	0x4, 0xfe5         	MOVFF	r0x04, POSTDEC1
003d04   ffe5
003d06   c005     movff	0x5, 0xfe5         	MOVFF	r0x05, POSTDEC1
003d08   ffe5
003d0a   c006     movff	0x6, 0xfe5         	MOVFF	r0x06, POSTDEC1
003d0c   ffe5
003d0e   c007     movff	0x7, 0xfe5         	MOVFF	r0x07, POSTDEC1
003d10   ffe5
003d12   c008     movff	0x8, 0xfe5         	MOVFF	r0x08, POSTDEC1
003d14   ffe5
003d16   c009     movff	0x9, 0xfe5         	MOVFF	r0x09, POSTDEC1
003d18   ffe5
003d1a   c00a     movff	0xa, 0xfe5         	MOVFF	r0x0a, POSTDEC1
003d1c   ffe5
003d1e   c00b     movff	0xb, 0xfe5         	MOVFF	r0x0b, POSTDEC1
003d20   ffe5
003d22   c00c     movff	0xc, 0xfe5         	MOVFF	r0x0c, POSTDEC1
003d24   ffe5
003d26   c00e     movff	0xe, 0xfe5         	MOVFF	r0x0e, POSTDEC1
003d28   ffe5
003d2a   c00f     movff	0xf, 0xfe5         	MOVFF	r0x0f, POSTDEC1
003d2c   ffe5
003d2e   c010     movff	0x10, 0xfe5        	MOVFF	r0x10, POSTDEC1
003d30   ffe5
003d32   c011     movff	0x11, 0xfe5        	MOVFF	r0x11, POSTDEC1
003d34   ffe5
003d36   c012     movff	0x12, 0xfe5        	MOVFF	r0x12, POSTDEC1
003d38   ffe5
003d3a   c013     movff	0x13, 0xfe5        	MOVFF	r0x13, POSTDEC1
003d3c   ffe5
003d3e   0e02     movlw	0x2                	MOVLW	0x02
003d40   cfdb     movff	0xfdb, 0           	MOVFF	PLUSW2, r0x00
003d42   f000
003d44   0e03     movlw	0x3                	MOVLW	0x03
003d46   cfdb     movff	0xfdb, 0x1         	MOVFF	PLUSW2, r0x01
003d48   f001
003d4a   0e04     movlw	0x4                	MOVLW	0x04
003d4c   cfdb     movff	0xfdb, 0x2         	MOVFF	PLUSW2, r0x02
003d4e   f002
003d50   0e05     movlw	0x5                	MOVLW	0x05
003d52   cfdb     movff	0xfdb, 0x3         	MOVFF	PLUSW2, r0x03
003d54   f003
003d56   0e06     movlw	0x6                	MOVLW	0x06
003d58   cfdb     movff	0xfdb, 0x4         	MOVFF	PLUSW2, r0x04
003d5a   f004
003d5c   0e07     movlw	0x7                	MOVLW	0x07
003d5e   cfdb     movff	0xfdb, 0x5         	MOVFF	PLUSW2, r0x05
003d60   f005
003d62   0e08     movlw	0x8                	MOVLW	0x08
003d64   cfdb     movff	0xfdb, 0x6         	MOVFF	PLUSW2, r0x06
003d66   f006
003d68   0e09     movlw	0x9                	MOVLW	0x09
003d6a   cfdb     movff	0xfdb, 0x7         	MOVFF	PLUSW2, r0x07
003d6c   f007
003d6e   0e0a     movlw	0xa                	MOVLW	0x0a
003d70   cfdb     movff	0xfdb, 0x8         	MOVFF	PLUSW2, r0x08
003d72   f008
003d74   0e0b     movlw	0xb                	MOVLW	0x0b
003d76   cfdb     movff	0xfdb, 0x9         	MOVFF	PLUSW2, r0x09
003d78   f009
                                           ;	.line	60; /home/regis/Hobbies/Electronique/Projets/Pinguino/local/trunk/p8/include/pinguino/core/stdio.c	register int pc = 0;
003d7a   6a0a     clrf	0xa, 0              	CLRF	r0x0a
003d7c   6a0b     clrf	0xb, 0              	CLRF	r0x0b
                                           ;	.line	61; /home/regis/Hobbies/Electronique/Projets/Pinguino/local/trunk/p8/include/pinguino/core/stdio.c	int padchar = ' ';
003d7e   0e20     movlw	0x20               	MOVLW	0x20
003d80   6e0c     movwf	0xc, 0             	MOVWF	r0x0c
                                           ;	.line	65; /home/regis/Hobbies/Electronique/Projets/Pinguino/local/trunk/p8/include/pinguino/core/stdio.c	if (width > 0)
003d82   5007     movf	0x7, 0, 0           	MOVF	r0x07, W
003d84   0f80     addlw	0x80               	ADDLW	0x80
003d86   0f80     addlw	0x80               	ADDLW	0x80
003d88   e102     bnz	0x3d8e               	BNZ	_00716_DS_
003d8a   0e01     movlw	0x1                	MOVLW	0x01
003d8c   5c06     subwf	0x6, 0, 0          	SUBWF	r0x06, W
                                           _00716_DS_:
003d8e   e330     bnc	0x3df0               	BNC	_00680_DS_
                                           ;	.line	67; /home/regis/Hobbies/Electronique/Projets/Pinguino/local/trunk/p8/include/pinguino/core/stdio.c	for (ptr = string; *ptr; ++ptr)
003d90   6a0e     clrf	0xe, 0              	CLRF	r0x0e
003d92   6a0f     clrf	0xf, 0              	CLRF	r0x0f
003d94   c003     movff	0x3, 0x10          	MOVFF	r0x03, r0x10
003d96   f010
003d98   c004     movff	0x4, 0x11          	MOVFF	r0x04, r0x11
003d9a   f011
003d9c   c005     movff	0x5, 0x12          	MOVFF	r0x05, r0x12
003d9e   f012
                                           _00683_DS_:
003da0   c010     movff	0x10, 0xfe9        	MOVFF	r0x10, FSR0L
003da2   ffe9
003da4   c011     movff	0x11, 0xff3        	MOVFF	r0x11, PRODL
003da6   fff3
003da8   5012     movf	0x12, 0, 0          	MOVF	r0x12, W
003daa   ec29     call	0x52, 0             	CALL	__gptrget1
003dac   f000
003dae   6e13     movwf	0x13, 0            	MOVWF	r0x13
003db0   5013     movf	0x13, 0, 0          	MOVF	r0x13, W
003db2   e009     bz	0x3dc6                	BZ	_00686_DS_
                                           ;	.line	68; /home/regis/Hobbies/Electronique/Projets/Pinguino/local/trunk/p8/include/pinguino/core/stdio.c	++len;
003db4   2a0e     incf	0xe, 0x1, 0         	INCF	r0x0e, F
003db6   b0d8     btfsc	0xd8, 0, 0         	BTFSC	STATUS, 0
003db8   2a0f     incf	0xf, 0x1, 0         	INCF	r0x0f, F
                                           ;	.line	67; /home/regis/Hobbies/Electronique/Projets/Pinguino/local/trunk/p8/include/pinguino/core/stdio.c	for (ptr = string; *ptr; ++ptr)
003dba   2a10     incf	0x10, 0x1, 0        	INCF	r0x10, F
003dbc   b0d8     btfsc	0xd8, 0, 0         	BTFSC	STATUS, 0
003dbe   2a11     incf	0x11, 0x1, 0        	INCF	r0x11, F
003dc0   b0d8     btfsc	0xd8, 0, 0         	BTFSC	STATUS, 0
003dc2   2a12     incf	0x12, 0x1, 0        	INCF	r0x12, F
003dc4   d7ed     bra	0x3da0               	BRA	_00683_DS_
                                           _00686_DS_:
                                           ;	.line	69; /home/regis/Hobbies/Electronique/Projets/Pinguino/local/trunk/p8/include/pinguino/core/stdio.c	if (len >= width)
003dc6   500f     movf	0xf, 0, 0           	MOVF	r0x0f, W
003dc8   0f80     addlw	0x80               	ADDLW	0x80
003dca   6ef3     movwf	0xf3, 0            	MOVWF	PRODL
003dcc   5007     movf	0x7, 0, 0           	MOVF	r0x07, W
003dce   0f80     addlw	0x80               	ADDLW	0x80
003dd0   5cf3     subwf	0xf3, 0, 0         	SUBWF	PRODL, W
003dd2   e102     bnz	0x3dd8               	BNZ	_00717_DS_
003dd4   5006     movf	0x6, 0, 0           	MOVF	r0x06, W
003dd6   5c0e     subwf	0xe, 0, 0          	SUBWF	r0x0e, W
                                           _00717_DS_:
003dd8   e303     bnc	0x3de0               	BNC	_00675_DS_
                                           ;	.line	70; /home/regis/Hobbies/Electronique/Projets/Pinguino/local/trunk/p8/include/pinguino/core/stdio.c	width = 0;
003dda   6a06     clrf	0x6, 0              	CLRF	r0x06
003ddc   6a07     clrf	0x7, 0              	CLRF	r0x07
003dde   d004     bra	0x3de8               	BRA	_00676_DS_
                                           _00675_DS_:
                                           ;	.line	72; /home/regis/Hobbies/Electronique/Projets/Pinguino/local/trunk/p8/include/pinguino/core/stdio.c	width -= len;
003de0   500e     movf	0xe, 0, 0           	MOVF	r0x0e, W
003de2   5e06     subwf	0x6, 0x1, 0        	SUBWF	r0x06, F
003de4   500f     movf	0xf, 0, 0           	MOVF	r0x0f, W
003de6   5a07     subwfb	0x7, 0x1, 0       	SUBWFB	r0x07, F
                                           _00676_DS_:
                                           ;	.line	73; /home/regis/Hobbies/Electronique/Projets/Pinguino/local/trunk/p8/include/pinguino/core/stdio.c	if (pad & PAD_ZERO) padchar = '0';
003de8   a208     btfss	0x8, 0x1, 0        	BTFSS	r0x08, 1
003dea   d002     bra	0x3df0               	BRA	_00680_DS_
003dec   0e30     movlw	0x30               	MOVLW	0x30
003dee   6e0c     movwf	0xc, 0             	MOVWF	r0x0c
                                           _00680_DS_:
                                           ;	.line	75; /home/regis/Hobbies/Electronique/Projets/Pinguino/local/trunk/p8/include/pinguino/core/stdio.c	if (!(pad & PAD_RIGHT))
003df0   b008     btfsc	0x8, 0, 0          	BTFSC	r0x08, 0
003df2   d029     bra	0x3e46               	BRA	_00709_DS_
003df4   6a08     clrf	0x8, 0              	CLRF	r0x08
003df6   6a09     clrf	0x9, 0              	CLRF	r0x09
003df8   c006     movff	0x6, 0xe           	MOVFF	r0x06, r0x0e
003dfa   f00e
003dfc   c007     movff	0x7, 0xf           	MOVFF	r0x07, r0x0f
003dfe   f00f
                                           _00687_DS_:
                                           ;	.line	77; /home/regis/Hobbies/Electronique/Projets/Pinguino/local/trunk/p8/include/pinguino/core/stdio.c	for ( ; width > 0; --width)
003e00   500f     movf	0xf, 0, 0           	MOVF	r0x0f, W
003e02   0f80     addlw	0x80               	ADDLW	0x80
003e04   0f80     addlw	0x80               	ADDLW	0x80
003e06   e102     bnz	0x3e0c               	BNZ	_00720_DS_
003e08   0e01     movlw	0x1                	MOVLW	0x01
003e0a   5c0e     subwf	0xe, 0, 0          	SUBWF	r0x0e, W
                                           _00720_DS_:
003e0c   e314     bnc	0x3e36               	BNC	_00713_DS_
                                           ; #	MOVF	r0x0c, W
                                           ; #	MOVWF	r0x10
                                           ; #	MOVF	r0x10, W
                                           ;	.line	79; /home/regis/Hobbies/Electronique/Projets/Pinguino/local/trunk/p8/include/pinguino/core/stdio.c	pprintc(out, padchar);
003e0e   500c     movf	0xc, 0, 0           	MOVF	r0x0c, W
003e10   6ee5     movwf	0xe5, 0            	MOVWF	POSTDEC1
003e12   5002     movf	0x2, 0, 0           	MOVF	r0x02, W
003e14   6ee5     movwf	0xe5, 0            	MOVWF	POSTDEC1
003e16   5001     movf	0x1, 0, 0           	MOVF	r0x01, W
003e18   6ee5     movwf	0xe5, 0            	MOVWF	POSTDEC1
003e1a   5000     movf	0, 0, 0             	MOVF	r0x00, W
003e1c   6ee5     movwf	0xe5, 0            	MOVWF	POSTDEC1
003e1e   ec56     call	0x4aac, 0           	CALL	_pprintc
003e20   f025
003e22   0e04     movlw	0x4                	MOVLW	0x04
003e24   26e1     addwf	0xe1, 0x1, 0       	ADDWF	FSR1L, F
                                           ;	.line	80; /home/regis/Hobbies/Electronique/Projets/Pinguino/local/trunk/p8/include/pinguino/core/stdio.c	++pc;
003e26   2a08     incf	0x8, 0x1, 0         	INCF	r0x08, F
003e28   b0d8     btfsc	0xd8, 0, 0         	BTFSC	STATUS, 0
003e2a   2a09     incf	0x9, 0x1, 0         	INCF	r0x09, F
                                           ;	.line	77; /home/regis/Hobbies/Electronique/Projets/Pinguino/local/trunk/p8/include/pinguino/core/stdio.c	for ( ; width > 0; --width)
003e2c   0eff     movlw	0xff               	MOVLW	0xff
003e2e   260e     addwf	0xe, 0x1, 0        	ADDWF	r0x0e, F
003e30   a0d8     btfss	0xd8, 0, 0         	BTFSS	STATUS, 0
003e32   060f     decf	0xf, 0x1, 0         	DECF	r0x0f, F
003e34   d7e5     bra	0x3e00               	BRA	_00687_DS_
                                           _00713_DS_:
003e36   c008     movff	0x8, 0xa           	MOVFF	r0x08, r0x0a
003e38   f00a
003e3a   c009     movff	0x9, 0xb           	MOVFF	r0x09, r0x0b
003e3c   f00b
003e3e   c00e     movff	0xe, 0x6           	MOVFF	r0x0e, r0x06
003e40   f006
003e42   c00f     movff	0xf, 0x7           	MOVFF	r0x0f, r0x07
003e44   f007
                                           _00709_DS_:
003e46   c00a     movff	0xa, 0x8           	MOVFF	r0x0a, r0x08
003e48   f008
003e4a   c00b     movff	0xb, 0x9           	MOVFF	r0x0b, r0x09
003e4c   f009
                                           _00691_DS_:
                                           ;	.line	83; /home/regis/Hobbies/Electronique/Projets/Pinguino/local/trunk/p8/include/pinguino/core/stdio.c	for ( ; *string ; ++string)
003e4e   c003     movff	0x3, 0xfe9         	MOVFF	r0x03, FSR0L
003e50   ffe9
003e52   c004     movff	0x4, 0xff3         	MOVFF	r0x04, PRODL
003e54   fff3
003e56   5005     movf	0x5, 0, 0           	MOVF	r0x05, W
003e58   ec29     call	0x52, 0             	CALL	__gptrget1
003e5a   f000
003e5c   6e0a     movwf	0xa, 0             	MOVWF	r0x0a
003e5e   500a     movf	0xa, 0, 0           	MOVF	r0x0a, W
003e60   e015     bz	0x3e8c                	BZ	_00711_DS_
                                           ;	.line	85; /home/regis/Hobbies/Electronique/Projets/Pinguino/local/trunk/p8/include/pinguino/core/stdio.c	pprintc(out, *string);
003e62   500a     movf	0xa, 0, 0           	MOVF	r0x0a, W
003e64   6ee5     movwf	0xe5, 0            	MOVWF	POSTDEC1
003e66   5002     movf	0x2, 0, 0           	MOVF	r0x02, W
003e68   6ee5     movwf	0xe5, 0            	MOVWF	POSTDEC1
003e6a   5001     movf	0x1, 0, 0           	MOVF	r0x01, W
003e6c   6ee5     movwf	0xe5, 0            	MOVWF	POSTDEC1
003e6e   5000     movf	0, 0, 0             	MOVF	r0x00, W
003e70   6ee5     movwf	0xe5, 0            	MOVWF	POSTDEC1
003e72   ec56     call	0x4aac, 0           	CALL	_pprintc
003e74   f025
003e76   0e04     movlw	0x4                	MOVLW	0x04
003e78   26e1     addwf	0xe1, 0x1, 0       	ADDWF	FSR1L, F
                                           ;	.line	86; /home/regis/Hobbies/Electronique/Projets/Pinguino/local/trunk/p8/include/pinguino/core/stdio.c	++pc;
003e7a   2a08     incf	0x8, 0x1, 0         	INCF	r0x08, F
003e7c   b0d8     btfsc	0xd8, 0, 0         	BTFSC	STATUS, 0
003e7e   2a09     incf	0x9, 0x1, 0         	INCF	r0x09, F
                                           ;	.line	83; /home/regis/Hobbies/Electronique/Projets/Pinguino/local/trunk/p8/include/pinguino/core/stdio.c	for ( ; *string ; ++string)
003e80   2a03     incf	0x3, 0x1, 0         	INCF	r0x03, F
003e82   b0d8     btfsc	0xd8, 0, 0         	BTFSC	STATUS, 0
003e84   2a04     incf	0x4, 0x1, 0         	INCF	r0x04, F
003e86   b0d8     btfsc	0xd8, 0, 0         	BTFSC	STATUS, 0
003e88   2a05     incf	0x5, 0x1, 0         	INCF	r0x05, F
003e8a   d7e1     bra	0x3e4e               	BRA	_00691_DS_
                                           _00711_DS_:
003e8c   c008     movff	0x8, 0x3           	MOVFF	r0x08, r0x03
003e8e   f003
003e90   c009     movff	0x9, 0x4           	MOVFF	r0x09, r0x04
003e92   f004
003e94   c006     movff	0x6, 0x5           	MOVFF	r0x06, r0x05
003e96   f005
003e98   c007     movff	0x7, 0x6           	MOVFF	r0x07, r0x06
003e9a   f006
                                           _00695_DS_:
                                           ;	.line	88; /home/regis/Hobbies/Electronique/Projets/Pinguino/local/trunk/p8/include/pinguino/core/stdio.c	for ( ; width > 0; --width)
003e9c   5006     movf	0x6, 0, 0           	MOVF	r0x06, W
003e9e   0f80     addlw	0x80               	ADDLW	0x80
003ea0   0f80     addlw	0x80               	ADDLW	0x80
003ea2   e102     bnz	0x3ea8               	BNZ	_00721_DS_
003ea4   0e01     movlw	0x1                	MOVLW	0x01
003ea6   5c05     subwf	0x5, 0, 0          	SUBWF	r0x05, W
                                           _00721_DS_:
003ea8   e314     bnc	0x3ed2               	BNC	_00698_DS_
                                           ; #	MOVF	r0x0c, W
                                           ; #	MOVWF	r0x07
                                           ; #	MOVF	r0x07, W
                                           ;	.line	90; /home/regis/Hobbies/Electronique/Projets/Pinguino/local/trunk/p8/include/pinguino/core/stdio.c	pprintc(out, padchar);
003eaa   500c     movf	0xc, 0, 0           	MOVF	r0x0c, W
003eac   6ee5     movwf	0xe5, 0            	MOVWF	POSTDEC1
003eae   5002     movf	0x2, 0, 0           	MOVF	r0x02, W
003eb0   6ee5     movwf	0xe5, 0            	MOVWF	POSTDEC1
003eb2   5001     movf	0x1, 0, 0           	MOVF	r0x01, W
003eb4   6ee5     movwf	0xe5, 0            	MOVWF	POSTDEC1
003eb6   5000     movf	0, 0, 0             	MOVF	r0x00, W
003eb8   6ee5     movwf	0xe5, 0            	MOVWF	POSTDEC1
003eba   ec56     call	0x4aac, 0           	CALL	_pprintc
003ebc   f025
003ebe   0e04     movlw	0x4                	MOVLW	0x04
003ec0   26e1     addwf	0xe1, 0x1, 0       	ADDWF	FSR1L, F
                                           ;	.line	91; /home/regis/Hobbies/Electronique/Projets/Pinguino/local/trunk/p8/include/pinguino/core/stdio.c	++pc;
003ec2   2a03     incf	0x3, 0x1, 0         	INCF	r0x03, F
003ec4   b0d8     btfsc	0xd8, 0, 0         	BTFSC	STATUS, 0
003ec6   2a04     incf	0x4, 0x1, 0         	INCF	r0x04, F
                                           ;	.line	88; /home/regis/Hobbies/Electronique/Projets/Pinguino/local/trunk/p8/include/pinguino/core/stdio.c	for ( ; width > 0; --width)
003ec8   0eff     movlw	0xff               	MOVLW	0xff
003eca   2605     addwf	0x5, 0x1, 0        	ADDWF	r0x05, F
003ecc   a0d8     btfss	0xd8, 0, 0         	BTFSS	STATUS, 0
003ece   0606     decf	0x6, 0x1, 0         	DECF	r0x06, F
003ed0   d7e5     bra	0x3e9c               	BRA	_00695_DS_
                                           _00698_DS_:
                                           ;	.line	94; /home/regis/Hobbies/Electronique/Projets/Pinguino/local/trunk/p8/include/pinguino/core/stdio.c	return pc;
003ed2   c004     movff	0x4, 0xff3         	MOVFF	r0x04, PRODL
003ed4   fff3
003ed6   5003     movf	0x3, 0, 0           	MOVF	r0x03, W
003ed8   cfe4     movff	0xfe4, 0x13        	MOVFF	PREINC1, r0x13
003eda   f013
003edc   cfe4     movff	0xfe4, 0x12        	MOVFF	PREINC1, r0x12
003ede   f012
003ee0   cfe4     movff	0xfe4, 0x11        	MOVFF	PREINC1, r0x11
003ee2   f011
003ee4   cfe4     movff	0xfe4, 0x10        	MOVFF	PREINC1, r0x10
003ee6   f010
003ee8   cfe4     movff	0xfe4, 0xf         	MOVFF	PREINC1, r0x0f
003eea   f00f
003eec   cfe4     movff	0xfe4, 0xe         	MOVFF	PREINC1, r0x0e
003eee   f00e
003ef0   cfe4     movff	0xfe4, 0xc         	MOVFF	PREINC1, r0x0c
003ef2   f00c
003ef4   cfe4     movff	0xfe4, 0xb         	MOVFF	PREINC1, r0x0b
003ef6   f00b
003ef8   cfe4     movff	0xfe4, 0xa         	MOVFF	PREINC1, r0x0a
003efa   f00a
003efc   cfe4     movff	0xfe4, 0x9         	MOVFF	PREINC1, r0x09
003efe   f009
003f00   cfe4     movff	0xfe4, 0x8         	MOVFF	PREINC1, r0x08
003f02   f008
003f04   cfe4     movff	0xfe4, 0x7         	MOVFF	PREINC1, r0x07
003f06   f007
003f08   cfe4     movff	0xfe4, 0x6         	MOVFF	PREINC1, r0x06
003f0a   f006
003f0c   cfe4     movff	0xfe4, 0x5         	MOVFF	PREINC1, r0x05
003f0e   f005
003f10   cfe4     movff	0xfe4, 0x4         	MOVFF	PREINC1, r0x04
003f12   f004
003f14   cfe4     movff	0xfe4, 0x3         	MOVFF	PREINC1, r0x03
003f16   f003
003f18   cfe4     movff	0xfe4, 0x2         	MOVFF	PREINC1, r0x02
003f1a   f002
003f1c   cfe4     movff	0xfe4, 0x1         	MOVFF	PREINC1, r0x01
003f1e   f001
003f20   cfe4     movff	0xfe4, 0           	MOVFF	PREINC1, r0x00
003f22   f000
003f24   cfe4     movff	0xfe4, 0xfd9       	MOVFF	PREINC1, FSR2L
003f26   ffd9
003f28   0012     return	0                 	RETURN	
                                           
                                           ; ; Starting pCode block
                                           S_main__pprintc	code
                                           _pprintc:
                                           ;	.line	38; /home/regis/Hobbies/Electronique/Projets/Pinguino/local/trunk/p8/include/pinguino/core/stdio.c	static void pprintc(char **str, char c)
004aac   cfd9     movff	0xfd9, 0xfe5       	MOVFF	FSR2L, POSTDEC1
004aae   ffe5
004ab0   cfe1     movff	0xfe1, 0xfd9       	MOVFF	FSR1L, FSR2L
004ab2   ffd9
004ab4   c000     movff	0, 0xfe5           	MOVFF	r0x00, POSTDEC1
004ab6   ffe5
004ab8   c001     movff	0x1, 0xfe5         	MOVFF	r0x01, POSTDEC1
004aba   ffe5
004abc   c002     movff	0x2, 0xfe5         	MOVFF	r0x02, POSTDEC1
004abe   ffe5
004ac0   c003     movff	0x3, 0xfe5         	MOVFF	r0x03, POSTDEC1
004ac2   ffe5
004ac4   c004     movff	0x4, 0xfe5         	MOVFF	r0x04, POSTDEC1
004ac6   ffe5
004ac8   c005     movff	0x5, 0xfe5         	MOVFF	r0x05, POSTDEC1
004aca   ffe5
004acc   c006     movff	0x6, 0xfe5         	MOVFF	r0x06, POSTDEC1
004ace   ffe5
004ad0   0e02     movlw	0x2                	MOVLW	0x02
004ad2   cfdb     movff	0xfdb, 0           	MOVFF	PLUSW2, r0x00
004ad4   f000
004ad6   0e03     movlw	0x3                	MOVLW	0x03
004ad8   cfdb     movff	0xfdb, 0x1         	MOVFF	PLUSW2, r0x01
004ada   f001
004adc   0e04     movlw	0x4                	MOVLW	0x04
004ade   cfdb     movff	0xfdb, 0x2         	MOVFF	PLUSW2, r0x02
004ae0   f002
004ae2   0e05     movlw	0x5                	MOVLW	0x05
004ae4   cfdb     movff	0xfdb, 0x3         	MOVFF	PLUSW2, r0x03
004ae6   f003
                                           ;	.line	40; /home/regis/Hobbies/Electronique/Projets/Pinguino/local/trunk/p8/include/pinguino/core/stdio.c	if (str)
004ae8   5000     movf	0, 0, 0             	MOVF	r0x00, W
004aea   1001     iorwf	0x1, 0, 0          	IORWF	r0x01, W
004aec   1002     iorwf	0x2, 0, 0          	IORWF	r0x02, W
004aee   e028     bz	0x4b40                	BZ	_00664_DS_
                                           ;	.line	42; /home/regis/Hobbies/Electronique/Projets/Pinguino/local/trunk/p8/include/pinguino/core/stdio.c	**str = c;
004af0   c000     movff	0, 0xfe9           	MOVFF	r0x00, FSR0L
004af2   ffe9
004af4   c001     movff	0x1, 0xff3         	MOVFF	r0x01, PRODL
004af6   fff3
004af8   5002     movf	0x2, 0, 0           	MOVF	r0x02, W
004afa   ec2d     call	0x5a, 0             	CALL	__gptrget3
004afc   f000
004afe   6e04     movwf	0x4, 0             	MOVWF	r0x04
004b00   cff3     movff	0xff3, 0x5         	MOVFF	PRODL, r0x05
004b02   f005
004b04   cff4     movff	0xff4, 0x6         	MOVFF	PRODH, r0x06
004b06   f006
004b08   c003     movff	0x3, 0xfe5         	MOVFF	r0x03, POSTDEC1
004b0a   ffe5
004b0c   c004     movff	0x4, 0xfe9         	MOVFF	r0x04, FSR0L
004b0e   ffe9
004b10   c005     movff	0x5, 0xff3         	MOVFF	r0x05, PRODL
004b12   fff3
004b14   5006     movf	0x6, 0, 0           	MOVF	r0x06, W
004b16   ec31     call	0x62, 0             	CALL	__gptrput1
004b18   f000
                                           ;	.line	43; /home/regis/Hobbies/Electronique/Projets/Pinguino/local/trunk/p8/include/pinguino/core/stdio.c	++(*str);
004b1a   2a04     incf	0x4, 0x1, 0         	INCF	r0x04, F
004b1c   b0d8     btfsc	0xd8, 0, 0         	BTFSC	STATUS, 0
004b1e   2a05     incf	0x5, 0x1, 0         	INCF	r0x05, F
004b20   b0d8     btfsc	0xd8, 0, 0         	BTFSC	STATUS, 0
004b22   2a06     incf	0x6, 0x1, 0         	INCF	r0x06, F
004b24   c004     movff	0x4, 0xfe5         	MOVFF	r0x04, POSTDEC1
004b26   ffe5
004b28   c005     movff	0x5, 0xff4         	MOVFF	r0x05, PRODH
004b2a   fff4
004b2c   c006     movff	0x6, 0xff6         	MOVFF	r0x06, TBLPTRL
004b2e   fff6
004b30   c000     movff	0, 0xfe9           	MOVFF	r0x00, FSR0L
004b32   ffe9
004b34   c001     movff	0x1, 0xff3         	MOVFF	r0x01, PRODL
004b36   fff3
004b38   5002     movf	0x2, 0, 0           	MOVF	r0x02, W
004b3a   ec35     call	0x6a, 0             	CALL	__gptrput3
004b3c   f000
004b3e   d017     bra	0x4b6e               	BRA	_00666_DS_
                                           _00664_DS_:
                                           ;	.line	47; /home/regis/Hobbies/Electronique/Projets/Pinguino/local/trunk/p8/include/pinguino/core/stdio.c	pputchar(c);
004b40   5003     movf	0x3, 0, 0           	MOVF	r0x03, W
004b42   6ee5     movwf	0xe5, 0            	MOVWF	POSTDEC1
004b44   cff2     movff	0xff2, 0xfe5       	MOVFF	INTCON, POSTDEC1
004b46   ffe5
004b48   9ef2     bcf	0xf2, 0x7, 0         	BCF	INTCON, 7
004b4a   0005     push                     	PUSH	
004b4c   0e6a     movlw	0x6a               	MOVLW	LOW(_00669_DS_)
004b4e   6efd     movwf	0xfd, 0            	MOVWF	TOSL
004b50   0e4b     movlw	0x4b               	MOVLW	HIGH(_00669_DS_)
004b52   6efe     movwf	0xfe, 0            	MOVWF	TOSH
004b54   0e00     movlw	0                  	MOVLW	UPPER(_00669_DS_)
004b56   6eff     movwf	0xff, 0            	MOVWF	TOSU
004b58   50e4     movf	0xe4, 0, 0          	MOVF	PREINC1, W
004b5a   6ef2     movwf	0xf2, 0            	MOVWF	INTCON
004b5c   c2fe     movff	0x2fe, 0xffb       	MOVFF	(_pputchar + 2), PCLATU
004b5e   fffb
004b60   c2fd     movff	0x2fd, 0xffa       	MOVFF	(_pputchar + 1), PCLATH
004b62   fffa
004b64   0102     movlb	0x2                	BANKSEL	_pputchar
004b66   51fc     movf	0xfc, 0, 0x1        	MOVF	_pputchar, W, B
004b68   6ef9     movwf	0xf9, 0            	MOVWF	PCL
                                           _00669_DS_:
004b6a   0e01     movlw	0x1                	MOVLW	0x01
004b6c   26e1     addwf	0xe1, 0x1, 0       	ADDWF	FSR1L, F
                                           _00666_DS_:
004b6e   cfe4     movff	0xfe4, 0x6         	MOVFF	PREINC1, r0x06
004b70   f006
004b72   cfe4     movff	0xfe4, 0x5         	MOVFF	PREINC1, r0x05
004b74   f005
004b76   cfe4     movff	0xfe4, 0x4         	MOVFF	PREINC1, r0x04
004b78   f004
004b7a   cfe4     movff	0xfe4, 0x3         	MOVFF	PREINC1, r0x03
004b7c   f003
004b7e   cfe4     movff	0xfe4, 0x2         	MOVFF	PREINC1, r0x02
004b80   f002
004b82   cfe4     movff	0xfe4, 0x1         	MOVFF	PREINC1, r0x01
004b84   f001
004b86   cfe4     movff	0xfe4, 0           	MOVFF	PREINC1, r0x00
004b88   f000
004b8a   cfe4     movff	0xfe4, 0xfd9       	MOVFF	PREINC1, FSR2L
004b8c   ffd9
004b8e   0012     return	0                 	RETURN	
                                           
                                           ; ; Starting pCode block
                                           S_main__Delayus	code
                                           _Delayus:
                                           ;	.line	16; /home/regis/Hobbies/Electronique/Projets/Pinguino/local/trunk/p8/include/pinguino/core/delay.c	void Delayus(int microsecondes)
0054dc   cfd9     movff	0xfd9, 0xfe5       	MOVFF	FSR2L, POSTDEC1
0054de   ffe5
0054e0   cfe1     movff	0xfe1, 0xfd9       	MOVFF	FSR1L, FSR2L
0054e2   ffd9
0054e4   c000     movff	0, 0xfe5           	MOVFF	r0x00, POSTDEC1
0054e6   ffe5
0054e8   c001     movff	0x1, 0xfe5         	MOVFF	r0x01, POSTDEC1
0054ea   ffe5
0054ec   c002     movff	0x2, 0xfe5         	MOVFF	r0x02, POSTDEC1
0054ee   ffe5
0054f0   c003     movff	0x3, 0xfe5         	MOVFF	r0x03, POSTDEC1
0054f2   ffe5
0054f4   0e02     movlw	0x2                	MOVLW	0x02
0054f6   cfdb     movff	0xfdb, 0           	MOVFF	PLUSW2, r0x00
0054f8   f000
0054fa   0e03     movlw	0x3                	MOVLW	0x03
0054fc   cfdb     movff	0xfdb, 0x1         	MOVFF	PLUSW2, r0x01
0054fe   f001
                                           ;	.line	20; /home/regis/Hobbies/Electronique/Projets/Pinguino/local/trunk/p8/include/pinguino/core/delay.c	for (i=0;i<microsecondes;i++);
005500   6a02     clrf	0x2, 0              	CLRF	r0x02
005502   6a03     clrf	0x3, 0              	CLRF	r0x03
                                           _00649_DS_:
005504   5001     movf	0x1, 0, 0           	MOVF	r0x01, W
005506   5c03     subwf	0x3, 0, 0          	SUBWF	r0x03, W
005508   e102     bnz	0x550e               	BNZ	_00658_DS_
00550a   5000     movf	0, 0, 0             	MOVF	r0x00, W
00550c   5c02     subwf	0x2, 0, 0          	SUBWF	r0x02, W
                                           _00658_DS_:
00550e   e204     bc	0x5518                	BC	_00653_DS_
005510   2a02     incf	0x2, 0x1, 0         	INCF	r0x02, F
005512   b0d8     btfsc	0xd8, 0, 0         	BTFSC	STATUS, 0
005514   2a03     incf	0x3, 0x1, 0         	INCF	r0x03, F
005516   d7f6     bra	0x5504               	BRA	_00649_DS_
                                           _00653_DS_:
005518   cfe4     movff	0xfe4, 0x3         	MOVFF	PREINC1, r0x03
00551a   f003
00551c   cfe4     movff	0xfe4, 0x2         	MOVFF	PREINC1, r0x02
00551e   f002
005520   cfe4     movff	0xfe4, 0x1         	MOVFF	PREINC1, r0x01
005522   f001
005524   cfe4     movff	0xfe4, 0           	MOVFF	PREINC1, r0x00
005526   f000
005528   cfe4     movff	0xfe4, 0xfd9       	MOVFF	PREINC1, FSR2L
00552a   ffd9
00552c   0012     return	0                 	RETURN	
                                           
                                           ; ; Starting pCode block
                                           S_main__Delayms	code
                                           _Delayms:
                                           ;	.line	9; /home/regis/Hobbies/Electronique/Projets/Pinguino/local/trunk/p8/include/pinguino/core/delay.c	void Delayms(unsigned long milliseconde)
005108   cfd9     movff	0xfd9, 0xfe5       	MOVFF	FSR2L, POSTDEC1
00510a   ffe5
00510c   cfe1     movff	0xfe1, 0xfd9       	MOVFF	FSR1L, FSR2L
00510e   ffd9
005110   c000     movff	0, 0xfe5           	MOVFF	r0x00, POSTDEC1
005112   ffe5
005114   c001     movff	0x1, 0xfe5         	MOVFF	r0x01, POSTDEC1
005116   ffe5
005118   c002     movff	0x2, 0xfe5         	MOVFF	r0x02, POSTDEC1
00511a   ffe5
00511c   c003     movff	0x3, 0xfe5         	MOVFF	r0x03, POSTDEC1
00511e   ffe5
005120   c004     movff	0x4, 0xfe5         	MOVFF	r0x04, POSTDEC1
005122   ffe5
005124   c005     movff	0x5, 0xfe5         	MOVFF	r0x05, POSTDEC1
005126   ffe5
005128   c006     movff	0x6, 0xfe5         	MOVFF	r0x06, POSTDEC1
00512a   ffe5
00512c   c007     movff	0x7, 0xfe5         	MOVFF	r0x07, POSTDEC1
00512e   ffe5
005130   0e02     movlw	0x2                	MOVLW	0x02
005132   cfdb     movff	0xfdb, 0           	MOVFF	PLUSW2, r0x00
005134   f000
005136   0e03     movlw	0x3                	MOVLW	0x03
005138   cfdb     movff	0xfdb, 0x1         	MOVFF	PLUSW2, r0x01
00513a   f001
00513c   0e04     movlw	0x4                	MOVLW	0x04
00513e   cfdb     movff	0xfdb, 0x2         	MOVFF	PLUSW2, r0x02
005140   f002
005142   0e05     movlw	0x5                	MOVLW	0x05
005144   cfdb     movff	0xfdb, 0x3         	MOVFF	PLUSW2, r0x03
005146   f003
                                           ;	.line	13; /home/regis/Hobbies/Electronique/Projets/Pinguino/local/trunk/p8/include/pinguino/core/delay.c	for (i=0;i<milliseconde;i++) delay10ktcy(1);
005148   6a04     clrf	0x4, 0              	CLRF	r0x04
00514a   6a05     clrf	0x5, 0              	CLRF	r0x05
00514c   6a06     clrf	0x6, 0              	CLRF	r0x06
00514e   6a07     clrf	0x7, 0              	CLRF	r0x07
                                           _00635_DS_:
005150   5003     movf	0x3, 0, 0           	MOVF	r0x03, W
005152   5c07     subwf	0x7, 0, 0          	SUBWF	r0x07, W
005154   e108     bnz	0x5166               	BNZ	_00644_DS_
005156   5002     movf	0x2, 0, 0           	MOVF	r0x02, W
005158   5c06     subwf	0x6, 0, 0          	SUBWF	r0x06, W
00515a   e105     bnz	0x5166               	BNZ	_00644_DS_
00515c   5001     movf	0x1, 0, 0           	MOVF	r0x01, W
00515e   5c05     subwf	0x5, 0, 0          	SUBWF	r0x05, W
005160   e102     bnz	0x5166               	BNZ	_00644_DS_
005162   5000     movf	0, 0, 0             	MOVF	r0x00, W
005164   5c04     subwf	0x4, 0, 0          	SUBWF	r0x04, W
                                           _00644_DS_:
005166   e20b     bc	0x517e                	BC	_00639_DS_
005168   0e01     movlw	0x1                	MOVLW	0x01
00516a   ec37     call	0x6e, 0             	CALL	_delay10ktcy
00516c   f000
00516e   2a04     incf	0x4, 0x1, 0         	INCF	r0x04, F
005170   b0d8     btfsc	0xd8, 0, 0         	BTFSC	STATUS, 0
005172   2a05     incf	0x5, 0x1, 0         	INCF	r0x05, F
005174   b0d8     btfsc	0xd8, 0, 0         	BTFSC	STATUS, 0
005176   2a06     incf	0x6, 0x1, 0         	INCF	r0x06, F
005178   b0d8     btfsc	0xd8, 0, 0         	BTFSC	STATUS, 0
00517a   2a07     incf	0x7, 0x1, 0         	INCF	r0x07, F
00517c   d7e9     bra	0x5150               	BRA	_00635_DS_
                                           _00639_DS_:
00517e   cfe4     movff	0xfe4, 0x7         	MOVFF	PREINC1, r0x07
005180   f007
005182   cfe4     movff	0xfe4, 0x6         	MOVFF	PREINC1, r0x06
005184   f006
005186   cfe4     movff	0xfe4, 0x5         	MOVFF	PREINC1, r0x05
005188   f005
00518a   cfe4     movff	0xfe4, 0x4         	MOVFF	PREINC1, r0x04
00518c   f004
00518e   cfe4     movff	0xfe4, 0x3         	MOVFF	PREINC1, r0x03
005190   f003
005192   cfe4     movff	0xfe4, 0x2         	MOVFF	PREINC1, r0x02
005194   f002
005196   cfe4     movff	0xfe4, 0x1         	MOVFF	PREINC1, r0x01
005198   f001
00519a   cfe4     movff	0xfe4, 0           	MOVFF	PREINC1, r0x00
00519c   f000
00519e   cfe4     movff	0xfe4, 0xfd9       	MOVFF	PREINC1, FSR2L
0051a0   ffd9
0051a2   0012     return	0                 	RETURN	
                                           
                                           ; ; Starting pCode block
                                           S_main__CDCInitEndpoint	code
                                           _CDCInitEndpoint:
00547c   0103     movlb	0x3                	BANKSEL	_line_config
                                           ;	.line	167; /home/regis/Hobbies/Electronique/Projets/Pinguino/local/trunk/p8/include/pinguino/libraries/usb/usb_cdc.c	line_config.dwDTERate = USB_CDC_BAUD_RATE;
00547e   6b14     clrf	0x14, 0x1           	CLRF	_line_config, B
005480   0ec2     movlw	0xc2               	MOVLW	0xc2
                                           ; removed redundant BANKSEL
005482   6f15     movwf	0x15, 0x1          	MOVWF	(_line_config + 1), B
005484   0e01     movlw	0x1                	MOVLW	0x01
                                           ; removed redundant BANKSEL
005486   6f16     movwf	0x16, 0x1          	MOVWF	(_line_config + 2), B
                                           ; removed redundant BANKSEL
005488   6b17     clrf	0x17, 0x1           	CLRF	(_line_config + 3), B
                                           ; removed redundant BANKSEL
                                           ;	.line	168; /home/regis/Hobbies/Electronique/Projets/Pinguino/local/trunk/p8/include/pinguino/libraries/usb/usb_cdc.c	line_config.bCharFormat = USB_CDC_STOP_BITS;
00548a   6b18     clrf	0x18, 0x1           	CLRF	(_line_config + 4), B
                                           ; removed redundant BANKSEL
                                           ;	.line	169; /home/regis/Hobbies/Electronique/Projets/Pinguino/local/trunk/p8/include/pinguino/libraries/usb/usb_cdc.c	line_config.bParityType = USB_CDC_PARITY;
00548c   6b19     clrf	0x19, 0x1           	CLRF	(_line_config + 5), B
                                           ;	.line	170; /home/regis/Hobbies/Electronique/Projets/Pinguino/local/trunk/p8/include/pinguino/libraries/usb/usb_cdc.c	line_config.bDataBits = USB_CDC_DATA_BITS;
00548e   0e08     movlw	0x8                	MOVLW	0x08
                                           ; removed redundant BANKSEL
005490   6f1a     movwf	0x1a, 0x1          	MOVWF	(_line_config + 6), B
005492   0103     movlb	0x3                	BANKSEL	_zlp
                                           ;	.line	171; /home/regis/Hobbies/Electronique/Projets/Pinguino/local/trunk/p8/include/pinguino/libraries/usb/usb_cdc.c	zlp.wValue0=0;
005494   6b0c     clrf	0xc, 0x1            	CLRF	_zlp, B
                                           ; removed redundant BANKSEL
                                           ;	.line	172; /home/regis/Hobbies/Electronique/Projets/Pinguino/local/trunk/p8/include/pinguino/libraries/usb/usb_cdc.c	zlp.wValue1=0;
005496   6b0d     clrf	0xd, 0x1            	CLRF	(_zlp + 1), B
                                           ; removed redundant BANKSEL
                                           ;	.line	173; /home/regis/Hobbies/Electronique/Projets/Pinguino/local/trunk/p8/include/pinguino/libraries/usb/usb_cdc.c	zlp.wValue2=0;
005498   6b0e     clrf	0xe, 0x1            	CLRF	(_zlp + 2), B
                                           ; removed redundant BANKSEL
                                           ;	.line	174; /home/regis/Hobbies/Electronique/Projets/Pinguino/local/trunk/p8/include/pinguino/libraries/usb/usb_cdc.c	zlp.wValue3=0;
00549a   6b0f     clrf	0xf, 0x1            	CLRF	(_zlp + 3), B
                                           ; removed redundant BANKSEL
                                           ;	.line	175; /home/regis/Hobbies/Electronique/Projets/Pinguino/local/trunk/p8/include/pinguino/libraries/usb/usb_cdc.c	zlp.wValue4=0;
00549c   6b10     clrf	0x10, 0x1           	CLRF	(_zlp + 4), B
                                           ; removed redundant BANKSEL
                                           ;	.line	176; /home/regis/Hobbies/Electronique/Projets/Pinguino/local/trunk/p8/include/pinguino/libraries/usb/usb_cdc.c	zlp.wValue5=0;
00549e   6b11     clrf	0x11, 0x1           	CLRF	(_zlp + 5), B
                                           ; removed redundant BANKSEL
                                           ;	.line	177; /home/regis/Hobbies/Electronique/Projets/Pinguino/local/trunk/p8/include/pinguino/libraries/usb/usb_cdc.c	zlp.wValue6=0;
0054a0   6b12     clrf	0x12, 0x1           	CLRF	(_zlp + 6), B
                                           ; removed redundant BANKSEL
                                           ;	.line	178; /home/regis/Hobbies/Electronique/Projets/Pinguino/local/trunk/p8/include/pinguino/libraries/usb/usb_cdc.c	zlp.wValue7=0;
0054a2   6b13     clrf	0x13, 0x1           	CLRF	(_zlp + 7), B
                                           ;	.line	183; /home/regis/Hobbies/Electronique/Projets/Pinguino/local/trunk/p8/include/pinguino/libraries/usb/usb_cdc.c	USB_COMM_EP_UEP = EP_IN | HSHK_EN;
0054a4   0e1a     movlw	0x1a               	MOVLW	0x1a
0054a6   6e72     movwf	0x72, 0            	MOVWF	_UEP2
                                           ;	.line	186; /home/regis/Hobbies/Electronique/Projets/Pinguino/local/trunk/p8/include/pinguino/libraries/usb/usb_cdc.c	CDC_DATA_EP_UEP = EP_OUT_IN | HSHK_EN;
0054a8   0e1e     movlw	0x1e               	MOVLW	0x1e
0054aa   6e73     movwf	0x73, 0            	MOVWF	_UEP3
                                           ;	.line	190; /home/regis/Hobbies/Electronique/Projets/Pinguino/local/trunk/p8/include/pinguino/libraries/usb/usb_cdc.c	EP_IN_BD(USB_COMM_EP_NUM).ADDR = PTR16(&CDCControlBuffer);
0054ac   0ee0     movlw	0xe0               	MOVLW	LOW(_CDCControlBuffer)
0054ae   0104     movlb	0x4                	BANKSEL	(_ep_bdt + 22)
0054b0   6f16     movwf	0x16, 0x1          	MOVWF	(_ep_bdt + 22), B
0054b2   0e02     movlw	0x2                	MOVLW	HIGH(_CDCControlBuffer)
                                           ; removed redundant BANKSEL
0054b4   6f17     movwf	0x17, 0x1          	MOVWF	(_ep_bdt + 23), B
                                           ; #	MOVLW	0x40
                                           ; #	MOVWF	(_ep_bdt + 20), B
                                           ; #	MOVLW	0x40
                                           ;	.line	191; /home/regis/Hobbies/Electronique/Projets/Pinguino/local/trunk/p8/include/pinguino/libraries/usb/usb_cdc.c	EP_IN_BD(USB_COMM_EP_NUM).Stat.uc = BDS_DAT1 | BDS_COWN;
0054b6   0e40     movlw	0x40               	MOVLW	0x40
                                           ; removed redundant BANKSEL
                                           ;	.line	194; /home/regis/Hobbies/Electronique/Projets/Pinguino/local/trunk/p8/include/pinguino/libraries/usb/usb_cdc.c	EP_OUT_BD(CDC_DATA_EP_NUM).Cnt = sizeof(CDCRxBuffer);
0054b8   6f14     movwf	0x14, 0x1          	MOVWF	(_ep_bdt + 20), B
                                           ; removed redundant BANKSEL
0054ba   6f19     movwf	0x19, 0x1          	MOVWF	(_ep_bdt + 25), B
                                           ;	.line	195; /home/regis/Hobbies/Electronique/Projets/Pinguino/local/trunk/p8/include/pinguino/libraries/usb/usb_cdc.c	EP_OUT_BD(CDC_DATA_EP_NUM).ADDR = PTR16(&CDCRxBuffer);
0054bc   0e80     movlw	0x80               	MOVLW	LOW(_CDCRxBuffer)
                                           ; removed redundant BANKSEL
0054be   6f1a     movwf	0x1a, 0x1          	MOVWF	(_ep_bdt + 26), B
0054c0   0e05     movlw	0x5                	MOVLW	HIGH(_CDCRxBuffer)
                                           ; removed redundant BANKSEL
0054c2   6f1b     movwf	0x1b, 0x1          	MOVWF	(_ep_bdt + 27), B
                                           ;	.line	196; /home/regis/Hobbies/Electronique/Projets/Pinguino/local/trunk/p8/include/pinguino/libraries/usb/usb_cdc.c	EP_OUT_BD(CDC_DATA_EP_NUM).Stat.uc = BDS_UOWN | BDS_DAT0 | BDS_DTSEN;
0054c4   0e88     movlw	0x88               	MOVLW	0x88
                                           ; removed redundant BANKSEL
0054c6   6f18     movwf	0x18, 0x1          	MOVWF	(_ep_bdt + 24), B
                                           ;	.line	198; /home/regis/Hobbies/Electronique/Projets/Pinguino/local/trunk/p8/include/pinguino/libraries/usb/usb_cdc.c	EP_IN_BD(CDC_DATA_EP_NUM).ADDR = PTR16(&CDCTxBuffer); // +1 
0054c8   0ec0     movlw	0xc0               	MOVLW	LOW(_CDCTxBuffer)
                                           ; removed redundant BANKSEL
0054ca   6f1e     movwf	0x1e, 0x1          	MOVWF	(_ep_bdt + 30), B
0054cc   0e05     movlw	0x5                	MOVLW	HIGH(_CDCTxBuffer)
                                           ; removed redundant BANKSEL
0054ce   6f1f     movwf	0x1f, 0x1          	MOVWF	(_ep_bdt + 31), B
                                           ;	.line	199; /home/regis/Hobbies/Electronique/Projets/Pinguino/local/trunk/p8/include/pinguino/libraries/usb/usb_cdc.c	EP_IN_BD(CDC_DATA_EP_NUM).Stat.uc = BDS_DAT1 | BDS_COWN; 
0054d0   0e40     movlw	0x40               	MOVLW	0x40
                                           ; removed redundant BANKSEL
0054d2   6f1c     movwf	0x1c, 0x1          	MOVWF	(_ep_bdt + 28), B
                                           ;	.line	200; /home/regis/Hobbies/Electronique/Projets/Pinguino/local/trunk/p8/include/pinguino/libraries/usb/usb_cdc.c	deviceState=CONFIGURED; 
0054d4   0e05     movlw	0x5                	MOVLW	0x05
0054d6   0103     movlb	0x3                	BANKSEL	_deviceState
0054d8   6f3b     movwf	0x3b, 0x1          	MOVWF	_deviceState, B
0054da   0012     return	0                 	RETURN	
                                           
                                           ; ; Starting pCode block
                                           S_main__CDCputs	code
                                           _CDCputs:
                                           ;	.line	131; /home/regis/Hobbies/Electronique/Projets/Pinguino/local/trunk/p8/include/pinguino/libraries/usb/usb_cdc.c	byte CDCputs(char *buffer, byte length) {
00458c   cfd9     movff	0xfd9, 0xfe5       	MOVFF	FSR2L, POSTDEC1
00458e   ffe5
004590   cfe1     movff	0xfe1, 0xfd9       	MOVFF	FSR1L, FSR2L
004592   ffd9
004594   c000     movff	0, 0xfe5           	MOVFF	r0x00, POSTDEC1
004596   ffe5
004598   c001     movff	0x1, 0xfe5         	MOVFF	r0x01, POSTDEC1
00459a   ffe5
00459c   c002     movff	0x2, 0xfe5         	MOVFF	r0x02, POSTDEC1
00459e   ffe5
0045a0   c003     movff	0x3, 0xfe5         	MOVFF	r0x03, POSTDEC1
0045a2   ffe5
0045a4   c004     movff	0x4, 0xfe5         	MOVFF	r0x04, POSTDEC1
0045a6   ffe5
0045a8   c005     movff	0x5, 0xfe5         	MOVFF	r0x05, POSTDEC1
0045aa   ffe5
0045ac   c006     movff	0x6, 0xfe5         	MOVFF	r0x06, POSTDEC1
0045ae   ffe5
0045b0   c007     movff	0x7, 0xfe5         	MOVFF	r0x07, POSTDEC1
0045b2   ffe5
0045b4   c008     movff	0x8, 0xfe5         	MOVFF	r0x08, POSTDEC1
0045b6   ffe5
0045b8   c009     movff	0x9, 0xfe5         	MOVFF	r0x09, POSTDEC1
0045ba   ffe5
0045bc   0e02     movlw	0x2                	MOVLW	0x02
0045be   cfdb     movff	0xfdb, 0           	MOVFF	PLUSW2, r0x00
0045c0   f000
0045c2   0e03     movlw	0x3                	MOVLW	0x03
0045c4   cfdb     movff	0xfdb, 0x1         	MOVFF	PLUSW2, r0x01
0045c6   f001
0045c8   0e04     movlw	0x4                	MOVLW	0x04
0045ca   cfdb     movff	0xfdb, 0x2         	MOVFF	PLUSW2, r0x02
0045cc   f002
0045ce   0e05     movlw	0x5                	MOVLW	0x05
0045d0   cfdb     movff	0xfdb, 0x3         	MOVFF	PLUSW2, r0x03
0045d2   f003
                                           ;	.line	132; /home/regis/Hobbies/Electronique/Projets/Pinguino/local/trunk/p8/include/pinguino/libraries/usb/usb_cdc.c	byte i=0;
0045d4   6a04     clrf	0x4, 0              	CLRF	r0x04
0045d6   0103     movlb	0x3                	BANKSEL	_deviceState
                                           ;	.line	134; /home/regis/Hobbies/Electronique/Projets/Pinguino/local/trunk/p8/include/pinguino/libraries/usb/usb_cdc.c	if (deviceState != CONFIGURED) return 0;
0045d8   513b     movf	0x3b, 0, 0x1        	MOVF	_deviceState, W, B
0045da   0a05     xorlw	0x5                	XORLW	0x05
0045dc   e002     bz	0x45e2                	BZ	_00602_DS_
0045de   6ae8     clrf	0xe8, 0             	CLRF	WREG
0045e0   d04c     bra	0x467a               	BRA	_00613_DS_
                                           _00602_DS_:
0045e2   0103     movlb	0x3                	BANKSEL	_CONTROL_LINE
                                           ;	.line	135; /home/regis/Hobbies/Electronique/Projets/Pinguino/local/trunk/p8/include/pinguino/libraries/usb/usb_cdc.c	if (!CONTROL_LINE) return 0;
0045e4   511c     movf	0x1c, 0, 0x1        	MOVF	_CONTROL_LINE, W, B
0045e6   e102     bnz	0x45ec               	BNZ	_00604_DS_
0045e8   6ae8     clrf	0xe8, 0             	CLRF	WREG
0045ea   d047     bra	0x467a               	BRA	_00613_DS_
                                           _00604_DS_:
0045ec   0104     movlb	0x4                	BANKSEL	(_ep_bdt + 28)
                                           ;	.line	136; /home/regis/Hobbies/Electronique/Projets/Pinguino/local/trunk/p8/include/pinguino/libraries/usb/usb_cdc.c	if (!EP_IN_BD(CDC_DATA_EP_NUM).Stat.UOWN) {
0045ee   bf1c     btfsc	0x1c, 0x7, 0x1     	BTFSC	(_ep_bdt + 28), 7, B
0045f0   d043     bra	0x4678               	BRA	_00608_DS_
                                           ;	.line	137; /home/regis/Hobbies/Electronique/Projets/Pinguino/local/trunk/p8/include/pinguino/libraries/usb/usb_cdc.c	if (length > CDC_BULK_IN_SIZE) length = CDC_BULK_IN_SIZE;
0045f2   0e41     movlw	0x41               	MOVLW	0x41
0045f4   5c03     subwf	0x3, 0, 0          	SUBWF	r0x03, W
0045f6   e302     bnc	0x45fc               	BNC	_00620_DS_
0045f8   0e40     movlw	0x40               	MOVLW	0x40
0045fa   6e03     movwf	0x3, 0             	MOVWF	r0x03
                                           _00620_DS_:
                                           ;	.line	138; /home/regis/Hobbies/Electronique/Projets/Pinguino/local/trunk/p8/include/pinguino/libraries/usb/usb_cdc.c	for (i=0; i < length; i++) {
0045fc   6a05     clrf	0x5, 0              	CLRF	r0x05
                                           _00609_DS_:
0045fe   5003     movf	0x3, 0, 0           	MOVF	r0x03, W
004600   5c05     subwf	0x5, 0, 0          	SUBWF	r0x05, W
004602   e21d     bc	0x463e                	BC	_00621_DS_
                                           ;	.line	139; /home/regis/Hobbies/Electronique/Projets/Pinguino/local/trunk/p8/include/pinguino/libraries/usb/usb_cdc.c	CDCTxBuffer[i] = buffer[i];
004604   0ec0     movlw	0xc0               	MOVLW	LOW(_CDCTxBuffer)
004606   2405     addwf	0x5, 0, 0          	ADDWF	r0x05, W
004608   6e06     movwf	0x6, 0             	MOVWF	r0x06
00460a   6a07     clrf	0x7, 0              	CLRF	r0x07
00460c   0e05     movlw	0x5                	MOVLW	HIGH(_CDCTxBuffer)
00460e   2207     addwfc	0x7, 0x1, 0       	ADDWFC	r0x07, F
004610   5005     movf	0x5, 0, 0           	MOVF	r0x05, W
004612   2400     addwf	0, 0, 0            	ADDWF	r0x00, W
004614   6e08     movwf	0x8, 0             	MOVWF	r0x08
004616   6ae8     clrf	0xe8, 0             	CLRF	WREG
004618   2001     addwfc	0x1, 0, 0         	ADDWFC	r0x01, W
00461a   6e09     movwf	0x9, 0             	MOVWF	r0x09
00461c   6ae8     clrf	0xe8, 0             	CLRF	WREG
00461e   2002     addwfc	0x2, 0, 0         	ADDWFC	r0x02, W
004620   c008     movff	0x8, 0xfe9         	MOVFF	r0x08, FSR0L
004622   ffe9
004624   c009     movff	0x9, 0xff3         	MOVFF	r0x09, PRODL
004626   fff3
004628   ec29     call	0x52, 0             	CALL	__gptrget1
00462a   f000
00462c   6e08     movwf	0x8, 0             	MOVWF	r0x08
00462e   c006     movff	0x6, 0xfe9         	MOVFF	r0x06, FSR0L
004630   ffe9
004632   c007     movff	0x7, 0xfea         	MOVFF	r0x07, FSR0H
004634   ffea
004636   c008     movff	0x8, 0xfef         	MOVFF	r0x08, INDF0
004638   ffef
                                           ;	.line	138; /home/regis/Hobbies/Electronique/Projets/Pinguino/local/trunk/p8/include/pinguino/libraries/usb/usb_cdc.c	for (i=0; i < length; i++) {
00463a   2a05     incf	0x5, 0x1, 0         	INCF	r0x05, F
00463c   d7e0     bra	0x45fe               	BRA	_00609_DS_
                                           _00621_DS_:
00463e   c005     movff	0x5, 0x4           	MOVFF	r0x05, r0x04
004640   f004
                                           ;	.line	148; /home/regis/Hobbies/Electronique/Projets/Pinguino/local/trunk/p8/include/pinguino/libraries/usb/usb_cdc.c	EP_IN_BD(CDC_DATA_EP_NUM).Cnt = i;
004642   5005     movf	0x5, 0, 0           	MOVF	r0x05, W
004644   0104     movlb	0x4                	BANKSEL	(_ep_bdt + 29)
004646   6f1d     movwf	0x1d, 0x1          	MOVWF	(_ep_bdt + 29), B
                                           ;	.line	150; /home/regis/Hobbies/Electronique/Projets/Pinguino/local/trunk/p8/include/pinguino/libraries/usb/usb_cdc.c	EP_IN_BD(CDC_DATA_EP_NUM).Stat.uc &= 0x40;
004648   0e40     movlw	0x40               	MOVLW	0x40
                                           ; removed redundant BANKSEL
00464a   151c     andwf	0x1c, 0, 0x1       	ANDWF	(_ep_bdt + 28), W, B
                                           ; #	MOVWF	r0x00
                                           ; #	MOVF	r0x00, W
00464c   6f1c     movwf	0x1c, 0x1          	MOVWF	(_ep_bdt + 28), B
                                           ;	.line	151; /home/regis/Hobbies/Electronique/Projets/Pinguino/local/trunk/p8/include/pinguino/libraries/usb/usb_cdc.c	EP_IN_BD(CDC_DATA_EP_NUM).Stat.DTS = !EP_IN_BD(CDC_DATA_EP_NUM).Stat.DTS;
00464e   6a00     clrf	0, 0                	CLRF	r0x00
                                           ; removed redundant BANKSEL
004650   bd1c     btfsc	0x1c, 0x6, 0x1     	BTFSC	(_ep_bdt + 28), 6, B
004652   2a00     incf	0, 0x1, 0           	INCF	r0x00, F
004654   5000     movf	0, 0, 0             	MOVF	r0x00, W
004656   80d8     bsf	0xd8, 0, 0           	BSF	STATUS, 0
004658   66e8     tstfsz	0xe8, 0           	TSTFSZ	WREG
00465a   90d8     bcf	0xd8, 0, 0           	BCF	STATUS, 0
00465c   6a00     clrf	0, 0                	CLRF	r0x00
00465e   3600     rlcf	0, 0x1, 0           	RLCF	r0x00, F
004660   5000     movf	0, 0, 0             	MOVF	r0x00, W
004662   0b01     andlw	0x1                	ANDLW	0x01
004664   40e8     rrncf	0xe8, 0, 0         	RRNCF	WREG, W
004666   40e8     rrncf	0xe8, 0, 0         	RRNCF	WREG, W
004668   6ef4     movwf	0xf4, 0            	MOVWF	PRODH
                                           ; removed redundant BANKSEL
00466a   511c     movf	0x1c, 0, 0x1        	MOVF	(_ep_bdt + 28), W, B
00466c   0bbf     andlw	0xbf               	ANDLW	0xbf
00466e   10f4     iorwf	0xf4, 0, 0         	IORWF	PRODH, W
                                           ; removed redundant BANKSEL
004670   6f1c     movwf	0x1c, 0x1          	MOVWF	(_ep_bdt + 28), B
                                           ;	.line	153; /home/regis/Hobbies/Electronique/Projets/Pinguino/local/trunk/p8/include/pinguino/libraries/usb/usb_cdc.c	EP_IN_BD(CDC_DATA_EP_NUM).Stat.uc |= BDS_UOWN | BDS_DTSEN;
004672   0e88     movlw	0x88               	MOVLW	0x88
                                           ; removed redundant BANKSEL
004674   111c     iorwf	0x1c, 0, 0x1       	IORWF	(_ep_bdt + 28), W, B
                                           ; #	MOVWF	r0x00
                                           ; #	MOVF	r0x00, W
004676   6f1c     movwf	0x1c, 0x1          	MOVWF	(_ep_bdt + 28), B
                                           _00608_DS_:
                                           ;	.line	156; /home/regis/Hobbies/Electronique/Projets/Pinguino/local/trunk/p8/include/pinguino/libraries/usb/usb_cdc.c	return i;
004678   5004     movf	0x4, 0, 0           	MOVF	r0x04, W
                                           _00613_DS_:
00467a   cfe4     movff	0xfe4, 0x9         	MOVFF	PREINC1, r0x09
00467c   f009
00467e   cfe4     movff	0xfe4, 0x8         	MOVFF	PREINC1, r0x08
004680   f008
004682   cfe4     movff	0xfe4, 0x7         	MOVFF	PREINC1, r0x07
004684   f007
004686   cfe4     movff	0xfe4, 0x6         	MOVFF	PREINC1, r0x06
004688   f006
00468a   cfe4     movff	0xfe4, 0x5         	MOVFF	PREINC1, r0x05
00468c   f005
00468e   cfe4     movff	0xfe4, 0x4         	MOVFF	PREINC1, r0x04
004690   f004
004692   cfe4     movff	0xfe4, 0x3         	MOVFF	PREINC1, r0x03
004694   f003
004696   cfe4     movff	0xfe4, 0x2         	MOVFF	PREINC1, r0x02
004698   f002
00469a   cfe4     movff	0xfe4, 0x1         	MOVFF	PREINC1, r0x01
00469c   f001
00469e   cfe4     movff	0xfe4, 0           	MOVFF	PREINC1, r0x00
0046a0   f000
0046a2   cfe4     movff	0xfe4, 0xfd9       	MOVFF	PREINC1, FSR2L
0046a4   ffd9
0046a6   0012     return	0                 	RETURN	
                                           
                                           ; ; Starting pCode block
                                           S_main__CDCgets	code
                                           _CDCgets:
                                           ;	.line	98; /home/regis/Hobbies/Electronique/Projets/Pinguino/local/trunk/p8/include/pinguino/libraries/usb/usb_cdc.c	byte CDCgets(char *buffer) {
00446e   cfd9     movff	0xfd9, 0xfe5       	MOVFF	FSR2L, POSTDEC1
004470   ffe5
004472   cfe1     movff	0xfe1, 0xfd9       	MOVFF	FSR1L, FSR2L
004474   ffd9
004476   c000     movff	0, 0xfe5           	MOVFF	r0x00, POSTDEC1
004478   ffe5
00447a   c001     movff	0x1, 0xfe5         	MOVFF	r0x01, POSTDEC1
00447c   ffe5
00447e   c002     movff	0x2, 0xfe5         	MOVFF	r0x02, POSTDEC1
004480   ffe5
004482   c003     movff	0x3, 0xfe5         	MOVFF	r0x03, POSTDEC1
004484   ffe5
004486   c004     movff	0x4, 0xfe5         	MOVFF	r0x04, POSTDEC1
004488   ffe5
00448a   c005     movff	0x5, 0xfe5         	MOVFF	r0x05, POSTDEC1
00448c   ffe5
00448e   c006     movff	0x6, 0xfe5         	MOVFF	r0x06, POSTDEC1
004490   ffe5
004492   c007     movff	0x7, 0xfe5         	MOVFF	r0x07, POSTDEC1
004494   ffe5
004496   c008     movff	0x8, 0xfe5         	MOVFF	r0x08, POSTDEC1
004498   ffe5
00449a   c009     movff	0x9, 0xfe5         	MOVFF	r0x09, POSTDEC1
00449c   ffe5
00449e   0e02     movlw	0x2                	MOVLW	0x02
0044a0   cfdb     movff	0xfdb, 0           	MOVFF	PLUSW2, r0x00
0044a2   f000
0044a4   0e03     movlw	0x3                	MOVLW	0x03
0044a6   cfdb     movff	0xfdb, 0x1         	MOVFF	PLUSW2, r0x01
0044a8   f001
0044aa   0e04     movlw	0x4                	MOVLW	0x04
0044ac   cfdb     movff	0xfdb, 0x2         	MOVFF	PLUSW2, r0x02
0044ae   f002
                                           ;	.line	99; /home/regis/Hobbies/Electronique/Projets/Pinguino/local/trunk/p8/include/pinguino/libraries/usb/usb_cdc.c	byte i=0;
0044b0   6a03     clrf	0x3, 0              	CLRF	r0x03
0044b2   0103     movlb	0x3                	BANKSEL	_deviceState
                                           ;	.line	101; /home/regis/Hobbies/Electronique/Projets/Pinguino/local/trunk/p8/include/pinguino/libraries/usb/usb_cdc.c	if (deviceState != CONFIGURED) return 0;
0044b4   513b     movf	0x3b, 0, 0x1        	MOVF	_deviceState, W, B
0044b6   0a05     xorlw	0x5                	XORLW	0x05
0044b8   e002     bz	0x44be                	BZ	_00573_DS_
0044ba   6ae8     clrf	0xe8, 0             	CLRF	WREG
0044bc   d050     bra	0x455e               	BRA	_00584_DS_
                                           _00573_DS_:
0044be   0103     movlb	0x3                	BANKSEL	_CONTROL_LINE
                                           ;	.line	103; /home/regis/Hobbies/Electronique/Projets/Pinguino/local/trunk/p8/include/pinguino/libraries/usb/usb_cdc.c	if (!CONTROL_LINE) return 0;
0044c0   511c     movf	0x1c, 0, 0x1        	MOVF	_CONTROL_LINE, W, B
0044c2   e102     bnz	0x44c8               	BNZ	_00575_DS_
0044c4   6ae8     clrf	0xe8, 0             	CLRF	WREG
0044c6   d04b     bra	0x455e               	BRA	_00584_DS_
                                           _00575_DS_:
0044c8   0104     movlb	0x4                	BANKSEL	(_ep_bdt + 24)
                                           ;	.line	105; /home/regis/Hobbies/Electronique/Projets/Pinguino/local/trunk/p8/include/pinguino/libraries/usb/usb_cdc.c	if (!EP_OUT_BD(CDC_DATA_EP_NUM).Stat.UOWN) {
0044ca   bf18     btfsc	0x18, 0x7, 0x1     	BTFSC	(_ep_bdt + 24), 7, B
0044cc   d047     bra	0x455c               	BRA	_00579_DS_
                                           ;	.line	110; /home/regis/Hobbies/Electronique/Projets/Pinguino/local/trunk/p8/include/pinguino/libraries/usb/usb_cdc.c	if (length > EP_OUT_BD(CDC_DATA_EP_NUM).Cnt) length = EP_OUT_BD(CDC_DATA_EP_NUM).Cnt;
0044ce   0e40     movlw	0x40               	MOVLW	0x40
                                           ; #	SUBWF	(_ep_bdt + 25), W, B
                                           ; #	BTFSC	STATUS, 0
                                           ; #	GOTO	_00591_DS_
                                           ; #;;;!!! pic16_aopOp:1071 called for a spillLocation -- assigning WREG instead --- CHECK
                                           ; #	MOVFF	(_ep_bdt + 25), WREG
                                           ; #	CLRF	r0x04
                                           ; removed redundant BANKSEL
                                           ;	.line	111; /home/regis/Hobbies/Electronique/Projets/Pinguino/local/trunk/p8/include/pinguino/libraries/usb/usb_cdc.c	for (i=0; i < EP_OUT_BD(CDC_DATA_EP_NUM).Cnt; i++) {
0044d0   5d19     subwf	0x19, 0, 0x1       	SUBWF	(_ep_bdt + 25), W, B
0044d2   a0d8     btfss	0xd8, 0, 0         	BTFSS	STATUS, 0
0044d4   c419     movff	0x419, 0xfe8       	MOVFF	(_ep_bdt + 25), WREG
0044d6   ffe8
0044d8   6a04     clrf	0x4, 0              	CLRF	r0x04
                                           _00580_DS_:
0044da   0104     movlb	0x4                	BANKSEL	(_ep_bdt + 25)
0044dc   5119     movf	0x19, 0, 0x1        	MOVF	(_ep_bdt + 25), W, B
0044de   5c04     subwf	0x4, 0, 0          	SUBWF	r0x04, W
0044e0   e220     bc	0x4522                	BC	_00592_DS_
                                           ;	.line	112; /home/regis/Hobbies/Electronique/Projets/Pinguino/local/trunk/p8/include/pinguino/libraries/usb/usb_cdc.c	buffer[i] = CDCRxBuffer[i];
0044e2   5004     movf	0x4, 0, 0           	MOVF	r0x04, W
0044e4   2400     addwf	0, 0, 0            	ADDWF	r0x00, W
0044e6   6e05     movwf	0x5, 0             	MOVWF	r0x05
0044e8   6ae8     clrf	0xe8, 0             	CLRF	WREG
0044ea   2001     addwfc	0x1, 0, 0         	ADDWFC	r0x01, W
0044ec   6e06     movwf	0x6, 0             	MOVWF	r0x06
0044ee   6ae8     clrf	0xe8, 0             	CLRF	WREG
0044f0   2002     addwfc	0x2, 0, 0         	ADDWFC	r0x02, W
0044f2   6e07     movwf	0x7, 0             	MOVWF	r0x07
0044f4   0e80     movlw	0x80               	MOVLW	LOW(_CDCRxBuffer)
0044f6   2404     addwf	0x4, 0, 0          	ADDWF	r0x04, W
0044f8   6e08     movwf	0x8, 0             	MOVWF	r0x08
0044fa   6a09     clrf	0x9, 0              	CLRF	r0x09
0044fc   0e05     movlw	0x5                	MOVLW	HIGH(_CDCRxBuffer)
0044fe   2209     addwfc	0x9, 0x1, 0       	ADDWFC	r0x09, F
004500   c008     movff	0x8, 0xfe9         	MOVFF	r0x08, FSR0L
004502   ffe9
004504   c009     movff	0x9, 0xfea         	MOVFF	r0x09, FSR0H
004506   ffea
004508   cfef     movff	0xfef, 0x8         	MOVFF	INDF0, r0x08
00450a   f008
00450c   c008     movff	0x8, 0xfe5         	MOVFF	r0x08, POSTDEC1
00450e   ffe5
004510   c005     movff	0x5, 0xfe9         	MOVFF	r0x05, FSR0L
004512   ffe9
004514   c006     movff	0x6, 0xff3         	MOVFF	r0x06, PRODL
004516   fff3
004518   5007     movf	0x7, 0, 0           	MOVF	r0x07, W
00451a   ec31     call	0x62, 0             	CALL	__gptrput1
00451c   f000
                                           ;	.line	111; /home/regis/Hobbies/Electronique/Projets/Pinguino/local/trunk/p8/include/pinguino/libraries/usb/usb_cdc.c	for (i=0; i < EP_OUT_BD(CDC_DATA_EP_NUM).Cnt; i++) {
00451e   2a04     incf	0x4, 0x1, 0         	INCF	r0x04, F
004520   d7dc     bra	0x44da               	BRA	_00580_DS_
                                           _00592_DS_:
004522   c004     movff	0x4, 0x3           	MOVFF	r0x04, r0x03
004524   f003
                                           ;	.line	121; /home/regis/Hobbies/Electronique/Projets/Pinguino/local/trunk/p8/include/pinguino/libraries/usb/usb_cdc.c	EP_OUT_BD(CDC_DATA_EP_NUM).Stat.uc &= 0x40;
004526   0e40     movlw	0x40               	MOVLW	0x40
004528   0104     movlb	0x4                	BANKSEL	(_ep_bdt + 24)
00452a   1518     andwf	0x18, 0, 0x1       	ANDWF	(_ep_bdt + 24), W, B
                                           ; #	MOVWF	r0x00
                                           ; #	MOVF	r0x00, W
00452c   6f18     movwf	0x18, 0x1          	MOVWF	(_ep_bdt + 24), B
                                           ;	.line	122; /home/regis/Hobbies/Electronique/Projets/Pinguino/local/trunk/p8/include/pinguino/libraries/usb/usb_cdc.c	EP_OUT_BD(CDC_DATA_EP_NUM).Stat.DTS = !EP_OUT_BD(CDC_DATA_EP_NUM).Stat.DTS;
00452e   6a00     clrf	0, 0                	CLRF	r0x00
                                           ; removed redundant BANKSEL
004530   bd18     btfsc	0x18, 0x6, 0x1     	BTFSC	(_ep_bdt + 24), 6, B
004532   2a00     incf	0, 0x1, 0           	INCF	r0x00, F
004534   5000     movf	0, 0, 0             	MOVF	r0x00, W
004536   80d8     bsf	0xd8, 0, 0           	BSF	STATUS, 0
004538   66e8     tstfsz	0xe8, 0           	TSTFSZ	WREG
00453a   90d8     bcf	0xd8, 0, 0           	BCF	STATUS, 0
00453c   6a00     clrf	0, 0                	CLRF	r0x00
00453e   3600     rlcf	0, 0x1, 0           	RLCF	r0x00, F
004540   5000     movf	0, 0, 0             	MOVF	r0x00, W
004542   0b01     andlw	0x1                	ANDLW	0x01
004544   40e8     rrncf	0xe8, 0, 0         	RRNCF	WREG, W
004546   40e8     rrncf	0xe8, 0, 0         	RRNCF	WREG, W
004548   6ef4     movwf	0xf4, 0            	MOVWF	PRODH
                                           ; removed redundant BANKSEL
00454a   5118     movf	0x18, 0, 0x1        	MOVF	(_ep_bdt + 24), W, B
00454c   0bbf     andlw	0xbf               	ANDLW	0xbf
00454e   10f4     iorwf	0xf4, 0, 0         	IORWF	PRODH, W
                                           ; removed redundant BANKSEL
004550   6f18     movwf	0x18, 0x1          	MOVWF	(_ep_bdt + 24), B
                                           ;	.line	124; /home/regis/Hobbies/Electronique/Projets/Pinguino/local/trunk/p8/include/pinguino/libraries/usb/usb_cdc.c	EP_OUT_BD(CDC_DATA_EP_NUM).Cnt = sizeof(CDCRxBuffer);
004552   0e40     movlw	0x40               	MOVLW	0x40
                                           ; removed redundant BANKSEL
004554   6f19     movwf	0x19, 0x1          	MOVWF	(_ep_bdt + 25), B
                                           ;	.line	125; /home/regis/Hobbies/Electronique/Projets/Pinguino/local/trunk/p8/include/pinguino/libraries/usb/usb_cdc.c	EP_OUT_BD(CDC_DATA_EP_NUM).Stat.uc |= BDS_UOWN | BDS_DTSEN;
004556   0e88     movlw	0x88               	MOVLW	0x88
                                           ; removed redundant BANKSEL
004558   1118     iorwf	0x18, 0, 0x1       	IORWF	(_ep_bdt + 24), W, B
                                           ; #	MOVWF	r0x00
                                           ; #	MOVF	r0x00, W
00455a   6f18     movwf	0x18, 0x1          	MOVWF	(_ep_bdt + 24), B
                                           _00579_DS_:
                                           ;	.line	128; /home/regis/Hobbies/Electronique/Projets/Pinguino/local/trunk/p8/include/pinguino/libraries/usb/usb_cdc.c	return i;
00455c   5003     movf	0x3, 0, 0           	MOVF	r0x03, W
                                           _00584_DS_:
00455e   cfe4     movff	0xfe4, 0x9         	MOVFF	PREINC1, r0x09
004560   f009
004562   cfe4     movff	0xfe4, 0x8         	MOVFF	PREINC1, r0x08
004564   f008
004566   cfe4     movff	0xfe4, 0x7         	MOVFF	PREINC1, r0x07
004568   f007
00456a   cfe4     movff	0xfe4, 0x6         	MOVFF	PREINC1, r0x06
00456c   f006
00456e   cfe4     movff	0xfe4, 0x5         	MOVFF	PREINC1, r0x05
004570   f005
004572   cfe4     movff	0xfe4, 0x4         	MOVFF	PREINC1, r0x04
004574   f004
004576   cfe4     movff	0xfe4, 0x3         	MOVFF	PREINC1, r0x03
004578   f003
00457a   cfe4     movff	0xfe4, 0x2         	MOVFF	PREINC1, r0x02
00457c   f002
00457e   cfe4     movff	0xfe4, 0x1         	MOVFF	PREINC1, r0x01
004580   f001
004582   cfe4     movff	0xfe4, 0           	MOVFF	PREINC1, r0x00
004584   f000
004586   cfe4     movff	0xfe4, 0xfd9       	MOVFF	PREINC1, FSR2L
004588   ffd9
00458a   0012     return	0                 	RETURN	
                                           
                                           ; ; Starting pCode block
                                           S_main__ProcessCDCRequest	code
                                           _ProcessCDCRequest:
                                           ;	.line	29; /home/regis/Hobbies/Electronique/Projets/Pinguino/local/trunk/p8/include/pinguino/libraries/usb/usb_cdc.c	void ProcessCDCRequest(void)
004f20   c000     movff	0, 0xfe5           	MOVFF	r0x00, POSTDEC1
004f22   ffe5
                                           ;	.line	38; /home/regis/Hobbies/Electronique/Projets/Pinguino/local/trunk/p8/include/pinguino/libraries/usb/usb_cdc.c	if ((SetupPacket.bmRequestType & USB_TYPE_MASK) != USB_TYPE_CLASS) return;
004f24   0e60     movlw	0x60               	MOVLW	0x60
004f26   0105     movlb	0x5                	BANKSEL	_SetupPacket
004f28   1500     andwf	0, 0, 0x1          	ANDWF	_SetupPacket, W, B
                                           ; #	MOVWF	r0x00
                                           ; #	MOVF	r0x00, W
004f2a   0a20     xorlw	0x20               	XORLW	0x20
004f2c   e001     bz	0x4f30                	BZ	_00534_DS_
004f2e   d049     bra	0x4fc2               	BRA	_00544_DS_
                                           _00534_DS_:
                                           ;	.line	42; /home/regis/Hobbies/Electronique/Projets/Pinguino/local/trunk/p8/include/pinguino/libraries/usb/usb_cdc.c	switch(SetupPacket.bRequest)
004f30   c501     movff	0x501, 0           	MOVFF	(_SetupPacket + 1), r0x00
004f32   f000
004f34   5000     movf	0, 0, 0             	MOVF	r0x00, W
004f36   e101     bnz	0x4f3a               	BNZ	_00557_DS_
004f38   d044     bra	0x4fc2               	BRA	_00544_DS_
                                           _00557_DS_:
004f3a   5000     movf	0, 0, 0             	MOVF	r0x00, W
004f3c   0a01     xorlw	0x1                	XORLW	0x01
004f3e   e101     bnz	0x4f42               	BNZ	_00559_DS_
004f40   d040     bra	0x4fc2               	BRA	_00544_DS_
                                           _00559_DS_:
004f42   5000     movf	0, 0, 0             	MOVF	r0x00, W
004f44   0a20     xorlw	0x20               	XORLW	0x20
004f46   e007     bz	0x4f56                	BZ	_00537_DS_
004f48   5000     movf	0, 0, 0             	MOVF	r0x00, W
004f4a   0a21     xorlw	0x21               	XORLW	0x21
004f4c   e013     bz	0x4f74                	BZ	_00538_DS_
004f4e   5000     movf	0, 0, 0             	MOVF	r0x00, W
004f50   0a22     xorlw	0x22               	XORLW	0x22
004f52   e01f     bz	0x4f92                	BZ	_00539_DS_
004f54   d036     bra	0x4fc2               	BRA	_00544_DS_
                                           _00537_DS_:
                                           ;	.line	62; /home/regis/Hobbies/Electronique/Projets/Pinguino/local/trunk/p8/include/pinguino/libraries/usb/usb_cdc.c	outPtr = (data byte *)&line_config;
004f56   0e03     movlw	0x3                	MOVLW	HIGH(_line_config)
004f58   0103     movlb	0x3                	BANKSEL	(_outPtr + 1)
004f5a   6f27     movwf	0x27, 0x1          	MOVWF	(_outPtr + 1), B
004f5c   0e14     movlw	0x14               	MOVLW	LOW(_line_config)
                                           ; removed redundant BANKSEL
004f5e   6f26     movwf	0x26, 0x1          	MOVWF	_outPtr, B
004f60   0e80     movlw	0x80               	MOVLW	0x80
                                           ; removed redundant BANKSEL
004f62   6f28     movwf	0x28, 0x1          	MOVWF	(_outPtr + 2), B
                                           ;	.line	63; /home/regis/Hobbies/Electronique/Projets/Pinguino/local/trunk/p8/include/pinguino/libraries/usb/usb_cdc.c	wCount = sizeof(USB_CDC_Line_Coding) ;
004f64   0e07     movlw	0x7                	MOVLW	0x07
004f66   0103     movlb	0x3                	BANKSEL	_wCount
004f68   6f2f     movwf	0x2f, 0x1          	MOVWF	_wCount, B
                                           ; removed redundant BANKSEL
004f6a   6b30     clrf	0x30, 0x1           	CLRF	(_wCount + 1), B
                                           ;	.line	64; /home/regis/Hobbies/Electronique/Projets/Pinguino/local/trunk/p8/include/pinguino/libraries/usb/usb_cdc.c	requestHandled = 1;				
004f6c   0e01     movlw	0x1                	MOVLW	0x01
004f6e   0103     movlb	0x3                	BANKSEL	_requestHandled
004f70   6f38     movwf	0x38, 0x1          	MOVWF	_requestHandled, B
                                           ;	.line	65; /home/regis/Hobbies/Electronique/Projets/Pinguino/local/trunk/p8/include/pinguino/libraries/usb/usb_cdc.c	break;
004f72   d027     bra	0x4fc2               	BRA	_00544_DS_
                                           _00538_DS_:
                                           ;	.line	71; /home/regis/Hobbies/Electronique/Projets/Pinguino/local/trunk/p8/include/pinguino/libraries/usb/usb_cdc.c	outPtr = (data byte *)&line_config;
004f74   0e03     movlw	0x3                	MOVLW	HIGH(_line_config)
004f76   0103     movlb	0x3                	BANKSEL	(_outPtr + 1)
004f78   6f27     movwf	0x27, 0x1          	MOVWF	(_outPtr + 1), B
004f7a   0e14     movlw	0x14               	MOVLW	LOW(_line_config)
                                           ; removed redundant BANKSEL
004f7c   6f26     movwf	0x26, 0x1          	MOVWF	_outPtr, B
004f7e   0e80     movlw	0x80               	MOVLW	0x80
                                           ; removed redundant BANKSEL
004f80   6f28     movwf	0x28, 0x1          	MOVWF	(_outPtr + 2), B
                                           ;	.line	72; /home/regis/Hobbies/Electronique/Projets/Pinguino/local/trunk/p8/include/pinguino/libraries/usb/usb_cdc.c	wCount = sizeof(USB_CDC_Line_Coding) ;
004f82   0e07     movlw	0x7                	MOVLW	0x07
004f84   0103     movlb	0x3                	BANKSEL	_wCount
004f86   6f2f     movwf	0x2f, 0x1          	MOVWF	_wCount, B
                                           ; removed redundant BANKSEL
004f88   6b30     clrf	0x30, 0x1           	CLRF	(_wCount + 1), B
                                           ;	.line	73; /home/regis/Hobbies/Electronique/Projets/Pinguino/local/trunk/p8/include/pinguino/libraries/usb/usb_cdc.c	requestHandled = 1;
004f8a   0e01     movlw	0x1                	MOVLW	0x01
004f8c   0103     movlb	0x3                	BANKSEL	_requestHandled
004f8e   6f38     movwf	0x38, 0x1          	MOVWF	_requestHandled, B
                                           ;	.line	74; /home/regis/Hobbies/Electronique/Projets/Pinguino/local/trunk/p8/include/pinguino/libraries/usb/usb_cdc.c	break;
004f90   d018     bra	0x4fc2               	BRA	_00544_DS_
                                           _00539_DS_:
004f92   0105     movlb	0x5                	BANKSEL	(_SetupPacket + 2)
                                           ;	.line	82; /home/regis/Hobbies/Electronique/Projets/Pinguino/local/trunk/p8/include/pinguino/libraries/usb/usb_cdc.c	if (SetupPacket.wValue0==3) CONTROL_LINE=1;
004f94   5102     movf	0x2, 0, 0x1         	MOVF	(_SetupPacket + 2), W, B
004f96   0a03     xorlw	0x3                	XORLW	0x03
004f98   e104     bnz	0x4fa2               	BNZ	_00541_DS_
004f9a   0e01     movlw	0x1                	MOVLW	0x01
004f9c   0103     movlb	0x3                	BANKSEL	_CONTROL_LINE
004f9e   6f1c     movwf	0x1c, 0x1          	MOVWF	_CONTROL_LINE, B
004fa0   d002     bra	0x4fa6               	BRA	_00542_DS_
                                           _00541_DS_:
004fa2   0103     movlb	0x3                	BANKSEL	_CONTROL_LINE
                                           ;	.line	83; /home/regis/Hobbies/Electronique/Projets/Pinguino/local/trunk/p8/include/pinguino/libraries/usb/usb_cdc.c	else CONTROL_LINE=0;		
004fa4   6b1c     clrf	0x1c, 0x1           	CLRF	_CONTROL_LINE, B
                                           _00542_DS_:
                                           ;	.line	84; /home/regis/Hobbies/Electronique/Projets/Pinguino/local/trunk/p8/include/pinguino/libraries/usb/usb_cdc.c	outPtr = (data byte *)&zlp;
004fa6   0e03     movlw	0x3                	MOVLW	HIGH(_zlp)
004fa8   0103     movlb	0x3                	BANKSEL	(_outPtr + 1)
004faa   6f27     movwf	0x27, 0x1          	MOVWF	(_outPtr + 1), B
004fac   0e0c     movlw	0xc                	MOVLW	LOW(_zlp)
                                           ; removed redundant BANKSEL
004fae   6f26     movwf	0x26, 0x1          	MOVWF	_outPtr, B
004fb0   0e80     movlw	0x80               	MOVLW	0x80
                                           ; removed redundant BANKSEL
004fb2   6f28     movwf	0x28, 0x1          	MOVWF	(_outPtr + 2), B
                                           ;	.line	85; /home/regis/Hobbies/Electronique/Projets/Pinguino/local/trunk/p8/include/pinguino/libraries/usb/usb_cdc.c	wCount = sizeof(Zero_Packet_Length) ;
004fb4   0e08     movlw	0x8                	MOVLW	0x08
004fb6   0103     movlb	0x3                	BANKSEL	_wCount
004fb8   6f2f     movwf	0x2f, 0x1          	MOVWF	_wCount, B
                                           ; removed redundant BANKSEL
004fba   6b30     clrf	0x30, 0x1           	CLRF	(_wCount + 1), B
                                           ;	.line	86; /home/regis/Hobbies/Electronique/Projets/Pinguino/local/trunk/p8/include/pinguino/libraries/usb/usb_cdc.c	requestHandled = 1;						
004fbc   0e01     movlw	0x1                	MOVLW	0x01
004fbe   0103     movlb	0x3                	BANKSEL	_requestHandled
004fc0   6f38     movwf	0x38, 0x1          	MOVWF	_requestHandled, B
                                           _00544_DS_:
                                           ;	.line	88; /home/regis/Hobbies/Electronique/Projets/Pinguino/local/trunk/p8/include/pinguino/libraries/usb/usb_cdc.c	}
004fc2   cfe4     movff	0xfe4, 0           	MOVFF	PREINC1, r0x00
004fc4   f000
004fc6   0012     return	0                 	RETURN	
                                           
                                           ; ; Starting pCode block
                                           S_main__ProcessUSBTransactions	code
                                           _ProcessUSBTransactions:
                                           ;	.line	740; /home/regis/Hobbies/Electronique/Projets/Pinguino/local/trunk/p8/include/pinguino/libraries/usb/picUSB.c	void ProcessUSBTransactions(void) {
005344   c000     movff	0, 0xfe5           	MOVFF	r0x00, POSTDEC1
005346   ffe5
                                           ; #	MOVF	_deviceState, W, B
                                           ; #	BTFSS	STATUS, 2
                                           ; #	GOTO	_00481_DS_
                                           ; #	GOTO	_00507_DS_
                                           ; #	BTFSS	_UIRbits, 2
005348   0103     movlb	0x3                	BANKSEL	_deviceState
                                           ;	.line	742; /home/regis/Hobbies/Electronique/Projets/Pinguino/local/trunk/p8/include/pinguino/libraries/usb/picUSB.c	if(deviceState == DETACHED)
00534a   513b     movf	0x3b, 0, 0x1        	MOVF	_deviceState, W, B
                                           ;	.line	743; /home/regis/Hobbies/Electronique/Projets/Pinguino/local/trunk/p8/include/pinguino/libraries/usb/picUSB.c	return;
00534c   e02e     bz	0x53aa                	BZ	_00507_DS_
                                           ;	.line	746; /home/regis/Hobbies/Electronique/Projets/Pinguino/local/trunk/p8/include/pinguino/libraries/usb/picUSB.c	if(UIRbits.ACTVIF && UIEbits.ACTVIE)
00534e   a468     btfss	0x68, 0x2, 0       	BTFSS	_UIRbits, 2
                                           ; #	GOTO	_00483_DS_
                                           ; #	BTFSS	_UIEbits, 2
                                           ; #	GOTO	_00483_DS_
                                           ; #	CALL	_UnSuspend
                                           ; #	CLRF	r0x00
                                           ;	.line	747; /home/regis/Hobbies/Electronique/Projets/Pinguino/local/trunk/p8/include/pinguino/libraries/usb/picUSB.c	UnSuspend();
005350   d003     bra	0x5358               	BRA	_00483_DS_
                                           ;	.line	751; /home/regis/Hobbies/Electronique/Projets/Pinguino/local/trunk/p8/include/pinguino/libraries/usb/picUSB.c	if(UCONbits.SUSPND == 1)
005352   b469     btfsc	0x69, 0x2, 0       	BTFSC	_UIEbits, 2
005354   ec4d     call	0x569a, 0           	CALL	_UnSuspend
005356   f02b
                                           _00483_DS_:
005358   6a00     clrf	0, 0                	CLRF	r0x00
00535a   b26d     btfsc	0x6d, 0x1, 0       	BTFSC	_UCONbits, 1
00535c   2a00     incf	0, 0x1, 0           	INCF	r0x00, F
00535e   5000     movf	0, 0, 0             	MOVF	r0x00, W
005360   0a01     xorlw	0x1                	XORLW	0x01
                                           ;	.line	752; /home/regis/Hobbies/Electronique/Projets/Pinguino/local/trunk/p8/include/pinguino/libraries/usb/picUSB.c	return;
005362   e023     bz	0x53aa                	BZ	_00507_DS_
                                           ;	.line	755; /home/regis/Hobbies/Electronique/Projets/Pinguino/local/trunk/p8/include/pinguino/libraries/usb/picUSB.c	if (UIRbits.URSTIF && UIEbits.URSTIE) {
005364   a068     btfss	0x68, 0, 0         	BTFSS	_UIRbits, 0
                                           ; #	GOTO	_00488_DS_
                                           ; #	BTFSS	_UIEbits, 0
                                           ; #	GOTO	_00488_DS_
                                           ; #	CALL	_BusReset
                                           ; #	BTFSS	_UIRbits, 4
                                           ;	.line	756; /home/regis/Hobbies/Electronique/Projets/Pinguino/local/trunk/p8/include/pinguino/libraries/usb/picUSB.c	BusReset();
005366   d003     bra	0x536e               	BRA	_00488_DS_
                                           ;	.line	759; /home/regis/Hobbies/Electronique/Projets/Pinguino/local/trunk/p8/include/pinguino/libraries/usb/picUSB.c	if (UIRbits.IDLEIF && UIEbits.IDLEIE) {
005368   b069     btfsc	0x69, 0, 0         	BTFSC	_UIEbits, 0
00536a   ec97     call	0x552e, 0           	CALL	_BusReset
00536c   f02a
                                           _00488_DS_:
00536e   a868     btfss	0x68, 0x4, 0       	BTFSS	_UIRbits, 4
                                           ; #	GOTO	_00491_DS_
                                           ; #	BTFSS	_UIEbits, 4
                                           ; #	GOTO	_00491_DS_
                                           ; #	CALL	_Suspend
                                           ; #	BTFSS	_UIRbits, 6
                                           ;	.line	761; /home/regis/Hobbies/Electronique/Projets/Pinguino/local/trunk/p8/include/pinguino/libraries/usb/picUSB.c	Suspend();
005370   d003     bra	0x5378               	BRA	_00491_DS_
                                           ;	.line	763; /home/regis/Hobbies/Electronique/Projets/Pinguino/local/trunk/p8/include/pinguino/libraries/usb/picUSB.c	if (UIRbits.SOFIF && UIEbits.SOFIE) {
005372   b869     btfsc	0x69, 0x4, 0       	BTFSC	_UIEbits, 4
005374   ece8     call	0x55d0, 0           	CALL	_Suspend
005376   f02a
                                           _00491_DS_:
005378   ac68     btfss	0x68, 0x6, 0       	BTFSS	_UIRbits, 6
                                           ; #	GOTO	_00494_DS_
                                           ; #	BTFSS	_UIEbits, 6
                                           ; #	GOTO	_00494_DS_
                                           ; #	CALL	_StartOfFrame
                                           ; #	BTFSS	_UIRbits, 5
                                           ;	.line	764; /home/regis/Hobbies/Electronique/Projets/Pinguino/local/trunk/p8/include/pinguino/libraries/usb/picUSB.c	StartOfFrame();
00537a   d003     bra	0x5382               	BRA	_00494_DS_
                                           ;	.line	766; /home/regis/Hobbies/Electronique/Projets/Pinguino/local/trunk/p8/include/pinguino/libraries/usb/picUSB.c	if (UIRbits.STALLIF && UIEbits.STALLIE) {
00537c   bc69     btfsc	0x69, 0x6, 0       	BTFSC	_UIEbits, 6
00537e   ec51     call	0x56a2, 0           	CALL	_StartOfFrame
005380   f02b
                                           _00494_DS_:
005382   aa68     btfss	0x68, 0x5, 0       	BTFSS	_UIRbits, 5
                                           ; #	GOTO	_00497_DS_
                                           ; #	BTFSS	_UIEbits, 5
                                           ; #	GOTO	_00497_DS_
                                           ; #	CALL	_Stall
                                           ; #	BTFSS	_UIRbits, 1
                                           ;	.line	767; /home/regis/Hobbies/Electronique/Projets/Pinguino/local/trunk/p8/include/pinguino/libraries/usb/picUSB.c	Stall();
005384   d003     bra	0x538c               	BRA	_00497_DS_
                                           ;	.line	770; /home/regis/Hobbies/Electronique/Projets/Pinguino/local/trunk/p8/include/pinguino/libraries/usb/picUSB.c	if (UIRbits.UERRIF && UIEbits.UERRIE) {
005386   ba69     btfsc	0x69, 0x5, 0       	BTFSC	_UIEbits, 5
005388   ec20     call	0x5640, 0           	CALL	_Stall
00538a   f02b
                                           _00497_DS_:
00538c   a268     btfss	0x68, 0x1, 0       	BTFSS	_UIRbits, 1
                                           ; #	GOTO	_00500_DS_
                                           ; #	BTFSS	_UIEbits, 1
                                           ; #	GOTO	_00500_DS_
                                           ; #	BCF	_UIRbits, 1
                                           ; #	MOVLW	0x03
                                           ;	.line	774; /home/regis/Hobbies/Electronique/Projets/Pinguino/local/trunk/p8/include/pinguino/libraries/usb/picUSB.c	UIRbits.UERRIF = 0;
00538e   d002     bra	0x5394               	BRA	_00500_DS_
                                           ;	.line	778; /home/regis/Hobbies/Electronique/Projets/Pinguino/local/trunk/p8/include/pinguino/libraries/usb/picUSB.c	if (deviceState < DEFAULT)
005390   b269     btfsc	0x69, 0x1, 0       	BTFSC	_UIEbits, 1
005392   9268     bcf	0x68, 0x1, 0         	BCF	_UIRbits, 1
                                           _00500_DS_:
005394   0e03     movlw	0x3                	MOVLW	0x03
                                           ; #	SUBWF	_deviceState, W, B
                                           ; #	BTFSC	STATUS, 0
                                           ; #	GOTO	_00503_DS_
                                           ; #	GOTO	_00507_DS_
                                           ; #	BTFSS	_UIRbits, 3
005396   0103     movlb	0x3                	BANKSEL	_deviceState
                                           ;	.line	779; /home/regis/Hobbies/Electronique/Projets/Pinguino/local/trunk/p8/include/pinguino/libraries/usb/picUSB.c	return;
005398   5d3b     subwf	0x3b, 0, 0x1       	SUBWF	_deviceState, W, B
                                           ;	.line	782; /home/regis/Hobbies/Electronique/Projets/Pinguino/local/trunk/p8/include/pinguino/libraries/usb/picUSB.c	if(UIRbits.TRNIF && UIEbits.TRNIE) {
00539a   e307     bnc	0x53aa               	BNC	_00507_DS_
00539c   a668     btfss	0x68, 0x3, 0       	BTFSS	_UIRbits, 3
00539e   d005     bra	0x53aa               	BRA	_00507_DS_
0053a0   a669     btfss	0x69, 0x3, 0       	BTFSS	_UIEbits, 3
0053a2   d003     bra	0x53aa               	BRA	_00507_DS_
                                           ;	.line	783; /home/regis/Hobbies/Electronique/Projets/Pinguino/local/trunk/p8/include/pinguino/libraries/usb/picUSB.c	ProcessControlTransfer();
0053a4   ece4     call	0x4fc8, 0           	CALL	_ProcessControlTransfer
0053a6   f027
                                           ;	.line	786; /home/regis/Hobbies/Electronique/Projets/Pinguino/local/trunk/p8/include/pinguino/libraries/usb/picUSB.c	UIRbits.TRNIF = 0;
0053a8   9668     bcf	0x68, 0x3, 0         	BCF	_UIRbits, 3
                                           _00507_DS_:
0053aa   cfe4     movff	0xfe4, 0           	MOVFF	PREINC1, r0x00
0053ac   f000
0053ae   0012     return	0                 	RETURN	
                                           
                                           ; ; Starting pCode block
                                           S_main__BusReset	code
                                           _BusReset:
                                           ;	.line	712; /home/regis/Hobbies/Electronique/Projets/Pinguino/local/trunk/p8/include/pinguino/libraries/usb/picUSB.c	void BusReset() {
00552e   c000     movff	0, 0xfe5           	MOVFF	r0x00, POSTDEC1
005530   ffe5
                                           ;	.line	713; /home/regis/Hobbies/Electronique/Projets/Pinguino/local/trunk/p8/include/pinguino/libraries/usb/picUSB.c	UEIR  = 0x00;
005532   6a6a     clrf	0x6a, 0             	CLRF	_UEIR
                                           ;	.line	714; /home/regis/Hobbies/Electronique/Projets/Pinguino/local/trunk/p8/include/pinguino/libraries/usb/picUSB.c	UIR   = 0x00;
005534   6a68     clrf	0x68, 0             	CLRF	_UIR
                                           ;	.line	715; /home/regis/Hobbies/Electronique/Projets/Pinguino/local/trunk/p8/include/pinguino/libraries/usb/picUSB.c	UEIE  = 0x9f;
005536   0e9f     movlw	0x9f               	MOVLW	0x9f
005538   6e6b     movwf	0x6b, 0            	MOVWF	_UEIE
                                           ;	.line	716; /home/regis/Hobbies/Electronique/Projets/Pinguino/local/trunk/p8/include/pinguino/libraries/usb/picUSB.c	UIE   = 0x7b;
00553a   0e7b     movlw	0x7b               	MOVLW	0x7b
00553c   6e69     movwf	0x69, 0            	MOVWF	_UIE
                                           ;	.line	717; /home/regis/Hobbies/Electronique/Projets/Pinguino/local/trunk/p8/include/pinguino/libraries/usb/picUSB.c	UADDR = 0x00;
00553e   6a6e     clrf	0x6e, 0             	CLRF	_UADDR
                                           ;	.line	720; /home/regis/Hobbies/Electronique/Projets/Pinguino/local/trunk/p8/include/pinguino/libraries/usb/picUSB.c	UEP0 = EP_CTRL | HSHK_EN;
005540   0e16     movlw	0x16               	MOVLW	0x16
005542   6e70     movwf	0x70, 0            	MOVWF	_UEP0
                                           _00467_DS_:
                                           ;	.line	723; /home/regis/Hobbies/Electronique/Projets/Pinguino/local/trunk/p8/include/pinguino/libraries/usb/picUSB.c	while (UIRbits.TRNIF == 1)
005544   6a00     clrf	0, 0                	CLRF	r0x00
005546   b668     btfsc	0x68, 0x3, 0       	BTFSC	_UIRbits, 3
005548   2a00     incf	0, 0x1, 0           	INCF	r0x00, F
00554a   5000     movf	0, 0, 0             	MOVF	r0x00, W
00554c   0a01     xorlw	0x1                	XORLW	0x01
00554e   e102     bnz	0x5554               	BNZ	_00469_DS_
                                           ;	.line	724; /home/regis/Hobbies/Electronique/Projets/Pinguino/local/trunk/p8/include/pinguino/libraries/usb/picUSB.c	UIRbits.TRNIF = 0;
005550   9668     bcf	0x68, 0x3, 0         	BCF	_UIRbits, 3
005552   d7f8     bra	0x5544               	BRA	_00467_DS_
                                           _00469_DS_:
                                           ;	.line	727; /home/regis/Hobbies/Electronique/Projets/Pinguino/local/trunk/p8/include/pinguino/libraries/usb/picUSB.c	UCONbits.PKTDIS = 0;
005554   986d     bcf	0x6d, 0x4, 0         	BCF	_UCONbits, 4
                                           ;	.line	730; /home/regis/Hobbies/Electronique/Projets/Pinguino/local/trunk/p8/include/pinguino/libraries/usb/picUSB.c	WaitForSetupStage();
005556   ec2f     call	0x565e, 0           	CALL	_WaitForSetupStage
005558   f02b
00555a   0103     movlb	0x3                	BANKSEL	_remoteWakeup
                                           ;	.line	732; /home/regis/Hobbies/Electronique/Projets/Pinguino/local/trunk/p8/include/pinguino/libraries/usb/picUSB.c	remoteWakeup = 0;                     // Remote wakeup is off by default
00555c   6b3a     clrf	0x3a, 0x1           	CLRF	_remoteWakeup, B
00555e   0103     movlb	0x3                	BANKSEL	_selfPowered
                                           ;	.line	733; /home/regis/Hobbies/Electronique/Projets/Pinguino/local/trunk/p8/include/pinguino/libraries/usb/picUSB.c	selfPowered = 0;                      // Self powered is off by default
005560   6b39     clrf	0x39, 0x1           	CLRF	_selfPowered, B
005562   0103     movlb	0x3                	BANKSEL	_currentConfiguration
                                           ;	.line	734; /home/regis/Hobbies/Electronique/Projets/Pinguino/local/trunk/p8/include/pinguino/libraries/usb/picUSB.c	currentConfiguration = 0;             // Clear active configuration
005564   6b3c     clrf	0x3c, 0x1           	CLRF	_currentConfiguration, B
                                           ;	.line	735; /home/regis/Hobbies/Electronique/Projets/Pinguino/local/trunk/p8/include/pinguino/libraries/usb/picUSB.c	deviceState = DEFAULT;
005566   0e03     movlw	0x3                	MOVLW	0x03
005568   0103     movlb	0x3                	BANKSEL	_deviceState
00556a   6f3b     movwf	0x3b, 0x1          	MOVWF	_deviceState, B
00556c   cfe4     movff	0xfe4, 0           	MOVFF	PREINC1, r0x00
00556e   f000
005570   0012     return	0                 	RETURN	
                                           
                                           ; ; Starting pCode block
                                           S_main__Suspend	code
                                           _Suspend:
                                           ;	.line	682; /home/regis/Hobbies/Electronique/Projets/Pinguino/local/trunk/p8/include/pinguino/libraries/usb/picUSB.c	void Suspend(void) {
0055d0   cfd9     movff	0xfd9, 0xfe5       	MOVFF	FSR2L, POSTDEC1
0055d2   ffe5
0055d4   cfe1     movff	0xfe1, 0xfd9       	MOVFF	FSR1L, FSR2L
0055d6   ffd9
                                           ;	.line	687; /home/regis/Hobbies/Electronique/Projets/Pinguino/local/trunk/p8/include/pinguino/libraries/usb/picUSB.c	UIEbits.ACTVIE = 1;
0055d8   8469     bsf	0x69, 0x2, 0         	BSF	_UIEbits, 2
                                           ;	.line	688; /home/regis/Hobbies/Electronique/Projets/Pinguino/local/trunk/p8/include/pinguino/libraries/usb/picUSB.c	UIRbits.IDLEIF = 0;
0055da   9868     bcf	0x68, 0x4, 0         	BCF	_UIRbits, 4
                                           ;	.line	689; /home/regis/Hobbies/Electronique/Projets/Pinguino/local/trunk/p8/include/pinguino/libraries/usb/picUSB.c	UCONbits.SUSPND = 1;
0055dc   826d     bsf	0x6d, 0x1, 0         	BSF	_UCONbits, 1
                                           ;	.line	691; /home/regis/Hobbies/Electronique/Projets/Pinguino/local/trunk/p8/include/pinguino/libraries/usb/picUSB.c	PIR2bits.USBIF = 0;
0055de   9aa1     bcf	0xa1, 0x5, 0         	BCF	_PIR2bits, 5
                                           ;	.line	692; /home/regis/Hobbies/Electronique/Projets/Pinguino/local/trunk/p8/include/pinguino/libraries/usb/picUSB.c	INTCONbits.RBIF = 0;
0055e0   90f2     bcf	0xf2, 0, 0           	BCF	_INTCONbits, 0
                                           ;	.line	693; /home/regis/Hobbies/Electronique/Projets/Pinguino/local/trunk/p8/include/pinguino/libraries/usb/picUSB.c	PIE2bits.USBIE = 1;
0055e2   8aa0     bsf	0xa0, 0x5, 0         	BSF	_PIE2bits, 5
                                           ;	.line	694; /home/regis/Hobbies/Electronique/Projets/Pinguino/local/trunk/p8/include/pinguino/libraries/usb/picUSB.c	INTCONbits.RBIE = 1;
0055e4   86f2     bsf	0xf2, 0x3, 0         	BSF	_INTCONbits, 3
                                           ;	.line	697; /home/regis/Hobbies/Electronique/Projets/Pinguino/local/trunk/p8/include/pinguino/libraries/usb/picUSB.c	RCSTAbits.CREN = 0;
0055e6   98ab     bcf	0xab, 0x4, 0         	BCF	_RCSTAbits, 4
                                           ;	.line	698; /home/regis/Hobbies/Electronique/Projets/Pinguino/local/trunk/p8/include/pinguino/libraries/usb/picUSB.c	TXSTAbits.TXEN = 0;
0055e8   9aac     bcf	0xac, 0x5, 0         	BCF	_TXSTAbits, 5
0055ea   0003     sleep                    	sleep 
                                           ;	.line	703; /home/regis/Hobbies/Electronique/Projets/Pinguino/local/trunk/p8/include/pinguino/libraries/usb/picUSB.c	RCSTAbits.CREN = 1;
0055ec   88ab     bsf	0xab, 0x4, 0         	BSF	_RCSTAbits, 4
                                           ;	.line	704; /home/regis/Hobbies/Electronique/Projets/Pinguino/local/trunk/p8/include/pinguino/libraries/usb/picUSB.c	TXSTAbits.TXEN = 1;
0055ee   8aac     bsf	0xac, 0x5, 0         	BSF	_TXSTAbits, 5
                                           ;	.line	706; /home/regis/Hobbies/Electronique/Projets/Pinguino/local/trunk/p8/include/pinguino/libraries/usb/picUSB.c	PIE2bits.USBIE = 0;
0055f0   9aa0     bcf	0xa0, 0x5, 0         	BCF	_PIE2bits, 5
                                           ;	.line	707; /home/regis/Hobbies/Electronique/Projets/Pinguino/local/trunk/p8/include/pinguino/libraries/usb/picUSB.c	INTCONbits.RBIE = 0;
0055f2   96f2     bcf	0xf2, 0x3, 0         	BCF	_INTCONbits, 3
0055f4   cfe4     movff	0xfe4, 0xfd9       	MOVFF	PREINC1, FSR2L
0055f6   ffd9
0055f8   0012     return	0                 	RETURN	
                                           
                                           ; ; Starting pCode block
                                           S_main__Stall	code
                                           _Stall:
                                           ;	.line	668; /home/regis/Hobbies/Electronique/Projets/Pinguino/local/trunk/p8/include/pinguino/libraries/usb/picUSB.c	void Stall(void) {
005640   c000     movff	0, 0xfe5           	MOVFF	r0x00, POSTDEC1
005642   ffe5
                                           ;	.line	672; /home/regis/Hobbies/Electronique/Projets/Pinguino/local/trunk/p8/include/pinguino/libraries/usb/picUSB.c	if(UEP0bits.EPSTALL == 1) {
005644   6a00     clrf	0, 0                	CLRF	r0x00
005646   b070     btfsc	0x70, 0, 0         	BTFSC	_UEP0bits, 0
005648   2a00     incf	0, 0x1, 0           	INCF	r0x00, F
00564a   5000     movf	0, 0, 0             	MOVF	r0x00, W
00564c   0a01     xorlw	0x1                	XORLW	0x01
00564e   e103     bnz	0x5656               	BNZ	_00449_DS_
                                           ;	.line	674; /home/regis/Hobbies/Electronique/Projets/Pinguino/local/trunk/p8/include/pinguino/libraries/usb/picUSB.c	WaitForSetupStage();
005650   ec2f     call	0x565e, 0           	CALL	_WaitForSetupStage
005652   f02b
                                           ;	.line	675; /home/regis/Hobbies/Electronique/Projets/Pinguino/local/trunk/p8/include/pinguino/libraries/usb/picUSB.c	UEP0bits.EPSTALL = 0;
005654   9070     bcf	0x70, 0, 0           	BCF	_UEP0bits, 0
                                           _00449_DS_:
                                           ;	.line	677; /home/regis/Hobbies/Electronique/Projets/Pinguino/local/trunk/p8/include/pinguino/libraries/usb/picUSB.c	UIRbits.STALLIF = 0;
005656   9a68     bcf	0x68, 0x5, 0         	BCF	_UIRbits, 5
005658   cfe4     movff	0xfe4, 0           	MOVFF	PREINC1, r0x00
00565a   f000
00565c   0012     return	0                 	RETURN	
                                           
                                           ; ; Starting pCode block
                                           S_main__StartOfFrame	code
                                           _StartOfFrame:
                                           ;	.line	663; /home/regis/Hobbies/Electronique/Projets/Pinguino/local/trunk/p8/include/pinguino/libraries/usb/picUSB.c	UIRbits.SOFIF = 0;
0056a2   9c68     bcf	0x68, 0x6, 0         	BCF	_UIRbits, 6
0056a4   0012     return	0                 	RETURN	
                                           
                                           ; ; Starting pCode block
                                           S_main__UnSuspend	code
                                           _UnSuspend:
                                           ;	.line	653; /home/regis/Hobbies/Electronique/Projets/Pinguino/local/trunk/p8/include/pinguino/libraries/usb/picUSB.c	UCONbits.SUSPND = 0;
00569a   926d     bcf	0x6d, 0x1, 0         	BCF	_UCONbits, 1
                                           ;	.line	654; /home/regis/Hobbies/Electronique/Projets/Pinguino/local/trunk/p8/include/pinguino/libraries/usb/picUSB.c	UIEbits.ACTVIE = 0;
00569c   9469     bcf	0x69, 0x2, 0         	BCF	_UIEbits, 2
                                           ;	.line	655; /home/regis/Hobbies/Electronique/Projets/Pinguino/local/trunk/p8/include/pinguino/libraries/usb/picUSB.c	UIRbits.ACTVIF = 0;
00569e   9468     bcf	0x68, 0x2, 0         	BCF	_UIRbits, 2
0056a0   0012     return	0                 	RETURN	
                                           
                                           ; ; Starting pCode block
                                           S_main__EnableUSBModule	code
                                           _EnableUSBModule:
                                           ;	.line	623; /home/regis/Hobbies/Electronique/Projets/Pinguino/local/trunk/p8/include/pinguino/libraries/usb/picUSB.c	if(UCONbits.USBEN == 0) {
0055a4   b66d     btfsc	0x6d, 0x3, 0       	BTFSC	_UCONbits, 3
0055a6   d006     bra	0x55b4               	BRA	_00423_DS_
                                           ;	.line	627; /home/regis/Hobbies/Electronique/Projets/Pinguino/local/trunk/p8/include/pinguino/libraries/usb/picUSB.c	UCON = 0;
0055a8   6a6d     clrf	0x6d, 0             	CLRF	_UCON
                                           ;	.line	628; /home/regis/Hobbies/Electronique/Projets/Pinguino/local/trunk/p8/include/pinguino/libraries/usb/picUSB.c	UIE = 0;
0055aa   6a69     clrf	0x69, 0             	CLRF	_UIE
                                           ;	.line	629; /home/regis/Hobbies/Electronique/Projets/Pinguino/local/trunk/p8/include/pinguino/libraries/usb/picUSB.c	UCONbits.USBEN = 1;
0055ac   866d     bsf	0x6d, 0x3, 0         	BSF	_UCONbits, 3
                                           ;	.line	630; /home/regis/Hobbies/Electronique/Projets/Pinguino/local/trunk/p8/include/pinguino/libraries/usb/picUSB.c	deviceState = ATTACHED;
0055ae   0e01     movlw	0x1                	MOVLW	0x01
0055b0   0103     movlb	0x3                	BANKSEL	_deviceState
0055b2   6f3b     movwf	0x3b, 0x1          	MOVWF	_deviceState, B
                                           _00423_DS_:
0055b4   0103     movlb	0x3                	BANKSEL	_deviceState
                                           ;	.line	634; /home/regis/Hobbies/Electronique/Projets/Pinguino/local/trunk/p8/include/pinguino/libraries/usb/picUSB.c	if ((deviceState == ATTACHED) && !UCONbits.SE0) {
0055b6   513b     movf	0x3b, 0, 0x1        	MOVF	_deviceState, W, B
0055b8   0a01     xorlw	0x1                	XORLW	0x01
0055ba   e109     bnz	0x55ce               	BNZ	_00427_DS_
0055bc   ba6d     btfsc	0x6d, 0x5, 0       	BTFSC	_UCONbits, 5
0055be   d007     bra	0x55ce               	BRA	_00427_DS_
                                           ;	.line	635; /home/regis/Hobbies/Electronique/Projets/Pinguino/local/trunk/p8/include/pinguino/libraries/usb/picUSB.c	UIR = 0;
0055c0   6a68     clrf	0x68, 0             	CLRF	_UIR
                                           ;	.line	636; /home/regis/Hobbies/Electronique/Projets/Pinguino/local/trunk/p8/include/pinguino/libraries/usb/picUSB.c	UIE = 0;
0055c2   6a69     clrf	0x69, 0             	CLRF	_UIE
                                           ;	.line	637; /home/regis/Hobbies/Electronique/Projets/Pinguino/local/trunk/p8/include/pinguino/libraries/usb/picUSB.c	UIEbits.URSTIE = 1;
0055c4   8069     bsf	0x69, 0, 0           	BSF	_UIEbits, 0
                                           ;	.line	638; /home/regis/Hobbies/Electronique/Projets/Pinguino/local/trunk/p8/include/pinguino/libraries/usb/picUSB.c	UIEbits.IDLEIE = 1;
0055c6   8869     bsf	0x69, 0x4, 0         	BSF	_UIEbits, 4
                                           ;	.line	639; /home/regis/Hobbies/Electronique/Projets/Pinguino/local/trunk/p8/include/pinguino/libraries/usb/picUSB.c	deviceState = POWERED;
0055c8   0e02     movlw	0x2                	MOVLW	0x02
0055ca   0103     movlb	0x3                	BANKSEL	_deviceState
0055cc   6f3b     movwf	0x3b, 0x1          	MOVWF	_deviceState, B
                                           _00427_DS_:
0055ce   0012     return	0                 	RETURN	
                                           
                                           ; ; Starting pCode block
                                           S_main__ProcessControlTransfer	code
                                           _ProcessControlTransfer:
                                           ;	.line	533; /home/regis/Hobbies/Electronique/Projets/Pinguino/local/trunk/p8/include/pinguino/libraries/usb/picUSB.c	void ProcessControlTransfer(void) {
004fc8   c000     movff	0, 0xfe5           	MOVFF	r0x00, POSTDEC1
004fca   ffe5
                                           ;	.line	537; /home/regis/Hobbies/Electronique/Projets/Pinguino/local/trunk/p8/include/pinguino/libraries/usb/picUSB.c	if (USTATbits.DIR == OUT) {
004fcc   b46c     btfsc	0x6c, 0x2, 0       	BTFSC	_USTATbits, 2
004fce   d022     bra	0x5014               	BRA	_00393_DS_
                                           ;	.line	540; /home/regis/Hobbies/Electronique/Projets/Pinguino/local/trunk/p8/include/pinguino/libraries/usb/picUSB.c	byte PID = (EP_OUT_BD(0).Stat.uc & 0x3C) >> 2;
004fd0   0e3c     movlw	0x3c               	MOVLW	0x3c
004fd2   0104     movlb	0x4                	BANKSEL	_ep_bdt
004fd4   1500     andwf	0, 0, 0x1          	ANDWF	_ep_bdt, W, B
004fd6   6e00     movwf	0, 0               	MOVWF	r0x00
004fd8   4000     rrncf	0, 0, 0            	RRNCF	r0x00, W
004fda   40e8     rrncf	0xe8, 0, 0         	RRNCF	WREG, W
004fdc   0b3f     andlw	0x3f               	ANDLW	0x3f
                                           ; #	MOVWF	r0x00
                                           ; #	MOVF	r0x00, W
                                           ;	.line	541; /home/regis/Hobbies/Electronique/Projets/Pinguino/local/trunk/p8/include/pinguino/libraries/usb/picUSB.c	if (PID == 0x0D)
004fde   0a0d     xorlw	0xd                	XORLW	0x0d
004fe0   e103     bnz	0x4fe8               	BNZ	_00377_DS_
                                           ;	.line	543; /home/regis/Hobbies/Electronique/Projets/Pinguino/local/trunk/p8/include/pinguino/libraries/usb/picUSB.c	SetupStage();
004fe2   ec95     call	0x3f2a, 0           	CALL	_SetupStage
004fe4   f01f
004fe6   d03e     bra	0x5064               	BRA	_00395_DS_
                                           _00377_DS_:
004fe8   0103     movlb	0x3                	BANKSEL	_ctrlTransferStage
                                           ;	.line	544; /home/regis/Hobbies/Electronique/Projets/Pinguino/local/trunk/p8/include/pinguino/libraries/usb/picUSB.c	else if (ctrlTransferStage == DATA_OUT_STAGE) {
004fea   513d     movf	0x3d, 0, 0x1        	MOVF	_ctrlTransferStage, W, B
004fec   0a01     xorlw	0x1                	XORLW	0x01
004fee   e10f     bnz	0x500e               	BNZ	_00374_DS_
                                           ;	.line	547; /home/regis/Hobbies/Electronique/Projets/Pinguino/local/trunk/p8/include/pinguino/libraries/usb/picUSB.c	OutDataStage(0);
004ff0   0e00     movlw	0                  	MOVLW	0x00
004ff2   6ae5     clrf	0xe5, 0             	CLRF	POSTDEC1
004ff4   ec07     call	0x420e, 0           	CALL	_OutDataStage
004ff6   f021
004ff8   2ae1     incf	0xe1, 0x1, 0        	INCF	FSR1L, F
004ffa   0104     movlb	0x4                	BANKSEL	_ep_bdt
                                           ;	.line	571; /home/regis/Hobbies/Electronique/Projets/Pinguino/local/trunk/p8/include/pinguino/libraries/usb/picUSB.c	if(EP_OUT_BD(0).Stat.DTS)
004ffc   ad00     btfss	0, 0x6, 0x1        	BTFSS	_ep_bdt, 6, B
004ffe   d003     bra	0x5006               	BRA	_00371_DS_
                                           ;	.line	572; /home/regis/Hobbies/Electronique/Projets/Pinguino/local/trunk/p8/include/pinguino/libraries/usb/picUSB.c	EP_OUT_BD(0).Stat.uc = BDS_UOWN | BDS_DTSEN;
005000   0e88     movlw	0x88               	MOVLW	0x88
                                           ; removed redundant BANKSEL
005002   6f00     movwf	0, 0x1             	MOVWF	_ep_bdt, B
005004   d02f     bra	0x5064               	BRA	_00395_DS_
                                           _00371_DS_:
                                           ;	.line	574; /home/regis/Hobbies/Electronique/Projets/Pinguino/local/trunk/p8/include/pinguino/libraries/usb/picUSB.c	EP_OUT_BD(0).Stat.uc = BDS_UOWN | BDS_DTS | BDS_DTSEN;
005006   0ec8     movlw	0xc8               	MOVLW	0xc8
005008   0104     movlb	0x4                	BANKSEL	_ep_bdt
00500a   6f00     movwf	0, 0x1             	MOVWF	_ep_bdt, B
00500c   d02b     bra	0x5064               	BRA	_00395_DS_
                                           _00374_DS_:
                                           ;	.line	578; /home/regis/Hobbies/Electronique/Projets/Pinguino/local/trunk/p8/include/pinguino/libraries/usb/picUSB.c	WaitForSetupStage();
00500e   ec2f     call	0x565e, 0           	CALL	_WaitForSetupStage
005010   f02b
005012   d028     bra	0x5064               	BRA	_00395_DS_
                                           _00393_DS_:
                                           ;	.line	581; /home/regis/Hobbies/Electronique/Projets/Pinguino/local/trunk/p8/include/pinguino/libraries/usb/picUSB.c	else if(USTATbits.DIR == IN) {
005014   6a00     clrf	0, 0                	CLRF	r0x00
005016   b46c     btfsc	0x6c, 0x2, 0       	BTFSC	_USTATbits, 2
005018   2a00     incf	0, 0x1, 0           	INCF	r0x00, F
00501a   5000     movf	0, 0, 0             	MOVF	r0x00, W
00501c   0a01     xorlw	0x1                	XORLW	0x01
00501e   e122     bnz	0x5064               	BNZ	_00395_DS_
                                           ;	.line	583; /home/regis/Hobbies/Electronique/Projets/Pinguino/local/trunk/p8/include/pinguino/libraries/usb/picUSB.c	if ((UADDR == 0) && (deviceState == ADDRESS)) {
005020   506e     movf	0x6e, 0, 0          	MOVF	_UADDR, W
005022   e10b     bnz	0x503a               	BNZ	_00382_DS_
005024   0103     movlb	0x3                	BANKSEL	_deviceState
005026   513b     movf	0x3b, 0, 0x1        	MOVF	_deviceState, W, B
005028   0a04     xorlw	0x4                	XORLW	0x04
00502a   e107     bnz	0x503a               	BNZ	_00382_DS_
                                           ;	.line	586; /home/regis/Hobbies/Electronique/Projets/Pinguino/local/trunk/p8/include/pinguino/libraries/usb/picUSB.c	UADDR = SetupPacket.wValue0;
00502c   c502     movff	0x502, 0xf6e       	MOVFF	(_SetupPacket + 2), _UADDR
00502e   ff6e
                                           ;	.line	590; /home/regis/Hobbies/Electronique/Projets/Pinguino/local/trunk/p8/include/pinguino/libraries/usb/picUSB.c	if(UADDR == 0)
005030   506e     movf	0x6e, 0, 0          	MOVF	_UADDR, W
005032   e103     bnz	0x503a               	BNZ	_00382_DS_
                                           ;	.line	593; /home/regis/Hobbies/Electronique/Projets/Pinguino/local/trunk/p8/include/pinguino/libraries/usb/picUSB.c	deviceState = DEFAULT;
005034   0e03     movlw	0x3                	MOVLW	0x03
005036   0103     movlb	0x3                	BANKSEL	_deviceState
005038   6f3b     movwf	0x3b, 0x1          	MOVWF	_deviceState, B
                                           _00382_DS_:
00503a   0103     movlb	0x3                	BANKSEL	_ctrlTransferStage
                                           ;	.line	596; /home/regis/Hobbies/Electronique/Projets/Pinguino/local/trunk/p8/include/pinguino/libraries/usb/picUSB.c	if (ctrlTransferStage == DATA_IN_STAGE) {
00503c   513d     movf	0x3d, 0, 0x1        	MOVF	_ctrlTransferStage, W, B
00503e   0a02     xorlw	0x2                	XORLW	0x02
005040   e10f     bnz	0x5060               	BNZ	_00388_DS_
                                           ;	.line	598; /home/regis/Hobbies/Electronique/Projets/Pinguino/local/trunk/p8/include/pinguino/libraries/usb/picUSB.c	InDataStage(0);
005042   0e00     movlw	0                  	MOVLW	0x00
005044   6ae5     clrf	0xe5, 0             	CLRF	POSTDEC1
005046   ec25     call	0x404a, 0           	CALL	_InDataStage
005048   f020
00504a   2ae1     incf	0xe1, 0x1, 0        	INCF	FSR1L, F
00504c   0104     movlb	0x4                	BANKSEL	(_ep_bdt + 4)
                                           ;	.line	601; /home/regis/Hobbies/Electronique/Projets/Pinguino/local/trunk/p8/include/pinguino/libraries/usb/picUSB.c	if(EP_IN_BD(0).Stat.DTS)
00504e   ad04     btfss	0x4, 0x6, 0x1      	BTFSS	(_ep_bdt + 4), 6, B
005050   d003     bra	0x5058               	BRA	_00385_DS_
                                           ;	.line	602; /home/regis/Hobbies/Electronique/Projets/Pinguino/local/trunk/p8/include/pinguino/libraries/usb/picUSB.c	EP_IN_BD(0).Stat.uc = BDS_UOWN | BDS_DTSEN;
005052   0e88     movlw	0x88               	MOVLW	0x88
                                           ; removed redundant BANKSEL
005054   6f04     movwf	0x4, 0x1           	MOVWF	(_ep_bdt + 4), B
005056   d006     bra	0x5064               	BRA	_00395_DS_
                                           _00385_DS_:
                                           ;	.line	604; /home/regis/Hobbies/Electronique/Projets/Pinguino/local/trunk/p8/include/pinguino/libraries/usb/picUSB.c	EP_IN_BD(0).Stat.uc = BDS_UOWN | BDS_DTS | BDS_DTSEN;
005058   0ec8     movlw	0xc8               	MOVLW	0xc8
00505a   0104     movlb	0x4                	BANKSEL	(_ep_bdt + 4)
00505c   6f04     movwf	0x4, 0x1           	MOVWF	(_ep_bdt + 4), B
00505e   d002     bra	0x5064               	BRA	_00395_DS_
                                           _00388_DS_:
                                           ;	.line	608; /home/regis/Hobbies/Electronique/Projets/Pinguino/local/trunk/p8/include/pinguino/libraries/usb/picUSB.c	WaitForSetupStage();
005060   ec2f     call	0x565e, 0           	CALL	_WaitForSetupStage
005062   f02b
                                           _00395_DS_:
005064   cfe4     movff	0xfe4, 0           	MOVFF	PREINC1, r0x00
005066   f000
005068   0012     return	0                 	RETURN	
                                           
                                           ; ; Starting pCode block
                                           S_main__WaitForSetupStage	code
                                           _WaitForSetupStage:
00565e   0103     movlb	0x3                	BANKSEL	_ctrlTransferStage
                                           ;	.line	520; /home/regis/Hobbies/Electronique/Projets/Pinguino/local/trunk/p8/include/pinguino/libraries/usb/picUSB.c	ctrlTransferStage = SETUP_STAGE;
005660   6b3d     clrf	0x3d, 0x1           	CLRF	_ctrlTransferStage, B
                                           ;	.line	521; /home/regis/Hobbies/Electronique/Projets/Pinguino/local/trunk/p8/include/pinguino/libraries/usb/picUSB.c	EP_OUT_BD(0).Cnt = EP0_BUFFER_SIZE;
005662   0e40     movlw	0x40               	MOVLW	0x40
005664   0104     movlb	0x4                	BANKSEL	(_ep_bdt + 1)
005666   6f01     movwf	0x1, 0x1           	MOVWF	(_ep_bdt + 1), B
                                           ;	.line	522; /home/regis/Hobbies/Electronique/Projets/Pinguino/local/trunk/p8/include/pinguino/libraries/usb/picUSB.c	EP_OUT_BD(0).ADDR = PTR16(&SetupPacket);
005668   0e00     movlw	0                  	MOVLW	LOW(_SetupPacket)
                                           ; removed redundant BANKSEL
00566a   6f02     movwf	0x2, 0x1           	MOVWF	(_ep_bdt + 2), B
00566c   0e05     movlw	0x5                	MOVLW	HIGH(_SetupPacket)
                                           ; removed redundant BANKSEL
00566e   6f03     movwf	0x3, 0x1           	MOVWF	(_ep_bdt + 3), B
                                           ;	.line	524; /home/regis/Hobbies/Electronique/Projets/Pinguino/local/trunk/p8/include/pinguino/libraries/usb/picUSB.c	EP_OUT_BD(0).Stat.uc = BDS_UOWN | BDS_DTSEN;
005670   0e88     movlw	0x88               	MOVLW	0x88
                                           ; removed redundant BANKSEL
005672   6f00     movwf	0, 0x1             	MOVWF	_ep_bdt, B
                                           ; removed redundant BANKSEL
                                           ;	.line	525; /home/regis/Hobbies/Electronique/Projets/Pinguino/local/trunk/p8/include/pinguino/libraries/usb/picUSB.c	EP_IN_BD(0).Stat.uc = 0x00;           // Give control to CPU
005674   6b04     clrf	0x4, 0x1            	CLRF	(_ep_bdt + 4), B
005676   0012     return	0                 	RETURN	
                                           
                                           ; ; Starting pCode block
                                           S_main__SetupStage	code
                                           _SetupStage:
                                           ;	.line	450; /home/regis/Hobbies/Electronique/Projets/Pinguino/local/trunk/p8/include/pinguino/libraries/usb/picUSB.c	EP_IN_BD(0).Stat.uc &= ~BDS_UOWN;
003f2a   0e7f     movlw	0x7f               	MOVLW	0x7f
003f2c   0104     movlb	0x4                	BANKSEL	(_ep_bdt + 4)
003f2e   1504     andwf	0x4, 0, 0x1        	ANDWF	(_ep_bdt + 4), W, B
                                           ; #	MOVWF	r0x00
                                           ; #	MOVF	r0x00, W
003f30   6f04     movwf	0x4, 0x1           	MOVWF	(_ep_bdt + 4), B
                                           ;	.line	451; /home/regis/Hobbies/Electronique/Projets/Pinguino/local/trunk/p8/include/pinguino/libraries/usb/picUSB.c	EP_OUT_BD(0).Stat.uc &= ~BDS_UOWN;
003f32   0e7f     movlw	0x7f               	MOVLW	0x7f
                                           ; removed redundant BANKSEL
003f34   1500     andwf	0, 0, 0x1          	ANDWF	_ep_bdt, W, B
                                           ; #	MOVWF	r0x00
                                           ; #	MOVF	r0x00, W
003f36   6f00     movwf	0, 0x1             	MOVWF	_ep_bdt, B
003f38   0103     movlb	0x3                	BANKSEL	_ctrlTransferStage
                                           ;	.line	454; /home/regis/Hobbies/Electronique/Projets/Pinguino/local/trunk/p8/include/pinguino/libraries/usb/picUSB.c	ctrlTransferStage = SETUP_STAGE;
003f3a   6b3d     clrf	0x3d, 0x1           	CLRF	_ctrlTransferStage, B
003f3c   0103     movlb	0x3                	BANKSEL	_requestHandled
                                           ;	.line	455; /home/regis/Hobbies/Electronique/Projets/Pinguino/local/trunk/p8/include/pinguino/libraries/usb/picUSB.c	requestHandled = 0;                   // Default is that request hasn't been handled
003f3e   6b38     clrf	0x38, 0x1           	CLRF	_requestHandled, B
003f40   0103     movlb	0x3                	BANKSEL	_HIDPostProcess
                                           ;	.line	456; /home/regis/Hobbies/Electronique/Projets/Pinguino/local/trunk/p8/include/pinguino/libraries/usb/picUSB.c	HIDPostProcess = 0;                   // Assume standard request until know otherwise
003f42   6b34     clrf	0x34, 0x1           	CLRF	_HIDPostProcess, B
003f44   0103     movlb	0x3                	BANKSEL	_wCount
                                           ;	.line	457; /home/regis/Hobbies/Electronique/Projets/Pinguino/local/trunk/p8/include/pinguino/libraries/usb/picUSB.c	wCount = 0;                           // No bytes transferred
003f46   6b2f     clrf	0x2f, 0x1           	CLRF	_wCount, B
                                           ; removed redundant BANKSEL
003f48   6b30     clrf	0x30, 0x1           	CLRF	(_wCount + 1), B
                                           ;	.line	460; /home/regis/Hobbies/Electronique/Projets/Pinguino/local/trunk/p8/include/pinguino/libraries/usb/picUSB.c	ProcessStandardRequest();
003f4a   ecc8     call	0x4b90, 0           	CALL	_ProcessStandardRequest
003f4c   f025
                                           ;	.line	470; /home/regis/Hobbies/Electronique/Projets/Pinguino/local/trunk/p8/include/pinguino/libraries/usb/picUSB.c	if ((SetupPacket.bmRequestType & USB_RECIP_MASK) == USB_RECIP_INTERFACE)  
003f4e   0e1f     movlw	0x1f               	MOVLW	0x1f
003f50   0105     movlb	0x5                	BANKSEL	_SetupPacket
003f52   1500     andwf	0, 0, 0x1          	ANDWF	_SetupPacket, W, B
                                           ; #	MOVWF	r0x00
                                           ; #	MOVF	r0x00, W
003f54   0a01     xorlw	0x1                	XORLW	0x01
003f56   e102     bnz	0x3f5c               	BNZ	_00338_DS_
                                           ;	.line	471; /home/regis/Hobbies/Electronique/Projets/Pinguino/local/trunk/p8/include/pinguino/libraries/usb/picUSB.c	ProcessCDCRequest();
003f58   ec90     call	0x4f20, 0           	CALL	_ProcessCDCRequest
003f5a   f027
                                           _00338_DS_:
003f5c   0103     movlb	0x3                	BANKSEL	_requestHandled
                                           ;	.line	474; /home/regis/Hobbies/Electronique/Projets/Pinguino/local/trunk/p8/include/pinguino/libraries/usb/picUSB.c	if (!requestHandled) {
003f5e   5138     movf	0x38, 0, 0x1        	MOVF	_requestHandled, W, B
003f60   e10b     bnz	0x3f78               	BNZ	_00345_DS_
                                           ;	.line	476; /home/regis/Hobbies/Electronique/Projets/Pinguino/local/trunk/p8/include/pinguino/libraries/usb/picUSB.c	EP_OUT_BD(0).Cnt = EP0_BUFFER_SIZE;
003f62   0e40     movlw	0x40               	MOVLW	0x40
003f64   0104     movlb	0x4                	BANKSEL	(_ep_bdt + 1)
003f66   6f01     movwf	0x1, 0x1           	MOVWF	(_ep_bdt + 1), B
                                           ;	.line	477; /home/regis/Hobbies/Electronique/Projets/Pinguino/local/trunk/p8/include/pinguino/libraries/usb/picUSB.c	EP_OUT_BD(0).ADDR = PTR16(&SetupPacket);
003f68   0e00     movlw	0                  	MOVLW	LOW(_SetupPacket)
                                           ; removed redundant BANKSEL
003f6a   6f02     movwf	0x2, 0x1           	MOVWF	(_ep_bdt + 2), B
003f6c   0e05     movlw	0x5                	MOVLW	HIGH(_SetupPacket)
                                           ; removed redundant BANKSEL
003f6e   6f03     movwf	0x3, 0x1           	MOVWF	(_ep_bdt + 3), B
                                           ; #	MOVLW	0x84
                                           ; #	MOVWF	_ep_bdt, B
                                           ; #	MOVLW	0x84
                                           ;	.line	478; /home/regis/Hobbies/Electronique/Projets/Pinguino/local/trunk/p8/include/pinguino/libraries/usb/picUSB.c	EP_OUT_BD(0).Stat.uc = BDS_UOWN | BDS_BSTALL;
003f70   0e84     movlw	0x84               	MOVLW	0x84
                                           ; removed redundant BANKSEL
                                           ;	.line	479; /home/regis/Hobbies/Electronique/Projets/Pinguino/local/trunk/p8/include/pinguino/libraries/usb/picUSB.c	EP_IN_BD(0).Stat.uc = BDS_UOWN | BDS_BSTALL;
003f72   6f00     movwf	0, 0x1             	MOVWF	_ep_bdt, B
                                           ; removed redundant BANKSEL
003f74   6f04     movwf	0x4, 0x1           	MOVWF	(_ep_bdt + 4), B
003f76   d038     bra	0x3fe8               	BRA	_00346_DS_
                                           _00345_DS_:
003f78   0105     movlb	0x5                	BANKSEL	_SetupPacket
                                           ;	.line	481; /home/regis/Hobbies/Electronique/Projets/Pinguino/local/trunk/p8/include/pinguino/libraries/usb/picUSB.c	else if (SetupPacket.bmRequestType & 0x80) {
003f7a   af00     btfss	0, 0x7, 0x1        	BTFSS	_SetupPacket, 7, B
003f7c   d026     bra	0x3fca               	BRA	_00342_DS_
003f7e   0103     movlb	0x3                	BANKSEL	(_wCount + 1)
                                           ;	.line	483; /home/regis/Hobbies/Electronique/Projets/Pinguino/local/trunk/p8/include/pinguino/libraries/usb/picUSB.c	if(SetupPacket.wLength < wCount)
003f80   5130     movf	0x30, 0, 0x1        	MOVF	(_wCount + 1), W, B
003f82   0105     movlb	0x5                	BANKSEL	(_SetupPacket + 7)
003f84   5d07     subwf	0x7, 0, 0x1        	SUBWF	(_SetupPacket + 7), W, B
003f86   e104     bnz	0x3f90               	BNZ	_00360_DS_
003f88   0103     movlb	0x3                	BANKSEL	_wCount
003f8a   512f     movf	0x2f, 0, 0x1        	MOVF	_wCount, W, B
003f8c   0105     movlb	0x5                	BANKSEL	(_SetupPacket + 6)
003f8e   5d06     subwf	0x6, 0, 0x1        	SUBWF	(_SetupPacket + 6), W, B
                                           _00360_DS_:
003f90   e204     bc	0x3f9a                	BC	_00340_DS_
                                           ;	.line	484; /home/regis/Hobbies/Electronique/Projets/Pinguino/local/trunk/p8/include/pinguino/libraries/usb/picUSB.c	wCount = SetupPacket.wLength;
003f92   c506     movff	0x506, 0x32f       	MOVFF	(_SetupPacket + 6), _wCount
003f94   f32f
003f96   c507     movff	0x507, 0x330       	MOVFF	(_SetupPacket + 7), (_wCount + 1)
003f98   f330
                                           _00340_DS_:
                                           ;	.line	485; /home/regis/Hobbies/Electronique/Projets/Pinguino/local/trunk/p8/include/pinguino/libraries/usb/picUSB.c	InDataStage(0);
003f9a   0e00     movlw	0                  	MOVLW	0x00
003f9c   6ae5     clrf	0xe5, 0             	CLRF	POSTDEC1
003f9e   ec25     call	0x404a, 0           	CALL	_InDataStage
003fa0   f020
003fa2   2ae1     incf	0xe1, 0x1, 0        	INCF	FSR1L, F
                                           ;	.line	486; /home/regis/Hobbies/Electronique/Projets/Pinguino/local/trunk/p8/include/pinguino/libraries/usb/picUSB.c	ctrlTransferStage = DATA_IN_STAGE;
003fa4   0e02     movlw	0x2                	MOVLW	0x02
003fa6   0103     movlb	0x3                	BANKSEL	_ctrlTransferStage
003fa8   6f3d     movwf	0x3d, 0x1          	MOVWF	_ctrlTransferStage, B
                                           ;	.line	488; /home/regis/Hobbies/Electronique/Projets/Pinguino/local/trunk/p8/include/pinguino/libraries/usb/picUSB.c	EP_OUT_BD(0).Cnt = EP0_BUFFER_SIZE;
003faa   0e40     movlw	0x40               	MOVLW	0x40
003fac   0104     movlb	0x4                	BANKSEL	(_ep_bdt + 1)
003fae   6f01     movwf	0x1, 0x1           	MOVWF	(_ep_bdt + 1), B
                                           ;	.line	489; /home/regis/Hobbies/Electronique/Projets/Pinguino/local/trunk/p8/include/pinguino/libraries/usb/picUSB.c	EP_OUT_BD(0).ADDR = PTR16(&SetupPacket);
003fb0   0e00     movlw	0                  	MOVLW	LOW(_SetupPacket)
                                           ; removed redundant BANKSEL
003fb2   6f02     movwf	0x2, 0x1           	MOVWF	(_ep_bdt + 2), B
003fb4   0e05     movlw	0x5                	MOVLW	HIGH(_SetupPacket)
                                           ; removed redundant BANKSEL
003fb6   6f03     movwf	0x3, 0x1           	MOVWF	(_ep_bdt + 3), B
                                           ;	.line	490; /home/regis/Hobbies/Electronique/Projets/Pinguino/local/trunk/p8/include/pinguino/libraries/usb/picUSB.c	EP_OUT_BD(0).Stat.uc = BDS_UOWN;
003fb8   0e80     movlw	0x80               	MOVLW	0x80
                                           ; removed redundant BANKSEL
003fba   6f00     movwf	0, 0x1             	MOVWF	_ep_bdt, B
                                           ;	.line	493; /home/regis/Hobbies/Electronique/Projets/Pinguino/local/trunk/p8/include/pinguino/libraries/usb/picUSB.c	EP_IN_BD(0).ADDR = PTR16(&controlTransferBuffer);
003fbc   0e40     movlw	0x40               	MOVLW	LOW(_controlTransferBuffer)
                                           ; removed redundant BANKSEL
003fbe   6f06     movwf	0x6, 0x1           	MOVWF	(_ep_bdt + 6), B
003fc0   0e05     movlw	0x5                	MOVLW	HIGH(_controlTransferBuffer)
                                           ; removed redundant BANKSEL
003fc2   6f07     movwf	0x7, 0x1           	MOVWF	(_ep_bdt + 7), B
                                           ;	.line	495; /home/regis/Hobbies/Electronique/Projets/Pinguino/local/trunk/p8/include/pinguino/libraries/usb/picUSB.c	EP_IN_BD(0).Stat.uc = BDS_UOWN | BDS_DTS | BDS_DTSEN;
003fc4   0ec8     movlw	0xc8               	MOVLW	0xc8
                                           ; removed redundant BANKSEL
003fc6   6f04     movwf	0x4, 0x1           	MOVWF	(_ep_bdt + 4), B
003fc8   d00f     bra	0x3fe8               	BRA	_00346_DS_
                                           _00342_DS_:
                                           ;	.line	499; /home/regis/Hobbies/Electronique/Projets/Pinguino/local/trunk/p8/include/pinguino/libraries/usb/picUSB.c	ctrlTransferStage = DATA_OUT_STAGE;
003fca   0e01     movlw	0x1                	MOVLW	0x01
003fcc   0103     movlb	0x3                	BANKSEL	_ctrlTransferStage
003fce   6f3d     movwf	0x3d, 0x1          	MOVWF	_ctrlTransferStage, B
003fd0   0104     movlb	0x4                	BANKSEL	(_ep_bdt + 5)
                                           ;	.line	502; /home/regis/Hobbies/Electronique/Projets/Pinguino/local/trunk/p8/include/pinguino/libraries/usb/picUSB.c	EP_IN_BD(0).Cnt = 0;
003fd2   6b05     clrf	0x5, 0x1            	CLRF	(_ep_bdt + 5), B
                                           ;	.line	503; /home/regis/Hobbies/Electronique/Projets/Pinguino/local/trunk/p8/include/pinguino/libraries/usb/picUSB.c	EP_IN_BD(0).Stat.uc = BDS_UOWN | BDS_DTS | BDS_DTSEN;
003fd4   0ec8     movlw	0xc8               	MOVLW	0xc8
                                           ; removed redundant BANKSEL
003fd6   6f04     movwf	0x4, 0x1           	MOVWF	(_ep_bdt + 4), B
                                           ;	.line	506; /home/regis/Hobbies/Electronique/Projets/Pinguino/local/trunk/p8/include/pinguino/libraries/usb/picUSB.c	EP_OUT_BD(0).Cnt = EP0_BUFFER_SIZE;
003fd8   0e40     movlw	0x40               	MOVLW	0x40
                                           ; removed redundant BANKSEL
003fda   6f01     movwf	0x1, 0x1           	MOVWF	(_ep_bdt + 1), B
                                           ;	.line	507; /home/regis/Hobbies/Electronique/Projets/Pinguino/local/trunk/p8/include/pinguino/libraries/usb/picUSB.c	EP_OUT_BD(0).ADDR = PTR16(&controlTransferBuffer);
003fdc   0e40     movlw	0x40               	MOVLW	LOW(_controlTransferBuffer)
                                           ; removed redundant BANKSEL
003fde   6f02     movwf	0x2, 0x1           	MOVWF	(_ep_bdt + 2), B
003fe0   0e05     movlw	0x5                	MOVLW	HIGH(_controlTransferBuffer)
                                           ; removed redundant BANKSEL
003fe2   6f03     movwf	0x3, 0x1           	MOVWF	(_ep_bdt + 3), B
                                           ;	.line	509; /home/regis/Hobbies/Electronique/Projets/Pinguino/local/trunk/p8/include/pinguino/libraries/usb/picUSB.c	EP_OUT_BD(0).Stat.uc = BDS_UOWN | BDS_DTS | BDS_DTSEN;
003fe4   0ec8     movlw	0xc8               	MOVLW	0xc8
                                           ; removed redundant BANKSEL
003fe6   6f00     movwf	0, 0x1             	MOVWF	_ep_bdt, B
                                           _00346_DS_:
                                           ;	.line	513; /home/regis/Hobbies/Electronique/Projets/Pinguino/local/trunk/p8/include/pinguino/libraries/usb/picUSB.c	UCONbits.PKTDIS = 0;
003fe8   986d     bcf	0x6d, 0x4, 0         	BCF	_UCONbits, 4
003fea   0012     return	0                 	RETURN	
                                           
                                           ; ; Starting pCode block
                                           S_main__OutDataStage	code
                                           _OutDataStage:
                                           ;	.line	411; /home/regis/Hobbies/Electronique/Projets/Pinguino/local/trunk/p8/include/pinguino/libraries/usb/picUSB.c	void OutDataStage(unsigned char ep) {
00420e   cfd9     movff	0xfd9, 0xfe5       	MOVFF	FSR2L, POSTDEC1
004210   ffe5
004212   cfe1     movff	0xfe1, 0xfd9       	MOVFF	FSR1L, FSR2L
004214   ffd9
004216   c000     movff	0, 0xfe5           	MOVFF	r0x00, POSTDEC1
004218   ffe5
00421a   c001     movff	0x1, 0xfe5         	MOVFF	r0x01, POSTDEC1
00421c   ffe5
00421e   c002     movff	0x2, 0xfe5         	MOVFF	r0x02, POSTDEC1
004220   ffe5
004222   c003     movff	0x3, 0xfe5         	MOVFF	r0x03, POSTDEC1
004224   ffe5
004226   c004     movff	0x4, 0xfe5         	MOVFF	r0x04, POSTDEC1
004228   ffe5
00422a   c005     movff	0x5, 0xfe5         	MOVFF	r0x05, POSTDEC1
00422c   ffe5
00422e   c006     movff	0x6, 0xfe5         	MOVFF	r0x06, POSTDEC1
004230   ffe5
004232   c007     movff	0x7, 0xfe5         	MOVFF	r0x07, POSTDEC1
004234   ffe5
004236   c008     movff	0x8, 0xfe5         	MOVFF	r0x08, POSTDEC1
004238   ffe5
00423a   c009     movff	0x9, 0xfe5         	MOVFF	r0x09, POSTDEC1
00423c   ffe5
00423e   0e02     movlw	0x2                	MOVLW	0x02
004240   cfdb     movff	0xfdb, 0           	MOVFF	PLUSW2, r0x00
004242   f000
                                           ;	.line	414; /home/regis/Hobbies/Electronique/Projets/Pinguino/local/trunk/p8/include/pinguino/libraries/usb/picUSB.c	bufferSize = ((0x03 & EP_OUT_BD(ep).Stat.uc) << 8) | EP_OUT_BD(ep).Cnt;
004244   4400     rlncf	0, 0, 0            	RLNCF	r0x00, W
004246   0bfe     andlw	0xfe               	ANDLW	0xfe
                                           ; #	MOVWF	r0x01
                                           ; #;;multiply lit val:0x04 by variable r0x01 and store in r0x00
                                           ; #;;Unrolled 8 X 8 multiplication
                                           ; #;;FIXME: the function does not support result==WREG
                                           ; #	MOVF	r0x01, W
004248   0d04     mullw	0x4                	MULLW	0x04
00424a   cff3     movff	0xff3, 0           	MOVFF	PRODL, r0x00
00424c   f000
00424e   0e00     movlw	0                  	MOVLW	LOW(_ep_bdt)
004250   2400     addwf	0, 0, 0            	ADDWF	r0x00, W
004252   6e01     movwf	0x1, 0             	MOVWF	r0x01
004254   6a02     clrf	0x2, 0              	CLRF	r0x02
004256   0e04     movlw	0x4                	MOVLW	HIGH(_ep_bdt)
004258   2202     addwfc	0x2, 0x1, 0       	ADDWFC	r0x02, F
00425a   c001     movff	0x1, 0xfe9         	MOVFF	r0x01, FSR0L
00425c   ffe9
00425e   c002     movff	0x2, 0xfea         	MOVFF	r0x02, FSR0H
004260   ffea
004262   cfef     movff	0xfef, 0x1         	MOVFF	INDF0, r0x01
004264   f001
004266   0e03     movlw	0x3                	MOVLW	0x03
004268   1601     andwf	0x1, 0x1, 0        	ANDWF	r0x01, F
00426a   5001     movf	0x1, 0, 0           	MOVF	r0x01, W
00426c   6e04     movwf	0x4, 0             	MOVWF	r0x04
00426e   6a03     clrf	0x3, 0              	CLRF	r0x03
004270   6a01     clrf	0x1, 0              	CLRF	r0x01
004272   0e00     movlw	0                  	MOVLW	LOW(_ep_bdt)
004274   2600     addwf	0, 0x1, 0          	ADDWF	r0x00, F
004276   0e04     movlw	0x4                	MOVLW	HIGH(_ep_bdt)
004278   2201     addwfc	0x1, 0x1, 0       	ADDWFC	r0x01, F
00427a   2a00     incf	0, 0x1, 0           	INCF	r0x00, F
00427c   b0d8     btfsc	0xd8, 0, 0         	BTFSC	STATUS, 0
00427e   2a01     incf	0x1, 0x1, 0         	INCF	r0x01, F
004280   c000     movff	0, 0xfe9           	MOVFF	r0x00, FSR0L
004282   ffe9
004284   c001     movff	0x1, 0xfea         	MOVFF	r0x01, FSR0H
004286   ffea
004288   cfef     movff	0xfef, 0           	MOVFF	INDF0, r0x00
00428a   f000
00428c   6a01     clrf	0x1, 0              	CLRF	r0x01
00428e   5003     movf	0x3, 0, 0           	MOVF	r0x03, W
004290   1200     iorwf	0, 0x1, 0          	IORWF	r0x00, F
004292   5004     movf	0x4, 0, 0           	MOVF	r0x04, W
004294   1201     iorwf	0x1, 0x1, 0        	IORWF	r0x01, F
                                           ;	.line	421; /home/regis/Hobbies/Electronique/Projets/Pinguino/local/trunk/p8/include/pinguino/libraries/usb/picUSB.c	wCount = wCount + bufferSize;
004296   5000     movf	0, 0, 0             	MOVF	r0x00, W
004298   0103     movlb	0x3                	BANKSEL	_wCount
00429a   272f     addwf	0x2f, 0x1, 0x1     	ADDWF	_wCount, F, B
00429c   5001     movf	0x1, 0, 0           	MOVF	r0x01, W
                                           ; removed redundant BANKSEL
00429e   2330     addwfc	0x30, 0x1, 0x1    	ADDWFC	(_wCount + 1), F, B
                                           ;	.line	423; /home/regis/Hobbies/Electronique/Projets/Pinguino/local/trunk/p8/include/pinguino/libraries/usb/picUSB.c	outPtr = (byte*)&controlTransferBuffer;
0042a0   0e05     movlw	0x5                	MOVLW	HIGH(_controlTransferBuffer)
0042a2   0103     movlb	0x3                	BANKSEL	(_outPtr + 1)
0042a4   6f27     movwf	0x27, 0x1          	MOVWF	(_outPtr + 1), B
0042a6   0e40     movlw	0x40               	MOVLW	LOW(_controlTransferBuffer)
                                           ; removed redundant BANKSEL
0042a8   6f26     movwf	0x26, 0x1          	MOVWF	_outPtr, B
0042aa   0e80     movlw	0x80               	MOVLW	0x80
                                           ; removed redundant BANKSEL
0042ac   6f28     movwf	0x28, 0x1          	MOVWF	(_outPtr + 2), B
                                           ;	.line	427; /home/regis/Hobbies/Electronique/Projets/Pinguino/local/trunk/p8/include/pinguino/libraries/usb/picUSB.c	for (i=0;i<bufferSize;i++) {
0042ae   6a02     clrf	0x2, 0              	CLRF	r0x02
0042b0   6a03     clrf	0x3, 0              	CLRF	r0x03
                                           _00321_DS_:
0042b2   5001     movf	0x1, 0, 0           	MOVF	r0x01, W
0042b4   5c03     subwf	0x3, 0, 0          	SUBWF	r0x03, W
0042b6   e102     bnz	0x42bc               	BNZ	_00332_DS_
0042b8   5000     movf	0, 0, 0             	MOVF	r0x00, W
0042ba   5c02     subwf	0x2, 0, 0          	SUBWF	r0x02, W
                                           _00332_DS_:
0042bc   e22f     bc	0x431c                	BC	_00325_DS_
                                           ;	.line	431; /home/regis/Hobbies/Electronique/Projets/Pinguino/local/trunk/p8/include/pinguino/libraries/usb/picUSB.c	*inPtr++ = *outPtr++;
0042be   c329     movff	0x329, 0x4         	MOVFF	_inPtr, r0x04
0042c0   f004
0042c2   c32a     movff	0x32a, 0x5         	MOVFF	(_inPtr + 1), r0x05
0042c4   f005
0042c6   c32b     movff	0x32b, 0x6         	MOVFF	(_inPtr + 2), r0x06
0042c8   f006
0042ca   c326     movff	0x326, 0x7         	MOVFF	_outPtr, r0x07
0042cc   f007
0042ce   c327     movff	0x327, 0x8         	MOVFF	(_outPtr + 1), r0x08
0042d0   f008
0042d2   c328     movff	0x328, 0x9         	MOVFF	(_outPtr + 2), r0x09
0042d4   f009
0042d6   c007     movff	0x7, 0xfe9         	MOVFF	r0x07, FSR0L
0042d8   ffe9
0042da   c008     movff	0x8, 0xff3         	MOVFF	r0x08, PRODL
0042dc   fff3
0042de   5009     movf	0x9, 0, 0           	MOVF	r0x09, W
0042e0   ec29     call	0x52, 0             	CALL	__gptrget1
0042e2   f000
0042e4   6e07     movwf	0x7, 0             	MOVWF	r0x07
0042e6   0103     movlb	0x3                	BANKSEL	_outPtr
0042e8   2b26     incf	0x26, 0x1, 0x1      	INCF	_outPtr, F, B
0042ea   e301     bnc	0x42ee               	BNC	_41098_DS_
                                           ; removed redundant BANKSEL
0042ec   2b27     incf	0x27, 0x1, 0x1      	INCF	(_outPtr + 1), F, B
                                           _41098_DS_:
0042ee   e302     bnc	0x42f4               	BNC	_51099_DS_
0042f0   0103     movlb	0x3                	BANKSEL	(_outPtr + 2)
0042f2   2b28     incf	0x28, 0x1, 0x1      	INCF	(_outPtr + 2), F, B
                                           _51099_DS_:
0042f4   c007     movff	0x7, 0xfe5         	MOVFF	r0x07, POSTDEC1
0042f6   ffe5
0042f8   c004     movff	0x4, 0xfe9         	MOVFF	r0x04, FSR0L
0042fa   ffe9
0042fc   c005     movff	0x5, 0xff3         	MOVFF	r0x05, PRODL
0042fe   fff3
004300   5006     movf	0x6, 0, 0           	MOVF	r0x06, W
004302   ec31     call	0x62, 0             	CALL	__gptrput1
004304   f000
004306   0103     movlb	0x3                	BANKSEL	_inPtr
004308   2b29     incf	0x29, 0x1, 0x1      	INCF	_inPtr, F, B
00430a   e301     bnc	0x430e               	BNC	_61100_DS_
                                           ; removed redundant BANKSEL
00430c   2b2a     incf	0x2a, 0x1, 0x1      	INCF	(_inPtr + 1), F, B
                                           _61100_DS_:
00430e   e302     bnc	0x4314               	BNC	_71101_DS_
004310   0103     movlb	0x3                	BANKSEL	(_inPtr + 2)
004312   2b2b     incf	0x2b, 0x1, 0x1      	INCF	(_inPtr + 2), F, B
                                           _71101_DS_:
                                           ;	.line	427; /home/regis/Hobbies/Electronique/Projets/Pinguino/local/trunk/p8/include/pinguino/libraries/usb/picUSB.c	for (i=0;i<bufferSize;i++) {
004314   2a02     incf	0x2, 0x1, 0         	INCF	r0x02, F
004316   b0d8     btfsc	0xd8, 0, 0         	BTFSC	STATUS, 0
004318   2a03     incf	0x3, 0x1, 0         	INCF	r0x03, F
00431a   d7cb     bra	0x42b2               	BRA	_00321_DS_
                                           _00325_DS_:
00431c   cfe4     movff	0xfe4, 0x9         	MOVFF	PREINC1, r0x09
00431e   f009
004320   cfe4     movff	0xfe4, 0x8         	MOVFF	PREINC1, r0x08
004322   f008
004324   cfe4     movff	0xfe4, 0x7         	MOVFF	PREINC1, r0x07
004326   f007
004328   cfe4     movff	0xfe4, 0x6         	MOVFF	PREINC1, r0x06
00432a   f006
00432c   cfe4     movff	0xfe4, 0x5         	MOVFF	PREINC1, r0x05
00432e   f005
004330   cfe4     movff	0xfe4, 0x4         	MOVFF	PREINC1, r0x04
004332   f004
004334   cfe4     movff	0xfe4, 0x3         	MOVFF	PREINC1, r0x03
004336   f003
004338   cfe4     movff	0xfe4, 0x2         	MOVFF	PREINC1, r0x02
00433a   f002
00433c   cfe4     movff	0xfe4, 0x1         	MOVFF	PREINC1, r0x01
00433e   f001
004340   cfe4     movff	0xfe4, 0           	MOVFF	PREINC1, r0x00
004342   f000
004344   cfe4     movff	0xfe4, 0xfd9       	MOVFF	PREINC1, FSR2L
004346   ffd9
004348   0012     return	0                 	RETURN	
                                           
                                           ; ; Starting pCode block
                                           S_main__InDataStage	code
                                           _InDataStage:
                                           ;	.line	364; /home/regis/Hobbies/Electronique/Projets/Pinguino/local/trunk/p8/include/pinguino/libraries/usb/picUSB.c	void InDataStage(unsigned char ep) {
00404a   cfd9     movff	0xfd9, 0xfe5       	MOVFF	FSR2L, POSTDEC1
00404c   ffe5
00404e   cfe1     movff	0xfe1, 0xfd9       	MOVFF	FSR1L, FSR2L
004050   ffd9
004052   c000     movff	0, 0xfe5           	MOVFF	r0x00, POSTDEC1
004054   ffe5
004056   c001     movff	0x1, 0xfe5         	MOVFF	r0x01, POSTDEC1
004058   ffe5
00405a   c002     movff	0x2, 0xfe5         	MOVFF	r0x02, POSTDEC1
00405c   ffe5
00405e   c003     movff	0x3, 0xfe5         	MOVFF	r0x03, POSTDEC1
004060   ffe5
004062   c004     movff	0x4, 0xfe5         	MOVFF	r0x04, POSTDEC1
004064   ffe5
004066   c005     movff	0x5, 0xfe5         	MOVFF	r0x05, POSTDEC1
004068   ffe5
00406a   c006     movff	0x6, 0xfe5         	MOVFF	r0x06, POSTDEC1
00406c   ffe5
00406e   c007     movff	0x7, 0xfe5         	MOVFF	r0x07, POSTDEC1
004070   ffe5
004072   c008     movff	0x8, 0xfe5         	MOVFF	r0x08, POSTDEC1
004074   ffe5
004076   0e02     movlw	0x2                	MOVLW	0x02
004078   cfdb     movff	0xfdb, 0           	MOVFF	PLUSW2, r0x00
00407a   f000
                                           ;	.line	371; /home/regis/Hobbies/Electronique/Projets/Pinguino/local/trunk/p8/include/pinguino/libraries/usb/picUSB.c	if(wCount < EP0_BUFFER_SIZE)
00407c   0e00     movlw	0                  	MOVLW	0x00
00407e   0103     movlb	0x3                	BANKSEL	(_wCount + 1)
004080   5d30     subwf	0x30, 0, 0x1       	SUBWF	(_wCount + 1), W, B
004082   e102     bnz	0x4088               	BNZ	_00310_DS_
004084   0e40     movlw	0x40               	MOVLW	0x40
                                           ; removed redundant BANKSEL
004086   5d2f     subwf	0x2f, 0, 0x1       	SUBWF	_wCount, W, B
                                           _00310_DS_:
004088   e205     bc	0x4094                	BC	_00298_DS_
                                           ;	.line	372; /home/regis/Hobbies/Electronique/Projets/Pinguino/local/trunk/p8/include/pinguino/libraries/usb/picUSB.c	bufferSize = wCount;
00408a   c32f     movff	0x32f, 0x1         	MOVFF	_wCount, r0x01
00408c   f001
00408e   c330     movff	0x330, 0x2         	MOVFF	(_wCount + 1), r0x02
004090   f002
004092   d003     bra	0x409a               	BRA	_00299_DS_
                                           _00298_DS_:
                                           ;	.line	374; /home/regis/Hobbies/Electronique/Projets/Pinguino/local/trunk/p8/include/pinguino/libraries/usb/picUSB.c	bufferSize = EP0_BUFFER_SIZE;
004094   0e40     movlw	0x40               	MOVLW	0x40
004096   6e01     movwf	0x1, 0             	MOVWF	r0x01
004098   6a02     clrf	0x2, 0              	CLRF	r0x02
                                           _00299_DS_:
                                           ;	.line	382; /home/regis/Hobbies/Electronique/Projets/Pinguino/local/trunk/p8/include/pinguino/libraries/usb/picUSB.c	EP_IN_BD(ep).Stat.uc &= ~(BDS_BC8 | BDS_BC9);
00409a   4400     rlncf	0, 0, 0            	RLNCF	r0x00, W
00409c   0bfe     andlw	0xfe               	ANDLW	0xfe
00409e   6e03     movwf	0x3, 0             	MOVWF	r0x03
0040a0   2803     incf	0x3, 0, 0           	INCF	r0x03, W
                                           ; #	MOVWF	r0x00
                                           ; #;;multiply lit val:0x04 by variable r0x00 and store in r0x00
                                           ; #;;Unrolled 8 X 8 multiplication
                                           ; #;;FIXME: the function does not support result==WREG
                                           ; #	MOVF	r0x00, W
0040a2   0d04     mullw	0x4                	MULLW	0x04
0040a4   cff3     movff	0xff3, 0           	MOVFF	PRODL, r0x00
0040a6   f000
0040a8   0e00     movlw	0                  	MOVLW	LOW(_ep_bdt)
0040aa   2400     addwf	0, 0, 0            	ADDWF	r0x00, W
0040ac   6e03     movwf	0x3, 0             	MOVWF	r0x03
0040ae   6a04     clrf	0x4, 0              	CLRF	r0x04
0040b0   0e04     movlw	0x4                	MOVLW	HIGH(_ep_bdt)
0040b2   2204     addwfc	0x4, 0x1, 0       	ADDWFC	r0x04, F
0040b4   0e00     movlw	0                  	MOVLW	LOW(_ep_bdt)
0040b6   2400     addwf	0, 0, 0            	ADDWF	r0x00, W
0040b8   6e05     movwf	0x5, 0             	MOVWF	r0x05
0040ba   6a06     clrf	0x6, 0              	CLRF	r0x06
0040bc   0e04     movlw	0x4                	MOVLW	HIGH(_ep_bdt)
0040be   2206     addwfc	0x6, 0x1, 0       	ADDWFC	r0x06, F
0040c0   c005     movff	0x5, 0xfe9         	MOVFF	r0x05, FSR0L
0040c2   ffe9
0040c4   c006     movff	0x6, 0xfea         	MOVFF	r0x06, FSR0H
0040c6   ffea
0040c8   cfef     movff	0xfef, 0x5         	MOVFF	INDF0, r0x05
0040ca   f005
0040cc   0efc     movlw	0xfc               	MOVLW	0xfc
0040ce   1605     andwf	0x5, 0x1, 0        	ANDWF	r0x05, F
0040d0   c003     movff	0x3, 0xfe9         	MOVFF	r0x03, FSR0L
0040d2   ffe9
0040d4   c004     movff	0x4, 0xfea         	MOVFF	r0x04, FSR0H
0040d6   ffea
0040d8   c005     movff	0x5, 0xfef         	MOVFF	r0x05, INDF0
0040da   ffef
                                           ;	.line	383; /home/regis/Hobbies/Electronique/Projets/Pinguino/local/trunk/p8/include/pinguino/libraries/usb/picUSB.c	EP_IN_BD(ep).Stat.uc |= (byte)((bufferSize & 0x0300) >> 8);
0040dc   0e00     movlw	0                  	MOVLW	LOW(_ep_bdt)
0040de   2400     addwf	0, 0, 0            	ADDWF	r0x00, W
0040e0   6e03     movwf	0x3, 0             	MOVWF	r0x03
0040e2   6a04     clrf	0x4, 0              	CLRF	r0x04
0040e4   0e04     movlw	0x4                	MOVLW	HIGH(_ep_bdt)
0040e6   2204     addwfc	0x4, 0x1, 0       	ADDWFC	r0x04, F
0040e8   0e00     movlw	0                  	MOVLW	LOW(_ep_bdt)
0040ea   2400     addwf	0, 0, 0            	ADDWF	r0x00, W
0040ec   6e05     movwf	0x5, 0             	MOVWF	r0x05
0040ee   6a06     clrf	0x6, 0              	CLRF	r0x06
0040f0   0e04     movlw	0x4                	MOVLW	HIGH(_ep_bdt)
0040f2   2206     addwfc	0x6, 0x1, 0       	ADDWFC	r0x06, F
0040f4   c005     movff	0x5, 0xfe9         	MOVFF	r0x05, FSR0L
0040f6   ffe9
0040f8   c006     movff	0x6, 0xfea         	MOVFF	r0x06, FSR0H
0040fa   ffea
0040fc   cfef     movff	0xfef, 0x5         	MOVFF	INDF0, r0x05
0040fe   f005
004100   0e03     movlw	0x3                	MOVLW	0x03
004102   1402     andwf	0x2, 0, 0          	ANDWF	r0x02, W
                                           ; #	MOVWF	r0x07
                                           ; #	MOVF	r0x07, W
004104   1205     iorwf	0x5, 0x1, 0        	IORWF	r0x05, F
004106   c003     movff	0x3, 0xfe9         	MOVFF	r0x03, FSR0L
004108   ffe9
00410a   c004     movff	0x4, 0xfea         	MOVFF	r0x04, FSR0H
00410c   ffea
00410e   c005     movff	0x5, 0xfef         	MOVFF	r0x05, INDF0
004110   ffef
                                           ;	.line	384; /home/regis/Hobbies/Electronique/Projets/Pinguino/local/trunk/p8/include/pinguino/libraries/usb/picUSB.c	EP_IN_BD(ep).Cnt = (byte)(bufferSize & 0xFF);
004112   0e00     movlw	0                  	MOVLW	LOW(_ep_bdt)
004114   2400     addwf	0, 0, 0            	ADDWF	r0x00, W
004116   6e03     movwf	0x3, 0             	MOVWF	r0x03
004118   6a04     clrf	0x4, 0              	CLRF	r0x04
00411a   0e04     movlw	0x4                	MOVLW	HIGH(_ep_bdt)
00411c   2204     addwfc	0x4, 0x1, 0       	ADDWFC	r0x04, F
00411e   2a03     incf	0x3, 0x1, 0         	INCF	r0x03, F
004120   b0d8     btfsc	0xd8, 0, 0         	BTFSC	STATUS, 0
004122   2a04     incf	0x4, 0x1, 0         	INCF	r0x04, F
004124   5001     movf	0x1, 0, 0           	MOVF	r0x01, W
004126   6e05     movwf	0x5, 0             	MOVWF	r0x05
004128   c003     movff	0x3, 0xfe9         	MOVFF	r0x03, FSR0L
00412a   ffe9
00412c   c004     movff	0x4, 0xfea         	MOVFF	r0x04, FSR0H
00412e   ffea
004130   c005     movff	0x5, 0xfef         	MOVFF	r0x05, INDF0
004132   ffef
                                           ;	.line	385; /home/regis/Hobbies/Electronique/Projets/Pinguino/local/trunk/p8/include/pinguino/libraries/usb/picUSB.c	EP_IN_BD(ep).ADDR = PTR16(&controlTransferBuffer);
004134   6a03     clrf	0x3, 0              	CLRF	r0x03
004136   0e00     movlw	0                  	MOVLW	LOW(_ep_bdt)
004138   2600     addwf	0, 0x1, 0          	ADDWF	r0x00, F
00413a   0e04     movlw	0x4                	MOVLW	HIGH(_ep_bdt)
00413c   2203     addwfc	0x3, 0x1, 0       	ADDWFC	r0x03, F
00413e   0e02     movlw	0x2                	MOVLW	0x02
004140   2600     addwf	0, 0x1, 0          	ADDWF	r0x00, F
004142   b0d8     btfsc	0xd8, 0, 0         	BTFSC	STATUS, 0
004144   2a03     incf	0x3, 0x1, 0         	INCF	r0x03, F
004146   0e40     movlw	0x40               	MOVLW	LOW(_controlTransferBuffer)
004148   6e04     movwf	0x4, 0             	MOVWF	r0x04
00414a   0e05     movlw	0x5                	MOVLW	HIGH(_controlTransferBuffer)
00414c   6e05     movwf	0x5, 0             	MOVWF	r0x05
00414e   c000     movff	0, 0xfe9           	MOVFF	r0x00, FSR0L
004150   ffe9
004152   c003     movff	0x3, 0xfea         	MOVFF	r0x03, FSR0H
004154   ffea
004156   c004     movff	0x4, 0xfee         	MOVFF	r0x04, POSTINC0
004158   ffee
00415a   c005     movff	0x5, 0xfef         	MOVFF	r0x05, INDF0
00415c   ffef
                                           ;	.line	390; /home/regis/Hobbies/Electronique/Projets/Pinguino/local/trunk/p8/include/pinguino/libraries/usb/picUSB.c	wCount = wCount - bufferSize;
00415e   5001     movf	0x1, 0, 0           	MOVF	r0x01, W
004160   0103     movlb	0x3                	BANKSEL	_wCount
004162   5f2f     subwf	0x2f, 0x1, 0x1     	SUBWF	_wCount, F, B
004164   5002     movf	0x2, 0, 0           	MOVF	r0x02, W
                                           ; removed redundant BANKSEL
004166   5b30     subwfb	0x30, 0x1, 0x1    	SUBWFB	(_wCount + 1), F, B
                                           ;	.line	393; /home/regis/Hobbies/Electronique/Projets/Pinguino/local/trunk/p8/include/pinguino/libraries/usb/picUSB.c	inPtr = (byte *)&controlTransferBuffer;
004168   0e05     movlw	0x5                	MOVLW	HIGH(_controlTransferBuffer)
00416a   0103     movlb	0x3                	BANKSEL	(_inPtr + 1)
00416c   6f2a     movwf	0x2a, 0x1          	MOVWF	(_inPtr + 1), B
00416e   0e40     movlw	0x40               	MOVLW	LOW(_controlTransferBuffer)
                                           ; removed redundant BANKSEL
004170   6f29     movwf	0x29, 0x1          	MOVWF	_inPtr, B
004172   0e80     movlw	0x80               	MOVLW	0x80
                                           ; removed redundant BANKSEL
004174   6f2b     movwf	0x2b, 0x1          	MOVWF	(_inPtr + 2), B
                                           ;	.line	398; /home/regis/Hobbies/Electronique/Projets/Pinguino/local/trunk/p8/include/pinguino/libraries/usb/picUSB.c	for (i=0;i<bufferSize;i++) {
004176   6a00     clrf	0, 0                	CLRF	r0x00
                                           _00300_DS_:
004178   c000     movff	0, 0x3             	MOVFF	r0x00, r0x03
00417a   f003
00417c   6a04     clrf	0x4, 0              	CLRF	r0x04
00417e   5002     movf	0x2, 0, 0           	MOVF	r0x02, W
004180   5c04     subwf	0x4, 0, 0          	SUBWF	r0x04, W
004182   e102     bnz	0x4188               	BNZ	_00316_DS_
004184   5001     movf	0x1, 0, 0           	MOVF	r0x01, W
004186   5c03     subwf	0x3, 0, 0          	SUBWF	r0x03, W
                                           _00316_DS_:
004188   e22d     bc	0x41e4                	BC	_00304_DS_
                                           ;	.line	402; /home/regis/Hobbies/Electronique/Projets/Pinguino/local/trunk/p8/include/pinguino/libraries/usb/picUSB.c	*inPtr++ = *outPtr++;
00418a   c329     movff	0x329, 0x3         	MOVFF	_inPtr, r0x03
00418c   f003
00418e   c32a     movff	0x32a, 0x4         	MOVFF	(_inPtr + 1), r0x04
004190   f004
004192   c32b     movff	0x32b, 0x5         	MOVFF	(_inPtr + 2), r0x05
004194   f005
004196   c326     movff	0x326, 0x6         	MOVFF	_outPtr, r0x06
004198   f006
00419a   c327     movff	0x327, 0x7         	MOVFF	(_outPtr + 1), r0x07
00419c   f007
00419e   c328     movff	0x328, 0x8         	MOVFF	(_outPtr + 2), r0x08
0041a0   f008
0041a2   c006     movff	0x6, 0xfe9         	MOVFF	r0x06, FSR0L
0041a4   ffe9
0041a6   c007     movff	0x7, 0xff3         	MOVFF	r0x07, PRODL
0041a8   fff3
0041aa   5008     movf	0x8, 0, 0           	MOVF	r0x08, W
0041ac   ec29     call	0x52, 0             	CALL	__gptrget1
0041ae   f000
0041b0   6e06     movwf	0x6, 0             	MOVWF	r0x06
0041b2   0103     movlb	0x3                	BANKSEL	_outPtr
0041b4   2b26     incf	0x26, 0x1, 0x1      	INCF	_outPtr, F, B
0041b6   e301     bnc	0x41ba               	BNC	_81102_DS_
                                           ; removed redundant BANKSEL
0041b8   2b27     incf	0x27, 0x1, 0x1      	INCF	(_outPtr + 1), F, B
                                           _81102_DS_:
0041ba   e302     bnc	0x41c0               	BNC	_91103_DS_
0041bc   0103     movlb	0x3                	BANKSEL	(_outPtr + 2)
0041be   2b28     incf	0x28, 0x1, 0x1      	INCF	(_outPtr + 2), F, B
                                           _91103_DS_:
0041c0   c006     movff	0x6, 0xfe5         	MOVFF	r0x06, POSTDEC1
0041c2   ffe5
0041c4   c003     movff	0x3, 0xfe9         	MOVFF	r0x03, FSR0L
0041c6   ffe9
0041c8   c004     movff	0x4, 0xff3         	MOVFF	r0x04, PRODL
0041ca   fff3
0041cc   5005     movf	0x5, 0, 0           	MOVF	r0x05, W
0041ce   ec31     call	0x62, 0             	CALL	__gptrput1
0041d0   f000
0041d2   0103     movlb	0x3                	BANKSEL	_inPtr
0041d4   2b29     incf	0x29, 0x1, 0x1      	INCF	_inPtr, F, B
0041d6   e301     bnc	0x41da               	BNC	_101104_DS_
                                           ; removed redundant BANKSEL
0041d8   2b2a     incf	0x2a, 0x1, 0x1      	INCF	(_inPtr + 1), F, B
                                           _101104_DS_:
0041da   e302     bnc	0x41e0               	BNC	_111105_DS_
0041dc   0103     movlb	0x3                	BANKSEL	(_inPtr + 2)
0041de   2b2b     incf	0x2b, 0x1, 0x1      	INCF	(_inPtr + 2), F, B
                                           _111105_DS_:
                                           ;	.line	398; /home/regis/Hobbies/Electronique/Projets/Pinguino/local/trunk/p8/include/pinguino/libraries/usb/picUSB.c	for (i=0;i<bufferSize;i++) {
0041e0   2a00     incf	0, 0x1, 0           	INCF	r0x00, F
0041e2   d7ca     bra	0x4178               	BRA	_00300_DS_
                                           _00304_DS_:
0041e4   cfe4     movff	0xfe4, 0x8         	MOVFF	PREINC1, r0x08
0041e6   f008
0041e8   cfe4     movff	0xfe4, 0x7         	MOVFF	PREINC1, r0x07
0041ea   f007
0041ec   cfe4     movff	0xfe4, 0x6         	MOVFF	PREINC1, r0x06
0041ee   f006
0041f0   cfe4     movff	0xfe4, 0x5         	MOVFF	PREINC1, r0x05
0041f2   f005
0041f4   cfe4     movff	0xfe4, 0x4         	MOVFF	PREINC1, r0x04
0041f6   f004
0041f8   cfe4     movff	0xfe4, 0x3         	MOVFF	PREINC1, r0x03
0041fa   f003
0041fc   cfe4     movff	0xfe4, 0x2         	MOVFF	PREINC1, r0x02
0041fe   f002
004200   cfe4     movff	0xfe4, 0x1         	MOVFF	PREINC1, r0x01
004202   f001
004204   cfe4     movff	0xfe4, 0           	MOVFF	PREINC1, r0x00
004206   f000
004208   cfe4     movff	0xfe4, 0xfd9       	MOVFF	PREINC1, FSR2L
00420a   ffd9
00420c   0012     return	0                 	RETURN	
                                           
                                           ; ; Starting pCode block
                                           S_main__ProcessStandardRequest	code
                                           _ProcessStandardRequest:
                                           ;	.line	253; /home/regis/Hobbies/Electronique/Projets/Pinguino/local/trunk/p8/include/pinguino/libraries/usb/picUSB.c	void ProcessStandardRequest(void) {
004b90   c000     movff	0, 0xfe5           	MOVFF	r0x00, POSTDEC1
004b92   ffe5
                                           ;	.line	254; /home/regis/Hobbies/Electronique/Projets/Pinguino/local/trunk/p8/include/pinguino/libraries/usb/picUSB.c	byte request = SetupPacket.bRequest;
004b94   c501     movff	0x501, 0           	MOVFF	(_SetupPacket + 1), r0x00
004b96   f000
004b98   0105     movlb	0x5                	BANKSEL	_SetupPacket
                                           ;	.line	256; /home/regis/Hobbies/Electronique/Projets/Pinguino/local/trunk/p8/include/pinguino/libraries/usb/picUSB.c	if((SetupPacket.bmRequestType & 0x60) != 0x00)
004b9a   5100     movf	0, 0, 0x1           	MOVF	_SetupPacket, W, B
                                           ; #	ANDLW	0x60
                                           ; #	BTFSC	STATUS, 2
                                           ; #	GOTO	_00231_DS_
                                           ; #	GOTO	_00263_DS_
                                           ; #	MOVF	r0x00, W
                                           ;	.line	259; /home/regis/Hobbies/Electronique/Projets/Pinguino/local/trunk/p8/include/pinguino/libraries/usb/picUSB.c	return;
004b9c   0b60     andlw	0x60               	ANDLW	0x60
                                           ;	.line	261; /home/regis/Hobbies/Electronique/Projets/Pinguino/local/trunk/p8/include/pinguino/libraries/usb/picUSB.c	if (request == SET_ADDRESS) {
004b9e   a4d8     btfss	0xd8, 0x2, 0       	BTFSS	STATUS, 2
004ba0   d061     bra	0x4c64               	BRA	_00263_DS_
004ba2   5000     movf	0, 0, 0             	MOVF	r0x00, W
004ba4   0a05     xorlw	0x5                	XORLW	0x05
004ba6   e109     bnz	0x4bba               	BNZ	_00261_DS_
                                           ;	.line	269; /home/regis/Hobbies/Electronique/Projets/Pinguino/local/trunk/p8/include/pinguino/libraries/usb/picUSB.c	requestHandled = 1;
004ba8   0e01     movlw	0x1                	MOVLW	0x01
004baa   0103     movlb	0x3                	BANKSEL	_requestHandled
004bac   6f38     movwf	0x38, 0x1          	MOVWF	_requestHandled, B
                                           ;	.line	270; /home/regis/Hobbies/Electronique/Projets/Pinguino/local/trunk/p8/include/pinguino/libraries/usb/picUSB.c	deviceState = ADDRESS;
004bae   0e04     movlw	0x4                	MOVLW	0x04
004bb0   0103     movlb	0x3                	BANKSEL	_deviceState
004bb2   6f3b     movwf	0x3b, 0x1          	MOVWF	_deviceState, B
                                           ;	.line	271; /home/regis/Hobbies/Electronique/Projets/Pinguino/local/trunk/p8/include/pinguino/libraries/usb/picUSB.c	deviceAddress = SetupPacket.wValue0;
004bb4   c502     movff	0x502, 0x333       	MOVFF	(_SetupPacket + 2), _deviceAddress
004bb6   f333
004bb8   d055     bra	0x4c64               	BRA	_00263_DS_
                                           _00261_DS_:
                                           ;	.line	273; /home/regis/Hobbies/Electronique/Projets/Pinguino/local/trunk/p8/include/pinguino/libraries/usb/picUSB.c	else if (request == GET_DESCRIPTOR) {
004bba   5000     movf	0, 0, 0             	MOVF	r0x00, W
004bbc   0a06     xorlw	0x6                	XORLW	0x06
004bbe   e103     bnz	0x4bc6               	BNZ	_00258_DS_
                                           ;	.line	274; /home/regis/Hobbies/Electronique/Projets/Pinguino/local/trunk/p8/include/pinguino/libraries/usb/picUSB.c	GetDescriptor();
004bc0   ece3     call	0x49c6, 0           	CALL	_GetDescriptor
004bc2   f024
004bc4   d04f     bra	0x4c64               	BRA	_00263_DS_
                                           _00258_DS_:
                                           ;	.line	276; /home/regis/Hobbies/Electronique/Projets/Pinguino/local/trunk/p8/include/pinguino/libraries/usb/picUSB.c	else if (request == SET_CONFIGURATION) {
004bc6   5000     movf	0, 0, 0             	MOVF	r0x00, W
004bc8   0a09     xorlw	0x9                	XORLW	0x09
004bca   e112     bnz	0x4bf0               	BNZ	_00255_DS_
                                           ;	.line	280; /home/regis/Hobbies/Electronique/Projets/Pinguino/local/trunk/p8/include/pinguino/libraries/usb/picUSB.c	requestHandled = 1;
004bcc   0e01     movlw	0x1                	MOVLW	0x01
004bce   0103     movlb	0x3                	BANKSEL	_requestHandled
004bd0   6f38     movwf	0x38, 0x1          	MOVWF	_requestHandled, B
                                           ;	.line	281; /home/regis/Hobbies/Electronique/Projets/Pinguino/local/trunk/p8/include/pinguino/libraries/usb/picUSB.c	currentConfiguration = SetupPacket.wValue0;
004bd2   c502     movff	0x502, 0x33c       	MOVFF	(_SetupPacket + 2), _currentConfiguration
004bd4   f33c
004bd6   0103     movlb	0x3                	BANKSEL	_currentConfiguration
                                           ;	.line	284; /home/regis/Hobbies/Electronique/Projets/Pinguino/local/trunk/p8/include/pinguino/libraries/usb/picUSB.c	if (currentConfiguration == 0)
004bd8   513c     movf	0x3c, 0, 0x1        	MOVF	_currentConfiguration, W, B
004bda   e104     bnz	0x4be4               	BNZ	_00233_DS_
                                           ;	.line	287; /home/regis/Hobbies/Electronique/Projets/Pinguino/local/trunk/p8/include/pinguino/libraries/usb/picUSB.c	deviceState = ADDRESS;
004bdc   0e04     movlw	0x4                	MOVLW	0x04
004bde   0103     movlb	0x3                	BANKSEL	_deviceState
004be0   6f3b     movwf	0x3b, 0x1          	MOVWF	_deviceState, B
004be2   d040     bra	0x4c64               	BRA	_00263_DS_
                                           _00233_DS_:
                                           ;	.line	290; /home/regis/Hobbies/Electronique/Projets/Pinguino/local/trunk/p8/include/pinguino/libraries/usb/picUSB.c	deviceState = CONFIGURED;
004be4   0e05     movlw	0x5                	MOVLW	0x05
004be6   0103     movlb	0x3                	BANKSEL	_deviceState
004be8   6f3b     movwf	0x3b, 0x1          	MOVWF	_deviceState, B
                                           ;	.line	300; /home/regis/Hobbies/Electronique/Projets/Pinguino/local/trunk/p8/include/pinguino/libraries/usb/picUSB.c	CDCInitEndpoint();
004bea   ec3e     call	0x547c, 0           	CALL	_CDCInitEndpoint
004bec   f02a
004bee   d03a     bra	0x4c64               	BRA	_00263_DS_
                                           _00255_DS_:
                                           ;	.line	310; /home/regis/Hobbies/Electronique/Projets/Pinguino/local/trunk/p8/include/pinguino/libraries/usb/picUSB.c	else if (request == GET_CONFIGURATION) {
004bf0   5000     movf	0, 0, 0             	MOVF	r0x00, W
004bf2   0a08     xorlw	0x8                	XORLW	0x08
004bf4   e10f     bnz	0x4c14               	BNZ	_00252_DS_
                                           ;	.line	314; /home/regis/Hobbies/Electronique/Projets/Pinguino/local/trunk/p8/include/pinguino/libraries/usb/picUSB.c	requestHandled = 1;
004bf6   0e01     movlw	0x1                	MOVLW	0x01
004bf8   0103     movlb	0x3                	BANKSEL	_requestHandled
004bfa   6f38     movwf	0x38, 0x1          	MOVWF	_requestHandled, B
                                           ;	.line	315; /home/regis/Hobbies/Electronique/Projets/Pinguino/local/trunk/p8/include/pinguino/libraries/usb/picUSB.c	outPtr = (byte*)&currentConfiguration;
004bfc   0e03     movlw	0x3                	MOVLW	HIGH(_currentConfiguration)
004bfe   0103     movlb	0x3                	BANKSEL	(_outPtr + 1)
004c00   6f27     movwf	0x27, 0x1          	MOVWF	(_outPtr + 1), B
004c02   0e3c     movlw	0x3c               	MOVLW	LOW(_currentConfiguration)
                                           ; removed redundant BANKSEL
004c04   6f26     movwf	0x26, 0x1          	MOVWF	_outPtr, B
004c06   0e80     movlw	0x80               	MOVLW	0x80
                                           ; removed redundant BANKSEL
004c08   6f28     movwf	0x28, 0x1          	MOVWF	(_outPtr + 2), B
                                           ;	.line	316; /home/regis/Hobbies/Electronique/Projets/Pinguino/local/trunk/p8/include/pinguino/libraries/usb/picUSB.c	wCount = 1;
004c0a   0e01     movlw	0x1                	MOVLW	0x01
004c0c   0103     movlb	0x3                	BANKSEL	_wCount
004c0e   6f2f     movwf	0x2f, 0x1          	MOVWF	_wCount, B
                                           ; removed redundant BANKSEL
004c10   6b30     clrf	0x30, 0x1           	CLRF	(_wCount + 1), B
004c12   d028     bra	0x4c64               	BRA	_00263_DS_
                                           _00252_DS_:
                                           ;	.line	318; /home/regis/Hobbies/Electronique/Projets/Pinguino/local/trunk/p8/include/pinguino/libraries/usb/picUSB.c	else if (request == GET_STATUS) {
004c14   5000     movf	0, 0, 0             	MOVF	r0x00, W
004c16   e103     bnz	0x4c1e               	BNZ	_00249_DS_
                                           ;	.line	319; /home/regis/Hobbies/Electronique/Projets/Pinguino/local/trunk/p8/include/pinguino/libraries/usb/picUSB.c	GetStatus();
004c18   ec6d     call	0x48da, 0           	CALL	_GetStatus
004c1a   f024
004c1c   d023     bra	0x4c64               	BRA	_00263_DS_
                                           _00249_DS_:
                                           ;	.line	321; /home/regis/Hobbies/Electronique/Projets/Pinguino/local/trunk/p8/include/pinguino/libraries/usb/picUSB.c	else if ((request == CLEAR_FEATURE) ||
004c1e   5000     movf	0, 0, 0             	MOVF	r0x00, W
004c20   0a01     xorlw	0x1                	XORLW	0x01
004c22   e003     bz	0x4c2a                	BZ	_00244_DS_
                                           ;	.line	322; /home/regis/Hobbies/Electronique/Projets/Pinguino/local/trunk/p8/include/pinguino/libraries/usb/picUSB.c	(request == SET_FEATURE)) {
004c24   5000     movf	0, 0, 0             	MOVF	r0x00, W
004c26   0a03     xorlw	0x3                	XORLW	0x03
004c28   e103     bnz	0x4c30               	BNZ	_00245_DS_
                                           _00244_DS_:
                                           ;	.line	323; /home/regis/Hobbies/Electronique/Projets/Pinguino/local/trunk/p8/include/pinguino/libraries/usb/picUSB.c	SetFeature();
004c2a   ece1     call	0x47c2, 0           	CALL	_SetFeature
004c2c   f023
004c2e   d01a     bra	0x4c64               	BRA	_00263_DS_
                                           _00245_DS_:
                                           ;	.line	325; /home/regis/Hobbies/Electronique/Projets/Pinguino/local/trunk/p8/include/pinguino/libraries/usb/picUSB.c	else if (request == GET_INTERFACE) {
004c30   5000     movf	0, 0, 0             	MOVF	r0x00, W
004c32   0a0a     xorlw	0xa                	XORLW	0x0a
004c34   e111     bnz	0x4c58               	BNZ	_00242_DS_
                                           ;	.line	331; /home/regis/Hobbies/Electronique/Projets/Pinguino/local/trunk/p8/include/pinguino/libraries/usb/picUSB.c	requestHandled = 1;
004c36   0e01     movlw	0x1                	MOVLW	0x01
004c38   0103     movlb	0x3                	BANKSEL	_requestHandled
004c3a   6f38     movwf	0x38, 0x1          	MOVWF	_requestHandled, B
004c3c   0105     movlb	0x5                	BANKSEL	_controlTransferBuffer
                                           ;	.line	332; /home/regis/Hobbies/Electronique/Projets/Pinguino/local/trunk/p8/include/pinguino/libraries/usb/picUSB.c	controlTransferBuffer[0] = 0;
004c3e   6b40     clrf	0x40, 0x1           	CLRF	_controlTransferBuffer, B
                                           ;	.line	333; /home/regis/Hobbies/Electronique/Projets/Pinguino/local/trunk/p8/include/pinguino/libraries/usb/picUSB.c	outPtr = (byte *)&controlTransferBuffer;
004c40   0e05     movlw	0x5                	MOVLW	HIGH(_controlTransferBuffer)
004c42   0103     movlb	0x3                	BANKSEL	(_outPtr + 1)
004c44   6f27     movwf	0x27, 0x1          	MOVWF	(_outPtr + 1), B
004c46   0e40     movlw	0x40               	MOVLW	LOW(_controlTransferBuffer)
                                           ; removed redundant BANKSEL
004c48   6f26     movwf	0x26, 0x1          	MOVWF	_outPtr, B
004c4a   0e80     movlw	0x80               	MOVLW	0x80
                                           ; removed redundant BANKSEL
004c4c   6f28     movwf	0x28, 0x1          	MOVWF	(_outPtr + 2), B
                                           ;	.line	334; /home/regis/Hobbies/Electronique/Projets/Pinguino/local/trunk/p8/include/pinguino/libraries/usb/picUSB.c	wCount = 1;
004c4e   0e01     movlw	0x1                	MOVLW	0x01
004c50   0103     movlb	0x3                	BANKSEL	_wCount
004c52   6f2f     movwf	0x2f, 0x1          	MOVWF	_wCount, B
                                           ; removed redundant BANKSEL
004c54   6b30     clrf	0x30, 0x1           	CLRF	(_wCount + 1), B
004c56   d006     bra	0x4c64               	BRA	_00263_DS_
                                           _00242_DS_:
                                           ;	.line	336; /home/regis/Hobbies/Electronique/Projets/Pinguino/local/trunk/p8/include/pinguino/libraries/usb/picUSB.c	else if (request == SET_INTERFACE) {
004c58   5000     movf	0, 0, 0             	MOVF	r0x00, W
004c5a   0a0b     xorlw	0xb                	XORLW	0x0b
004c5c   e103     bnz	0x4c64               	BNZ	_00263_DS_
                                           ;	.line	341; /home/regis/Hobbies/Electronique/Projets/Pinguino/local/trunk/p8/include/pinguino/libraries/usb/picUSB.c	requestHandled = 1;
004c5e   0e01     movlw	0x1                	MOVLW	0x01
004c60   0103     movlb	0x3                	BANKSEL	_requestHandled
004c62   6f38     movwf	0x38, 0x1          	MOVWF	_requestHandled, B
                                           _00263_DS_:
                                           ;	.line	348; /home/regis/Hobbies/Electronique/Projets/Pinguino/local/trunk/p8/include/pinguino/libraries/usb/picUSB.c	else if (request == SYNCH_FRAME) {
004c64   cfe4     movff	0xfe4, 0           	MOVFF	PREINC1, r0x00
004c66   f000
004c68   0012     return	0                 	RETURN	
                                           
                                           ; ; Starting pCode block
                                           S_main__SetFeature	code
                                           _SetFeature:
                                           ;	.line	209; /home/regis/Hobbies/Electronique/Projets/Pinguino/local/trunk/p8/include/pinguino/libraries/usb/picUSB.c	static void SetFeature(void) {
0047c2   c000     movff	0, 0xfe5           	MOVFF	r0x00, POSTDEC1
0047c4   ffe5
0047c6   c001     movff	0x1, 0xfe5         	MOVFF	r0x01, POSTDEC1
0047c8   ffe5
0047ca   c002     movff	0x2, 0xfe5         	MOVFF	r0x02, POSTDEC1
0047cc   ffe5
0047ce   c003     movff	0x3, 0xfe5         	MOVFF	r0x03, POSTDEC1
0047d0   ffe5
                                           ;	.line	210; /home/regis/Hobbies/Electronique/Projets/Pinguino/local/trunk/p8/include/pinguino/libraries/usb/picUSB.c	byte recipient = SetupPacket.bmRequestType & 0x1F;
0047d2   0e1f     movlw	0x1f               	MOVLW	0x1f
0047d4   0105     movlb	0x5                	BANKSEL	_SetupPacket
0047d6   1500     andwf	0, 0, 0x1          	ANDWF	_SetupPacket, W, B
0047d8   6e00     movwf	0, 0               	MOVWF	r0x00
                                           ;	.line	211; /home/regis/Hobbies/Electronique/Projets/Pinguino/local/trunk/p8/include/pinguino/libraries/usb/picUSB.c	byte feature = SetupPacket.wValue0;
0047da   c502     movff	0x502, 0x1         	MOVFF	(_SetupPacket + 2), r0x01
0047dc   f001
                                           ;	.line	216; /home/regis/Hobbies/Electronique/Projets/Pinguino/local/trunk/p8/include/pinguino/libraries/usb/picUSB.c	if (recipient == 0x00) {
0047de   5000     movf	0, 0, 0             	MOVF	r0x00, W
0047e0   e112     bnz	0x4806               	BNZ	_00200_DS_
                                           ;	.line	218; /home/regis/Hobbies/Electronique/Projets/Pinguino/local/trunk/p8/include/pinguino/libraries/usb/picUSB.c	if (feature == DEVICE_REMOTE_WAKEUP) {
0047e2   5001     movf	0x1, 0, 0           	MOVF	r0x01, W
0047e4   0a01     xorlw	0x1                	XORLW	0x01
0047e6   e001     bz	0x47ea                	BZ	_00215_DS_
0047e8   d06f     bra	0x48c8               	BRA	_00202_DS_
                                           _00215_DS_:
                                           ;	.line	219; /home/regis/Hobbies/Electronique/Projets/Pinguino/local/trunk/p8/include/pinguino/libraries/usb/picUSB.c	requestHandled = 1;
0047ea   0e01     movlw	0x1                	MOVLW	0x01
0047ec   0103     movlb	0x3                	BANKSEL	_requestHandled
0047ee   6f38     movwf	0x38, 0x1          	MOVWF	_requestHandled, B
0047f0   0105     movlb	0x5                	BANKSEL	(_SetupPacket + 1)
                                           ;	.line	220; /home/regis/Hobbies/Electronique/Projets/Pinguino/local/trunk/p8/include/pinguino/libraries/usb/picUSB.c	if (SetupPacket.bRequest == SET_FEATURE)
0047f2   5101     movf	0x1, 0, 0x1         	MOVF	(_SetupPacket + 1), W, B
0047f4   0a03     xorlw	0x3                	XORLW	0x03
0047f6   e104     bnz	0x4800               	BNZ	_00182_DS_
                                           ;	.line	221; /home/regis/Hobbies/Electronique/Projets/Pinguino/local/trunk/p8/include/pinguino/libraries/usb/picUSB.c	remoteWakeup = 1;
0047f8   0e01     movlw	0x1                	MOVLW	0x01
0047fa   0103     movlb	0x3                	BANKSEL	_remoteWakeup
0047fc   6f3a     movwf	0x3a, 0x1          	MOVWF	_remoteWakeup, B
0047fe   d064     bra	0x48c8               	BRA	_00202_DS_
                                           _00182_DS_:
004800   0103     movlb	0x3                	BANKSEL	_remoteWakeup
                                           ;	.line	223; /home/regis/Hobbies/Electronique/Projets/Pinguino/local/trunk/p8/include/pinguino/libraries/usb/picUSB.c	remoteWakeup = 0;
004802   6b3a     clrf	0x3a, 0x1           	CLRF	_remoteWakeup, B
004804   d061     bra	0x48c8               	BRA	_00202_DS_
                                           _00200_DS_:
                                           ;	.line	227; /home/regis/Hobbies/Electronique/Projets/Pinguino/local/trunk/p8/include/pinguino/libraries/usb/picUSB.c	else if (recipient == 0x02) {
004806   5000     movf	0, 0, 0             	MOVF	r0x00, W
004808   0a02     xorlw	0x2                	XORLW	0x02
00480a   e001     bz	0x480e                	BZ	_00219_DS_
00480c   d05d     bra	0x48c8               	BRA	_00202_DS_
                                           _00219_DS_:
                                           ;	.line	229; /home/regis/Hobbies/Electronique/Projets/Pinguino/local/trunk/p8/include/pinguino/libraries/usb/picUSB.c	byte endpointNum = SetupPacket.wIndex0 & 0x0F;
00480e   0e0f     movlw	0xf                	MOVLW	0x0f
004810   0105     movlb	0x5                	BANKSEL	(_SetupPacket + 4)
004812   1504     andwf	0x4, 0, 0x1        	ANDWF	(_SetupPacket + 4), W, B
004814   6e00     movwf	0, 0               	MOVWF	r0x00
                                           ;	.line	230; /home/regis/Hobbies/Electronique/Projets/Pinguino/local/trunk/p8/include/pinguino/libraries/usb/picUSB.c	byte endpointDir = SetupPacket.wIndex0 & 0x80;
004816   0e80     movlw	0x80               	MOVLW	0x80
                                           ; removed redundant BANKSEL
004818   1504     andwf	0x4, 0, 0x1        	ANDWF	(_SetupPacket + 4), W, B
00481a   6e02     movwf	0x2, 0             	MOVWF	r0x02
                                           ;	.line	231; /home/regis/Hobbies/Electronique/Projets/Pinguino/local/trunk/p8/include/pinguino/libraries/usb/picUSB.c	if ((feature == ENDPOINT_HALT) && (endpointNum != 0)) {
00481c   5001     movf	0x1, 0, 0           	MOVF	r0x01, W
00481e   a4d8     btfss	0xd8, 0x2, 0       	BTFSS	STATUS, 2
004820   d053     bra	0x48c8               	BRA	_00202_DS_
004822   5000     movf	0, 0, 0             	MOVF	r0x00, W
004824   b4d8     btfsc	0xd8, 0x2, 0       	BTFSC	STATUS, 2
004826   d050     bra	0x48c8               	BRA	_00202_DS_
                                           ;	.line	233; /home/regis/Hobbies/Electronique/Projets/Pinguino/local/trunk/p8/include/pinguino/libraries/usb/picUSB.c	requestHandled = 1;
004828   0e01     movlw	0x1                	MOVLW	0x01
00482a   0103     movlb	0x3                	BANKSEL	_requestHandled
00482c   6f38     movwf	0x38, 0x1          	MOVWF	_requestHandled, B
                                           ; ;multiply lit val:0x08 by variable r0x00 and store in r0x00
                                           ; ;Unrolled 8 X 8 multiplication
                                           ; ;FIXME: the function does not support result==WREG
                                           ;	.line	236; /home/regis/Hobbies/Electronique/Projets/Pinguino/local/trunk/p8/include/pinguino/libraries/usb/picUSB.c	inPtr = (byte *)&EP_OUT_BD(0) + (endpointNum * 8);
00482e   5000     movf	0, 0, 0             	MOVF	r0x00, W
004830   0d08     mullw	0x8                	MULLW	0x08
004832   cff3     movff	0xff3, 0           	MOVFF	PRODL, r0x00
004834   f000
004836   cff4     movff	0xff4, 0x1         	MOVFF	PRODH, r0x01
004838   f001
00483a   0e00     movlw	0                  	MOVLW	LOW(_ep_bdt)
00483c   2600     addwf	0, 0x1, 0          	ADDWF	r0x00, F
00483e   0e04     movlw	0x4                	MOVLW	HIGH(_ep_bdt)
004840   2201     addwfc	0x1, 0x1, 0       	ADDWFC	r0x01, F
004842   5001     movf	0x1, 0, 0           	MOVF	r0x01, W
004844   0103     movlb	0x3                	BANKSEL	(_inPtr + 1)
004846   6f2a     movwf	0x2a, 0x1          	MOVWF	(_inPtr + 1), B
004848   5000     movf	0, 0, 0             	MOVF	r0x00, W
                                           ; removed redundant BANKSEL
00484a   6f29     movwf	0x29, 0x1          	MOVWF	_inPtr, B
00484c   0e80     movlw	0x80               	MOVLW	0x80
                                           ; removed redundant BANKSEL
00484e   6f2b     movwf	0x2b, 0x1          	MOVWF	(_inPtr + 2), B
                                           ;	.line	237; /home/regis/Hobbies/Electronique/Projets/Pinguino/local/trunk/p8/include/pinguino/libraries/usb/picUSB.c	if (endpointDir)
004850   5002     movf	0x2, 0, 0           	MOVF	r0x02, W
004852   e005     bz	0x485e                	BZ	_00187_DS_
                                           ;	.line	238; /home/regis/Hobbies/Electronique/Projets/Pinguino/local/trunk/p8/include/pinguino/libraries/usb/picUSB.c	inPtr += 4;
004854   0e04     movlw	0x4                	MOVLW	0x04
                                           ; removed redundant BANKSEL
004856   2729     addwf	0x29, 0x1, 0x1     	ADDWF	_inPtr, F, B
004858   0e00     movlw	0                  	MOVLW	0x00
                                           ; removed redundant BANKSEL
00485a   232a     addwfc	0x2a, 0x1, 0x1    	ADDWFC	(_inPtr + 1), F, B
                                           ; removed redundant BANKSEL
00485c   232b     addwfc	0x2b, 0x1, 0x1    	ADDWFC	(_inPtr + 2), F, B
                                           _00187_DS_:
00485e   0105     movlb	0x5                	BANKSEL	(_SetupPacket + 1)
                                           ;	.line	240; /home/regis/Hobbies/Electronique/Projets/Pinguino/local/trunk/p8/include/pinguino/libraries/usb/picUSB.c	if(SetupPacket.bRequest == SET_FEATURE)
004860   5101     movf	0x1, 0, 0x1         	MOVF	(_SetupPacket + 1), W, B
004862   0a03     xorlw	0x3                	XORLW	0x03
004864   e110     bnz	0x4886               	BNZ	_00192_DS_
                                           ;	.line	241; /home/regis/Hobbies/Electronique/Projets/Pinguino/local/trunk/p8/include/pinguino/libraries/usb/picUSB.c	*inPtr = 0x84;
004866   c329     movff	0x329, 0           	MOVFF	_inPtr, r0x00
004868   f000
00486a   c32a     movff	0x32a, 0x1         	MOVFF	(_inPtr + 1), r0x01
00486c   f001
00486e   c32b     movff	0x32b, 0x3         	MOVFF	(_inPtr + 2), r0x03
004870   f003
004872   0e84     movlw	0x84               	MOVLW	0x84
004874   6ee5     movwf	0xe5, 0            	MOVWF	POSTDEC1
004876   c000     movff	0, 0xfe9           	MOVFF	r0x00, FSR0L
004878   ffe9
00487a   c001     movff	0x1, 0xff3         	MOVFF	r0x01, PRODL
00487c   fff3
00487e   5003     movf	0x3, 0, 0           	MOVF	r0x03, W
004880   ec31     call	0x62, 0             	CALL	__gptrput1
004882   f000
004884   d021     bra	0x48c8               	BRA	_00202_DS_
                                           _00192_DS_:
                                           ;	.line	243; /home/regis/Hobbies/Electronique/Projets/Pinguino/local/trunk/p8/include/pinguino/libraries/usb/picUSB.c	if(endpointDir == 1)
004886   5002     movf	0x2, 0, 0           	MOVF	r0x02, W
004888   0a01     xorlw	0x1                	XORLW	0x01
00488a   e10f     bnz	0x48aa               	BNZ	_00189_DS_
                                           ;	.line	244; /home/regis/Hobbies/Electronique/Projets/Pinguino/local/trunk/p8/include/pinguino/libraries/usb/picUSB.c	*inPtr = 0x00;
00488c   c329     movff	0x329, 0           	MOVFF	_inPtr, r0x00
00488e   f000
004890   c32a     movff	0x32a, 0x1         	MOVFF	(_inPtr + 1), r0x01
004892   f001
004894   c32b     movff	0x32b, 0x2         	MOVFF	(_inPtr + 2), r0x02
004896   f002
004898   6ae5     clrf	0xe5, 0             	CLRF	POSTDEC1
00489a   c000     movff	0, 0xfe9           	MOVFF	r0x00, FSR0L
00489c   ffe9
00489e   c001     movff	0x1, 0xff3         	MOVFF	r0x01, PRODL
0048a0   fff3
0048a2   5002     movf	0x2, 0, 0           	MOVF	r0x02, W
0048a4   ec31     call	0x62, 0             	CALL	__gptrput1
0048a6   f000
0048a8   d00f     bra	0x48c8               	BRA	_00202_DS_
                                           _00189_DS_:
                                           ;	.line	246; /home/regis/Hobbies/Electronique/Projets/Pinguino/local/trunk/p8/include/pinguino/libraries/usb/picUSB.c	*inPtr = 0x88;
0048aa   c329     movff	0x329, 0           	MOVFF	_inPtr, r0x00
0048ac   f000
0048ae   c32a     movff	0x32a, 0x1         	MOVFF	(_inPtr + 1), r0x01
0048b0   f001
0048b2   c32b     movff	0x32b, 0x2         	MOVFF	(_inPtr + 2), r0x02
0048b4   f002
0048b6   0e88     movlw	0x88               	MOVLW	0x88
0048b8   6ee5     movwf	0xe5, 0            	MOVWF	POSTDEC1
0048ba   c000     movff	0, 0xfe9           	MOVFF	r0x00, FSR0L
0048bc   ffe9
0048be   c001     movff	0x1, 0xff3         	MOVFF	r0x01, PRODL
0048c0   fff3
0048c2   5002     movf	0x2, 0, 0           	MOVF	r0x02, W
0048c4   ec31     call	0x62, 0             	CALL	__gptrput1
0048c6   f000
                                           _00202_DS_:
0048c8   cfe4     movff	0xfe4, 0x3         	MOVFF	PREINC1, r0x03
0048ca   f003
0048cc   cfe4     movff	0xfe4, 0x2         	MOVFF	PREINC1, r0x02
0048ce   f002
0048d0   cfe4     movff	0xfe4, 0x1         	MOVFF	PREINC1, r0x01
0048d2   f001
0048d4   cfe4     movff	0xfe4, 0           	MOVFF	PREINC1, r0x00
0048d6   f000
0048d8   0012     return	0                 	RETURN	
                                           
                                           ; ; Starting pCode block
                                           S_main__GetStatus	code
                                           _GetStatus:
                                           ;	.line	164; /home/regis/Hobbies/Electronique/Projets/Pinguino/local/trunk/p8/include/pinguino/libraries/usb/picUSB.c	static void GetStatus(void) {
0048da   c000     movff	0, 0xfe5           	MOVFF	r0x00, POSTDEC1
0048dc   ffe5
0048de   c001     movff	0x1, 0xfe5         	MOVFF	r0x01, POSTDEC1
0048e0   ffe5
0048e2   c002     movff	0x2, 0xfe5         	MOVFF	r0x02, POSTDEC1
0048e4   ffe5
                                           ;	.line	166; /home/regis/Hobbies/Electronique/Projets/Pinguino/local/trunk/p8/include/pinguino/libraries/usb/picUSB.c	byte recipient = SetupPacket.bmRequestType & 0x1F;
0048e6   0e1f     movlw	0x1f               	MOVLW	0x1f
0048e8   0105     movlb	0x5                	BANKSEL	_SetupPacket
0048ea   1500     andwf	0, 0, 0x1          	ANDWF	_SetupPacket, W, B
0048ec   6e00     movwf	0, 0               	MOVWF	r0x00
0048ee   0105     movlb	0x5                	BANKSEL	_controlTransferBuffer
                                           ;	.line	170; /home/regis/Hobbies/Electronique/Projets/Pinguino/local/trunk/p8/include/pinguino/libraries/usb/picUSB.c	controlTransferBuffer[0] = 0;
0048f0   6b40     clrf	0x40, 0x1           	CLRF	_controlTransferBuffer, B
                                           ; removed redundant BANKSEL
                                           ;	.line	171; /home/regis/Hobbies/Electronique/Projets/Pinguino/local/trunk/p8/include/pinguino/libraries/usb/picUSB.c	controlTransferBuffer[1] = 0;
0048f2   6b41     clrf	0x41, 0x1           	CLRF	(_controlTransferBuffer + 1), B
                                           ;	.line	174; /home/regis/Hobbies/Electronique/Projets/Pinguino/local/trunk/p8/include/pinguino/libraries/usb/picUSB.c	if (recipient == 0x00) {
0048f4   5000     movf	0, 0, 0             	MOVF	r0x00, W
0048f6   e113     bnz	0x491e               	BNZ	_00153_DS_
                                           ;	.line	176; /home/regis/Hobbies/Electronique/Projets/Pinguino/local/trunk/p8/include/pinguino/libraries/usb/picUSB.c	requestHandled = 1;
0048f8   0e01     movlw	0x1                	MOVLW	0x01
0048fa   0103     movlb	0x3                	BANKSEL	_requestHandled
0048fc   6f38     movwf	0x38, 0x1          	MOVWF	_requestHandled, B
0048fe   0103     movlb	0x3                	BANKSEL	_selfPowered
                                           ;	.line	178; /home/regis/Hobbies/Electronique/Projets/Pinguino/local/trunk/p8/include/pinguino/libraries/usb/picUSB.c	if (selfPowered)
004900   5139     movf	0x39, 0, 0x1        	MOVF	_selfPowered, W, B
004902   e004     bz	0x490c                	BZ	_00140_DS_
                                           ;	.line	179; /home/regis/Hobbies/Electronique/Projets/Pinguino/local/trunk/p8/include/pinguino/libraries/usb/picUSB.c	controlTransferBuffer[0] |= 0x01;
004904   0e01     movlw	0x1                	MOVLW	0x01
004906   0105     movlb	0x5                	BANKSEL	_controlTransferBuffer
004908   1140     iorwf	0x40, 0, 0x1       	IORWF	_controlTransferBuffer, W, B
                                           ; #	MOVWF	r0x01
                                           ; #	MOVF	r0x01, W
00490a   6f40     movwf	0x40, 0x1          	MOVWF	_controlTransferBuffer, B
                                           _00140_DS_:
00490c   0103     movlb	0x3                	BANKSEL	_remoteWakeup
                                           ;	.line	180; /home/regis/Hobbies/Electronique/Projets/Pinguino/local/trunk/p8/include/pinguino/libraries/usb/picUSB.c	if (remoteWakeup)
00490e   513a     movf	0x3a, 0, 0x1        	MOVF	_remoteWakeup, W, B
004910   b4d8     btfsc	0xd8, 0x2, 0       	BTFSC	STATUS, 2
004912   d044     bra	0x499c               	BRA	_00154_DS_
                                           ;	.line	181; /home/regis/Hobbies/Electronique/Projets/Pinguino/local/trunk/p8/include/pinguino/libraries/usb/picUSB.c	controlTransferBuffer[0] |= 0x02;
004914   0e02     movlw	0x2                	MOVLW	0x02
004916   0105     movlb	0x5                	BANKSEL	_controlTransferBuffer
004918   1140     iorwf	0x40, 0, 0x1       	IORWF	_controlTransferBuffer, W, B
                                           ; #	MOVWF	r0x01
                                           ; #	MOVF	r0x01, W
00491a   6f40     movwf	0x40, 0x1          	MOVWF	_controlTransferBuffer, B
00491c   d03f     bra	0x499c               	BRA	_00154_DS_
                                           _00153_DS_:
                                           ;	.line	183; /home/regis/Hobbies/Electronique/Projets/Pinguino/local/trunk/p8/include/pinguino/libraries/usb/picUSB.c	else if (recipient == 0x01) {
00491e   5000     movf	0, 0, 0             	MOVF	r0x00, W
004920   0a01     xorlw	0x1                	XORLW	0x01
004922   e104     bnz	0x492c               	BNZ	_00150_DS_
                                           ;	.line	185; /home/regis/Hobbies/Electronique/Projets/Pinguino/local/trunk/p8/include/pinguino/libraries/usb/picUSB.c	requestHandled = 1;
004924   0e01     movlw	0x1                	MOVLW	0x01
004926   0103     movlb	0x3                	BANKSEL	_requestHandled
004928   6f38     movwf	0x38, 0x1          	MOVWF	_requestHandled, B
00492a   d038     bra	0x499c               	BRA	_00154_DS_
                                           _00150_DS_:
                                           ;	.line	187; /home/regis/Hobbies/Electronique/Projets/Pinguino/local/trunk/p8/include/pinguino/libraries/usb/picUSB.c	else if (recipient == 0x02) {
00492c   5000     movf	0, 0, 0             	MOVF	r0x00, W
00492e   0a02     xorlw	0x2                	XORLW	0x02
004930   e135     bnz	0x499c               	BNZ	_00154_DS_
                                           ;	.line	189; /home/regis/Hobbies/Electronique/Projets/Pinguino/local/trunk/p8/include/pinguino/libraries/usb/picUSB.c	byte endpointNum = SetupPacket.wIndex0 & 0x0F;
004932   0e0f     movlw	0xf                	MOVLW	0x0f
004934   0105     movlb	0x5                	BANKSEL	(_SetupPacket + 4)
004936   1504     andwf	0x4, 0, 0x1        	ANDWF	(_SetupPacket + 4), W, B
004938   6e00     movwf	0, 0               	MOVWF	r0x00
                                           ;	.line	190; /home/regis/Hobbies/Electronique/Projets/Pinguino/local/trunk/p8/include/pinguino/libraries/usb/picUSB.c	byte endpointDir = SetupPacket.wIndex0 & 0x80;
00493a   0e80     movlw	0x80               	MOVLW	0x80
                                           ; removed redundant BANKSEL
00493c   1504     andwf	0x4, 0, 0x1        	ANDWF	(_SetupPacket + 4), W, B
00493e   6e01     movwf	0x1, 0             	MOVWF	r0x01
                                           ;	.line	191; /home/regis/Hobbies/Electronique/Projets/Pinguino/local/trunk/p8/include/pinguino/libraries/usb/picUSB.c	requestHandled = 1;
004940   0e01     movlw	0x1                	MOVLW	0x01
004942   0103     movlb	0x3                	BANKSEL	_requestHandled
004944   6f38     movwf	0x38, 0x1          	MOVWF	_requestHandled, B
                                           ; ;multiply lit val:0x08 by variable r0x00 and store in r0x00
                                           ; ;Unrolled 8 X 8 multiplication
                                           ; ;FIXME: the function does not support result==WREG
                                           ;	.line	194; /home/regis/Hobbies/Electronique/Projets/Pinguino/local/trunk/p8/include/pinguino/libraries/usb/picUSB.c	inPtr = (byte *)&EP_OUT_BD(0) + (endpointNum * 8);
004946   5000     movf	0, 0, 0             	MOVF	r0x00, W
004948   0d08     mullw	0x8                	MULLW	0x08
00494a   cff3     movff	0xff3, 0           	MOVFF	PRODL, r0x00
00494c   f000
00494e   cff4     movff	0xff4, 0x2         	MOVFF	PRODH, r0x02
004950   f002
004952   0e00     movlw	0                  	MOVLW	LOW(_ep_bdt)
004954   2600     addwf	0, 0x1, 0          	ADDWF	r0x00, F
004956   0e04     movlw	0x4                	MOVLW	HIGH(_ep_bdt)
004958   2202     addwfc	0x2, 0x1, 0       	ADDWFC	r0x02, F
00495a   5002     movf	0x2, 0, 0           	MOVF	r0x02, W
00495c   0103     movlb	0x3                	BANKSEL	(_inPtr + 1)
00495e   6f2a     movwf	0x2a, 0x1          	MOVWF	(_inPtr + 1), B
004960   5000     movf	0, 0, 0             	MOVF	r0x00, W
                                           ; removed redundant BANKSEL
004962   6f29     movwf	0x29, 0x1          	MOVWF	_inPtr, B
004964   0e80     movlw	0x80               	MOVLW	0x80
                                           ; removed redundant BANKSEL
004966   6f2b     movwf	0x2b, 0x1          	MOVWF	(_inPtr + 2), B
                                           ;	.line	195; /home/regis/Hobbies/Electronique/Projets/Pinguino/local/trunk/p8/include/pinguino/libraries/usb/picUSB.c	if (endpointDir)
004968   5001     movf	0x1, 0, 0           	MOVF	r0x01, W
00496a   e005     bz	0x4976                	BZ	_00144_DS_
                                           ;	.line	196; /home/regis/Hobbies/Electronique/Projets/Pinguino/local/trunk/p8/include/pinguino/libraries/usb/picUSB.c	inPtr += 4;
00496c   0e04     movlw	0x4                	MOVLW	0x04
                                           ; removed redundant BANKSEL
00496e   2729     addwf	0x29, 0x1, 0x1     	ADDWF	_inPtr, F, B
004970   0e00     movlw	0                  	MOVLW	0x00
                                           ; removed redundant BANKSEL
004972   232a     addwfc	0x2a, 0x1, 0x1    	ADDWFC	(_inPtr + 1), F, B
                                           ; removed redundant BANKSEL
004974   232b     addwfc	0x2b, 0x1, 0x1    	ADDWFC	(_inPtr + 2), F, B
                                           _00144_DS_:
                                           ;	.line	197; /home/regis/Hobbies/Electronique/Projets/Pinguino/local/trunk/p8/include/pinguino/libraries/usb/picUSB.c	if(*inPtr & BDS_BSTALL)
004976   c329     movff	0x329, 0           	MOVFF	_inPtr, r0x00
004978   f000
00497a   c32a     movff	0x32a, 0x1         	MOVFF	(_inPtr + 1), r0x01
00497c   f001
00497e   c32b     movff	0x32b, 0x2         	MOVFF	(_inPtr + 2), r0x02
004980   f002
004982   c000     movff	0, 0xfe9           	MOVFF	r0x00, FSR0L
004984   ffe9
004986   c001     movff	0x1, 0xff3         	MOVFF	r0x01, PRODL
004988   fff3
00498a   5002     movf	0x2, 0, 0           	MOVF	r0x02, W
00498c   ec29     call	0x52, 0             	CALL	__gptrget1
00498e   f000
004990   6e00     movwf	0, 0               	MOVWF	r0x00
004992   a400     btfss	0, 0x2, 0          	BTFSS	r0x00, 2
004994   d003     bra	0x499c               	BRA	_00154_DS_
                                           ;	.line	198; /home/regis/Hobbies/Electronique/Projets/Pinguino/local/trunk/p8/include/pinguino/libraries/usb/picUSB.c	controlTransferBuffer[0] = 0x01;
004996   0e01     movlw	0x1                	MOVLW	0x01
004998   0105     movlb	0x5                	BANKSEL	_controlTransferBuffer
00499a   6f40     movwf	0x40, 0x1          	MOVWF	_controlTransferBuffer, B
                                           _00154_DS_:
00499c   0103     movlb	0x3                	BANKSEL	_requestHandled
                                           ;	.line	201; /home/regis/Hobbies/Electronique/Projets/Pinguino/local/trunk/p8/include/pinguino/libraries/usb/picUSB.c	if (requestHandled) {
00499e   5138     movf	0x38, 0, 0x1        	MOVF	_requestHandled, W, B
0049a0   e00b     bz	0x49b8                	BZ	_00157_DS_
                                           ;	.line	202; /home/regis/Hobbies/Electronique/Projets/Pinguino/local/trunk/p8/include/pinguino/libraries/usb/picUSB.c	outPtr = (byte *)&controlTransferBuffer;
0049a2   0e05     movlw	0x5                	MOVLW	HIGH(_controlTransferBuffer)
0049a4   0103     movlb	0x3                	BANKSEL	(_outPtr + 1)
0049a6   6f27     movwf	0x27, 0x1          	MOVWF	(_outPtr + 1), B
0049a8   0e40     movlw	0x40               	MOVLW	LOW(_controlTransferBuffer)
                                           ; removed redundant BANKSEL
0049aa   6f26     movwf	0x26, 0x1          	MOVWF	_outPtr, B
0049ac   0e80     movlw	0x80               	MOVLW	0x80
                                           ; removed redundant BANKSEL
0049ae   6f28     movwf	0x28, 0x1          	MOVWF	(_outPtr + 2), B
                                           ;	.line	203; /home/regis/Hobbies/Electronique/Projets/Pinguino/local/trunk/p8/include/pinguino/libraries/usb/picUSB.c	wCount = 2;
0049b0   0e02     movlw	0x2                	MOVLW	0x02
0049b2   0103     movlb	0x3                	BANKSEL	_wCount
0049b4   6f2f     movwf	0x2f, 0x1          	MOVWF	_wCount, B
                                           ; removed redundant BANKSEL
0049b6   6b30     clrf	0x30, 0x1           	CLRF	(_wCount + 1), B
                                           _00157_DS_:
0049b8   cfe4     movff	0xfe4, 0x2         	MOVFF	PREINC1, r0x02
0049ba   f002
0049bc   cfe4     movff	0xfe4, 0x1         	MOVFF	PREINC1, r0x01
0049be   f001
0049c0   cfe4     movff	0xfe4, 0           	MOVFF	PREINC1, r0x00
0049c2   f000
0049c4   0012     return	0                 	RETURN	
                                           
                                           ; ; Starting pCode block
                                           S_main__GetDescriptor	code
                                           _GetDescriptor:
                                           ;	.line	97; /home/regis/Hobbies/Electronique/Projets/Pinguino/local/trunk/p8/include/pinguino/libraries/usb/picUSB.c	static void GetDescriptor(void) {
0049c6   c000     movff	0, 0xfe5           	MOVFF	r0x00, POSTDEC1
0049c8   ffe5
0049ca   c001     movff	0x1, 0xfe5         	MOVFF	r0x01, POSTDEC1
0049cc   ffe5
0049ce   c002     movff	0x2, 0xfe5         	MOVFF	r0x02, POSTDEC1
0049d0   ffe5
0049d2   c003     movff	0x3, 0xfe5         	MOVFF	r0x03, POSTDEC1
0049d4   ffe5
0049d6   0105     movlb	0x5                	BANKSEL	_SetupPacket
                                           ;	.line	101; /home/regis/Hobbies/Electronique/Projets/Pinguino/local/trunk/p8/include/pinguino/libraries/usb/picUSB.c	if(SetupPacket.bmRequestType == 0x80) {
0049d8   5100     movf	0, 0, 0x1           	MOVF	_SetupPacket, W, B
0049da   0a80     xorlw	0x80               	XORLW	0x80
0049dc   e001     bz	0x49e0                	BZ	_00126_DS_
0049de   d05d     bra	0x4a9a               	BRA	_00118_DS_
                                           _00126_DS_:
                                           ;	.line	102; /home/regis/Hobbies/Electronique/Projets/Pinguino/local/trunk/p8/include/pinguino/libraries/usb/picUSB.c	byte descriptorType  = SetupPacket.wValue1;
0049e0   c503     movff	0x503, 0           	MOVFF	(_SetupPacket + 3), r0x00
0049e2   f000
                                           ;	.line	103; /home/regis/Hobbies/Electronique/Projets/Pinguino/local/trunk/p8/include/pinguino/libraries/usb/picUSB.c	byte descriptorIndex = SetupPacket.wValue0;
0049e4   c502     movff	0x502, 0x1         	MOVFF	(_SetupPacket + 2), r0x01
0049e6   f001
                                           ;	.line	105; /home/regis/Hobbies/Electronique/Projets/Pinguino/local/trunk/p8/include/pinguino/libraries/usb/picUSB.c	if (descriptorType == DEVICE_DESCRIPTOR) {
0049e8   5000     movf	0, 0, 0             	MOVF	r0x00, W
0049ea   0a01     xorlw	0x1                	XORLW	0x01
0049ec   e10f     bnz	0x4a0c               	BNZ	_00114_DS_
                                           ;	.line	109; /home/regis/Hobbies/Electronique/Projets/Pinguino/local/trunk/p8/include/pinguino/libraries/usb/picUSB.c	requestHandled = 1;
0049ee   0e01     movlw	0x1                	MOVLW	0x01
0049f0   0103     movlb	0x3                	BANKSEL	_requestHandled
0049f2   6f38     movwf	0x38, 0x1          	MOVWF	_requestHandled, B
                                           ;	.line	110; /home/regis/Hobbies/Electronique/Projets/Pinguino/local/trunk/p8/include/pinguino/libraries/usb/picUSB.c	outPtr = (byte *)&libdevice_descriptor;
0049f4   0ebc     movlw	0xbc               	MOVLW	LOW(_libdevice_descriptor)
0049f6   0103     movlb	0x3                	BANKSEL	_outPtr
0049f8   6f26     movwf	0x26, 0x1          	MOVWF	_outPtr, B
0049fa   0e35     movlw	0x35               	MOVLW	HIGH(_libdevice_descriptor)
                                           ; removed redundant BANKSEL
0049fc   6f27     movwf	0x27, 0x1          	MOVWF	(_outPtr + 1), B
0049fe   0e00     movlw	0                  	MOVLW	UPPER(_libdevice_descriptor)
                                           ; removed redundant BANKSEL
004a00   6f28     movwf	0x28, 0x1          	MOVWF	(_outPtr + 2), B
                                           ;	.line	111; /home/regis/Hobbies/Electronique/Projets/Pinguino/local/trunk/p8/include/pinguino/libraries/usb/picUSB.c	wCount = sizeof(USB_Device_Descriptor);
004a02   0e12     movlw	0x12               	MOVLW	0x12
004a04   0103     movlb	0x3                	BANKSEL	_wCount
004a06   6f2f     movwf	0x2f, 0x1          	MOVWF	_wCount, B
                                           ; removed redundant BANKSEL
004a08   6b30     clrf	0x30, 0x1           	CLRF	(_wCount + 1), B
004a0a   d047     bra	0x4a9a               	BRA	_00118_DS_
                                           _00114_DS_:
                                           ;	.line	113; /home/regis/Hobbies/Electronique/Projets/Pinguino/local/trunk/p8/include/pinguino/libraries/usb/picUSB.c	else if (descriptorType == CONFIGURATION_DESCRIPTOR) {
004a0c   5000     movf	0, 0, 0             	MOVF	r0x00, W
004a0e   0a02     xorlw	0x2                	XORLW	0x02
004a10   e117     bnz	0x4a40               	BNZ	_00111_DS_
                                           ;	.line	117; /home/regis/Hobbies/Electronique/Projets/Pinguino/local/trunk/p8/include/pinguino/libraries/usb/picUSB.c	requestHandled = 1;
004a12   0e01     movlw	0x1                	MOVLW	0x01
004a14   0103     movlb	0x3                	BANKSEL	_requestHandled
004a16   6f38     movwf	0x38, 0x1          	MOVWF	_requestHandled, B
                                           ;	.line	128; /home/regis/Hobbies/Electronique/Projets/Pinguino/local/trunk/p8/include/pinguino/libraries/usb/picUSB.c	outPtr = (byte *)&libconfiguration_descriptor;
004a18   0ece     movlw	0xce               	MOVLW	LOW(_libconfiguration_descriptor)
004a1a   0103     movlb	0x3                	BANKSEL	_outPtr
004a1c   6f26     movwf	0x26, 0x1          	MOVWF	_outPtr, B
004a1e   0e35     movlw	0x35               	MOVLW	HIGH(_libconfiguration_descriptor)
                                           ; removed redundant BANKSEL
004a20   6f27     movwf	0x27, 0x1          	MOVWF	(_outPtr + 1), B
004a22   0e00     movlw	0                  	MOVLW	UPPER(_libconfiguration_descriptor)
                                           ; removed redundant BANKSEL
004a24   6f28     movwf	0x28, 0x1          	MOVWF	(_outPtr + 2), B
                                           ;	.line	130; /home/regis/Hobbies/Electronique/Projets/Pinguino/local/trunk/p8/include/pinguino/libraries/usb/picUSB.c	wCount = libconfiguration_descriptor.Header.wTotalLength;
004a26   0ed0     movlw	0xd0               	MOVLW	LOW(_libconfiguration_descriptor + 2)
004a28   6ef6     movwf	0xf6, 0            	MOVWF	TBLPTRL
004a2a   0e35     movlw	0x35               	MOVLW	HIGH(_libconfiguration_descriptor + 2)
004a2c   6ef7     movwf	0xf7, 0            	MOVWF	TBLPTRH
004a2e   0e00     movlw	0                  	MOVLW	UPPER(_libconfiguration_descriptor + 2)
004a30   6ef8     movwf	0xf8, 0            	MOVWF	TBLPTRU
004a32   0009     tblrd	*+                 	TBLRD*+	
004a34   cff5     movff	0xff5, 0x32f       	MOVFF	TABLAT, _wCount
004a36   f32f
004a38   0009     tblrd	*+                 	TBLRD*+	
004a3a   cff5     movff	0xff5, 0x330       	MOVFF	TABLAT, (_wCount + 1)
004a3c   f330
004a3e   d02d     bra	0x4a9a               	BRA	_00118_DS_
                                           _00111_DS_:
                                           ;	.line	136; /home/regis/Hobbies/Electronique/Projets/Pinguino/local/trunk/p8/include/pinguino/libraries/usb/picUSB.c	else if (descriptorType == STRING_DESCRIPTOR) {
004a40   5000     movf	0, 0, 0             	MOVF	r0x00, W
004a42   0a03     xorlw	0x3                	XORLW	0x03
004a44   e124     bnz	0x4a8e               	BNZ	_00108_DS_
                                           ;	.line	140; /home/regis/Hobbies/Electronique/Projets/Pinguino/local/trunk/p8/include/pinguino/libraries/usb/picUSB.c	requestHandled = 1;
004a46   0e01     movlw	0x1                	MOVLW	0x01
004a48   0103     movlb	0x3                	BANKSEL	_requestHandled
004a4a   6f38     movwf	0x38, 0x1          	MOVWF	_requestHandled, B
                                           ; ;multiply lit val:0x03 by variable r0x01 and store in r0x01
                                           ; ;Unrolled 8 X 8 multiplication
                                           ; ;FIXME: the function does not support result==WREG
                                           ;	.line	141; /home/regis/Hobbies/Electronique/Projets/Pinguino/local/trunk/p8/include/pinguino/libraries/usb/picUSB.c	outPtr = (byte *)&libstring_descriptor[descriptorIndex];
004a4c   5001     movf	0x1, 0, 0           	MOVF	r0x01, W
004a4e   0d03     mullw	0x3                	MULLW	0x03
004a50   cff3     movff	0xff3, 0x1         	MOVFF	PRODL, r0x01
004a52   f001
004a54   0e12     movlw	0x12               	MOVLW	LOW(_libstring_descriptor)
004a56   2401     addwf	0x1, 0, 0          	ADDWF	r0x01, W
004a58   0103     movlb	0x3                	BANKSEL	_outPtr
004a5a   6f26     movwf	0x26, 0x1          	MOVWF	_outPtr, B
                                           ; removed redundant BANKSEL
004a5c   6b27     clrf	0x27, 0x1           	CLRF	(_outPtr + 1), B
004a5e   0e36     movlw	0x36               	MOVLW	HIGH(_libstring_descriptor)
                                           ; removed redundant BANKSEL
004a60   2327     addwfc	0x27, 0x1, 0x1    	ADDWFC	(_outPtr + 1), F, B
                                           ; removed redundant BANKSEL
004a62   6b28     clrf	0x28, 0x1           	CLRF	(_outPtr + 2), B
004a64   0e00     movlw	0                  	MOVLW	UPPER(_libstring_descriptor)
                                           ; removed redundant BANKSEL
004a66   2328     addwfc	0x28, 0x1, 0x1    	ADDWFC	(_outPtr + 2), F, B
                                           ;	.line	142; /home/regis/Hobbies/Electronique/Projets/Pinguino/local/trunk/p8/include/pinguino/libraries/usb/picUSB.c	wCount = *outPtr;
004a68   c326     movff	0x326, 0x1         	MOVFF	_outPtr, r0x01
004a6a   f001
004a6c   c327     movff	0x327, 0x2         	MOVFF	(_outPtr + 1), r0x02
004a6e   f002
004a70   c328     movff	0x328, 0x3         	MOVFF	(_outPtr + 2), r0x03
004a72   f003
004a74   c001     movff	0x1, 0xfe9         	MOVFF	r0x01, FSR0L
004a76   ffe9
004a78   c002     movff	0x2, 0xff3         	MOVFF	r0x02, PRODL
004a7a   fff3
004a7c   5003     movf	0x3, 0, 0           	MOVF	r0x03, W
004a7e   ec29     call	0x52, 0             	CALL	__gptrget1
004a80   f000
004a82   6e01     movwf	0x1, 0             	MOVWF	r0x01
004a84   c001     movff	0x1, 0x32f         	MOVFF	r0x01, _wCount
004a86   f32f
004a88   0103     movlb	0x3                	BANKSEL	(_wCount + 1)
004a8a   6b30     clrf	0x30, 0x1           	CLRF	(_wCount + 1), B
004a8c   d006     bra	0x4a9a               	BRA	_00118_DS_
                                           _00108_DS_:
                                           ;	.line	144; /home/regis/Hobbies/Electronique/Projets/Pinguino/local/trunk/p8/include/pinguino/libraries/usb/picUSB.c	else if (descriptorType == DEVICE_QUALIFIER_DESCRIPTOR) {
004a8e   5000     movf	0, 0, 0             	MOVF	r0x00, W
004a90   0a06     xorlw	0x6                	XORLW	0x06
004a92   e103     bnz	0x4a9a               	BNZ	_00118_DS_
                                           ;	.line	148; /home/regis/Hobbies/Electronique/Projets/Pinguino/local/trunk/p8/include/pinguino/libraries/usb/picUSB.c	requestHandled = 1;
004a94   0e01     movlw	0x1                	MOVLW	0x01
004a96   0103     movlb	0x3                	BANKSEL	_requestHandled
004a98   6f38     movwf	0x38, 0x1          	MOVWF	_requestHandled, B
                                           _00118_DS_:
004a9a   cfe4     movff	0xfe4, 0x3         	MOVFF	PREINC1, r0x03
004a9c   f003
004a9e   cfe4     movff	0xfe4, 0x2         	MOVFF	PREINC1, r0x02
004aa0   f002
004aa2   cfe4     movff	0xfe4, 0x1         	MOVFF	PREINC1, r0x01
004aa4   f001
004aa6   cfe4     movff	0xfe4, 0           	MOVFF	PREINC1, r0x00
004aa8   f000
004aaa   0012     return	0                 	RETURN	
                                           
                                           ; ; Starting pCode block for Ival
                                           	code
                                           _libdevice_descriptor:
0035bc   0112     movlb	0x12               	DB	0x12, 0x01, 0x00, 0x02, 0x02, 0x00, 0x00, 0x40, 0xd8, 0x04, 0xab, 0xfe
0035be   0200     mulwf	0, 0               
0035c0   0002     dw	0x2  ;unknown opcode  
0035c2   4000     rrncf	0, 0, 0            
0035c4   04d8     decf	0xd8, 0, 0          
0035c6   feab     dw	0xfeab  ;unknown opcode 
0035c8   0000     nop                      	DB	0x00, 0x00, 0x00, 0x01, 0x00, 0x01
0035ca   0100     movlb	0                  
0035cc   0100     movlb	0                  
                                           ; ; Starting pCode block for Ival
                                           _libconfiguration_descriptor:
0035ce   0209     mulwf	0x9, 0             	DB	0x09, 0x02, 0x43, 0x00, 0x02, 0x01, 0x00, 0x03, 0x14, 0x09, 0x04, 0x00
0035d0   0043     dw	0x43  ;unknown opcode 
0035d2   0102     movlb	0x2                
0035d4   0300     mulwf	0, 0x1             
0035d6   0914     iorlw	0x14               
0035d8   0004     clrwdt                   
0035da   0100     movlb	0                  	DB	0x00, 0x01, 0x02, 0x02, 0x01, 0x00, 0x05, 0x24, 0x00, 0x10, 0x01, 0x04
0035dc   0202     mulwf	0x2, 0             
0035de   0001     dw	0x1  ;unknown opcode  
0035e0   2405     addwf	0x5, 0, 0          
0035e2   1000     iorwf	0, 0, 0            
0035e4   0401     decf	0x1, 0, 0           
0035e6   0224     mulwf	0x24, 0            	DB	0x24, 0x02, 0x00, 0x05, 0x24, 0x06, 0x00, 0x01, 0x05, 0x24, 0x01, 0x00
0035e8   0500     decf	0, 0, 0x1           
0035ea   0624     decf	0x24, 0x1, 0        
0035ec   0100     movlb	0                  
0035ee   2405     addwf	0x5, 0, 0          
0035f0   0001     dw	0x1  ;unknown opcode  
0035f2   0701     decf	0x1, 0x1, 0x1       	DB	0x01, 0x07, 0x05, 0x82, 0x03, 0x10, 0x00, 0x02, 0x09, 0x04, 0x01, 0x00
0035f4   8205     bsf	0x5, 0x1, 0          
0035f6   1003     iorwf	0x3, 0, 0          
0035f8   0200     mulwf	0, 0               
0035fa   0409     decf	0x9, 0, 0           
0035fc   0001     dw	0x1  ;unknown opcode  
0035fe   0a02     xorlw	0x2                	DB	0x02, 0x0a, 0x00, 0x00, 0x00, 0x07, 0x05, 0x03, 0x02, 0x40, 0x00, 0x00
003600   0000     nop                      
003602   0700     decf	0, 0x1, 0x1         
003604   0305     mulwf	0x5, 0x1           
003606   4002     rrncf	0x2, 0, 0          
003608   0000     nop                      
00360a   0507     decf	0x7, 0, 0x1         	DB	0x07, 0x05, 0x83, 0x02, 0x40, 0x00, 0x00
00360c   0283     mulwf	0x83, 0            
00360e   0040     dw	0x40  ;unknown opcode 
003610   0000     nop                      
                                           ; ; Starting pCode block for Ival
                                           _libstring_descriptor:
003612   0328     mulwf	0x28, 0x1          	DB	0x28, 0x03, 0x50, 0x0c, 0x03, 0x50, 0x0c, 0x03, 0x50, 0x00, 0x00, 0x00
003614   0c50     retlw	0x50               
003616   5003     movf	0x3, 0, 0           
003618   030c     mulwf	0xc, 0x1           
00361a   0050     dw	0x50  ;unknown opcode 
00361c   0000     nop                      
00361e   0000     nop                      	DB	0x00, 0x00, 0x00, 0x00, 0x00, 0x00, 0x00, 0x00, 0x00, 0x00, 0x00, 0x00
003620   0000     nop                      
003622   0000     nop                      
003624   0000     nop                      
003626   0000     nop                      
003628   0000     nop                      
00362a   0000     nop                      	DB	0x00, 0x00, 0x00, 0x00, 0x00, 0x00, 0x00, 0x00, 0x00, 0x00, 0x00, 0x00
00362c   0000     nop                      
00362e   0000     nop                      
003630   0000     nop                      
003632   0000     nop                      
003634   0000     nop                      
003636   0000     nop                      	DB	0x00, 0x00, 0x00, 0x00, 0x00, 0x00, 0x00, 0x00, 0x00, 0x00, 0x00, 0x00
003638   0000     nop                      
00363a   0000     nop                      
00363c   0000     nop                      
00363e   0000     nop                      
003640   0000     nop                      
003642   0000     nop                      	DB	0x00, 0x00, 0x00, 0x00, 0x00, 0x00, 0x00, 0x00, 0x00, 0x00, 0x00, 0x00
003644   0000     nop                      
003646   0000     nop                      
003648   0000     nop                      
00364a   0000     nop                      
00364c   0000     nop                      
00364e   0000     nop                      	DB	0x00, 0x00, 0x00, 0x00, 0x00, 0x00, 0x00, 0x00, 0x00, 0x00, 0x00, 0x00
003650   0000     nop                      
003652   0000     nop                      
003654   0000     nop                      
003656   0000     nop                      
003658   0000     nop                      
00365a   0000     nop                      	DB	0x00, 0x00, 0x00, 0x00, 0x00, 0x00, 0x00, 0x00, 0x00, 0x00, 0x00, 0x00
00365c   0000     nop                      
00365e   0000     nop                      
003660   0000     nop                      
003662   0000     nop                      
003664   0000     nop                      
003666   0000     nop                      	DB	0x00, 0x00, 0x00, 0x00, 0x00, 0x00, 0x00, 0x00, 0x00, 0x00, 0x00, 0x00
003668   0000     nop                      
00366a   0000     nop                      
00366c   0000     nop                      
00366e   0000     nop                      
003670   0000     nop                      
003672   0000     nop                      	DB	0x00, 0x00, 0x00, 0x00, 0x00, 0x00, 0x00, 0x00, 0x00, 0x00, 0x00, 0x00
003674   0000     nop                      
003676   0000     nop                      
003678   0000     nop                      
00367a   0000     nop                      
00367c   0000     nop                      
00367e   0000     nop                      	DB	0x00, 0x00, 0x00, 0x00, 0x00, 0x00, 0x00, 0x00, 0x00, 0x00, 0x00, 0x00
003680   0000     nop                      
003682   0000     nop                      
003684   0000     nop                      
003686   0000     nop                      
003688   0000     nop                      
                                           ; ; Starting pCode block
                                           __str_0:
00368a   6e28     movwf	0x28, 0            	DB	0x28, 0x6e, 0x75, 0x6c, 0x6c, 0x29, 0x00
00368c   6c75     negf	0x75, 0             
00368e   296c     incf	0x6c, 0, 0x1        
003690   0000     nop                      
                                           ; ; Starting pCode block
                                           __str_1:
003692   0d0a     mullw	0xa                	DB	0x0a, 0x0d, 0x00
003694   0000     nop                      
                                           ; ; Starting pCode block
                                           __str_2:
003696   6425     cpfsgt	0x25, 0           	DB	0x25, 0x64, 0x00
003698   0000     nop                      
                                           ; ; Starting pCode block
                                           __str_3:
00369a   7825     btg	0x25, 0x4, 0         	DB	0x25, 0x78, 0x00
00369c   0000     nop                      
                                           ; ; Starting pCode block
                                           __str_4:
00369e   6f25     movwf	0x25, 0x1          	DB	0x25, 0x6f, 0x00
0036a0   0000     nop                      
                                           ; ; Starting pCode block
                                           __str_5:
0036a2   6225     cpfseq	0x25, 0           	DB	0x25, 0x62, 0x00
0036a4   0000     nop                      
                                           ; ; Starting pCode block
                                           __str_6:
0036a6   6325     cpfseq	0x25, 0x1         	DB	0x25, 0x63, 0x00
0036a8   0000     nop                      
                                           ; ; Starting pCode block
                                           __str_7:
0036aa   6c25     negf	0x25, 0             	DB	0x25, 0x6c, 0x78, 0x0d, 0x0a, 0x00
0036ac   0d78     mullw	0x78               
0036ae   000a     tblrd	*-                 
                                           
                                           
                                           ; Statistics:
                                           ; code size:	11858 (0x2e52) bytes ( 9.05%)
                                           ;           	 5929 (0x1729) words
                                           ; udata size:	  695 (0x02b7) bytes (38.78%)
                                           ; access size:	   34 (0x0022) bytes
                                           
                                           
                                           	end
