gplink-0.14.2 #710 (Jun 20 2012)
Copyright (c) 1998-2012 gputils project
Listing File Generated: 9-25-2012  11:07:22
 
 
Address  Value    Disassembly              Source
-------  -----    -----------              ------
                                           ;--------------------------------------------------------
                                           ; File Created by SDCC : free open source ANSI-C Compiler
                                           ; Version 3.2.0 #7941 (Jun 20 2012) (Linux)
                                           ; This file was generated Tue Sep 25 11:07:22 2012
                                           ;--------------------------------------------------------
                                           ; PIC16 port for the Microchip 16-bit core micros
                                           ;--------------------------------------------------------
                                           	list	p=18f26j50
                                           
                                           	radix dec
                                           
                                           ;--------------------------------------------------------
                                           ; public variables in this module
                                           ;--------------------------------------------------------
                                           	global	_ILI9325_writeRegister
                                           	global	_ILI9325_writeData
                                           	global	_ILI9325_write
                                           	global	_ILI9325_readData
                                           	global	_ILI9325_read
                                           	global	_ILI9325_getDevice
                                           	global	_ILI9325_init
                                           	global	_ILI9325_color565
                                           	global	_ILI9325_setColor
                                           	global	_ILI9325_setBackgroundColor
                                           	global	_ILI9325_setCursor
                                           	global	_ILI9325_drawPixel
                                           	global	_ILI9325_readPixel
                                           	global	_ILI9325_setWindow
                                           	global	_ILI9325_clearScreen
                                           	global	_ILI9325_setPortrait
                                           	global	_ILI9325_setLandscape
                                           	global	_ILI9325_getScreenWidth
                                           	global	_ILI9325_getScreenHeight
                                           	global	_ILI9325_scroll
                                           	global	_ILI9325_enterSleep
                                           	global	_ILI9325_exitSleep
                                           	global	_drawPixel
                                           	global	__gie_status_
                                           	global	_ILI9325
                                           	global	_i
                                           	global	_SystemUnlock
                                           	global	_SystemLock
                                           	global	_SystemReset
                                           	global	_ILI9325_getFontWidth
                                           	global	_ILI9325_getFontHeight
                                           	global	_Delayms
                                           	global	_Delayus
                                           	global	_pprintf
                                           	global	_psprintf2
                                           	global	_psprintf
                                           	global	_drawCircle
                                           	global	_fillCircle
                                           	global	_drawLine
                                           	global	_drawBitmap
                                           	global	_ILI9325_test
                                           	global	_ILI9325_delPixel
                                           	global	_ILI9325_clearWindow
                                           	global	_ILI9325_getOrientation
                                           	global	_ILI9325_printChar
                                           	global	_ILI9325_printString
                                           	global	_ILI9325_printf
                                           	global	_ILI9325_drawCircle
                                           	global	_ILI9325_fillCircle
                                           	global	_ILI9325_drawLine
                                           	global	_ILI9325_drawBitmap
                                           	global	_IOsetSpecial
                                           	global	_IOsetDigital
                                           	global	_IOsetRemap
                                           	global	_setup
                                           	global	_loop
                                           	global	_pinguino_main
                                           	global	_high_priority_isr
                                           	global	_low_priority_isr
                                           	global	_font
                                           
                                           ;--------------------------------------------------------
                                           ; extern variables in this module
                                           ;--------------------------------------------------------
                                           	extern	__gptrget3
                                           	extern	__gptrput1
                                           	extern	__gptrput3
                                           	extern	__gptrget1
                                           	extern	__gptrget4
                                           	extern	__gptrget2
                                           	extern	_PPSCONbits
                                           	extern	_UEP0bits
                                           	extern	_UEP1bits
                                           	extern	_UEP2bits
                                           	extern	_UEP3bits
                                           	extern	_UEP4bits
                                           	extern	_UEP5bits
                                           	extern	_UEP6bits
                                           	extern	_UEP7bits
                                           	extern	_UEP8bits
                                           	extern	_UEP9bits
                                           	extern	_UEP10bits
                                           	extern	_UEP11bits
                                           	extern	_UEP12bits
                                           	extern	_UEP13bits
                                           	extern	_UEP14bits
                                           	extern	_UEP15bits
                                           	extern	_UIEbits
                                           	extern	_UEIEbits
                                           	extern	_UADDRbits
                                           	extern	_UCFGbits
                                           	extern	_PADCFG1bits
                                           	extern	_REFOCONbits
                                           	extern	_RTCCALbits
                                           	extern	_RTCCFGbits
                                           	extern	_ODCON3bits
                                           	extern	_ODCON2bits
                                           	extern	_ODCON1bits
                                           	extern	_ANCON0bits
                                           	extern	_ANCON1bits
                                           	extern	_DSWAKELbits
                                           	extern	_DSWAKEHbits
                                           	extern	_DSCONLbits
                                           	extern	_DSCONHbits
                                           	extern	_TCLKCONbits
                                           	extern	_CVRCONbits
                                           	extern	_PMSTATLbits
                                           	extern	_PMSTATHbits
                                           	extern	_PMELbits
                                           	extern	_PMEHbits
                                           	extern	_PMMODELbits
                                           	extern	_PMMODEHbits
                                           	extern	_PMCONLbits
                                           	extern	_PMCONHbits
                                           	extern	_UFRMLbits
                                           	extern	_UFRMHbits
                                           	extern	_UIRbits
                                           	extern	_UEIRbits
                                           	extern	_USTATbits
                                           	extern	_UCONbits
                                           	extern	_PMADDRHbits
                                           	extern	_CMSTATbits
                                           	extern	_CMSTATUSbits
                                           	extern	_SSP2CON2bits
                                           	extern	_SSP2CON1bits
                                           	extern	_SSP2STATbits
                                           	extern	_SSP2ADDbits
                                           	extern	_T4CONbits
                                           	extern	_T3CONbits
                                           	extern	_BAUDCON2bits
                                           	extern	_BAUDCONbits
                                           	extern	_BAUDCON1bits
                                           	extern	_BAUDCTLbits
                                           	extern	_PORTAbits
                                           	extern	_PORTBbits
                                           	extern	_PORTCbits
                                           	extern	_PORTDbits
                                           	extern	_PORTEbits
                                           	extern	_HLVDCONbits
                                           	extern	_DMACON2bits
                                           	extern	_DMACON1bits
                                           	extern	_LATAbits
                                           	extern	_LATBbits
                                           	extern	_LATCbits
                                           	extern	_LATDbits
                                           	extern	_LATEbits
                                           	extern	_ALRMRPTbits
                                           	extern	_ALRMCFGbits
                                           	extern	_TRISAbits
                                           	extern	_TRISBbits
                                           	extern	_TRISCbits
                                           	extern	_TRISDbits
                                           	extern	_TRISEbits
                                           	extern	_T3GCONbits
                                           	extern	_T1GCONbits
                                           	extern	_OSCTUNEbits
                                           	extern	_RCSTA2bits
                                           	extern	_PIE1bits
                                           	extern	_PIR1bits
                                           	extern	_IPR1bits
                                           	extern	_PIE2bits
                                           	extern	_PIR2bits
                                           	extern	_IPR2bits
                                           	extern	_PIE3bits
                                           	extern	_PIR3bits
                                           	extern	_IPR3bits
                                           	extern	_EECON1bits
                                           	extern	_TXSTA2bits
                                           	extern	_RCSTAbits
                                           	extern	_RCSTA1bits
                                           	extern	_TXSTAbits
                                           	extern	_TXSTA1bits
                                           	extern	_CTMUICONbits
                                           	extern	_CTMUCONLbits
                                           	extern	_CTMUCONHbits
                                           	extern	_CCP2CONbits
                                           	extern	_ECCP2CONbits
                                           	extern	_ECCP2DELbits
                                           	extern	_PWM2CONbits
                                           	extern	_ECCP2ASbits
                                           	extern	_PSTR2CONbits
                                           	extern	_CCP1CONbits
                                           	extern	_ECCP1CONbits
                                           	extern	_ECCP1DELbits
                                           	extern	_PWM1CONbits
                                           	extern	_ECCP1ASbits
                                           	extern	_PSTR1CONbits
                                           	extern	_WDTCONbits
                                           	extern	_ADCON1bits
                                           	extern	_ADCON0bits
                                           	extern	_SSP1CON2bits
                                           	extern	_SSPCON2bits
                                           	extern	_SSP1CON1bits
                                           	extern	_SSPCON1bits
                                           	extern	_SSP1STATbits
                                           	extern	_SSPSTATbits
                                           	extern	_SSP1ADDbits
                                           	extern	_SSPADDbits
                                           	extern	_T2CONbits
                                           	extern	_T1CONbits
                                           	extern	_RCONbits
                                           	extern	_CM2CONbits
                                           	extern	_CM2CON1bits
                                           	extern	_CM1CONbits
                                           	extern	_CM1CON1bits
                                           	extern	_OSCCONbits
                                           	extern	_T0CONbits
                                           	extern	_STATUSbits
                                           	extern	_INTCON3bits
                                           	extern	_INTCON2bits
                                           	extern	_INTCONbits
                                           	extern	_STKPTRbits
                                           	extern	_RPOR0
                                           	extern	_RPOR1
                                           	extern	_RPOR2
                                           	extern	_RPOR3
                                           	extern	_RPOR4
                                           	extern	_RPOR5
                                           	extern	_RPOR6
                                           	extern	_RPOR7
                                           	extern	_RPOR8
                                           	extern	_RPOR9
                                           	extern	_RPOR10
                                           	extern	_RPOR11
                                           	extern	_RPOR12
                                           	extern	_RPOR13
                                           	extern	_RPOR17
                                           	extern	_RPOR18
                                           	extern	_RPOR19
                                           	extern	_RPOR20
                                           	extern	_RPOR21
                                           	extern	_RPOR22
                                           	extern	_RPOR23
                                           	extern	_RPOR24
                                           	extern	_RPINR1
                                           	extern	_RPINR2
                                           	extern	_RPINR3
                                           	extern	_RPINR4
                                           	extern	_RPINR6
                                           	extern	_RPINR7
                                           	extern	_RPINR8
                                           	extern	_RPINR12
                                           	extern	_RPINR13
                                           	extern	_RPINR16
                                           	extern	_RPINR17
                                           	extern	_RPINR21
                                           	extern	_RPINR22
                                           	extern	_RPINR23
                                           	extern	_RPINR24
                                           	extern	_PPSCON
                                           	extern	_UEP0
                                           	extern	_UEP1
                                           	extern	_UEP2
                                           	extern	_UEP3
                                           	extern	_UEP4
                                           	extern	_UEP5
                                           	extern	_UEP6
                                           	extern	_UEP7
                                           	extern	_UEP8
                                           	extern	_UEP9
                                           	extern	_UEP10
                                           	extern	_UEP11
                                           	extern	_UEP12
                                           	extern	_UEP13
                                           	extern	_UEP14
                                           	extern	_UEP15
                                           	extern	_UIE
                                           	extern	_UEIE
                                           	extern	_UADDR
                                           	extern	_UCFG
                                           	extern	_PADCFG1
                                           	extern	_REFOCON
                                           	extern	_RTCCAL
                                           	extern	_RTCCFG
                                           	extern	_ODCON3
                                           	extern	_ODCON2
                                           	extern	_ODCON1
                                           	extern	_ANCON0
                                           	extern	_ANCON1
                                           	extern	_DSWAKEL
                                           	extern	_DSWAKEH
                                           	extern	_DSCONL
                                           	extern	_DSCONH
                                           	extern	_DSGPR0
                                           	extern	_DSGPR1
                                           	extern	_TCLKCON
                                           	extern	_CVRCON
                                           	extern	_PMSTATL
                                           	extern	_PMSTATH
                                           	extern	_PMEL
                                           	extern	_PMEH
                                           	extern	_PMDIN2L
                                           	extern	_PMDIN2H
                                           	extern	_PMDOUT2L
                                           	extern	_PMDOUT2H
                                           	extern	_PMMODEL
                                           	extern	_PMMODEH
                                           	extern	_PMCONL
                                           	extern	_PMCONH
                                           	extern	_UFRM
                                           	extern	_UFRML
                                           	extern	_UFRMH
                                           	extern	_UIR
                                           	extern	_UEIR
                                           	extern	_USTAT
                                           	extern	_UCON
                                           	extern	_DMABCH
                                           	extern	_DMABCL
                                           	extern	_RXADDRH
                                           	extern	_RXADDRL
                                           	extern	_TXADDRH
                                           	extern	_TXADDRL
                                           	extern	_PMDIN1L
                                           	extern	_PMDIN1H
                                           	extern	_PMADDRL
                                           	extern	_PMDOUT1L
                                           	extern	_PMADDRH
                                           	extern	_PMDOUT1H
                                           	extern	_CMSTAT
                                           	extern	_CMSTATUS
                                           	extern	_SSP2CON2
                                           	extern	_SSP2CON1
                                           	extern	_SSP2STAT
                                           	extern	_SSP2ADD
                                           	extern	_SSP2BUF
                                           	extern	_T4CON
                                           	extern	_PR4
                                           	extern	_TMR4
                                           	extern	_T3CON
                                           	extern	_TMR3L
                                           	extern	_TMR3H
                                           	extern	_BAUDCON2
                                           	extern	_SPBRGH2
                                           	extern	_BAUDCON
                                           	extern	_BAUDCON1
                                           	extern	_BAUDCTL
                                           	extern	_SPBRGH
                                           	extern	_SPBRGH1
                                           	extern	_PORTA
                                           	extern	_PORTB
                                           	extern	_PORTC
                                           	extern	_PORTD
                                           	extern	_PORTE
                                           	extern	_HLVDCON
                                           	extern	_DMACON2
                                           	extern	_DMACON1
                                           	extern	_LATA
                                           	extern	_LATB
                                           	extern	_LATC
                                           	extern	_LATD
                                           	extern	_LATE
                                           	extern	_ALRMVALL
                                           	extern	_ALRMVALH
                                           	extern	_ALRMRPT
                                           	extern	_ALRMCFG
                                           	extern	_TRISA
                                           	extern	_TRISB
                                           	extern	_TRISC
                                           	extern	_TRISD
                                           	extern	_TRISE
                                           	extern	_T3GCON
                                           	extern	_RTCVALL
                                           	extern	_RTCVALH
                                           	extern	_T1GCON
                                           	extern	_OSCTUNE
                                           	extern	_RCSTA2
                                           	extern	_PIE1
                                           	extern	_PIR1
                                           	extern	_IPR1
                                           	extern	_PIE2
                                           	extern	_PIR2
                                           	extern	_IPR2
                                           	extern	_PIE3
                                           	extern	_PIR3
                                           	extern	_IPR3
                                           	extern	_EECON1
                                           	extern	_EECON2
                                           	extern	_TXSTA2
                                           	extern	_TXREG2
                                           	extern	_RCREG2
                                           	extern	_SPBRG2
                                           	extern	_RCSTA
                                           	extern	_RCSTA1
                                           	extern	_TXSTA
                                           	extern	_TXSTA1
                                           	extern	_TXREG
                                           	extern	_TXREG1
                                           	extern	_RCREG
                                           	extern	_RCREG1
                                           	extern	_SPBRG
                                           	extern	_SPBRG1
                                           	extern	_CTMUICON
                                           	extern	_CTMUCONL
                                           	extern	_CTMUCONH
                                           	extern	_CCP2CON
                                           	extern	_ECCP2CON
                                           	extern	_CCPR2
                                           	extern	_CCPR2L
                                           	extern	_CCPR2H
                                           	extern	_ECCP2DEL
                                           	extern	_PWM2CON
                                           	extern	_ECCP2AS
                                           	extern	_PSTR2CON
                                           	extern	_CCP1CON
                                           	extern	_ECCP1CON
                                           	extern	_CCPR1
                                           	extern	_CCPR1L
                                           	extern	_CCPR1H
                                           	extern	_ECCP1DEL
                                           	extern	_PWM1CON
                                           	extern	_ECCP1AS
                                           	extern	_PSTR1CON
                                           	extern	_WDTCON
                                           	extern	_ADCON1
                                           	extern	_ADCON0
                                           	extern	_ADRES
                                           	extern	_ADRESL
                                           	extern	_ADRESH
                                           	extern	_SSP1CON2
                                           	extern	_SSPCON2
                                           	extern	_SSP1CON1
                                           	extern	_SSPCON1
                                           	extern	_SSP1STAT
                                           	extern	_SSPSTAT
                                           	extern	_SSP1ADD
                                           	extern	_SSPADD
                                           	extern	_SSP1BUF
                                           	extern	_SSPBUF
                                           	extern	_T2CON
                                           	extern	_PR2
                                           	extern	_TMR2
                                           	extern	_T1CON
                                           	extern	_TMR1L
                                           	extern	_TMR1H
                                           	extern	_RCON
                                           	extern	_CM2CON
                                           	extern	_CM2CON1
                                           	extern	_CM1CON
                                           	extern	_CM1CON1
                                           	extern	_OSCCON
                                           	extern	_T0CON
                                           	extern	_TMR0L
                                           	extern	_TMR0H
                                           	extern	_STATUS
                                           	extern	_FSR2L
                                           	extern	_FSR2H
                                           	extern	_PLUSW2
                                           	extern	_PREINC2
                                           	extern	_POSTDEC2
                                           	extern	_POSTINC2
                                           	extern	_INDF2
                                           	extern	_BSR
                                           	extern	_FSR1L
                                           	extern	_FSR1H
                                           	extern	_PLUSW1
                                           	extern	_PREINC1
                                           	extern	_POSTDEC1
                                           	extern	_POSTINC1
                                           	extern	_INDF1
                                           	extern	_WREG
                                           	extern	_FSR0L
                                           	extern	_FSR0H
                                           	extern	_PLUSW0
                                           	extern	_PREINC0
                                           	extern	_POSTDEC0
                                           	extern	_POSTINC0
                                           	extern	_INDF0
                                           	extern	_INTCON3
                                           	extern	_INTCON2
                                           	extern	_INTCON
                                           	extern	_PROD
                                           	extern	_PRODL
                                           	extern	_PRODH
                                           	extern	_TABLAT
                                           	extern	_TBLPTR
                                           	extern	_TBLPTRL
                                           	extern	_TBLPTRH
                                           	extern	_TBLPTRU
                                           	extern	_PC
                                           	extern	_PCL
                                           	extern	_PCLATH
                                           	extern	_PCLATU
                                           	extern	_STKPTR
                                           	extern	_TOS
                                           	extern	_TOSL
                                           	extern	_TOSH
                                           	extern	_TOSU
                                           	extern	_delay10ktcy
                                           	extern	__modulong
                                           	extern	__divulong
                                           	extern	__mulint
                                           
                                           ;--------------------------------------------------------
                                           ;	Equates to used internal registers
                                           ;--------------------------------------------------------
                                           STATUS	equ	0xfd8
                                           PCL	equ	0xff9
                                           PCLATH	equ	0xffa
                                           PCLATU	equ	0xffb
                                           INTCON	equ	0xff2
                                           WREG	equ	0xfe8
                                           BSR	equ	0xfe0
                                           TOSL	equ	0xffd
                                           TOSH	equ	0xffe
                                           TOSU	equ	0xfff
                                           TBLPTRL	equ	0xff6
                                           TBLPTRH	equ	0xff7
                                           TBLPTRU	equ	0xff8
                                           TABLAT	equ	0xff5
                                           FSR0L	equ	0xfe9
                                           FSR0H	equ	0xfea
                                           FSR1L	equ	0xfe1
                                           FSR1H	equ	0xfe2
                                           FSR2L	equ	0xfd9
                                           FSR2H	equ	0xfda
                                           POSTINC1	equ	0xfe6
                                           POSTDEC1	equ	0xfe5
                                           PREINC1	equ	0xfe4
                                           PLUSW1	equ	0xfe3
                                           PLUSW2	equ	0xfdb
                                           PRODL	equ	0xff3
                                           PRODH	equ	0xff4
                                           
                                           
                                           	idata
                                           __gie_status_	db	0x00
                                           _i	db	0x00, 0x00, 0x00, 0x00
                                           
                                           
                                           ; Internal registers
                                           .registers	udata_ovr	0x0000
                                           r0x00	res	1
                                           r0x01	res	1
                                           r0x02	res	1
                                           r0x03	res	1
                                           r0x04	res	1
                                           r0x05	res	1
                                           r0x06	res	1
                                           r0x07	res	1
                                           r0x08	res	1
                                           r0x09	res	1
                                           r0x0a	res	1
                                           r0x0b	res	1
                                           r0x0c	res	1
                                           r0x0d	res	1
                                           r0x0e	res	1
                                           r0x0f	res	1
                                           r0x10	res	1
                                           r0x11	res	1
                                           r0x12	res	1
                                           r0x13	res	1
                                           r0x14	res	1
                                           r0x15	res	1
                                           r0x16	res	1
                                           r0x17	res	1
                                           r0x18	res	1
                                           r0x19	res	1
                                           r0x1a	res	1
                                           r0x1b	res	1
                                           r0x1c	res	1
                                           r0x1d	res	1
                                           r0x1e	res	1
                                           r0x1f	res	1
                                           r0x20	res	1
                                           
                                           udata_main_0	udata
                                           _pputchar	res	3
                                           
                                           udata_main_1	udata
                                           _pprinti_buffer_1_30	res	12
                                           
                                           udata_main_2	udata
                                           _pprintfl_buffer_1_38	res	12
                                           
                                           udata_main_3	udata
                                           _pprintfl_tmp_1_38	res	12
                                           
                                           udata_main_4	udata
                                           _pprintfl_helper_1_38	res	4
                                           
                                           udata_main_5	udata
                                           _pprint_scr_1_52	res	2
                                           
                                           udata_main_6	udata
                                           _psprintf2_out_1_73	res	3
                                           
                                           udata_main_7	udata
                                           _ILI9325_writeData_d_1_109	res	2
                                           
                                           udata_main_8	udata
                                           _ILI9325_readData_d_1_112	res	2
                                           
                                           udata_main_9	udata
                                           _ILI9325	res	29
                                           
                                           udata_main_10	udata
                                           _ILI9325_clearScreen_c_1_139	res	2
                                           
                                           udata_main_11	udata
                                           _ILI9325_clearWindow_c_1_142	res	2
                                           
                                           ;--------------------------------------------------------
                                           ; global & static initialisations
                                           ;--------------------------------------------------------
                                           ; ; Starting pCode block for absolute section
                                           ; ;-----------------------------------------
                                           S_main_ivec_0x1_high_priority_isr	code	0X000C08
                                           ivec_0x1_high_priority_isr:
000c08   ef4c     goto    0x4a98           	GOTO	_high_priority_isr
000c0a   f025
                                           
                                           ; ; Starting pCode block for absolute section
                                           ; ;-----------------------------------------
                                           S_main_ivec_0x2_low_priority_isr	code	0X000C18
                                           ivec_0x2_low_priority_isr:
000c18   ef29     goto    0x4a52           	GOTO	_low_priority_isr
000c1a   f025
                                           
                                           ; I code from now on!
                                           ; ; Starting pCode block
                                           S_main__low_priority_isr	code
                                           _low_priority_isr:
                                           ;	.line	255; /home/regis/Hobbies/Electronique/Projets/Pinguino/svn/branches/x.4/source/main.c	void low_priority_isr(void) __interrupt 2
004a52   cfd8     movff   0xfd8, 0xfe5     	MOVFF	STATUS, POSTDEC1
004a54   ffe5
004a56   cfe0     movff   0xfe0, 0xfe5     	MOVFF	BSR, POSTDEC1
004a58   ffe5
004a5a   6ee5     movwf   0xe5, 0          	MOVWF	POSTDEC1
004a5c   cff3     movff   0xff3, 0xfe5     	MOVFF	PRODL, POSTDEC1
004a5e   ffe5
004a60   cff4     movff   0xff4, 0xfe5     	MOVFF	PRODH, POSTDEC1
004a62   ffe5
004a64   cfe9     movff   0xfe9, 0xfe5     	MOVFF	FSR0L, POSTDEC1
004a66   ffe5
004a68   cfea     movff   0xfea, 0xfe5     	MOVFF	FSR0H, POSTDEC1
004a6a   ffe5
004a6c   cffa     movff   0xffa, 0xfe5     	MOVFF	PCLATH, POSTDEC1
004a6e   ffe5
004a70   cffb     movff   0xffb, 0xfe5     	MOVFF	PCLATU, POSTDEC1
004a72   ffe5
                                           ;	.line	267; /home/regis/Hobbies/Electronique/Projets/Pinguino/svn/branches/x.4/source/main.c	}
004a74   cfe4     movff   0xfe4, 0xffb     	MOVFF	PREINC1, PCLATU
004a76   fffb
004a78   cfe4     movff   0xfe4, 0xffa     	MOVFF	PREINC1, PCLATH
004a7a   fffa
004a7c   cfe4     movff   0xfe4, 0xfea     	MOVFF	PREINC1, FSR0H
004a7e   ffea
004a80   cfe4     movff   0xfe4, 0xfe9     	MOVFF	PREINC1, FSR0L
004a82   ffe9
004a84   cfe4     movff   0xfe4, 0xff4     	MOVFF	PREINC1, PRODH
004a86   fff4
004a88   cfe4     movff   0xfe4, 0xff3     	MOVFF	PREINC1, PRODL
004a8a   fff3
004a8c   50e4     movf    0xe4, 0, 0       	MOVF	PREINC1, W
004a8e   cfe4     movff   0xfe4, 0xfe0     	MOVFF	PREINC1, BSR
004a90   ffe0
004a92   cfe4     movff   0xfe4, 0xfd8     	MOVFF	PREINC1, STATUS
004a94   ffd8
004a96   0010     retfie  0                	RETFIE	
                                           
                                           ; ; Starting pCode block
                                           S_main__high_priority_isr	code
                                           _high_priority_isr:
                                           ;	.line	164; /home/regis/Hobbies/Electronique/Projets/Pinguino/svn/branches/x.4/source/main.c	void high_priority_isr(void) __interrupt 1
004a98   cfd8     movff   0xfd8, 0xfe5     	MOVFF	STATUS, POSTDEC1
004a9a   ffe5
004a9c   cfe0     movff   0xfe0, 0xfe5     	MOVFF	BSR, POSTDEC1
004a9e   ffe5
004aa0   6ee5     movwf   0xe5, 0          	MOVWF	POSTDEC1
004aa2   cff3     movff   0xff3, 0xfe5     	MOVFF	PRODL, POSTDEC1
004aa4   ffe5
004aa6   cff4     movff   0xff4, 0xfe5     	MOVFF	PRODH, POSTDEC1
004aa8   ffe5
004aaa   cfe9     movff   0xfe9, 0xfe5     	MOVFF	FSR0L, POSTDEC1
004aac   ffe5
004aae   cfea     movff   0xfea, 0xfe5     	MOVFF	FSR0H, POSTDEC1
004ab0   ffe5
004ab2   cffa     movff   0xffa, 0xfe5     	MOVFF	PCLATH, POSTDEC1
004ab4   ffe5
004ab6   cffb     movff   0xffb, 0xfe5     	MOVFF	PCLATU, POSTDEC1
004ab8   ffe5
                                           ;	.line	241; /home/regis/Hobbies/Electronique/Projets/Pinguino/svn/branches/x.4/source/main.c	}
004aba   cfe4     movff   0xfe4, 0xffb     	MOVFF	PREINC1, PCLATU
004abc   fffb
004abe   cfe4     movff   0xfe4, 0xffa     	MOVFF	PREINC1, PCLATH
004ac0   fffa
004ac2   cfe4     movff   0xfe4, 0xfea     	MOVFF	PREINC1, FSR0H
004ac4   ffea
004ac6   cfe4     movff   0xfe4, 0xfe9     	MOVFF	PREINC1, FSR0L
004ac8   ffe9
004aca   cfe4     movff   0xfe4, 0xff4     	MOVFF	PREINC1, PRODH
004acc   fff4
004ace   cfe4     movff   0xfe4, 0xff3     	MOVFF	PREINC1, PRODL
004ad0   fff3
004ad2   50e4     movf    0xe4, 0, 0       	MOVF	PREINC1, W
004ad4   cfe4     movff   0xfe4, 0xfe0     	MOVFF	PREINC1, BSR
004ad6   ffe0
004ad8   cfe4     movff   0xfe4, 0xfd8     	MOVFF	PREINC1, STATUS
004ada   ffd8
004adc   0010     retfie  0                	RETFIE	
                                           
                                           ; ; Starting pCode block
                                           S_main__pinguino_main	code
                                           _pinguino_main:
                                           ;	.line	69; /home/regis/Hobbies/Electronique/Projets/Pinguino/svn/branches/x.4/source/main.c	void pinguino_main(void)
004758   c000     movff   0, 0xfe5         	MOVFF	r0x00, POSTDEC1
00475a   ffe5
00475c   c001     movff   0x1, 0xfe5       	MOVFF	r0x01, POSTDEC1
00475e   ffe5
004760   c002     movff   0x2, 0xfe5       	MOVFF	r0x02, POSTDEC1
004762   ffe5
004764   c003     movff   0x3, 0xfe5       	MOVFF	r0x03, POSTDEC1
004766   ffe5
                                           ;	.line	74; /home/regis/Hobbies/Electronique/Projets/Pinguino/svn/branches/x.4/source/main.c	OSCTUNEbits.PLLEN = 1;
004768   8c9b     bsf     0x9b, 0x6, 0     	BSF	_OSCTUNEbits, 6
                                           ;	.line	75; /home/regis/Hobbies/Electronique/Projets/Pinguino/svn/branches/x.4/source/main.c	while(pll_startup_counter--);
00476a   0e58     movlw   0x58             	MOVLW	0x58
00476c   6e00     movwf   0, 0             	MOVWF	r0x00
00476e   0e02     movlw   0x2              	MOVLW	0x02
004770   6e01     movwf   0x1, 0           	MOVWF	r0x01
                                           _01092_DS_:
004772   c000     movff   0, 0x2           	MOVFF	r0x00, r0x02
004774   f002
004776   c001     movff   0x1, 0x3         	MOVFF	r0x01, r0x03
004778   f003
00477a   0eff     movlw   0xff             	MOVLW	0xff
00477c   2600     addwf   0, 0x1, 0        	ADDWF	r0x00, F
00477e   2201     addwfc  0x1, 0x1, 0      	ADDWFC	r0x01, F
004780   5002     movf    0x2, 0, 0        	MOVF	r0x02, W
004782   1003     iorwf   0x3, 0, 0        	IORWF	r0x03, W
004784   e1f6     bnz     0x4772           	BNZ	_01092_DS_
                                           ;	.line	78; /home/regis/Hobbies/Electronique/Projets/Pinguino/svn/branches/x.4/source/main.c	PIE1 = 0;
004786   6a9d     clrf    0x9d, 0          	CLRF	_PIE1
                                           ;	.line	79; /home/regis/Hobbies/Electronique/Projets/Pinguino/svn/branches/x.4/source/main.c	PIE2 = 0;
004788   6aa0     clrf    0xa0, 0          	CLRF	_PIE2
                                           ;	.line	81; /home/regis/Hobbies/Electronique/Projets/Pinguino/svn/branches/x.4/source/main.c	IOsetSpecial();
00478a   ec6c     call    0x4cd8, 0        	CALL	_IOsetSpecial
00478c   f026
                                           ;	.line	82; /home/regis/Hobbies/Electronique/Projets/Pinguino/svn/branches/x.4/source/main.c	IOsetDigital();
00478e   ec06     call    0xc0c, 0         	CALL	_IOsetDigital
004790   f006
                                           ;	.line	83; /home/regis/Hobbies/Electronique/Projets/Pinguino/svn/branches/x.4/source/main.c	IOsetRemap();
004792   ec26     call    0x4c4c, 0        	CALL	_IOsetRemap
004794   f026
                                           ;	.line	143; /home/regis/Hobbies/Electronique/Projets/Pinguino/svn/branches/x.4/source/main.c	setup();
004796   ec62     call    0x4cc4, 0        	CALL	_setup
004798   f026
                                           _01096_DS_:
                                           ;	.line	149; /home/regis/Hobbies/Electronique/Projets/Pinguino/svn/branches/x.4/source/main.c	loop();
00479a   ec12     call    0x4624, 0        	CALL	_loop
00479c   f023
00479e   d7fd     bra     0x479a           	BRA	_01096_DS_
0047a0   cfe4     movff   0xfe4, 0x3       	MOVFF	PREINC1, r0x03
0047a2   f003
0047a4   cfe4     movff   0xfe4, 0x2       	MOVFF	PREINC1, r0x02
0047a6   f002
0047a8   cfe4     movff   0xfe4, 0x1       	MOVFF	PREINC1, r0x01
0047aa   f001
0047ac   cfe4     movff   0xfe4, 0         	MOVFF	PREINC1, r0x00
0047ae   f000
0047b0   0012     return  0                	RETURN	
                                           
                                           ; ; Starting pCode block
                                           S_main__loop	code
                                           _loop:
                                           ;	.line	25; /home/regis/Hobbies/Electronique/Projets/Pinguino/svn/branches/x.4/source/user.c	void loop()
004624   c000     movff   0, 0xfe5         	MOVFF	r0x00, POSTDEC1
004626   ffe5
004628   c001     movff   0x1, 0xfe5       	MOVFF	r0x01, POSTDEC1
00462a   ffe5
00462c   c002     movff   0x2, 0xfe5       	MOVFF	r0x02, POSTDEC1
00462e   ffe5
004630   c003     movff   0x3, 0xfe5       	MOVFF	r0x03, POSTDEC1
004632   ffe5
                                           ;	.line	28; /home/regis/Hobbies/Electronique/Projets/Pinguino/svn/branches/x.4/source/user.c	ILI9325_printf("i=%u \r\n", i++);
004634   ce42     movff   0xe42, 0         	MOVFF	_i, r0x00
004636   f000
004638   ce43     movff   0xe43, 0x1       	MOVFF	(_i + 1), r0x01
00463a   f001
00463c   ce44     movff   0xe44, 0x2       	MOVFF	(_i + 2), r0x02
00463e   f002
004640   ce45     movff   0xe45, 0x3       	MOVFF	(_i + 3), r0x03
004642   f003
004644   010e     movlb   0xe              	BANKSEL	_i
004646   2b42     incf    0x42, 0x1, 0x1   	INCF	_i, F, B
004648   e305     bnc     0x4654           	BNC	_01087_DS_
                                           ; removed redundant BANKSEL
00464a   2b43     incf    0x43, 0x1, 0x1   	INCF	(_i + 1), F, B
00464c   e303     bnc     0x4654           	BNC	_01087_DS_
                                           ; removed redundant BANKSEL
00464e   3f44     incfsz  0x44, 0x1, 0x1   	INCFSZ	(_i + 2), F, B
004650   d001     bra     0x4654           	BRA	_11108_DS_
                                           ; removed redundant BANKSEL
004652   2b45     incf    0x45, 0x1, 0x1   	INCF	(_i + 3), F, B
                                           _11108_DS_:
                                           _01087_DS_:
004654   5003     movf    0x3, 0, 0        	MOVF	r0x03, W
004656   6ee5     movwf   0xe5, 0          	MOVWF	POSTDEC1
004658   5002     movf    0x2, 0, 0        	MOVF	r0x02, W
00465a   6ee5     movwf   0xe5, 0          	MOVWF	POSTDEC1
00465c   5001     movf    0x1, 0, 0        	MOVF	r0x01, W
00465e   6ee5     movwf   0xe5, 0          	MOVWF	POSTDEC1
004660   5000     movf    0, 0, 0          	MOVF	r0x00, W
004662   6ee5     movwf   0xe5, 0          	MOVWF	POSTDEC1
004664   0e00     movlw   0                	MOVLW	UPPER(__str_1)
004666   6ee5     movwf   0xe5, 0          	MOVWF	POSTDEC1
004668   0e18     movlw   0x18             	MOVLW	HIGH(__str_1)
00466a   6ee5     movwf   0xe5, 0          	MOVWF	POSTDEC1
00466c   0e9e     movlw   0x9e             	MOVLW	LOW(__str_1)
00466e   6ee5     movwf   0xe5, 0          	MOVWF	POSTDEC1
004670   ec99     call    0x3b32, 0        	CALL	_ILI9325_printf
004672   f01d
004674   0e07     movlw   0x7              	MOVLW	0x07
004676   26e1     addwf   0xe1, 0x1, 0     	ADDWF	FSR1L, F
                                           ;	.line	32; /home/regis/Hobbies/Electronique/Projets/Pinguino/svn/branches/x.4/source/user.c	Delayms(500);
004678   0e01     movlw   0x1              	MOVLW	0x01
00467a   6ee5     movwf   0xe5, 0          	MOVWF	POSTDEC1
00467c   0ef4     movlw   0xf4             	MOVLW	0xf4
00467e   6ee5     movwf   0xe5, 0          	MOVWF	POSTDEC1
004680   ec33     call    0x4866, 0        	CALL	_Delayms
004682   f024
004684   52e6     movf    0xe6, 0x1, 0     	MOVF	POSTINC1, F
004686   52e6     movf    0xe6, 0x1, 0     	MOVF	POSTINC1, F
004688   cfe4     movff   0xfe4, 0x3       	MOVFF	PREINC1, r0x03
00468a   f003
00468c   cfe4     movff   0xfe4, 0x2       	MOVFF	PREINC1, r0x02
00468e   f002
004690   cfe4     movff   0xfe4, 0x1       	MOVFF	PREINC1, r0x01
004692   f001
004694   cfe4     movff   0xfe4, 0         	MOVFF	PREINC1, r0x00
004696   f000
004698   0012     return  0                	RETURN	
                                           
                                           ; ; Starting pCode block
                                           S_main__setup	code
                                           _setup:
                                           ;	.line	16; /home/regis/Hobbies/Electronique/Projets/Pinguino/svn/branches/x.4/source/user.c	ILI9325_init();
004cc4   ec81     call    0x2502, 0        	CALL	_ILI9325_init
004cc6   f012
004cc8   0012     return  0                	RETURN	
                                           
                                           ; ; Starting pCode block
                                           S_main__IOsetRemap	code
                                           _IOsetRemap:
                                           ;	.line	82; /home/regis/Hobbies/Electronique/Projets/Pinguino/svn/branches/x.4/p8/include/pinguino/core/io.c	SystemUnlock();
004c4c   ec33     call    0x4c66, 0        	CALL	_SystemUnlock
004c4e   f026
004c50   010e     movlb   0xe              	BANKSEL	_PPSCONbits
                                           ;	.line	83; /home/regis/Hobbies/Electronique/Projets/Pinguino/svn/branches/x.4/p8/include/pinguino/core/io.c	PPSCONbits.IOLOCK = 0;			// Turn off PPS Write Protect
004c52   91ff     bcf     0xff, 0, 0x1     	BCF	_PPSCONbits, 0, B
                                           ;	.line	84; /home/regis/Hobbies/Electronique/Projets/Pinguino/svn/branches/x.4/p8/include/pinguino/core/io.c	SystemLock();
004c54   ec5a     call    0x4cb4, 0        	CALL	_SystemLock
004c56   f026
                                           ;	.line	105; /home/regis/Hobbies/Electronique/Projets/Pinguino/svn/branches/x.4/p8/include/pinguino/core/io.c	SystemUnlock();
004c58   ec33     call    0x4c66, 0        	CALL	_SystemUnlock
004c5a   f026
004c5c   010e     movlb   0xe              	BANKSEL	_PPSCONbits
                                           ;	.line	106; /home/regis/Hobbies/Electronique/Projets/Pinguino/svn/branches/x.4/p8/include/pinguino/core/io.c	PPSCONbits.IOLOCK = 1;			// Turn on PPS Write Protect
004c5e   81ff     bsf     0xff, 0, 0x1     	BSF	_PPSCONbits, 0, B
                                           ;	.line	107; /home/regis/Hobbies/Electronique/Projets/Pinguino/svn/branches/x.4/p8/include/pinguino/core/io.c	SystemLock();
004c60   ec5a     call    0x4cb4, 0        	CALL	_SystemLock
004c62   f026
004c64   0012     return  0                	RETURN	
                                           
                                           ; ; Starting pCode block
                                           S_main__IOsetDigital	code
                                           _IOsetDigital:
000c0c   010f     movlb   0xf              	BANKSEL	_ANCON0
                                           ;	.line	48; /home/regis/Hobbies/Electronique/Projets/Pinguino/svn/branches/x.4/p8/include/pinguino/core/io.c	ANCON0 = 0xFF;				// AN0 to AN7  Digital I/O
000c0e   6948     setf    0x48, 0x1        	SETF	_ANCON0, B
                                           ;	.line	49; /home/regis/Hobbies/Electronique/Projets/Pinguino/svn/branches/x.4/p8/include/pinguino/core/io.c	ANCON1 = 0x1F;				// AN8 to AN12 Digital I/O
000c10   0e1f     movlw   0x1f             	MOVLW	0x1f
000c12   010f     movlb   0xf              	BANKSEL	_ANCON1
000c14   6f49     movwf   0x49, 0x1        	MOVWF	_ANCON1, B
000c16   0012     return  0                	RETURN	
                                           
                                           ; ; Starting pCode block
                                           S_main__IOsetSpecial	code
                                           _IOsetSpecial:
                                           ;	.line	38; /home/regis/Hobbies/Electronique/Projets/Pinguino/svn/branches/x.4/p8/include/pinguino/core/io.c	}
004cd8   0012     return  0                	RETURN	
                                           
                                           ; ; Starting pCode block
                                           S_main__ILI9325_drawBitmap	code
                                           _ILI9325_drawBitmap:
                                           ;	.line	971; /home/regis/Hobbies/Electronique/Projets/Pinguino/projets/TFT/ILI9325.c	void ILI9325_drawBitmap(u16 x, u16 y, u16 w, u16 h, u8* bitmap)
003a56   cfd9     movff   0xfd9, 0xfe5     	MOVFF	FSR2L, POSTDEC1
003a58   ffe5
003a5a   cfe1     movff   0xfe1, 0xfd9     	MOVFF	FSR1L, FSR2L
003a5c   ffd9
003a5e   c000     movff   0, 0xfe5         	MOVFF	r0x00, POSTDEC1
003a60   ffe5
003a62   c001     movff   0x1, 0xfe5       	MOVFF	r0x01, POSTDEC1
003a64   ffe5
003a66   c002     movff   0x2, 0xfe5       	MOVFF	r0x02, POSTDEC1
003a68   ffe5
003a6a   c003     movff   0x3, 0xfe5       	MOVFF	r0x03, POSTDEC1
003a6c   ffe5
003a6e   c004     movff   0x4, 0xfe5       	MOVFF	r0x04, POSTDEC1
003a70   ffe5
003a72   c005     movff   0x5, 0xfe5       	MOVFF	r0x05, POSTDEC1
003a74   ffe5
003a76   c006     movff   0x6, 0xfe5       	MOVFF	r0x06, POSTDEC1
003a78   ffe5
003a7a   c007     movff   0x7, 0xfe5       	MOVFF	r0x07, POSTDEC1
003a7c   ffe5
003a7e   c008     movff   0x8, 0xfe5       	MOVFF	r0x08, POSTDEC1
003a80   ffe5
003a82   c009     movff   0x9, 0xfe5       	MOVFF	r0x09, POSTDEC1
003a84   ffe5
003a86   c00a     movff   0xa, 0xfe5       	MOVFF	r0x0a, POSTDEC1
003a88   ffe5
003a8a   0e02     movlw   0x2              	MOVLW	0x02
003a8c   cfdb     movff   0xfdb, 0         	MOVFF	PLUSW2, r0x00
003a8e   f000
003a90   0e03     movlw   0x3              	MOVLW	0x03
003a92   cfdb     movff   0xfdb, 0x1       	MOVFF	PLUSW2, r0x01
003a94   f001
003a96   0e04     movlw   0x4              	MOVLW	0x04
003a98   cfdb     movff   0xfdb, 0x2       	MOVFF	PLUSW2, r0x02
003a9a   f002
003a9c   0e05     movlw   0x5              	MOVLW	0x05
003a9e   cfdb     movff   0xfdb, 0x3       	MOVFF	PLUSW2, r0x03
003aa0   f003
003aa2   0e06     movlw   0x6              	MOVLW	0x06
003aa4   cfdb     movff   0xfdb, 0x4       	MOVFF	PLUSW2, r0x04
003aa6   f004
003aa8   0e07     movlw   0x7              	MOVLW	0x07
003aaa   cfdb     movff   0xfdb, 0x5       	MOVFF	PLUSW2, r0x05
003aac   f005
003aae   0e08     movlw   0x8              	MOVLW	0x08
003ab0   cfdb     movff   0xfdb, 0x6       	MOVFF	PLUSW2, r0x06
003ab2   f006
003ab4   0e09     movlw   0x9              	MOVLW	0x09
003ab6   cfdb     movff   0xfdb, 0x7       	MOVFF	PLUSW2, r0x07
003ab8   f007
003aba   0e0a     movlw   0xa              	MOVLW	0x0a
003abc   cfdb     movff   0xfdb, 0x8       	MOVFF	PLUSW2, r0x08
003abe   f008
003ac0   0e0b     movlw   0xb              	MOVLW	0x0b
003ac2   cfdb     movff   0xfdb, 0x9       	MOVFF	PLUSW2, r0x09
003ac4   f009
003ac6   0e0c     movlw   0xc              	MOVLW	0x0c
003ac8   cfdb     movff   0xfdb, 0xa       	MOVFF	PLUSW2, r0x0a
003aca   f00a
                                           ;	.line	973; /home/regis/Hobbies/Electronique/Projets/Pinguino/projets/TFT/ILI9325.c	drawBitmap(x, y, w, h, bitmap);
003acc   500a     movf    0xa, 0, 0        	MOVF	r0x0a, W
003ace   6ee5     movwf   0xe5, 0          	MOVWF	POSTDEC1
003ad0   5009     movf    0x9, 0, 0        	MOVF	r0x09, W
003ad2   6ee5     movwf   0xe5, 0          	MOVWF	POSTDEC1
003ad4   5008     movf    0x8, 0, 0        	MOVF	r0x08, W
003ad6   6ee5     movwf   0xe5, 0          	MOVWF	POSTDEC1
003ad8   5007     movf    0x7, 0, 0        	MOVF	r0x07, W
003ada   6ee5     movwf   0xe5, 0          	MOVWF	POSTDEC1
003adc   5006     movf    0x6, 0, 0        	MOVF	r0x06, W
003ade   6ee5     movwf   0xe5, 0          	MOVWF	POSTDEC1
003ae0   5005     movf    0x5, 0, 0        	MOVF	r0x05, W
003ae2   6ee5     movwf   0xe5, 0          	MOVWF	POSTDEC1
003ae4   5004     movf    0x4, 0, 0        	MOVF	r0x04, W
003ae6   6ee5     movwf   0xe5, 0          	MOVWF	POSTDEC1
003ae8   5003     movf    0x3, 0, 0        	MOVF	r0x03, W
003aea   6ee5     movwf   0xe5, 0          	MOVWF	POSTDEC1
003aec   5002     movf    0x2, 0, 0        	MOVF	r0x02, W
003aee   6ee5     movwf   0xe5, 0          	MOVWF	POSTDEC1
003af0   5001     movf    0x1, 0, 0        	MOVF	r0x01, W
003af2   6ee5     movwf   0xe5, 0          	MOVWF	POSTDEC1
003af4   5000     movf    0, 0, 0          	MOVF	r0x00, W
003af6   6ee5     movwf   0xe5, 0          	MOVWF	POSTDEC1
003af8   ec36     call    0x2a6c, 0        	CALL	_drawBitmap
003afa   f015
003afc   0e0b     movlw   0xb              	MOVLW	0x0b
003afe   26e1     addwf   0xe1, 0x1, 0     	ADDWF	FSR1L, F
003b00   cfe4     movff   0xfe4, 0xa       	MOVFF	PREINC1, r0x0a
003b02   f00a
003b04   cfe4     movff   0xfe4, 0x9       	MOVFF	PREINC1, r0x09
003b06   f009
003b08   cfe4     movff   0xfe4, 0x8       	MOVFF	PREINC1, r0x08
003b0a   f008
003b0c   cfe4     movff   0xfe4, 0x7       	MOVFF	PREINC1, r0x07
003b0e   f007
003b10   cfe4     movff   0xfe4, 0x6       	MOVFF	PREINC1, r0x06
003b12   f006
003b14   cfe4     movff   0xfe4, 0x5       	MOVFF	PREINC1, r0x05
003b16   f005
003b18   cfe4     movff   0xfe4, 0x4       	MOVFF	PREINC1, r0x04
003b1a   f004
003b1c   cfe4     movff   0xfe4, 0x3       	MOVFF	PREINC1, r0x03
003b1e   f003
003b20   cfe4     movff   0xfe4, 0x2       	MOVFF	PREINC1, r0x02
003b22   f002
003b24   cfe4     movff   0xfe4, 0x1       	MOVFF	PREINC1, r0x01
003b26   f001
003b28   cfe4     movff   0xfe4, 0         	MOVFF	PREINC1, r0x00
003b2a   f000
003b2c   cfe4     movff   0xfe4, 0xfd9     	MOVFF	PREINC1, FSR2L
003b2e   ffd9
003b30   0012     return  0                	RETURN	
                                           
                                           ; ; Starting pCode block
                                           S_main__ILI9325_drawLine	code
                                           _ILI9325_drawLine:
                                           ;	.line	966; /home/regis/Hobbies/Electronique/Projets/Pinguino/projets/TFT/ILI9325.c	void ILI9325_drawLine(u16 x0, u16 y0, u16 x1, u16 y1)
003d7c   cfd9     movff   0xfd9, 0xfe5     	MOVFF	FSR2L, POSTDEC1
003d7e   ffe5
003d80   cfe1     movff   0xfe1, 0xfd9     	MOVFF	FSR1L, FSR2L
003d82   ffd9
003d84   c000     movff   0, 0xfe5         	MOVFF	r0x00, POSTDEC1
003d86   ffe5
003d88   c001     movff   0x1, 0xfe5       	MOVFF	r0x01, POSTDEC1
003d8a   ffe5
003d8c   c002     movff   0x2, 0xfe5       	MOVFF	r0x02, POSTDEC1
003d8e   ffe5
003d90   c003     movff   0x3, 0xfe5       	MOVFF	r0x03, POSTDEC1
003d92   ffe5
003d94   c004     movff   0x4, 0xfe5       	MOVFF	r0x04, POSTDEC1
003d96   ffe5
003d98   c005     movff   0x5, 0xfe5       	MOVFF	r0x05, POSTDEC1
003d9a   ffe5
003d9c   c006     movff   0x6, 0xfe5       	MOVFF	r0x06, POSTDEC1
003d9e   ffe5
003da0   c007     movff   0x7, 0xfe5       	MOVFF	r0x07, POSTDEC1
003da2   ffe5
003da4   0e02     movlw   0x2              	MOVLW	0x02
003da6   cfdb     movff   0xfdb, 0         	MOVFF	PLUSW2, r0x00
003da8   f000
003daa   0e03     movlw   0x3              	MOVLW	0x03
003dac   cfdb     movff   0xfdb, 0x1       	MOVFF	PLUSW2, r0x01
003dae   f001
003db0   0e04     movlw   0x4              	MOVLW	0x04
003db2   cfdb     movff   0xfdb, 0x2       	MOVFF	PLUSW2, r0x02
003db4   f002
003db6   0e05     movlw   0x5              	MOVLW	0x05
003db8   cfdb     movff   0xfdb, 0x3       	MOVFF	PLUSW2, r0x03
003dba   f003
003dbc   0e06     movlw   0x6              	MOVLW	0x06
003dbe   cfdb     movff   0xfdb, 0x4       	MOVFF	PLUSW2, r0x04
003dc0   f004
003dc2   0e07     movlw   0x7              	MOVLW	0x07
003dc4   cfdb     movff   0xfdb, 0x5       	MOVFF	PLUSW2, r0x05
003dc6   f005
003dc8   0e08     movlw   0x8              	MOVLW	0x08
003dca   cfdb     movff   0xfdb, 0x6       	MOVFF	PLUSW2, r0x06
003dcc   f006
003dce   0e09     movlw   0x9              	MOVLW	0x09
003dd0   cfdb     movff   0xfdb, 0x7       	MOVFF	PLUSW2, r0x07
003dd2   f007
                                           ;	.line	968; /home/regis/Hobbies/Electronique/Projets/Pinguino/projets/TFT/ILI9325.c	drawLine(x0, y0, x1, y1);
003dd4   5007     movf    0x7, 0, 0        	MOVF	r0x07, W
003dd6   6ee5     movwf   0xe5, 0          	MOVWF	POSTDEC1
003dd8   5006     movf    0x6, 0, 0        	MOVF	r0x06, W
003dda   6ee5     movwf   0xe5, 0          	MOVWF	POSTDEC1
003ddc   5005     movf    0x5, 0, 0        	MOVF	r0x05, W
003dde   6ee5     movwf   0xe5, 0          	MOVWF	POSTDEC1
003de0   5004     movf    0x4, 0, 0        	MOVF	r0x04, W
003de2   6ee5     movwf   0xe5, 0          	MOVWF	POSTDEC1
003de4   5003     movf    0x3, 0, 0        	MOVF	r0x03, W
003de6   6ee5     movwf   0xe5, 0          	MOVWF	POSTDEC1
003de8   5002     movf    0x2, 0, 0        	MOVF	r0x02, W
003dea   6ee5     movwf   0xe5, 0          	MOVWF	POSTDEC1
003dec   5001     movf    0x1, 0, 0        	MOVF	r0x01, W
003dee   6ee5     movwf   0xe5, 0          	MOVWF	POSTDEC1
003df0   5000     movf    0, 0, 0          	MOVF	r0x00, W
003df2   6ee5     movwf   0xe5, 0          	MOVWF	POSTDEC1
003df4   ecf2     call    0x27e4, 0        	CALL	_drawLine
003df6   f013
003df8   0e08     movlw   0x8              	MOVLW	0x08
003dfa   26e1     addwf   0xe1, 0x1, 0     	ADDWF	FSR1L, F
003dfc   cfe4     movff   0xfe4, 0x7       	MOVFF	PREINC1, r0x07
003dfe   f007
003e00   cfe4     movff   0xfe4, 0x6       	MOVFF	PREINC1, r0x06
003e02   f006
003e04   cfe4     movff   0xfe4, 0x5       	MOVFF	PREINC1, r0x05
003e06   f005
003e08   cfe4     movff   0xfe4, 0x4       	MOVFF	PREINC1, r0x04
003e0a   f004
003e0c   cfe4     movff   0xfe4, 0x3       	MOVFF	PREINC1, r0x03
003e0e   f003
003e10   cfe4     movff   0xfe4, 0x2       	MOVFF	PREINC1, r0x02
003e12   f002
003e14   cfe4     movff   0xfe4, 0x1       	MOVFF	PREINC1, r0x01
003e16   f001
003e18   cfe4     movff   0xfe4, 0         	MOVFF	PREINC1, r0x00
003e1a   f000
003e1c   cfe4     movff   0xfe4, 0xfd9     	MOVFF	PREINC1, FSR2L
003e1e   ffd9
003e20   0012     return  0                	RETURN	
                                           
                                           ; ; Starting pCode block
                                           S_main__ILI9325_fillCircle	code
                                           _ILI9325_fillCircle:
                                           ;	.line	961; /home/regis/Hobbies/Electronique/Projets/Pinguino/projets/TFT/ILI9325.c	void ILI9325_fillCircle(u16 x, u16 y, u16 radius)
004428   cfd9     movff   0xfd9, 0xfe5     	MOVFF	FSR2L, POSTDEC1
00442a   ffe5
00442c   cfe1     movff   0xfe1, 0xfd9     	MOVFF	FSR1L, FSR2L
00442e   ffd9
004430   c000     movff   0, 0xfe5         	MOVFF	r0x00, POSTDEC1
004432   ffe5
004434   c001     movff   0x1, 0xfe5       	MOVFF	r0x01, POSTDEC1
004436   ffe5
004438   c002     movff   0x2, 0xfe5       	MOVFF	r0x02, POSTDEC1
00443a   ffe5
00443c   c003     movff   0x3, 0xfe5       	MOVFF	r0x03, POSTDEC1
00443e   ffe5
004440   c004     movff   0x4, 0xfe5       	MOVFF	r0x04, POSTDEC1
004442   ffe5
004444   c005     movff   0x5, 0xfe5       	MOVFF	r0x05, POSTDEC1
004446   ffe5
004448   0e02     movlw   0x2              	MOVLW	0x02
00444a   cfdb     movff   0xfdb, 0         	MOVFF	PLUSW2, r0x00
00444c   f000
00444e   0e03     movlw   0x3              	MOVLW	0x03
004450   cfdb     movff   0xfdb, 0x1       	MOVFF	PLUSW2, r0x01
004452   f001
004454   0e04     movlw   0x4              	MOVLW	0x04
004456   cfdb     movff   0xfdb, 0x2       	MOVFF	PLUSW2, r0x02
004458   f002
00445a   0e05     movlw   0x5              	MOVLW	0x05
00445c   cfdb     movff   0xfdb, 0x3       	MOVFF	PLUSW2, r0x03
00445e   f003
004460   0e06     movlw   0x6              	MOVLW	0x06
004462   cfdb     movff   0xfdb, 0x4       	MOVFF	PLUSW2, r0x04
004464   f004
004466   0e07     movlw   0x7              	MOVLW	0x07
004468   cfdb     movff   0xfdb, 0x5       	MOVFF	PLUSW2, r0x05
00446a   f005
                                           ;	.line	963; /home/regis/Hobbies/Electronique/Projets/Pinguino/projets/TFT/ILI9325.c	fillCircle(x, y, radius);
00446c   5005     movf    0x5, 0, 0        	MOVF	r0x05, W
00446e   6ee5     movwf   0xe5, 0          	MOVWF	POSTDEC1
004470   5004     movf    0x4, 0, 0        	MOVF	r0x04, W
004472   6ee5     movwf   0xe5, 0          	MOVWF	POSTDEC1
004474   5003     movf    0x3, 0, 0        	MOVF	r0x03, W
004476   6ee5     movwf   0xe5, 0          	MOVWF	POSTDEC1
004478   5002     movf    0x2, 0, 0        	MOVF	r0x02, W
00447a   6ee5     movwf   0xe5, 0          	MOVWF	POSTDEC1
00447c   5001     movf    0x1, 0, 0        	MOVF	r0x01, W
00447e   6ee5     movwf   0xe5, 0          	MOVWF	POSTDEC1
004480   5000     movf    0, 0, 0          	MOVF	r0x00, W
004482   6ee5     movwf   0xe5, 0          	MOVWF	POSTDEC1
004484   ec19     call    0x2c32, 0        	CALL	_fillCircle
004486   f016
004488   0e06     movlw   0x6              	MOVLW	0x06
00448a   26e1     addwf   0xe1, 0x1, 0     	ADDWF	FSR1L, F
00448c   cfe4     movff   0xfe4, 0x5       	MOVFF	PREINC1, r0x05
00448e   f005
004490   cfe4     movff   0xfe4, 0x4       	MOVFF	PREINC1, r0x04
004492   f004
004494   cfe4     movff   0xfe4, 0x3       	MOVFF	PREINC1, r0x03
004496   f003
004498   cfe4     movff   0xfe4, 0x2       	MOVFF	PREINC1, r0x02
00449a   f002
00449c   cfe4     movff   0xfe4, 0x1       	MOVFF	PREINC1, r0x01
00449e   f001
0044a0   cfe4     movff   0xfe4, 0         	MOVFF	PREINC1, r0x00
0044a2   f000
0044a4   cfe4     movff   0xfe4, 0xfd9     	MOVFF	PREINC1, FSR2L
0044a6   ffd9
0044a8   0012     return  0                	RETURN	
                                           
                                           ; ; Starting pCode block
                                           S_main__ILI9325_drawCircle	code
                                           _ILI9325_drawCircle:
                                           ;	.line	956; /home/regis/Hobbies/Electronique/Projets/Pinguino/projets/TFT/ILI9325.c	void ILI9325_drawCircle(u16 x, u16 y, u16 radius)
0044aa   cfd9     movff   0xfd9, 0xfe5     	MOVFF	FSR2L, POSTDEC1
0044ac   ffe5
0044ae   cfe1     movff   0xfe1, 0xfd9     	MOVFF	FSR1L, FSR2L
0044b0   ffd9
0044b2   c000     movff   0, 0xfe5         	MOVFF	r0x00, POSTDEC1
0044b4   ffe5
0044b6   c001     movff   0x1, 0xfe5       	MOVFF	r0x01, POSTDEC1
0044b8   ffe5
0044ba   c002     movff   0x2, 0xfe5       	MOVFF	r0x02, POSTDEC1
0044bc   ffe5
0044be   c003     movff   0x3, 0xfe5       	MOVFF	r0x03, POSTDEC1
0044c0   ffe5
0044c2   c004     movff   0x4, 0xfe5       	MOVFF	r0x04, POSTDEC1
0044c4   ffe5
0044c6   c005     movff   0x5, 0xfe5       	MOVFF	r0x05, POSTDEC1
0044c8   ffe5
0044ca   0e02     movlw   0x2              	MOVLW	0x02
0044cc   cfdb     movff   0xfdb, 0         	MOVFF	PLUSW2, r0x00
0044ce   f000
0044d0   0e03     movlw   0x3              	MOVLW	0x03
0044d2   cfdb     movff   0xfdb, 0x1       	MOVFF	PLUSW2, r0x01
0044d4   f001
0044d6   0e04     movlw   0x4              	MOVLW	0x04
0044d8   cfdb     movff   0xfdb, 0x2       	MOVFF	PLUSW2, r0x02
0044da   f002
0044dc   0e05     movlw   0x5              	MOVLW	0x05
0044de   cfdb     movff   0xfdb, 0x3       	MOVFF	PLUSW2, r0x03
0044e0   f003
0044e2   0e06     movlw   0x6              	MOVLW	0x06
0044e4   cfdb     movff   0xfdb, 0x4       	MOVFF	PLUSW2, r0x04
0044e6   f004
0044e8   0e07     movlw   0x7              	MOVLW	0x07
0044ea   cfdb     movff   0xfdb, 0x5       	MOVFF	PLUSW2, r0x05
0044ec   f005
                                           ;	.line	958; /home/regis/Hobbies/Electronique/Projets/Pinguino/projets/TFT/ILI9325.c	drawCircle(x, y, radius);
0044ee   5005     movf    0x5, 0, 0        	MOVF	r0x05, W
0044f0   6ee5     movwf   0xe5, 0          	MOVWF	POSTDEC1
0044f2   5004     movf    0x4, 0, 0        	MOVF	r0x04, W
0044f4   6ee5     movwf   0xe5, 0          	MOVWF	POSTDEC1
0044f6   5003     movf    0x3, 0, 0        	MOVF	r0x03, W
0044f8   6ee5     movwf   0xe5, 0          	MOVWF	POSTDEC1
0044fa   5002     movf    0x2, 0, 0        	MOVF	r0x02, W
0044fc   6ee5     movwf   0xe5, 0          	MOVWF	POSTDEC1
0044fe   5001     movf    0x1, 0, 0        	MOVF	r0x01, W
004500   6ee5     movwf   0xe5, 0          	MOVWF	POSTDEC1
004502   5000     movf    0, 0, 0          	MOVF	r0x00, W
004504   6ee5     movwf   0xe5, 0          	MOVWF	POSTDEC1
004506   ecf2     call    0x21e4, 0        	CALL	_drawCircle
004508   f010
00450a   0e06     movlw   0x6              	MOVLW	0x06
00450c   26e1     addwf   0xe1, 0x1, 0     	ADDWF	FSR1L, F
00450e   cfe4     movff   0xfe4, 0x5       	MOVFF	PREINC1, r0x05
004510   f005
004512   cfe4     movff   0xfe4, 0x4       	MOVFF	PREINC1, r0x04
004514   f004
004516   cfe4     movff   0xfe4, 0x3       	MOVFF	PREINC1, r0x03
004518   f003
00451a   cfe4     movff   0xfe4, 0x2       	MOVFF	PREINC1, r0x02
00451c   f002
00451e   cfe4     movff   0xfe4, 0x1       	MOVFF	PREINC1, r0x01
004520   f001
004522   cfe4     movff   0xfe4, 0         	MOVFF	PREINC1, r0x00
004524   f000
004526   cfe4     movff   0xfe4, 0xfd9     	MOVFF	PREINC1, FSR2L
004528   ffd9
00452a   0012     return  0                	RETURN	
                                           
                                           ; ; Starting pCode block
                                           S_main__drawPixel	code
                                           _drawPixel:
                                           ;	.line	951; /home/regis/Hobbies/Electronique/Projets/Pinguino/projets/TFT/ILI9325.c	void drawPixel(u16 x, u16 y)
0046fa   cfd9     movff   0xfd9, 0xfe5     	MOVFF	FSR2L, POSTDEC1
0046fc   ffe5
0046fe   cfe1     movff   0xfe1, 0xfd9     	MOVFF	FSR1L, FSR2L
004700   ffd9
004702   c000     movff   0, 0xfe5         	MOVFF	r0x00, POSTDEC1
004704   ffe5
004706   c001     movff   0x1, 0xfe5       	MOVFF	r0x01, POSTDEC1
004708   ffe5
00470a   c002     movff   0x2, 0xfe5       	MOVFF	r0x02, POSTDEC1
00470c   ffe5
00470e   c003     movff   0x3, 0xfe5       	MOVFF	r0x03, POSTDEC1
004710   ffe5
004712   0e02     movlw   0x2              	MOVLW	0x02
004714   cfdb     movff   0xfdb, 0         	MOVFF	PLUSW2, r0x00
004716   f000
004718   0e03     movlw   0x3              	MOVLW	0x03
00471a   cfdb     movff   0xfdb, 0x1       	MOVFF	PLUSW2, r0x01
00471c   f001
00471e   0e04     movlw   0x4              	MOVLW	0x04
004720   cfdb     movff   0xfdb, 0x2       	MOVFF	PLUSW2, r0x02
004722   f002
004724   0e05     movlw   0x5              	MOVLW	0x05
004726   cfdb     movff   0xfdb, 0x3       	MOVFF	PLUSW2, r0x03
004728   f003
                                           ;	.line	953; /home/regis/Hobbies/Electronique/Projets/Pinguino/projets/TFT/ILI9325.c	ILI9325_drawPixel(x, y);
00472a   5003     movf    0x3, 0, 0        	MOVF	r0x03, W
00472c   6ee5     movwf   0xe5, 0          	MOVWF	POSTDEC1
00472e   5002     movf    0x2, 0, 0        	MOVF	r0x02, W
004730   6ee5     movwf   0xe5, 0          	MOVWF	POSTDEC1
004732   5001     movf    0x1, 0, 0        	MOVF	r0x01, W
004734   6ee5     movwf   0xe5, 0          	MOVWF	POSTDEC1
004736   5000     movf    0, 0, 0          	MOVF	r0x00, W
004738   6ee5     movwf   0xe5, 0          	MOVWF	POSTDEC1
00473a   ec82     call    0x4304, 0        	CALL	_ILI9325_drawPixel
00473c   f021
00473e   0e04     movlw   0x4              	MOVLW	0x04
004740   26e1     addwf   0xe1, 0x1, 0     	ADDWF	FSR1L, F
004742   cfe4     movff   0xfe4, 0x3       	MOVFF	PREINC1, r0x03
004744   f003
004746   cfe4     movff   0xfe4, 0x2       	MOVFF	PREINC1, r0x02
004748   f002
00474a   cfe4     movff   0xfe4, 0x1       	MOVFF	PREINC1, r0x01
00474c   f001
00474e   cfe4     movff   0xfe4, 0         	MOVFF	PREINC1, r0x00
004750   f000
004752   cfe4     movff   0xfe4, 0xfd9     	MOVFF	PREINC1, FSR2L
004754   ffd9
004756   0012     return  0                	RETURN	
                                           
                                           ; ; Starting pCode block
                                           S_main__ILI9325_exitSleep	code
                                           _ILI9325_exitSleep:
                                           ;	.line	927; /home/regis/Hobbies/Electronique/Projets/Pinguino/projets/TFT/ILI9325.c	ILI9325_write(PowerControl1,0x0000);// SAP, BT[3:0], AP, DSTB, SLP, STB
003968   6ae5     clrf    0xe5, 0          	CLRF	POSTDEC1
00396a   6ae5     clrf    0xe5, 0          	CLRF	POSTDEC1
00396c   0e10     movlw   0x10             	MOVLW	0x10
00396e   6ee5     movwf   0xe5, 0          	MOVWF	POSTDEC1
003970   ec88     call    0x4910, 0        	CALL	_ILI9325_write
003972   f024
003974   0e03     movlw   0x3              	MOVLW	0x03
003976   26e1     addwf   0xe1, 0x1, 0     	ADDWF	FSR1L, F
                                           ;	.line	928; /home/regis/Hobbies/Electronique/Projets/Pinguino/projets/TFT/ILI9325.c	ILI9325_write(PowerControl2,0x0007);//DC1[2:0], DC0[2:0], VC[2:0]
003978   6ae5     clrf    0xe5, 0          	CLRF	POSTDEC1
00397a   0e07     movlw   0x7              	MOVLW	0x07
00397c   6ee5     movwf   0xe5, 0          	MOVWF	POSTDEC1
00397e   0e11     movlw   0x11             	MOVLW	0x11
003980   6ee5     movwf   0xe5, 0          	MOVWF	POSTDEC1
003982   ec88     call    0x4910, 0        	CALL	_ILI9325_write
003984   f024
003986   0e03     movlw   0x3              	MOVLW	0x03
003988   26e1     addwf   0xe1, 0x1, 0     	ADDWF	FSR1L, F
                                           ;	.line	929; /home/regis/Hobbies/Electronique/Projets/Pinguino/projets/TFT/ILI9325.c	ILI9325_write(PowerControl3,0x0000);//VREG1OUT voltage
00398a   6ae5     clrf    0xe5, 0          	CLRF	POSTDEC1
00398c   6ae5     clrf    0xe5, 0          	CLRF	POSTDEC1
00398e   0e12     movlw   0x12             	MOVLW	0x12
003990   6ee5     movwf   0xe5, 0          	MOVWF	POSTDEC1
003992   ec88     call    0x4910, 0        	CALL	_ILI9325_write
003994   f024
003996   0e03     movlw   0x3              	MOVLW	0x03
003998   26e1     addwf   0xe1, 0x1, 0     	ADDWF	FSR1L, F
                                           ;	.line	930; /home/regis/Hobbies/Electronique/Projets/Pinguino/projets/TFT/ILI9325.c	ILI9325_write(PowerControl4,0x0000); //VDV[4:0] for VCOM amplitude
00399a   6ae5     clrf    0xe5, 0          	CLRF	POSTDEC1
00399c   6ae5     clrf    0xe5, 0          	CLRF	POSTDEC1
00399e   0e13     movlw   0x13             	MOVLW	0x13
0039a0   6ee5     movwf   0xe5, 0          	MOVWF	POSTDEC1
0039a2   ec88     call    0x4910, 0        	CALL	_ILI9325_write
0039a4   f024
0039a6   0e03     movlw   0x3              	MOVLW	0x03
0039a8   26e1     addwf   0xe1, 0x1, 0     	ADDWF	FSR1L, F
                                           ;	.line	931; /home/regis/Hobbies/Electronique/Projets/Pinguino/projets/TFT/ILI9325.c	Delayms(200);
0039aa   6ae5     clrf    0xe5, 0          	CLRF	POSTDEC1
0039ac   0ec8     movlw   0xc8             	MOVLW	0xc8
0039ae   6ee5     movwf   0xe5, 0          	MOVWF	POSTDEC1
0039b0   ec33     call    0x4866, 0        	CALL	_Delayms
0039b2   f024
0039b4   52e6     movf    0xe6, 0x1, 0     	MOVF	POSTINC1, F
0039b6   52e6     movf    0xe6, 0x1, 0     	MOVF	POSTINC1, F
                                           ;	.line	932; /home/regis/Hobbies/Electronique/Projets/Pinguino/projets/TFT/ILI9325.c	ILI9325_write(PowerControl1,0x1490);//SAP, BT[3:0], AP, DSTB, SLP, STB
0039b8   0e14     movlw   0x14             	MOVLW	0x14
0039ba   6ee5     movwf   0xe5, 0          	MOVWF	POSTDEC1
0039bc   0e90     movlw   0x90             	MOVLW	0x90
0039be   6ee5     movwf   0xe5, 0          	MOVWF	POSTDEC1
0039c0   0e10     movlw   0x10             	MOVLW	0x10
0039c2   6ee5     movwf   0xe5, 0          	MOVWF	POSTDEC1
0039c4   ec88     call    0x4910, 0        	CALL	_ILI9325_write
0039c6   f024
0039c8   0e03     movlw   0x3              	MOVLW	0x03
0039ca   26e1     addwf   0xe1, 0x1, 0     	ADDWF	FSR1L, F
                                           ;	.line	933; /home/regis/Hobbies/Electronique/Projets/Pinguino/projets/TFT/ILI9325.c	ILI9325_write(PowerControl2,0x0227);//DC1[2:0], DC0[2:0], VC[2:0]
0039cc   0e02     movlw   0x2              	MOVLW	0x02
0039ce   6ee5     movwf   0xe5, 0          	MOVWF	POSTDEC1
0039d0   0e27     movlw   0x27             	MOVLW	0x27
0039d2   6ee5     movwf   0xe5, 0          	MOVWF	POSTDEC1
0039d4   0e11     movlw   0x11             	MOVLW	0x11
0039d6   6ee5     movwf   0xe5, 0          	MOVWF	POSTDEC1
0039d8   ec88     call    0x4910, 0        	CALL	_ILI9325_write
0039da   f024
0039dc   0e03     movlw   0x3              	MOVLW	0x03
0039de   26e1     addwf   0xe1, 0x1, 0     	ADDWF	FSR1L, F
                                           ;	.line	934; /home/regis/Hobbies/Electronique/Projets/Pinguino/projets/TFT/ILI9325.c	Delayms(50);
0039e0   6ae5     clrf    0xe5, 0          	CLRF	POSTDEC1
0039e2   0e32     movlw   0x32             	MOVLW	0x32
0039e4   6ee5     movwf   0xe5, 0          	MOVWF	POSTDEC1
0039e6   ec33     call    0x4866, 0        	CALL	_Delayms
0039e8   f024
0039ea   52e6     movf    0xe6, 0x1, 0     	MOVF	POSTINC1, F
0039ec   52e6     movf    0xe6, 0x1, 0     	MOVF	POSTINC1, F
                                           ;	.line	935; /home/regis/Hobbies/Electronique/Projets/Pinguino/projets/TFT/ILI9325.c	ILI9325_write(PowerControl3,0x001C);//External reference voltage=Vci
0039ee   6ae5     clrf    0xe5, 0          	CLRF	POSTDEC1
0039f0   0e1c     movlw   0x1c             	MOVLW	0x1c
0039f2   6ee5     movwf   0xe5, 0          	MOVWF	POSTDEC1
0039f4   0e12     movlw   0x12             	MOVLW	0x12
0039f6   6ee5     movwf   0xe5, 0          	MOVWF	POSTDEC1
0039f8   ec88     call    0x4910, 0        	CALL	_ILI9325_write
0039fa   f024
0039fc   0e03     movlw   0x3              	MOVLW	0x03
0039fe   26e1     addwf   0xe1, 0x1, 0     	ADDWF	FSR1L, F
                                           ;	.line	936; /home/regis/Hobbies/Electronique/Projets/Pinguino/projets/TFT/ILI9325.c	Delayms(50);
003a00   6ae5     clrf    0xe5, 0          	CLRF	POSTDEC1
003a02   0e32     movlw   0x32             	MOVLW	0x32
003a04   6ee5     movwf   0xe5, 0          	MOVWF	POSTDEC1
003a06   ec33     call    0x4866, 0        	CALL	_Delayms
003a08   f024
003a0a   52e6     movf    0xe6, 0x1, 0     	MOVF	POSTINC1, F
003a0c   52e6     movf    0xe6, 0x1, 0     	MOVF	POSTINC1, F
                                           ;	.line	937; /home/regis/Hobbies/Electronique/Projets/Pinguino/projets/TFT/ILI9325.c	ILI9325_write(PowerControl4,0x1800);//VDV[4:0] for VCOM amplitude
003a0e   0e18     movlw   0x18             	MOVLW	0x18
003a10   6ee5     movwf   0xe5, 0          	MOVWF	POSTDEC1
003a12   6ae5     clrf    0xe5, 0          	CLRF	POSTDEC1
003a14   0e13     movlw   0x13             	MOVLW	0x13
003a16   6ee5     movwf   0xe5, 0          	MOVWF	POSTDEC1
003a18   ec88     call    0x4910, 0        	CALL	_ILI9325_write
003a1a   f024
003a1c   0e03     movlw   0x3              	MOVLW	0x03
003a1e   26e1     addwf   0xe1, 0x1, 0     	ADDWF	FSR1L, F
                                           ;	.line	938; /home/regis/Hobbies/Electronique/Projets/Pinguino/projets/TFT/ILI9325.c	ILI9325_write(PowerControl7,0x001C);//VCM[4:0] for VCOMH
003a20   6ae5     clrf    0xe5, 0          	CLRF	POSTDEC1
003a22   0e1c     movlw   0x1c             	MOVLW	0x1c
003a24   6ee5     movwf   0xe5, 0          	MOVWF	POSTDEC1
003a26   0e29     movlw   0x29             	MOVLW	0x29
003a28   6ee5     movwf   0xe5, 0          	MOVWF	POSTDEC1
003a2a   ec88     call    0x4910, 0        	CALL	_ILI9325_write
003a2c   f024
003a2e   0e03     movlw   0x3              	MOVLW	0x03
003a30   26e1     addwf   0xe1, 0x1, 0     	ADDWF	FSR1L, F
                                           ;	.line	939; /home/regis/Hobbies/Electronique/Projets/Pinguino/projets/TFT/ILI9325.c	Delayms(50);
003a32   6ae5     clrf    0xe5, 0          	CLRF	POSTDEC1
003a34   0e32     movlw   0x32             	MOVLW	0x32
003a36   6ee5     movwf   0xe5, 0          	MOVWF	POSTDEC1
003a38   ec33     call    0x4866, 0        	CALL	_Delayms
003a3a   f024
003a3c   52e6     movf    0xe6, 0x1, 0     	MOVF	POSTINC1, F
003a3e   52e6     movf    0xe6, 0x1, 0     	MOVF	POSTINC1, F
                                           ;	.line	940; /home/regis/Hobbies/Electronique/Projets/Pinguino/projets/TFT/ILI9325.c	ILI9325_write(DisplayControl1,0x0133);// 
003a40   0e01     movlw   0x1              	MOVLW	0x01
003a42   6ee5     movwf   0xe5, 0          	MOVWF	POSTDEC1
003a44   0e33     movlw   0x33             	MOVLW	0x33
003a46   6ee5     movwf   0xe5, 0          	MOVWF	POSTDEC1
003a48   0e07     movlw   0x7              	MOVLW	0x07
003a4a   6ee5     movwf   0xe5, 0          	MOVWF	POSTDEC1
003a4c   ec88     call    0x4910, 0        	CALL	_ILI9325_write
003a4e   f024
003a50   0e03     movlw   0x3              	MOVLW	0x03
003a52   26e1     addwf   0xe1, 0x1, 0     	ADDWF	FSR1L, F
003a54   0012     return  0                	RETURN	
                                           
                                           ; ; Starting pCode block
                                           S_main__ILI9325_enterSleep	code
                                           _ILI9325_enterSleep:
                                           ;	.line	902; /home/regis/Hobbies/Electronique/Projets/Pinguino/projets/TFT/ILI9325.c	ILI9325_write(DisplayControl1,0x0131);//setD1=0,D0=1
003cc6   0e01     movlw   0x1              	MOVLW	0x01
003cc8   6ee5     movwf   0xe5, 0          	MOVWF	POSTDEC1
003cca   0e31     movlw   0x31             	MOVLW	0x31
003ccc   6ee5     movwf   0xe5, 0          	MOVWF	POSTDEC1
003cce   0e07     movlw   0x7              	MOVLW	0x07
003cd0   6ee5     movwf   0xe5, 0          	MOVWF	POSTDEC1
003cd2   ec88     call    0x4910, 0        	CALL	_ILI9325_write
003cd4   f024
003cd6   0e03     movlw   0x3              	MOVLW	0x03
003cd8   26e1     addwf   0xe1, 0x1, 0     	ADDWF	FSR1L, F
                                           ;	.line	903; /home/regis/Hobbies/Electronique/Projets/Pinguino/projets/TFT/ILI9325.c	Delayms(10);//Wait for 2 frames or more
003cda   6ae5     clrf    0xe5, 0          	CLRF	POSTDEC1
003cdc   0e0a     movlw   0xa              	MOVLW	0x0a
003cde   6ee5     movwf   0xe5, 0          	MOVWF	POSTDEC1
003ce0   ec33     call    0x4866, 0        	CALL	_Delayms
003ce2   f024
003ce4   52e6     movf    0xe6, 0x1, 0     	MOVF	POSTINC1, F
003ce6   52e6     movf    0xe6, 0x1, 0     	MOVF	POSTINC1, F
                                           ;	.line	904; /home/regis/Hobbies/Electronique/Projets/Pinguino/projets/TFT/ILI9325.c	ILI9325_write(DisplayControl1,0x0130);//setD1=0,D0=0
003ce8   0e01     movlw   0x1              	MOVLW	0x01
003cea   6ee5     movwf   0xe5, 0          	MOVWF	POSTDEC1
003cec   0e30     movlw   0x30             	MOVLW	0x30
003cee   6ee5     movwf   0xe5, 0          	MOVWF	POSTDEC1
003cf0   0e07     movlw   0x7              	MOVLW	0x07
003cf2   6ee5     movwf   0xe5, 0          	MOVWF	POSTDEC1
003cf4   ec88     call    0x4910, 0        	CALL	_ILI9325_write
003cf6   f024
003cf8   0e03     movlw   0x3              	MOVLW	0x03
003cfa   26e1     addwf   0xe1, 0x1, 0     	ADDWF	FSR1L, F
                                           ;	.line	905; /home/regis/Hobbies/Electronique/Projets/Pinguino/projets/TFT/ILI9325.c	Delayms(10);//Wait for 2 frames or more
003cfc   6ae5     clrf    0xe5, 0          	CLRF	POSTDEC1
003cfe   0e0a     movlw   0xa              	MOVLW	0x0a
003d00   6ee5     movwf   0xe5, 0          	MOVWF	POSTDEC1
003d02   ec33     call    0x4866, 0        	CALL	_Delayms
003d04   f024
003d06   52e6     movf    0xe6, 0x1, 0     	MOVF	POSTINC1, F
003d08   52e6     movf    0xe6, 0x1, 0     	MOVF	POSTINC1, F
                                           ;	.line	906; /home/regis/Hobbies/Electronique/Projets/Pinguino/projets/TFT/ILI9325.c	ILI9325_write(DisplayControl1,0x0000);//displayoff 
003d0a   6ae5     clrf    0xe5, 0          	CLRF	POSTDEC1
003d0c   6ae5     clrf    0xe5, 0          	CLRF	POSTDEC1
003d0e   0e07     movlw   0x7              	MOVLW	0x07
003d10   6ee5     movwf   0xe5, 0          	MOVWF	POSTDEC1
003d12   ec88     call    0x4910, 0        	CALL	_ILI9325_write
003d14   f024
003d16   0e03     movlw   0x3              	MOVLW	0x03
003d18   26e1     addwf   0xe1, 0x1, 0     	ADDWF	FSR1L, F
                                           ;	.line	908; /home/regis/Hobbies/Electronique/Projets/Pinguino/projets/TFT/ILI9325.c	ILI9325_write(PowerControl1,0x0000);//SAP,BT[3:0],AP,DSTB,SLP,STB
003d1a   6ae5     clrf    0xe5, 0          	CLRF	POSTDEC1
003d1c   6ae5     clrf    0xe5, 0          	CLRF	POSTDEC1
003d1e   0e10     movlw   0x10             	MOVLW	0x10
003d20   6ee5     movwf   0xe5, 0          	MOVWF	POSTDEC1
003d22   ec88     call    0x4910, 0        	CALL	_ILI9325_write
003d24   f024
003d26   0e03     movlw   0x3              	MOVLW	0x03
003d28   26e1     addwf   0xe1, 0x1, 0     	ADDWF	FSR1L, F
                                           ;	.line	909; /home/regis/Hobbies/Electronique/Projets/Pinguino/projets/TFT/ILI9325.c	ILI9325_write(PowerControl2,0x0000);//DC1[2:0],DC0[2:0],VC[2:0]
003d2a   6ae5     clrf    0xe5, 0          	CLRF	POSTDEC1
003d2c   6ae5     clrf    0xe5, 0          	CLRF	POSTDEC1
003d2e   0e11     movlw   0x11             	MOVLW	0x11
003d30   6ee5     movwf   0xe5, 0          	MOVWF	POSTDEC1
003d32   ec88     call    0x4910, 0        	CALL	_ILI9325_write
003d34   f024
003d36   0e03     movlw   0x3              	MOVLW	0x03
003d38   26e1     addwf   0xe1, 0x1, 0     	ADDWF	FSR1L, F
                                           ;	.line	910; /home/regis/Hobbies/Electronique/Projets/Pinguino/projets/TFT/ILI9325.c	ILI9325_write(PowerControl3,0x0000);//VREG1OUTvoltage
003d3a   6ae5     clrf    0xe5, 0          	CLRF	POSTDEC1
003d3c   6ae5     clrf    0xe5, 0          	CLRF	POSTDEC1
003d3e   0e12     movlw   0x12             	MOVLW	0x12
003d40   6ee5     movwf   0xe5, 0          	MOVWF	POSTDEC1
003d42   ec88     call    0x4910, 0        	CALL	_ILI9325_write
003d44   f024
003d46   0e03     movlw   0x3              	MOVLW	0x03
003d48   26e1     addwf   0xe1, 0x1, 0     	ADDWF	FSR1L, F
                                           ;	.line	911; /home/regis/Hobbies/Electronique/Projets/Pinguino/projets/TFT/ILI9325.c	ILI9325_write(PowerControl4,0x0000);//VDV[4:0]forVCOMamplitude
003d4a   6ae5     clrf    0xe5, 0          	CLRF	POSTDEC1
003d4c   6ae5     clrf    0xe5, 0          	CLRF	POSTDEC1
003d4e   0e13     movlw   0x13             	MOVLW	0x13
003d50   6ee5     movwf   0xe5, 0          	MOVWF	POSTDEC1
003d52   ec88     call    0x4910, 0        	CALL	_ILI9325_write
003d54   f024
003d56   0e03     movlw   0x3              	MOVLW	0x03
003d58   26e1     addwf   0xe1, 0x1, 0     	ADDWF	FSR1L, F
                                           ;	.line	912; /home/regis/Hobbies/Electronique/Projets/Pinguino/projets/TFT/ILI9325.c	Delayms(200);//dis-chargecapacitorpowervoltage
003d5a   6ae5     clrf    0xe5, 0          	CLRF	POSTDEC1
003d5c   0ec8     movlw   0xc8             	MOVLW	0xc8
003d5e   6ee5     movwf   0xe5, 0          	MOVWF	POSTDEC1
003d60   ec33     call    0x4866, 0        	CALL	_Delayms
003d62   f024
003d64   52e6     movf    0xe6, 0x1, 0     	MOVF	POSTINC1, F
003d66   52e6     movf    0xe6, 0x1, 0     	MOVF	POSTINC1, F
                                           ;	.line	913; /home/regis/Hobbies/Electronique/Projets/Pinguino/projets/TFT/ILI9325.c	ILI9325_write(PowerControl1,0x0002);//SAP,BT[3:0],APE,AP,DSTB,SLP
003d68   6ae5     clrf    0xe5, 0          	CLRF	POSTDEC1
003d6a   0e02     movlw   0x2              	MOVLW	0x02
003d6c   6ee5     movwf   0xe5, 0          	MOVWF	POSTDEC1
003d6e   0e10     movlw   0x10             	MOVLW	0x10
003d70   6ee5     movwf   0xe5, 0          	MOVWF	POSTDEC1
003d72   ec88     call    0x4910, 0        	CALL	_ILI9325_write
003d74   f024
003d76   0e03     movlw   0x3              	MOVLW	0x03
003d78   26e1     addwf   0xe1, 0x1, 0     	ADDWF	FSR1L, F
003d7a   0012     return  0                	RETURN	
                                           
                                           ; ; Starting pCode block
                                           S_main__ILI9325_printf	code
                                           _ILI9325_printf:
                                           ;	.line	877; /home/regis/Hobbies/Electronique/Projets/Pinguino/projets/TFT/ILI9325.c	void ILI9325_printf(const u8 *fmt, ...)
003b32   cfd9     movff   0xfd9, 0xfe5     	MOVFF	FSR2L, POSTDEC1
003b34   ffe5
003b36   cfe1     movff   0xfe1, 0xfd9     	MOVFF	FSR1L, FSR2L
003b38   ffd9
003b3a   0e50     movlw   0x50             	MOVLW	0x50
003b3c   5ee1     subwf   0xe1, 0x1, 0     	SUBWF	FSR1L, F
003b3e   a0d8     btfss   0xd8, 0, 0       	BTFSS	STATUS, 0
003b40   06e2     decf    0xe2, 0x1, 0     	DECF	FSR1H, F
003b42   c000     movff   0, 0xfe5         	MOVFF	r0x00, POSTDEC1
003b44   ffe5
003b46   c001     movff   0x1, 0xfe5       	MOVFF	r0x01, POSTDEC1
003b48   ffe5
003b4a   c002     movff   0x2, 0xfe5       	MOVFF	r0x02, POSTDEC1
003b4c   ffe5
003b4e   c003     movff   0x3, 0xfe5       	MOVFF	r0x03, POSTDEC1
003b50   ffe5
003b52   c004     movff   0x4, 0xfe5       	MOVFF	r0x04, POSTDEC1
003b54   ffe5
003b56   c005     movff   0x5, 0xfe5       	MOVFF	r0x05, POSTDEC1
003b58   ffe5
003b5a   c006     movff   0x6, 0xfe5       	MOVFF	r0x06, POSTDEC1
003b5c   ffe5
                                           ;	.line	884; /home/regis/Hobbies/Electronique/Projets/Pinguino/projets/TFT/ILI9325.c	va_start(args, fmt);
003b5e   0e02     movlw   0x2              	MOVLW	0x02
003b60   24d9     addwf   0xd9, 0, 0       	ADDWF	FSR2L, W
003b62   6e00     movwf   0, 0             	MOVWF	r0x00
003b64   0e00     movlw   0                	MOVLW	0x00
003b66   20da     addwfc  0xda, 0, 0       	ADDWFC	FSR2H, W
                                           ; #	MOVWF	r0x01
                                           ; #	MOVF	r0x01, W
                                           ; #	MOVWF	r0x01
                                           ; #	MOVWF	r0x01
003b68   6e01     movwf   0x1, 0           	MOVWF	r0x01
                                           ; #	MOVF	r0x00, W
                                           ; #	MOVWF	r0x00
003b6a   0e80     movlw   0x80             	MOVLW	0x80
003b6c   6e02     movwf   0x2, 0           	MOVWF	r0x02
003b6e   0e03     movlw   0x3              	MOVLW	0x03
003b70   2600     addwf   0, 0x1, 0        	ADDWF	r0x00, F
003b72   0e00     movlw   0                	MOVLW	0x00
003b74   2201     addwfc  0x1, 0x1, 0      	ADDWFC	r0x01, F
003b76   2202     addwfc  0x2, 0x1, 0      	ADDWFC	r0x02, F
                                           ;	.line	887; /home/regis/Hobbies/Electronique/Projets/Pinguino/projets/TFT/ILI9325.c	length = psprintf2(buffer, fmt, args);
003b78   0eb1     movlw   0xb1             	MOVLW	0xb1
003b7a   24d9     addwf   0xd9, 0, 0       	ADDWF	FSR2L, W
003b7c   6e03     movwf   0x3, 0           	MOVWF	r0x03
003b7e   0eff     movlw   0xff             	MOVLW	0xff
003b80   20da     addwfc  0xda, 0, 0       	ADDWFC	FSR2H, W
                                           ; #	MOVWF	r0x04
                                           ; #	MOVF	r0x04, W
003b82   6e04     movwf   0x4, 0           	MOVWF	r0x04
003b84   6e06     movwf   0x6, 0           	MOVWF	r0x06
003b86   5003     movf    0x3, 0, 0        	MOVF	r0x03, W
003b88   6e05     movwf   0x5, 0           	MOVWF	r0x05
003b8a   5002     movf    0x2, 0, 0        	MOVF	r0x02, W
003b8c   6ee5     movwf   0xe5, 0          	MOVWF	POSTDEC1
003b8e   5001     movf    0x1, 0, 0        	MOVF	r0x01, W
003b90   6ee5     movwf   0xe5, 0          	MOVWF	POSTDEC1
003b92   5000     movf    0, 0, 0          	MOVF	r0x00, W
003b94   6ee5     movwf   0xe5, 0          	MOVWF	POSTDEC1
003b96   0e04     movlw   0x4              	MOVLW	0x04
003b98   cfdb     movff   0xfdb, 0xfe5     	MOVFF	PLUSW2, POSTDEC1
003b9a   ffe5
003b9c   0e03     movlw   0x3              	MOVLW	0x03
003b9e   cfdb     movff   0xfdb, 0xfe5     	MOVFF	PLUSW2, POSTDEC1
003ba0   ffe5
003ba2   0e02     movlw   0x2              	MOVLW	0x02
003ba4   cfdb     movff   0xfdb, 0xfe5     	MOVFF	PLUSW2, POSTDEC1
003ba6   ffe5
003ba8   0e80     movlw   0x80             	MOVLW	0x80
003baa   6ee5     movwf   0xe5, 0          	MOVWF	POSTDEC1
003bac   5006     movf    0x6, 0, 0        	MOVF	r0x06, W
003bae   6ee5     movwf   0xe5, 0          	MOVWF	POSTDEC1
003bb0   5005     movf    0x5, 0, 0        	MOVF	r0x05, W
003bb2   6ee5     movwf   0xe5, 0          	MOVWF	POSTDEC1
003bb4   ec11     call    0x3e22, 0        	CALL	_psprintf2
003bb6   f01f
003bb8   0e09     movlw   0x9              	MOVLW	0x09
003bba   26e1     addwf   0xe1, 0x1, 0     	ADDWF	FSR1L, F
                                           ; #	MOVF	r0x04, W
                                           ; #	MOVWF	r0x04
                                           ; #	MOVF	r0x04, W
                                           ; #	MOVF	r0x03, W
                                           ; #	MOVF	r0x03, W
                                           ; #	MOVWF	r0x03
                                           ;	.line	888; /home/regis/Hobbies/Electronique/Projets/Pinguino/projets/TFT/ILI9325.c	ILI9325_printString(buffer);
003bbc   0e80     movlw   0x80             	MOVLW	0x80
                                           ; #	MOVWF	r0x00
                                           ; #	MOVF	r0x00, W
003bbe   6ee5     movwf   0xe5, 0          	MOVWF	POSTDEC1
003bc0   5004     movf    0x4, 0, 0        	MOVF	r0x04, W
003bc2   6ee5     movwf   0xe5, 0          	MOVWF	POSTDEC1
003bc4   5003     movf    0x3, 0, 0        	MOVF	r0x03, W
003bc6   6ee5     movwf   0xe5, 0          	MOVWF	POSTDEC1
003bc8   ec85     call    0x310a, 0        	CALL	_ILI9325_printString
003bca   f018
003bcc   0e03     movlw   0x3              	MOVLW	0x03
003bce   26e1     addwf   0xe1, 0x1, 0     	ADDWF	FSR1L, F
                                           ;	.line	889; /home/regis/Hobbies/Electronique/Projets/Pinguino/projets/TFT/ILI9325.c	va_end(args);
003bd0   cfe4     movff   0xfe4, 0x6       	MOVFF	PREINC1, r0x06
003bd2   f006
003bd4   cfe4     movff   0xfe4, 0x5       	MOVFF	PREINC1, r0x05
003bd6   f005
003bd8   cfe4     movff   0xfe4, 0x4       	MOVFF	PREINC1, r0x04
003bda   f004
003bdc   cfe4     movff   0xfe4, 0x3       	MOVFF	PREINC1, r0x03
003bde   f003
003be0   cfe4     movff   0xfe4, 0x2       	MOVFF	PREINC1, r0x02
003be2   f002
003be4   cfe4     movff   0xfe4, 0x1       	MOVFF	PREINC1, r0x01
003be6   f001
003be8   cfe4     movff   0xfe4, 0         	MOVFF	PREINC1, r0x00
003bea   f000
003bec   6ee6     movwf   0xe6, 0          	MOVWF	POSTINC1
003bee   0e4f     movlw   0x4f             	MOVLW	0x4f
003bf0   26e1     addwf   0xe1, 0x1, 0     	ADDWF	FSR1L, F
003bf2   b0d8     btfsc   0xd8, 0, 0       	BTFSC	STATUS, 0
003bf4   2ae2     incf    0xe2, 0x1, 0     	INCF	FSR1H, F
003bf6   1ee8     comf    0xe8, 0x1, 0     	COMF	WREG, F
003bf8   50e3     movf    0xe3, 0, 0       	MOVF	PLUSW1, W
003bfa   cfe4     movff   0xfe4, 0xfd9     	MOVFF	PREINC1, FSR2L
003bfc   ffd9
003bfe   0012     return  0                	RETURN	
                                           
                                           ; ; Starting pCode block
                                           S_main__ILI9325_printString	code
                                           _ILI9325_printString:
                                           ;	.line	830; /home/regis/Hobbies/Electronique/Projets/Pinguino/projets/TFT/ILI9325.c	void ILI9325_printString(u8 *s)
00310a   cfd9     movff   0xfd9, 0xfe5     	MOVFF	FSR2L, POSTDEC1
00310c   ffe5
00310e   cfe1     movff   0xfe1, 0xfd9     	MOVFF	FSR1L, FSR2L
003110   ffd9
003112   c000     movff   0, 0xfe5         	MOVFF	r0x00, POSTDEC1
003114   ffe5
003116   c001     movff   0x1, 0xfe5       	MOVFF	r0x01, POSTDEC1
003118   ffe5
00311a   c002     movff   0x2, 0xfe5       	MOVFF	r0x02, POSTDEC1
00311c   ffe5
00311e   c003     movff   0x3, 0xfe5       	MOVFF	r0x03, POSTDEC1
003120   ffe5
003122   c004     movff   0x4, 0xfe5       	MOVFF	r0x04, POSTDEC1
003124   ffe5
003126   c005     movff   0x5, 0xfe5       	MOVFF	r0x05, POSTDEC1
003128   ffe5
00312a   c006     movff   0x6, 0xfe5       	MOVFF	r0x06, POSTDEC1
00312c   ffe5
00312e   c007     movff   0x7, 0xfe5       	MOVFF	r0x07, POSTDEC1
003130   ffe5
003132   c008     movff   0x8, 0xfe5       	MOVFF	r0x08, POSTDEC1
003134   ffe5
003136   c009     movff   0x9, 0xfe5       	MOVFF	r0x09, POSTDEC1
003138   ffe5
00313a   0e02     movlw   0x2              	MOVLW	0x02
00313c   cfdb     movff   0xfdb, 0         	MOVFF	PLUSW2, r0x00
00313e   f000
003140   0e03     movlw   0x3              	MOVLW	0x03
003142   cfdb     movff   0xfdb, 0x1       	MOVFF	PLUSW2, r0x01
003144   f001
003146   0e04     movlw   0x4              	MOVLW	0x04
003148   cfdb     movff   0xfdb, 0x2       	MOVFF	PLUSW2, r0x02
00314a   f002
                                           _00996_DS_:
                                           ;	.line	834; /home/regis/Hobbies/Electronique/Projets/Pinguino/projets/TFT/ILI9325.c	while (c = *s++)
00314c   c000     movff   0, 0xfe9         	MOVFF	r0x00, FSR0L
00314e   ffe9
003150   c001     movff   0x1, 0xff3       	MOVFF	r0x01, PRODL
003152   fff3
003154   5002     movf    0x2, 0, 0        	MOVF	r0x02, W
003156   ecdd     call    0x4bba, 0        	CALL	__gptrget1
003158   f025
00315a   6e03     movwf   0x3, 0           	MOVWF	r0x03
00315c   2a00     incf    0, 0x1, 0        	INCF	r0x00, F
00315e   e302     bnc     0x3164           	BNC	_01014_DS_
003160   4a01     infsnz  0x1, 0x1, 0      	INFSNZ	r0x01, F
003162   2a02     incf    0x2, 0x1, 0      	INCF	r0x02, F
                                           _01014_DS_:
003164   c003     movff   0x3, 0x4         	MOVFF	r0x03, r0x04
003166   f004
003168   5003     movf    0x3, 0, 0        	MOVF	r0x03, W
00316a   b4d8     btfsc   0xd8, 0x2, 0     	BTFSC	STATUS, 2
00316c   d063     bra     0x3234           	BRA	_00999_DS_
                                           ; #	MOVF	r0x04, W
                                           ; #	MOVWF	r0x03
                                           ; #	MOVF	r0x03, W
                                           ;	.line	836; /home/regis/Hobbies/Electronique/Projets/Pinguino/projets/TFT/ILI9325.c	switch (c)
00316e   5004     movf    0x4, 0, 0        	MOVF	r0x04, W
003170   6e03     movwf   0x3, 0           	MOVWF	r0x03
003172   0a0a     xorlw   0xa              	XORLW	0x0a
003174   e02b     bz      0x31cc           	BZ	_00991_DS_
003176   5003     movf    0x3, 0, 0        	MOVF	r0x03, W
003178   0a0d     xorlw   0xd              	XORLW	0x0d
00317a   e12c     bnz     0x31d4           	BNZ	_00992_DS_
                                           ;	.line	839; /home/regis/Hobbies/Electronique/Projets/Pinguino/projets/TFT/ILI9325.c	if (ILI9325.cursor.y > (ILI9325.screen.endy - ILI9325.font.height))
00317c   ce19     movff   0xe19, 0x3       	MOVFF	(_ILI9325 + 25), r0x03
00317e   f003
003180   ce1a     movff   0xe1a, 0x5       	MOVFF	(_ILI9325 + 26), r0x05
003182   f005
003184   ce1c     movff   0xe1c, 0x6       	MOVFF	(_ILI9325 + 28), r0x06
003186   f006
003188   6a07     clrf    0x7, 0           	CLRF	r0x07
00318a   5006     movf    0x6, 0, 0        	MOVF	r0x06, W
00318c   010e     movlb   0xe              	BANKSEL	(_ILI9325 + 7)
00318e   5d07     subwf   0x7, 0, 0x1      	SUBWF	(_ILI9325 + 7), W, B
003190   6e08     movwf   0x8, 0           	MOVWF	r0x08
003192   5007     movf    0x7, 0, 0        	MOVF	r0x07, W
                                           ; removed redundant BANKSEL
003194   5908     subwfb  0x8, 0, 0x1      	SUBWFB	(_ILI9325 + 8), W, B
003196   6e09     movwf   0x9, 0           	MOVWF	r0x09
003198   5005     movf    0x5, 0, 0        	MOVF	r0x05, W
00319a   5c09     subwf   0x9, 0, 0        	SUBWF	r0x09, W
00319c   e102     bnz     0x31a2           	BNZ	_01019_DS_
00319e   5003     movf    0x3, 0, 0        	MOVF	r0x03, W
0031a0   5c08     subwf   0x8, 0, 0        	SUBWF	r0x08, W
                                           _01019_DS_:
0031a2   e20a     bc      0x31b8           	BC	_00989_DS_
                                           ;	.line	845; /home/regis/Hobbies/Electronique/Projets/Pinguino/projets/TFT/ILI9325.c	ILI9325_write(VerticalScrollControl, 1);//ILI9325.font.height);	
0031a4   6ae5     clrf    0xe5, 0          	CLRF	POSTDEC1
0031a6   0e01     movlw   0x1              	MOVLW	0x01
0031a8   6ee5     movwf   0xe5, 0          	MOVWF	POSTDEC1
0031aa   0e6a     movlw   0x6a             	MOVLW	0x6a
0031ac   6ee5     movwf   0xe5, 0          	MOVWF	POSTDEC1
0031ae   ec88     call    0x4910, 0        	CALL	_ILI9325_write
0031b0   f024
0031b2   0e03     movlw   0x3              	MOVLW	0x03
0031b4   26e1     addwf   0xe1, 0x1, 0     	ADDWF	FSR1L, F
0031b6   d7ca     bra     0x314c           	BRA	_00996_DS_
                                           _00989_DS_:
                                           ;	.line	850; /home/regis/Hobbies/Electronique/Projets/Pinguino/projets/TFT/ILI9325.c	ILI9325.cursor.y += ILI9325.font.height;
0031b8   5006     movf    0x6, 0, 0        	MOVF	r0x06, W
0031ba   2603     addwf   0x3, 0x1, 0      	ADDWF	r0x03, F
0031bc   5007     movf    0x7, 0, 0        	MOVF	r0x07, W
0031be   2205     addwfc  0x5, 0x1, 0      	ADDWFC	r0x05, F
0031c0   5003     movf    0x3, 0, 0        	MOVF	r0x03, W
0031c2   010e     movlb   0xe              	BANKSEL	(_ILI9325 + 25)
0031c4   6f19     movwf   0x19, 0x1        	MOVWF	(_ILI9325 + 25), B
0031c6   5005     movf    0x5, 0, 0        	MOVF	r0x05, W
                                           ; removed redundant BANKSEL
0031c8   6f1a     movwf   0x1a, 0x1        	MOVWF	(_ILI9325 + 26), B
                                           ;	.line	852; /home/regis/Hobbies/Electronique/Projets/Pinguino/projets/TFT/ILI9325.c	break;
0031ca   d7c0     bra     0x314c           	BRA	_00996_DS_
                                           _00991_DS_:
0031cc   010e     movlb   0xe              	BANKSEL	(_ILI9325 + 23)
                                           ;	.line	854; /home/regis/Hobbies/Electronique/Projets/Pinguino/projets/TFT/ILI9325.c	ILI9325.cursor.x = 0;
0031ce   6b17     clrf    0x17, 0x1        	CLRF	(_ILI9325 + 23), B
                                           ; removed redundant BANKSEL
0031d0   6b18     clrf    0x18, 0x1        	CLRF	(_ILI9325 + 24), B
                                           ;	.line	855; /home/regis/Hobbies/Electronique/Projets/Pinguino/projets/TFT/ILI9325.c	break;
0031d2   d7bc     bra     0x314c           	BRA	_00996_DS_
                                           _00992_DS_:
0031d4   010e     movlb   0xe              	BANKSEL	(_ILI9325 + 26)
                                           ;	.line	857; /home/regis/Hobbies/Electronique/Projets/Pinguino/projets/TFT/ILI9325.c	ILI9325_printChar(c, ILI9325.cursor.x, ILI9325.cursor.y);
0031d6   511a     movf    0x1a, 0, 0x1     	MOVF	(_ILI9325 + 26), W, B
0031d8   6ee5     movwf   0xe5, 0          	MOVWF	POSTDEC1
                                           ; removed redundant BANKSEL
0031da   5119     movf    0x19, 0, 0x1     	MOVF	(_ILI9325 + 25), W, B
0031dc   6ee5     movwf   0xe5, 0          	MOVWF	POSTDEC1
                                           ; removed redundant BANKSEL
0031de   5118     movf    0x18, 0, 0x1     	MOVF	(_ILI9325 + 24), W, B
0031e0   6ee5     movwf   0xe5, 0          	MOVWF	POSTDEC1
                                           ; removed redundant BANKSEL
0031e2   5117     movf    0x17, 0, 0x1     	MOVF	(_ILI9325 + 23), W, B
0031e4   6ee5     movwf   0xe5, 0          	MOVWF	POSTDEC1
0031e6   5004     movf    0x4, 0, 0        	MOVF	r0x04, W
0031e8   6ee5     movwf   0xe5, 0          	MOVWF	POSTDEC1
0031ea   ec31     call    0x3262, 0        	CALL	_ILI9325_printChar
0031ec   f019
0031ee   0e05     movlw   0x5              	MOVLW	0x05
0031f0   26e1     addwf   0xe1, 0x1, 0     	ADDWF	FSR1L, F
                                           ;	.line	858; /home/regis/Hobbies/Electronique/Projets/Pinguino/projets/TFT/ILI9325.c	ILI9325.cursor.x += ILI9325.font.width;
0031f2   ce1b     movff   0xe1b, 0x3       	MOVFF	(_ILI9325 + 27), r0x03
0031f4   f003
0031f6   6a04     clrf    0x4, 0           	CLRF	r0x04
0031f8   010e     movlb   0xe              	BANKSEL	(_ILI9325 + 23)
0031fa   5117     movf    0x17, 0, 0x1     	MOVF	(_ILI9325 + 23), W, B
0031fc   2603     addwf   0x3, 0x1, 0      	ADDWF	r0x03, F
                                           ; removed redundant BANKSEL
0031fe   5118     movf    0x18, 0, 0x1     	MOVF	(_ILI9325 + 24), W, B
003200   2204     addwfc  0x4, 0x1, 0      	ADDWFC	r0x04, F
003202   5003     movf    0x3, 0, 0        	MOVF	r0x03, W
                                           ; removed redundant BANKSEL
003204   6f17     movwf   0x17, 0x1        	MOVWF	(_ILI9325 + 23), B
003206   5004     movf    0x4, 0, 0        	MOVF	r0x04, W
                                           ; removed redundant BANKSEL
003208   6f18     movwf   0x18, 0x1        	MOVWF	(_ILI9325 + 24), B
                                           ; removed redundant BANKSEL
                                           ;	.line	859; /home/regis/Hobbies/Electronique/Projets/Pinguino/projets/TFT/ILI9325.c	if (ILI9325.cursor.x > ILI9325.screen.endx)
00320a   5d06     subwf   0x6, 0, 0x1      	SUBWF	(_ILI9325 + 6), W, B
00320c   e102     bnz     0x3212           	BNZ	_01020_DS_
00320e   5003     movf    0x3, 0, 0        	MOVF	r0x03, W
                                           ; removed redundant BANKSEL
003210   5d05     subwf   0x5, 0, 0x1      	SUBWF	(_ILI9325 + 5), W, B
                                           _01020_DS_:
003212   b0d8     btfsc   0xd8, 0, 0       	BTFSC	STATUS, 0
003214   d79b     bra     0x314c           	BRA	_00996_DS_
003216   010e     movlb   0xe              	BANKSEL	(_ILI9325 + 23)
                                           ;	.line	861; /home/regis/Hobbies/Electronique/Projets/Pinguino/projets/TFT/ILI9325.c	ILI9325.cursor.x = 0;
003218   6b17     clrf    0x17, 0x1        	CLRF	(_ILI9325 + 23), B
                                           ; removed redundant BANKSEL
00321a   6b18     clrf    0x18, 0x1        	CLRF	(_ILI9325 + 24), B
                                           ;	.line	862; /home/regis/Hobbies/Electronique/Projets/Pinguino/projets/TFT/ILI9325.c	ILI9325.cursor.y += ILI9325.font.height;
00321c   ce1c     movff   0xe1c, 0x3       	MOVFF	(_ILI9325 + 28), r0x03
00321e   f003
003220   6a04     clrf    0x4, 0           	CLRF	r0x04
                                           ; removed redundant BANKSEL
003222   5119     movf    0x19, 0, 0x1     	MOVF	(_ILI9325 + 25), W, B
003224   2603     addwf   0x3, 0x1, 0      	ADDWF	r0x03, F
                                           ; removed redundant BANKSEL
003226   511a     movf    0x1a, 0, 0x1     	MOVF	(_ILI9325 + 26), W, B
003228   2204     addwfc  0x4, 0x1, 0      	ADDWFC	r0x04, F
00322a   5003     movf    0x3, 0, 0        	MOVF	r0x03, W
                                           ; removed redundant BANKSEL
00322c   6f19     movwf   0x19, 0x1        	MOVWF	(_ILI9325 + 25), B
00322e   5004     movf    0x4, 0, 0        	MOVF	r0x04, W
                                           ; removed redundant BANKSEL
003230   6f1a     movwf   0x1a, 0x1        	MOVWF	(_ILI9325 + 26), B
                                           ;	.line	864; /home/regis/Hobbies/Electronique/Projets/Pinguino/projets/TFT/ILI9325.c	}
003232   d78c     bra     0x314c           	BRA	_00996_DS_
                                           _00999_DS_:
003234   cfe4     movff   0xfe4, 0x9       	MOVFF	PREINC1, r0x09
003236   f009
003238   cfe4     movff   0xfe4, 0x8       	MOVFF	PREINC1, r0x08
00323a   f008
00323c   cfe4     movff   0xfe4, 0x7       	MOVFF	PREINC1, r0x07
00323e   f007
003240   cfe4     movff   0xfe4, 0x6       	MOVFF	PREINC1, r0x06
003242   f006
003244   cfe4     movff   0xfe4, 0x5       	MOVFF	PREINC1, r0x05
003246   f005
003248   cfe4     movff   0xfe4, 0x4       	MOVFF	PREINC1, r0x04
00324a   f004
00324c   cfe4     movff   0xfe4, 0x3       	MOVFF	PREINC1, r0x03
00324e   f003
003250   cfe4     movff   0xfe4, 0x2       	MOVFF	PREINC1, r0x02
003252   f002
003254   cfe4     movff   0xfe4, 0x1       	MOVFF	PREINC1, r0x01
003256   f001
003258   cfe4     movff   0xfe4, 0         	MOVFF	PREINC1, r0x00
00325a   f000
00325c   cfe4     movff   0xfe4, 0xfd9     	MOVFF	PREINC1, FSR2L
00325e   ffd9
003260   0012     return  0                	RETURN	
                                           
                                           ; ; Starting pCode block
                                           S_main__ILI9325_printChar	code
                                           _ILI9325_printChar:
                                           ;	.line	796; /home/regis/Hobbies/Electronique/Projets/Pinguino/projets/TFT/ILI9325.c	void ILI9325_printChar(u8 c, u16 x, u16 y)
003262   cfd9     movff   0xfd9, 0xfe5     	MOVFF	FSR2L, POSTDEC1
003264   ffe5
003266   cfe1     movff   0xfe1, 0xfd9     	MOVFF	FSR1L, FSR2L
003268   ffd9
00326a   c000     movff   0, 0xfe5         	MOVFF	r0x00, POSTDEC1
00326c   ffe5
00326e   c001     movff   0x1, 0xfe5       	MOVFF	r0x01, POSTDEC1
003270   ffe5
003272   c002     movff   0x2, 0xfe5       	MOVFF	r0x02, POSTDEC1
003274   ffe5
003276   c003     movff   0x3, 0xfe5       	MOVFF	r0x03, POSTDEC1
003278   ffe5
00327a   c004     movff   0x4, 0xfe5       	MOVFF	r0x04, POSTDEC1
00327c   ffe5
00327e   c005     movff   0x5, 0xfe5       	MOVFF	r0x05, POSTDEC1
003280   ffe5
003282   c006     movff   0x6, 0xfe5       	MOVFF	r0x06, POSTDEC1
003284   ffe5
003286   c007     movff   0x7, 0xfe5       	MOVFF	r0x07, POSTDEC1
003288   ffe5
00328a   0e02     movlw   0x2              	MOVLW	0x02
00328c   cfdb     movff   0xfdb, 0         	MOVFF	PLUSW2, r0x00
00328e   f000
003290   0e03     movlw   0x3              	MOVLW	0x03
003292   cfdb     movff   0xfdb, 0x1       	MOVFF	PLUSW2, r0x01
003294   f001
003296   0e04     movlw   0x4              	MOVLW	0x04
003298   cfdb     movff   0xfdb, 0x2       	MOVFF	PLUSW2, r0x02
00329a   f002
00329c   0e05     movlw   0x5              	MOVLW	0x05
00329e   cfdb     movff   0xfdb, 0x3       	MOVFF	PLUSW2, r0x03
0032a0   f003
0032a2   0e06     movlw   0x6              	MOVLW	0x06
0032a4   cfdb     movff   0xfdb, 0x4       	MOVFF	PLUSW2, r0x04
0032a6   f004
                                           ;	.line	802; /home/regis/Hobbies/Electronique/Projets/Pinguino/projets/TFT/ILI9325.c	offset = ((c-32) * ILI9325.font.height);    // 32 first characters are not included in the font
0032a8   6a05     clrf    0x5, 0           	CLRF	r0x05
0032aa   0ee0     movlw   0xe0             	MOVLW	0xe0
0032ac   2600     addwf   0, 0x1, 0        	ADDWF	r0x00, F
0032ae   a0d8     btfss   0xd8, 0, 0       	BTFSS	STATUS, 0
0032b0   0605     decf    0x5, 0x1, 0      	DECF	r0x05, F
0032b2   ce1c     movff   0xe1c, 0x6       	MOVFF	(_ILI9325 + 28), r0x06
0032b4   f006
0032b6   6ae5     clrf    0xe5, 0          	CLRF	POSTDEC1
0032b8   5006     movf    0x6, 0, 0        	MOVF	r0x06, W
0032ba   6ee5     movwf   0xe5, 0          	MOVWF	POSTDEC1
0032bc   5005     movf    0x5, 0, 0        	MOVF	r0x05, W
0032be   6ee5     movwf   0xe5, 0          	MOVWF	POSTDEC1
0032c0   5000     movf    0, 0, 0          	MOVF	r0x00, W
0032c2   6ee5     movwf   0xe5, 0          	MOVWF	POSTDEC1
0032c4   ec54     call    0x40a8, 0        	CALL	__mulint
0032c6   f020
0032c8   6e00     movwf   0, 0             	MOVWF	r0x00
0032ca   cff3     movff   0xff3, 0x5       	MOVFF	PRODL, r0x05
0032cc   f005
0032ce   0e04     movlw   0x4              	MOVLW	0x04
0032d0   26e1     addwf   0xe1, 0x1, 0     	ADDWF	FSR1L, F
                                           ;	.line	803; /home/regis/Hobbies/Electronique/Projets/Pinguino/projets/TFT/ILI9325.c	ILI9325_write(GRAMHorizontalAddressSet, x);	// setCursor
0032d2   5002     movf    0x2, 0, 0        	MOVF	r0x02, W
0032d4   6ee5     movwf   0xe5, 0          	MOVWF	POSTDEC1
0032d6   5001     movf    0x1, 0, 0        	MOVF	r0x01, W
0032d8   6ee5     movwf   0xe5, 0          	MOVWF	POSTDEC1
0032da   0e20     movlw   0x20             	MOVLW	0x20
0032dc   6ee5     movwf   0xe5, 0          	MOVWF	POSTDEC1
0032de   ec88     call    0x4910, 0        	CALL	_ILI9325_write
0032e0   f024
0032e2   0e03     movlw   0x3              	MOVLW	0x03
0032e4   26e1     addwf   0xe1, 0x1, 0     	ADDWF	FSR1L, F
                                           ;	.line	804; /home/regis/Hobbies/Electronique/Projets/Pinguino/projets/TFT/ILI9325.c	for (j = 0; j < ILI9325.font.height; j++)
0032e6   6a01     clrf    0x1, 0           	CLRF	r0x01
                                           _00962_DS_:
0032e8   010e     movlb   0xe              	BANKSEL	(_ILI9325 + 28)
0032ea   511c     movf    0x1c, 0, 0x1     	MOVF	(_ILI9325 + 28), W, B
0032ec   5c01     subwf   0x1, 0, 0        	SUBWF	r0x01, W
0032ee   b0d8     btfsc   0xd8, 0, 0       	BTFSC	STATUS, 0
0032f0   d04a     bra     0x3386           	BRA	_00966_DS_
                                           ;	.line	806; /home/regis/Hobbies/Electronique/Projets/Pinguino/projets/TFT/ILI9325.c	ILI9325_write(GRAMVerticalAddressSet, y + j);
0032f2   c001     movff   0x1, 0x2         	MOVFF	r0x01, r0x02
0032f4   f002
0032f6   6a06     clrf    0x6, 0           	CLRF	r0x06
0032f8   5003     movf    0x3, 0, 0        	MOVF	r0x03, W
0032fa   2602     addwf   0x2, 0x1, 0      	ADDWF	r0x02, F
0032fc   5004     movf    0x4, 0, 0        	MOVF	r0x04, W
0032fe   2206     addwfc  0x6, 0x1, 0      	ADDWFC	r0x06, F
003300   5006     movf    0x6, 0, 0        	MOVF	r0x06, W
003302   6ee5     movwf   0xe5, 0          	MOVWF	POSTDEC1
003304   5002     movf    0x2, 0, 0        	MOVF	r0x02, W
003306   6ee5     movwf   0xe5, 0          	MOVWF	POSTDEC1
003308   0e21     movlw   0x21             	MOVLW	0x21
00330a   6ee5     movwf   0xe5, 0          	MOVWF	POSTDEC1
00330c   ec88     call    0x4910, 0        	CALL	_ILI9325_write
00330e   f024
003310   0e03     movlw   0x3              	MOVLW	0x03
003312   26e1     addwf   0xe1, 0x1, 0     	ADDWF	FSR1L, F
                                           ;	.line	807; /home/regis/Hobbies/Electronique/Projets/Pinguino/projets/TFT/ILI9325.c	by = font[offset++];
003314   c000     movff   0, 0x2           	MOVFF	r0x00, r0x02
003316   f002
003318   c005     movff   0x5, 0x6         	MOVFF	r0x05, r0x06
00331a   f006
00331c   4a00     infsnz  0, 0x1, 0        	INFSNZ	r0x00, F
00331e   2a05     incf    0x5, 0x1, 0      	INCF	r0x05, F
003320   6a07     clrf    0x7, 0           	CLRF	r0x07
003322   0ea6     movlw   0xa6             	MOVLW	LOW(_font)
003324   2602     addwf   0x2, 0x1, 0      	ADDWF	r0x02, F
003326   0e12     movlw   0x12             	MOVLW	HIGH(_font)
003328   2206     addwfc  0x6, 0x1, 0      	ADDWFC	r0x06, F
00332a   0e00     movlw   0                	MOVLW	UPPER(_font)
00332c   2207     addwfc  0x7, 0x1, 0      	ADDWFC	r0x07, F
00332e   c002     movff   0x2, 0xff6       	MOVFF	r0x02, TBLPTRL
003330   fff6
003332   c006     movff   0x6, 0xff7       	MOVFF	r0x06, TBLPTRH
003334   fff7
003336   c007     movff   0x7, 0xff8       	MOVFF	r0x07, TBLPTRU
003338   fff8
00333a   0009     tblrd   *+               	TBLRD*+	
00333c   cff5     movff   0xff5, 0x2       	MOVFF	TABLAT, r0x02
00333e   f002
                                           ;	.line	808; /home/regis/Hobbies/Electronique/Projets/Pinguino/projets/TFT/ILI9325.c	for (i = 0; i < 8; i++)
003340   6a06     clrf    0x6, 0           	CLRF	r0x06
                                           _00958_DS_:
003342   0e08     movlw   0x8              	MOVLW	0x08
003344   5c06     subwf   0x6, 0, 0        	SUBWF	r0x06, W
003346   e21d     bc      0x3382           	BC	_00964_DS_
                                           ;	.line	811; /home/regis/Hobbies/Electronique/Projets/Pinguino/projets/TFT/ILI9325.c	if (by&0x80) // Foreground color		   
003348   ae02     btfss   0x2, 0x7, 0      	BTFSS	r0x02, 7
00334a   d00c     bra     0x3364           	BRA	_00956_DS_
00334c   010e     movlb   0xe              	BANKSEL	(_ILI9325 + 22)
                                           ;	.line	812; /home/regis/Hobbies/Electronique/Projets/Pinguino/projets/TFT/ILI9325.c	ILI9325_write(WriteDatatoGRAM, ILI9325.color.c);
00334e   5116     movf    0x16, 0, 0x1     	MOVF	(_ILI9325 + 22), W, B
003350   6ee5     movwf   0xe5, 0          	MOVWF	POSTDEC1
                                           ; removed redundant BANKSEL
003352   5115     movf    0x15, 0, 0x1     	MOVF	(_ILI9325 + 21), W, B
003354   6ee5     movwf   0xe5, 0          	MOVWF	POSTDEC1
003356   0e22     movlw   0x22             	MOVLW	0x22
003358   6ee5     movwf   0xe5, 0          	MOVWF	POSTDEC1
00335a   ec88     call    0x4910, 0        	CALL	_ILI9325_write
00335c   f024
00335e   0e03     movlw   0x3              	MOVLW	0x03
003360   26e1     addwf   0xe1, 0x1, 0     	ADDWF	FSR1L, F
003362   d00b     bra     0x337a           	BRA	_00957_DS_
                                           _00956_DS_:
003364   010e     movlb   0xe              	BANKSEL	(_ILI9325 + 17)
                                           ;	.line	814; /home/regis/Hobbies/Electronique/Projets/Pinguino/projets/TFT/ILI9325.c	ILI9325_write(WriteDatatoGRAM, ILI9325.bcolor.c);
003366   5111     movf    0x11, 0, 0x1     	MOVF	(_ILI9325 + 17), W, B
003368   6ee5     movwf   0xe5, 0          	MOVWF	POSTDEC1
                                           ; removed redundant BANKSEL
00336a   5110     movf    0x10, 0, 0x1     	MOVF	(_ILI9325 + 16), W, B
00336c   6ee5     movwf   0xe5, 0          	MOVWF	POSTDEC1
00336e   0e22     movlw   0x22             	MOVLW	0x22
003370   6ee5     movwf   0xe5, 0          	MOVWF	POSTDEC1
003372   ec88     call    0x4910, 0        	CALL	_ILI9325_write
003374   f024
003376   0e03     movlw   0x3              	MOVLW	0x03
003378   26e1     addwf   0xe1, 0x1, 0     	ADDWF	FSR1L, F
                                           _00957_DS_:
                                           ;	.line	815; /home/regis/Hobbies/Electronique/Projets/Pinguino/projets/TFT/ILI9325.c	by <<= 1;    // Shift out bits right
00337a   90d8     bcf     0xd8, 0, 0       	BCF	STATUS, 0
00337c   3602     rlcf    0x2, 0x1, 0      	RLCF	r0x02, F
                                           ;	.line	808; /home/regis/Hobbies/Electronique/Projets/Pinguino/projets/TFT/ILI9325.c	for (i = 0; i < 8; i++)
00337e   2a06     incf    0x6, 0x1, 0      	INCF	r0x06, F
003380   d7e0     bra     0x3342           	BRA	_00958_DS_
                                           _00964_DS_:
                                           ;	.line	804; /home/regis/Hobbies/Electronique/Projets/Pinguino/projets/TFT/ILI9325.c	for (j = 0; j < ILI9325.font.height; j++)
003382   2a01     incf    0x1, 0x1, 0      	INCF	r0x01, F
003384   d7b1     bra     0x32e8           	BRA	_00962_DS_
                                           _00966_DS_:
003386   cfe4     movff   0xfe4, 0x7       	MOVFF	PREINC1, r0x07
003388   f007
00338a   cfe4     movff   0xfe4, 0x6       	MOVFF	PREINC1, r0x06
00338c   f006
00338e   cfe4     movff   0xfe4, 0x5       	MOVFF	PREINC1, r0x05
003390   f005
003392   cfe4     movff   0xfe4, 0x4       	MOVFF	PREINC1, r0x04
003394   f004
003396   cfe4     movff   0xfe4, 0x3       	MOVFF	PREINC1, r0x03
003398   f003
00339a   cfe4     movff   0xfe4, 0x2       	MOVFF	PREINC1, r0x02
00339c   f002
00339e   cfe4     movff   0xfe4, 0x1       	MOVFF	PREINC1, r0x01
0033a0   f001
0033a2   cfe4     movff   0xfe4, 0         	MOVFF	PREINC1, r0x00
0033a4   f000
0033a6   cfe4     movff   0xfe4, 0xfd9     	MOVFF	PREINC1, FSR2L
0033a8   ffd9
0033aa   0012     return  0                	RETURN	
                                           
                                           ; ; Starting pCode block
                                           S_main__ILI9325_scroll	code
                                           _ILI9325_scroll:
                                           ;	.line	771; /home/regis/Hobbies/Electronique/Projets/Pinguino/projets/TFT/ILI9325.c	void ILI9325_scroll(u16 pixels)
0048bc   cfd9     movff   0xfd9, 0xfe5     	MOVFF	FSR2L, POSTDEC1
0048be   ffe5
0048c0   cfe1     movff   0xfe1, 0xfd9     	MOVFF	FSR1L, FSR2L
0048c2   ffd9
0048c4   c000     movff   0, 0xfe5         	MOVFF	r0x00, POSTDEC1
0048c6   ffe5
0048c8   c001     movff   0x1, 0xfe5       	MOVFF	r0x01, POSTDEC1
0048ca   ffe5
0048cc   0e02     movlw   0x2              	MOVLW	0x02
0048ce   cfdb     movff   0xfdb, 0         	MOVFF	PLUSW2, r0x00
0048d0   f000
0048d2   0e03     movlw   0x3              	MOVLW	0x03
0048d4   cfdb     movff   0xfdb, 0x1       	MOVFF	PLUSW2, r0x01
0048d6   f001
                                           _00940_DS_:
                                           ;	.line	778; /home/regis/Hobbies/Electronique/Projets/Pinguino/projets/TFT/ILI9325.c	while (y >= 320)
0048d8   0e01     movlw   0x1              	MOVLW	0x01
0048da   5c01     subwf   0x1, 0, 0        	SUBWF	r0x01, W
0048dc   e102     bnz     0x48e2           	BNZ	_00950_DS_
0048de   0e40     movlw   0x40             	MOVLW	0x40
0048e0   5c00     subwf   0, 0, 0          	SUBWF	r0x00, W
                                           _00950_DS_:
0048e2   e305     bnc     0x48ee           	BNC	_00942_DS_
                                           ;	.line	779; /home/regis/Hobbies/Electronique/Projets/Pinguino/projets/TFT/ILI9325.c	y -= 320;    
0048e4   0ec0     movlw   0xc0             	MOVLW	0xc0
0048e6   2600     addwf   0, 0x1, 0        	ADDWF	r0x00, F
0048e8   0efe     movlw   0xfe             	MOVLW	0xfe
0048ea   2201     addwfc  0x1, 0x1, 0      	ADDWFC	r0x01, F
0048ec   d7f5     bra     0x48d8           	BRA	_00940_DS_
                                           _00942_DS_:
                                           ;	.line	782; /home/regis/Hobbies/Electronique/Projets/Pinguino/projets/TFT/ILI9325.c	ILI9325_write(VerticalScrollControl, y);	
0048ee   5001     movf    0x1, 0, 0        	MOVF	r0x01, W
0048f0   6ee5     movwf   0xe5, 0          	MOVWF	POSTDEC1
0048f2   5000     movf    0, 0, 0          	MOVF	r0x00, W
0048f4   6ee5     movwf   0xe5, 0          	MOVWF	POSTDEC1
0048f6   0e6a     movlw   0x6a             	MOVLW	0x6a
0048f8   6ee5     movwf   0xe5, 0          	MOVWF	POSTDEC1
0048fa   ec88     call    0x4910, 0        	CALL	_ILI9325_write
0048fc   f024
0048fe   0e03     movlw   0x3              	MOVLW	0x03
004900   26e1     addwf   0xe1, 0x1, 0     	ADDWF	FSR1L, F
004902   cfe4     movff   0xfe4, 0x1       	MOVFF	PREINC1, r0x01
004904   f001
004906   cfe4     movff   0xfe4, 0         	MOVFF	PREINC1, r0x00
004908   f000
00490a   cfe4     movff   0xfe4, 0xfd9     	MOVFF	PREINC1, FSR2L
00490c   ffd9
00490e   0012     return  0                	RETURN	
                                           
                                           ; ; Starting pCode block
                                           S_main__ILI9325_getScreenHeight	code
                                           _ILI9325_getScreenHeight:
004bdc   010e     movlb   0xe              	BANKSEL	_ILI9325
                                           ;	.line	756; /home/regis/Hobbies/Electronique/Projets/Pinguino/projets/TFT/ILI9325.c	if (ILI9325.orientation == PORTRAIT)
004bde   5100     movf    0, 0, 0x1        	MOVF	_ILI9325, W, B
004be0   0a64     xorlw   0x64             	XORLW	0x64
004be2   e105     bnz     0x4bee           	BNZ	_00925_DS_
                                           ;	.line	757; /home/regis/Hobbies/Electronique/Projets/Pinguino/projets/TFT/ILI9325.c	return ILI9325.screen.height;
004be4   ce0c     movff   0xe0c, 0xff3     	MOVFF	(_ILI9325 + 12), PRODL
004be6   fff3
004be8   010e     movlb   0xe              	BANKSEL	(_ILI9325 + 11)
004bea   510b     movf    0xb, 0, 0x1      	MOVF	(_ILI9325 + 11), W, B
004bec   d004     bra     0x4bf6           	BRA	_00927_DS_
                                           _00925_DS_:
                                           ;	.line	759; /home/regis/Hobbies/Electronique/Projets/Pinguino/projets/TFT/ILI9325.c	return ILI9325.screen.width;
004bee   ce0a     movff   0xe0a, 0xff3     	MOVFF	(_ILI9325 + 10), PRODL
004bf0   fff3
004bf2   010e     movlb   0xe              	BANKSEL	(_ILI9325 + 9)
004bf4   5109     movf    0x9, 0, 0x1      	MOVF	(_ILI9325 + 9), W, B
                                           _00927_DS_:
004bf6   0012     return  0                	RETURN	
                                           
                                           ; ; Starting pCode block
                                           S_main__ILI9325_getScreenWidth	code
                                           _ILI9325_getScreenWidth:
004bf8   010e     movlb   0xe              	BANKSEL	_ILI9325
                                           ;	.line	748; /home/regis/Hobbies/Electronique/Projets/Pinguino/projets/TFT/ILI9325.c	if (ILI9325.orientation == PORTRAIT)
004bfa   5100     movf    0, 0, 0x1        	MOVF	_ILI9325, W, B
004bfc   0a64     xorlw   0x64             	XORLW	0x64
004bfe   e105     bnz     0x4c0a           	BNZ	_00912_DS_
                                           ;	.line	749; /home/regis/Hobbies/Electronique/Projets/Pinguino/projets/TFT/ILI9325.c	return ILI9325.screen.width;
004c00   ce0a     movff   0xe0a, 0xff3     	MOVFF	(_ILI9325 + 10), PRODL
004c02   fff3
004c04   010e     movlb   0xe              	BANKSEL	(_ILI9325 + 9)
004c06   5109     movf    0x9, 0, 0x1      	MOVF	(_ILI9325 + 9), W, B
004c08   d004     bra     0x4c12           	BRA	_00914_DS_
                                           _00912_DS_:
                                           ;	.line	751; /home/regis/Hobbies/Electronique/Projets/Pinguino/projets/TFT/ILI9325.c	return ILI9325.screen.height;
004c0a   ce0c     movff   0xe0c, 0xff3     	MOVFF	(_ILI9325 + 12), PRODL
004c0c   fff3
004c0e   010e     movlb   0xe              	BANKSEL	(_ILI9325 + 11)
004c10   510b     movf    0xb, 0, 0x1      	MOVF	(_ILI9325 + 11), W, B
                                           _00914_DS_:
004c12   0012     return  0                	RETURN	
                                           
                                           ; ; Starting pCode block
                                           S_main__ILI9325_getOrientation	code
                                           _ILI9325_getOrientation:
004cca   010e     movlb   0xe              	BANKSEL	_ILI9325
                                           ;	.line	743; /home/regis/Hobbies/Electronique/Projets/Pinguino/projets/TFT/ILI9325.c	return ILI9325.orientation;
004ccc   5100     movf    0, 0, 0x1        	MOVF	_ILI9325, W, B
004cce   0012     return  0                	RETURN	
                                           
                                           ; ; Starting pCode block
                                           S_main__ILI9325_setLandscape	code
                                           _ILI9325_setLandscape:
                                           ;	.line	726; /home/regis/Hobbies/Electronique/Projets/Pinguino/projets/TFT/ILI9325.c	ILI9325.orientation = LANDSCAPE;
004962   0e65     movlw   0x65             	MOVLW	0x65
004964   010e     movlb   0xe              	BANKSEL	_ILI9325
004966   6f00     movwf   0, 0x1           	MOVWF	_ILI9325, B
                                           ;	.line	731; /home/regis/Hobbies/Electronique/Projets/Pinguino/projets/TFT/ILI9325.c	ILI9325_write(EntryMode, 0x1028); // 0x28 = 0b00101000;
004968   0e10     movlw   0x10             	MOVLW	0x10
00496a   6ee5     movwf   0xe5, 0          	MOVWF	POSTDEC1
00496c   0e28     movlw   0x28             	MOVLW	0x28
00496e   6ee5     movwf   0xe5, 0          	MOVWF	POSTDEC1
004970   0e03     movlw   0x3              	MOVLW	0x03
004972   6ee5     movwf   0xe5, 0          	MOVWF	POSTDEC1
004974   ec88     call    0x4910, 0        	CALL	_ILI9325_write
004976   f024
004978   0e03     movlw   0x3              	MOVLW	0x03
00497a   26e1     addwf   0xe1, 0x1, 0     	ADDWF	FSR1L, F
                                           ;	.line	733; /home/regis/Hobbies/Electronique/Projets/Pinguino/projets/TFT/ILI9325.c	ILI9325_write(DriverOutputControl, 0x0000);
00497c   6ae5     clrf    0xe5, 0          	CLRF	POSTDEC1
00497e   6ae5     clrf    0xe5, 0          	CLRF	POSTDEC1
004980   0e01     movlw   0x1              	MOVLW	0x01
004982   6ee5     movwf   0xe5, 0          	MOVWF	POSTDEC1
004984   ec88     call    0x4910, 0        	CALL	_ILI9325_write
004986   f024
004988   0e03     movlw   0x3              	MOVLW	0x03
00498a   26e1     addwf   0xe1, 0x1, 0     	ADDWF	FSR1L, F
                                           ;	.line	737; /home/regis/Hobbies/Electronique/Projets/Pinguino/projets/TFT/ILI9325.c	ILI9325_setWindow(0, 0, 319, 239);
00498c   6ae5     clrf    0xe5, 0          	CLRF	POSTDEC1
00498e   0eef     movlw   0xef             	MOVLW	0xef
004990   6ee5     movwf   0xe5, 0          	MOVWF	POSTDEC1
004992   0e01     movlw   0x1              	MOVLW	0x01
004994   6ee5     movwf   0xe5, 0          	MOVWF	POSTDEC1
004996   0e3f     movlw   0x3f             	MOVLW	0x3f
004998   6ee5     movwf   0xe5, 0          	MOVWF	POSTDEC1
00499a   0e00     movlw   0                	MOVLW	0x00
00499c   6ae5     clrf    0xe5, 0          	CLRF	POSTDEC1
00499e   6ae5     clrf    0xe5, 0          	CLRF	POSTDEC1
0049a0   6ae5     clrf    0xe5, 0          	CLRF	POSTDEC1
0049a2   6ae5     clrf    0xe5, 0          	CLRF	POSTDEC1
0049a4   ec79     call    0x34f2, 0        	CALL	_ILI9325_setWindow
0049a6   f01a
0049a8   0e08     movlw   0x8              	MOVLW	0x08
0049aa   26e1     addwf   0xe1, 0x1, 0     	ADDWF	FSR1L, F
                                           ;	.line	738; /home/regis/Hobbies/Electronique/Projets/Pinguino/projets/TFT/ILI9325.c	ILI9325_clearScreen();
0049ac   ec00     call    0x3c00, 0        	CALL	_ILI9325_clearScreen
0049ae   f01e
0049b0   0012     return  0                	RETURN	
                                           
                                           ; ; Starting pCode block
                                           S_main__ILI9325_setPortrait	code
                                           _ILI9325_setPortrait:
                                           ;	.line	708; /home/regis/Hobbies/Electronique/Projets/Pinguino/projets/TFT/ILI9325.c	ILI9325.orientation = PORTRAIT;
00469a   0e64     movlw   0x64             	MOVLW	0x64
00469c   010e     movlb   0xe              	BANKSEL	_ILI9325
00469e   6f00     movwf   0, 0x1           	MOVWF	_ILI9325, B
                                           ;	.line	709; /home/regis/Hobbies/Electronique/Projets/Pinguino/projets/TFT/ILI9325.c	ILI9325.font.width = ILI9325_getFontWidth();
0046a0   ec68     call    0x4cd0, 0        	CALL	_ILI9325_getFontWidth
0046a2   f026
                                           ; #	MOVWF	r0x00
                                           ; #	MOVF	r0x00, W
0046a4   010e     movlb   0xe              	BANKSEL	(_ILI9325 + 27)
0046a6   6f1b     movwf   0x1b, 0x1        	MOVWF	(_ILI9325 + 27), B
                                           ;	.line	710; /home/regis/Hobbies/Electronique/Projets/Pinguino/projets/TFT/ILI9325.c	ILI9325.font.height= ILI9325_getFontHeight();
0046a8   ec02     call    0xc04, 0         	CALL	_ILI9325_getFontHeight
0046aa   f006
                                           ; #	MOVWF	r0x00
                                           ; #	MOVF	r0x00, W
0046ac   010e     movlb   0xe              	BANKSEL	(_ILI9325 + 28)
0046ae   6f1c     movwf   0x1c, 0x1        	MOVWF	(_ILI9325 + 28), B
                                           ;	.line	714; /home/regis/Hobbies/Electronique/Projets/Pinguino/projets/TFT/ILI9325.c	ILI9325_write(EntryMode, 0x1030); // 0x30 = 0b00110000;
0046b0   0e10     movlw   0x10             	MOVLW	0x10
0046b2   6ee5     movwf   0xe5, 0          	MOVWF	POSTDEC1
0046b4   0e30     movlw   0x30             	MOVLW	0x30
0046b6   6ee5     movwf   0xe5, 0          	MOVWF	POSTDEC1
0046b8   0e03     movlw   0x3              	MOVLW	0x03
0046ba   6ee5     movwf   0xe5, 0          	MOVWF	POSTDEC1
0046bc   ec88     call    0x4910, 0        	CALL	_ILI9325_write
0046be   f024
0046c0   0e03     movlw   0x3              	MOVLW	0x03
0046c2   26e1     addwf   0xe1, 0x1, 0     	ADDWF	FSR1L, F
                                           ;	.line	716; /home/regis/Hobbies/Electronique/Projets/Pinguino/projets/TFT/ILI9325.c	ILI9325_write(DriverOutputControl, 0x0100);
0046c4   0e01     movlw   0x1              	MOVLW	0x01
0046c6   6ee5     movwf   0xe5, 0          	MOVWF	POSTDEC1
0046c8   6ae5     clrf    0xe5, 0          	CLRF	POSTDEC1
0046ca   6ee5     movwf   0xe5, 0          	MOVWF	POSTDEC1
0046cc   ec88     call    0x4910, 0        	CALL	_ILI9325_write
0046ce   f024
0046d0   0e03     movlw   0x3              	MOVLW	0x03
0046d2   26e1     addwf   0xe1, 0x1, 0     	ADDWF	FSR1L, F
                                           ;	.line	720; /home/regis/Hobbies/Electronique/Projets/Pinguino/projets/TFT/ILI9325.c	ILI9325_setWindow(0, 0, 239, 319);
0046d4   0e01     movlw   0x1              	MOVLW	0x01
0046d6   6ee5     movwf   0xe5, 0          	MOVWF	POSTDEC1
0046d8   0e3f     movlw   0x3f             	MOVLW	0x3f
0046da   6ee5     movwf   0xe5, 0          	MOVWF	POSTDEC1
0046dc   6ae5     clrf    0xe5, 0          	CLRF	POSTDEC1
0046de   0eef     movlw   0xef             	MOVLW	0xef
0046e0   6ee5     movwf   0xe5, 0          	MOVWF	POSTDEC1
0046e2   0e00     movlw   0                	MOVLW	0x00
0046e4   6ae5     clrf    0xe5, 0          	CLRF	POSTDEC1
0046e6   6ae5     clrf    0xe5, 0          	CLRF	POSTDEC1
0046e8   6ae5     clrf    0xe5, 0          	CLRF	POSTDEC1
0046ea   6ae5     clrf    0xe5, 0          	CLRF	POSTDEC1
0046ec   ec79     call    0x34f2, 0        	CALL	_ILI9325_setWindow
0046ee   f01a
0046f0   0e08     movlw   0x8              	MOVLW	0x08
0046f2   26e1     addwf   0xe1, 0x1, 0     	ADDWF	FSR1L, F
                                           ;	.line	721; /home/regis/Hobbies/Electronique/Projets/Pinguino/projets/TFT/ILI9325.c	ILI9325_clearScreen();
0046f4   ec00     call    0x3c00, 0        	CALL	_ILI9325_clearScreen
0046f6   f01e
0046f8   0012     return  0                	RETURN	
                                           
                                           ; ; Starting pCode block
                                           S_main__ILI9325_clearWindow	code
                                           _ILI9325_clearWindow:
                                           ;	.line	653; /home/regis/Hobbies/Electronique/Projets/Pinguino/projets/TFT/ILI9325.c	void ILI9325_clearWindow(u16 x1, u16 y1, u16 x2, u16 y2)
0033ac   cfd9     movff   0xfd9, 0xfe5     	MOVFF	FSR2L, POSTDEC1
0033ae   ffe5
0033b0   cfe1     movff   0xfe1, 0xfd9     	MOVFF	FSR1L, FSR2L
0033b2   ffd9
0033b4   c000     movff   0, 0xfe5         	MOVFF	r0x00, POSTDEC1
0033b6   ffe5
0033b8   c001     movff   0x1, 0xfe5       	MOVFF	r0x01, POSTDEC1
0033ba   ffe5
0033bc   c002     movff   0x2, 0xfe5       	MOVFF	r0x02, POSTDEC1
0033be   ffe5
0033c0   c003     movff   0x3, 0xfe5       	MOVFF	r0x03, POSTDEC1
0033c2   ffe5
0033c4   c004     movff   0x4, 0xfe5       	MOVFF	r0x04, POSTDEC1
0033c6   ffe5
0033c8   c005     movff   0x5, 0xfe5       	MOVFF	r0x05, POSTDEC1
0033ca   ffe5
0033cc   c006     movff   0x6, 0xfe5       	MOVFF	r0x06, POSTDEC1
0033ce   ffe5
0033d0   c007     movff   0x7, 0xfe5       	MOVFF	r0x07, POSTDEC1
0033d2   ffe5
0033d4   0e02     movlw   0x2              	MOVLW	0x02
0033d6   cfdb     movff   0xfdb, 0         	MOVFF	PLUSW2, r0x00
0033d8   f000
0033da   0e03     movlw   0x3              	MOVLW	0x03
0033dc   cfdb     movff   0xfdb, 0x1       	MOVFF	PLUSW2, r0x01
0033de   f001
0033e0   0e04     movlw   0x4              	MOVLW	0x04
0033e2   cfdb     movff   0xfdb, 0x2       	MOVFF	PLUSW2, r0x02
0033e4   f002
0033e6   0e05     movlw   0x5              	MOVLW	0x05
0033e8   cfdb     movff   0xfdb, 0x3       	MOVFF	PLUSW2, r0x03
0033ea   f003
0033ec   0e06     movlw   0x6              	MOVLW	0x06
0033ee   cfdb     movff   0xfdb, 0x4       	MOVFF	PLUSW2, r0x04
0033f0   f004
0033f2   0e07     movlw   0x7              	MOVLW	0x07
0033f4   cfdb     movff   0xfdb, 0x5       	MOVFF	PLUSW2, r0x05
0033f6   f005
0033f8   0e08     movlw   0x8              	MOVLW	0x08
0033fa   cfdb     movff   0xfdb, 0x6       	MOVFF	PLUSW2, r0x06
0033fc   f006
0033fe   0e09     movlw   0x9              	MOVLW	0x09
003400   cfdb     movff   0xfdb, 0x7       	MOVFF	PLUSW2, r0x07
003402   f007
                                           ;	.line	656; /home/regis/Hobbies/Electronique/Projets/Pinguino/projets/TFT/ILI9325.c	u32 i=((x2-x1+1)*(y2-y1+1));                // height * width
003404   5000     movf    0, 0, 0          	MOVF	r0x00, W
003406   5e04     subwf   0x4, 0x1, 0      	SUBWF	r0x04, F
003408   5001     movf    0x1, 0, 0        	MOVF	r0x01, W
00340a   5a05     subwfb  0x5, 0x1, 0      	SUBWFB	r0x05, F
00340c   4a04     infsnz  0x4, 0x1, 0      	INFSNZ	r0x04, F
00340e   2a05     incf    0x5, 0x1, 0      	INCF	r0x05, F
003410   5002     movf    0x2, 0, 0        	MOVF	r0x02, W
003412   5e06     subwf   0x6, 0x1, 0      	SUBWF	r0x06, F
003414   5003     movf    0x3, 0, 0        	MOVF	r0x03, W
003416   5a07     subwfb  0x7, 0x1, 0      	SUBWFB	r0x07, F
003418   4a06     infsnz  0x6, 0x1, 0      	INFSNZ	r0x06, F
00341a   2a07     incf    0x7, 0x1, 0      	INCF	r0x07, F
00341c   5007     movf    0x7, 0, 0        	MOVF	r0x07, W
00341e   6ee5     movwf   0xe5, 0          	MOVWF	POSTDEC1
003420   5006     movf    0x6, 0, 0        	MOVF	r0x06, W
003422   6ee5     movwf   0xe5, 0          	MOVWF	POSTDEC1
003424   5005     movf    0x5, 0, 0        	MOVF	r0x05, W
003426   6ee5     movwf   0xe5, 0          	MOVWF	POSTDEC1
003428   5004     movf    0x4, 0, 0        	MOVF	r0x04, W
00342a   6ee5     movwf   0xe5, 0          	MOVWF	POSTDEC1
00342c   ec54     call    0x40a8, 0        	CALL	__mulint
00342e   f020
003430   6e04     movwf   0x4, 0           	MOVWF	r0x04
003432   cff3     movff   0xff3, 0x5       	MOVFF	PRODL, r0x05
003434   f005
003436   0e04     movlw   0x4              	MOVLW	0x04
003438   26e1     addwf   0xe1, 0x1, 0     	ADDWF	FSR1L, F
00343a   6a06     clrf    0x6, 0           	CLRF	r0x06
00343c   6a07     clrf    0x7, 0           	CLRF	r0x07
00343e   010e     movlb   0xe              	BANKSEL	(_ILI9325 + 16)
                                           ;	.line	658; /home/regis/Hobbies/Electronique/Projets/Pinguino/projets/TFT/ILI9325.c	c.w = ILI9325.bcolor.c;						// current background color
003440   5110     movf    0x10, 0, 0x1     	MOVF	(_ILI9325 + 16), W, B
003442   010e     movlb   0xe              	BANKSEL	_ILI9325_clearWindow_c_1_142
003444   6f59     movwf   0x59, 0x1        	MOVWF	_ILI9325_clearWindow_c_1_142, B
003446   010e     movlb   0xe              	BANKSEL	(_ILI9325 + 17)
003448   5111     movf    0x11, 0, 0x1     	MOVF	(_ILI9325 + 17), W, B
00344a   010e     movlb   0xe              	BANKSEL	(_ILI9325_clearWindow_c_1_142 + 1)
00344c   6f5a     movwf   0x5a, 0x1        	MOVWF	(_ILI9325_clearWindow_c_1_142 + 1), B
                                           ;	.line	660; /home/regis/Hobbies/Electronique/Projets/Pinguino/projets/TFT/ILI9325.c	ILI9325_setCursor(x1, y1);
00344e   5003     movf    0x3, 0, 0        	MOVF	r0x03, W
003450   6ee5     movwf   0xe5, 0          	MOVWF	POSTDEC1
003452   5002     movf    0x2, 0, 0        	MOVF	r0x02, W
003454   6ee5     movwf   0xe5, 0          	MOVWF	POSTDEC1
003456   5001     movf    0x1, 0, 0        	MOVF	r0x01, W
003458   6ee5     movwf   0xe5, 0          	MOVWF	POSTDEC1
00345a   5000     movf    0, 0, 0          	MOVF	r0x00, W
00345c   6ee5     movwf   0xe5, 0          	MOVWF	POSTDEC1
00345e   ecb4     call    0x3f68, 0        	CALL	_ILI9325_setCursor
003460   f01f
003462   0e04     movlw   0x4              	MOVLW	0x04
003464   26e1     addwf   0xe1, 0x1, 0     	ADDWF	FSR1L, F
                                           ;	.line	664; /home/regis/Hobbies/Electronique/Projets/Pinguino/projets/TFT/ILI9325.c	ILI9325_writeRegister(WriteDatatoGRAM);		// write GRAM
003466   0e22     movlw   0x22             	MOVLW	0x22
003468   6ee5     movwf   0xe5, 0          	MOVWF	POSTDEC1
00346a   ecd9     call    0x49b2, 0        	CALL	_ILI9325_writeRegister
00346c   f024
00346e   52e6     movf    0xe6, 0x1, 0     	MOVF	POSTINC1, F
                                           ;	.line	666; /home/regis/Hobbies/Electronique/Projets/Pinguino/projets/TFT/ILI9325.c	HighRS;	// Disable Register Selection Signal
003470   8089     bsf     0x89, 0, 0       	BSF	_LATA, 0
                                           ;	.line	667; /home/regis/Hobbies/Electronique/Projets/Pinguino/projets/TFT/ILI9325.c	HighRD; // Disable Read Mode
003472   8489     bsf     0x89, 0x2, 0     	BSF	_LATA, 2
                                           ;	.line	668; /home/regis/Hobbies/Electronique/Projets/Pinguino/projets/TFT/ILI9325.c	HighWR; // Disable Write Mode
003474   8289     bsf     0x89, 0x1, 0     	BSF	_LATA, 1
                                           ;	.line	670; /home/regis/Hobbies/Electronique/Projets/Pinguino/projets/TFT/ILI9325.c	while (i--)
003476   c004     movff   0x4, 0           	MOVFF	r0x04, r0x00
003478   f000
00347a   c005     movff   0x5, 0x1         	MOVFF	r0x05, r0x01
00347c   f001
00347e   c006     movff   0x6, 0x2         	MOVFF	r0x06, r0x02
003480   f002
003482   c007     movff   0x7, 0x3         	MOVFF	r0x07, r0x03
003484   f003
                                           _00888_DS_:
003486   c000     movff   0, 0x4           	MOVFF	r0x00, r0x04
003488   f004
00348a   c001     movff   0x1, 0x5         	MOVFF	r0x01, r0x05
00348c   f005
00348e   c002     movff   0x2, 0x6         	MOVFF	r0x02, r0x06
003490   f006
003492   c003     movff   0x3, 0x7         	MOVFF	r0x03, r0x07
003494   f007
003496   0eff     movlw   0xff             	MOVLW	0xff
003498   2600     addwf   0, 0x1, 0        	ADDWF	r0x00, F
00349a   2201     addwfc  0x1, 0x1, 0      	ADDWFC	r0x01, F
00349c   2202     addwfc  0x2, 0x1, 0      	ADDWFC	r0x02, F
00349e   2203     addwfc  0x3, 0x1, 0      	ADDWFC	r0x03, F
0034a0   5004     movf    0x4, 0, 0        	MOVF	r0x04, W
0034a2   1005     iorwf   0x5, 0, 0        	IORWF	r0x05, W
0034a4   1006     iorwf   0x6, 0, 0        	IORWF	r0x06, W
0034a6   1007     iorwf   0x7, 0, 0        	IORWF	r0x07, W
0034a8   e011     bz      0x34cc           	BZ	_00891_DS_
                                           ;	.line	672; /home/regis/Hobbies/Electronique/Projets/Pinguino/projets/TFT/ILI9325.c	DATA = c.h8;
0034aa   ce5a     movff   0xe5a, 0xf8a     	MOVFF	(_ILI9325_clearWindow_c_1_142 + 1), _LATB
0034ac   ff8a
                                           ;	.line	673; /home/regis/Hobbies/Electronique/Projets/Pinguino/projets/TFT/ILI9325.c	LowWR;	// Enable Write
0034ae   5089     movf    0x89, 0, 0       	MOVF	_LATA, W
0034b0   6e04     movwf   0x4, 0           	MOVWF	r0x04
0034b2   0efd     movlw   0xfd             	MOVLW	0xfd
0034b4   1404     andwf   0x4, 0, 0        	ANDWF	r0x04, W
0034b6   6e89     movwf   0x89, 0          	MOVWF	_LATA
                                           ;	.line	674; /home/regis/Hobbies/Electronique/Projets/Pinguino/projets/TFT/ILI9325.c	HighWR;	// Disable Write
0034b8   8289     bsf     0x89, 0x1, 0     	BSF	_LATA, 1
                                           ;	.line	676; /home/regis/Hobbies/Electronique/Projets/Pinguino/projets/TFT/ILI9325.c	DATA = c.l8;
0034ba   ce59     movff   0xe59, 0xf8a     	MOVFF	_ILI9325_clearWindow_c_1_142, _LATB
0034bc   ff8a
                                           ;	.line	677; /home/regis/Hobbies/Electronique/Projets/Pinguino/projets/TFT/ILI9325.c	LowWR;	// Enable Write
0034be   5089     movf    0x89, 0, 0       	MOVF	_LATA, W
0034c0   6e04     movwf   0x4, 0           	MOVWF	r0x04
0034c2   0efd     movlw   0xfd             	MOVLW	0xfd
0034c4   1404     andwf   0x4, 0, 0        	ANDWF	r0x04, W
0034c6   6e89     movwf   0x89, 0          	MOVWF	_LATA
                                           ;	.line	678; /home/regis/Hobbies/Electronique/Projets/Pinguino/projets/TFT/ILI9325.c	HighWR;	// Disable Write
0034c8   8289     bsf     0x89, 0x1, 0     	BSF	_LATA, 1
0034ca   d7dd     bra     0x3486           	BRA	_00888_DS_
                                           _00891_DS_:
0034cc   cfe4     movff   0xfe4, 0x7       	MOVFF	PREINC1, r0x07
0034ce   f007
0034d0   cfe4     movff   0xfe4, 0x6       	MOVFF	PREINC1, r0x06
0034d2   f006
0034d4   cfe4     movff   0xfe4, 0x5       	MOVFF	PREINC1, r0x05
0034d6   f005
0034d8   cfe4     movff   0xfe4, 0x4       	MOVFF	PREINC1, r0x04
0034da   f004
0034dc   cfe4     movff   0xfe4, 0x3       	MOVFF	PREINC1, r0x03
0034de   f003
0034e0   cfe4     movff   0xfe4, 0x2       	MOVFF	PREINC1, r0x02
0034e2   f002
0034e4   cfe4     movff   0xfe4, 0x1       	MOVFF	PREINC1, r0x01
0034e6   f001
0034e8   cfe4     movff   0xfe4, 0         	MOVFF	PREINC1, r0x00
0034ea   f000
0034ec   cfe4     movff   0xfe4, 0xfd9     	MOVFF	PREINC1, FSR2L
0034ee   ffd9
0034f0   0012     return  0                	RETURN	
                                           
                                           ; ; Starting pCode block
                                           S_main__ILI9325_clearScreen	code
                                           _ILI9325_clearScreen:
                                           ;	.line	608; /home/regis/Hobbies/Electronique/Projets/Pinguino/projets/TFT/ILI9325.c	void ILI9325_clearScreen()
003c00   c000     movff   0, 0xfe5         	MOVFF	r0x00, POSTDEC1
003c02   ffe5
003c04   c001     movff   0x1, 0xfe5       	MOVFF	r0x01, POSTDEC1
003c06   ffe5
003c08   c002     movff   0x2, 0xfe5       	MOVFF	r0x02, POSTDEC1
003c0a   ffe5
003c0c   c003     movff   0x3, 0xfe5       	MOVFF	r0x03, POSTDEC1
003c0e   ffe5
003c10   c004     movff   0x4, 0xfe5       	MOVFF	r0x04, POSTDEC1
003c12   ffe5
003c14   c005     movff   0x5, 0xfe5       	MOVFF	r0x05, POSTDEC1
003c16   ffe5
003c18   c006     movff   0x6, 0xfe5       	MOVFF	r0x06, POSTDEC1
003c1a   ffe5
003c1c   c007     movff   0x7, 0xfe5       	MOVFF	r0x07, POSTDEC1
003c1e   ffe5
003c20   010e     movlb   0xe              	BANKSEL	(_ILI9325 + 16)
                                           ;	.line	613; /home/regis/Hobbies/Electronique/Projets/Pinguino/projets/TFT/ILI9325.c	c.w = ILI9325.bcolor.c;						// current background color
003c22   5110     movf    0x10, 0, 0x1     	MOVF	(_ILI9325 + 16), W, B
003c24   010e     movlb   0xe              	BANKSEL	_ILI9325_clearScreen_c_1_139
003c26   6f57     movwf   0x57, 0x1        	MOVWF	_ILI9325_clearScreen_c_1_139, B
003c28   010e     movlb   0xe              	BANKSEL	(_ILI9325 + 17)
003c2a   5111     movf    0x11, 0, 0x1     	MOVF	(_ILI9325 + 17), W, B
003c2c   010e     movlb   0xe              	BANKSEL	(_ILI9325_clearScreen_c_1_139 + 1)
003c2e   6f58     movwf   0x58, 0x1        	MOVWF	(_ILI9325_clearScreen_c_1_139 + 1), B
                                           ;	.line	615; /home/regis/Hobbies/Electronique/Projets/Pinguino/projets/TFT/ILI9325.c	ILI9325_setCursor(0, 0);
003c30   0e00     movlw   0                	MOVLW	0x00
003c32   6ae5     clrf    0xe5, 0          	CLRF	POSTDEC1
003c34   6ae5     clrf    0xe5, 0          	CLRF	POSTDEC1
003c36   6ae5     clrf    0xe5, 0          	CLRF	POSTDEC1
003c38   6ae5     clrf    0xe5, 0          	CLRF	POSTDEC1
003c3a   ecb4     call    0x3f68, 0        	CALL	_ILI9325_setCursor
003c3c   f01f
003c3e   0e04     movlw   0x4              	MOVLW	0x04
003c40   26e1     addwf   0xe1, 0x1, 0     	ADDWF	FSR1L, F
                                           ;	.line	625; /home/regis/Hobbies/Electronique/Projets/Pinguino/projets/TFT/ILI9325.c	ILI9325_writeRegister(WriteDatatoGRAM);		// write GRAM
003c42   0e22     movlw   0x22             	MOVLW	0x22
003c44   6ee5     movwf   0xe5, 0          	MOVWF	POSTDEC1
003c46   ecd9     call    0x49b2, 0        	CALL	_ILI9325_writeRegister
003c48   f024
003c4a   52e6     movf    0xe6, 0x1, 0     	MOVF	POSTINC1, F
                                           ;	.line	627; /home/regis/Hobbies/Electronique/Projets/Pinguino/projets/TFT/ILI9325.c	HighRS;	// Disable Register Selection Signal
003c4c   8089     bsf     0x89, 0, 0       	BSF	_LATA, 0
                                           ;	.line	628; /home/regis/Hobbies/Electronique/Projets/Pinguino/projets/TFT/ILI9325.c	HighRD; // Disable Read Mode
003c4e   8489     bsf     0x89, 0x2, 0     	BSF	_LATA, 2
                                           ;	.line	629; /home/regis/Hobbies/Electronique/Projets/Pinguino/projets/TFT/ILI9325.c	HighWR; // Disable Write Mode
003c50   8289     bsf     0x89, 0x1, 0     	BSF	_LATA, 1
                                           ;	.line	631; /home/regis/Hobbies/Electronique/Projets/Pinguino/projets/TFT/ILI9325.c	while (i--)
003c52   6a00     clrf    0, 0             	CLRF	r0x00
003c54   0e2c     movlw   0x2c             	MOVLW	0x2c
003c56   6e01     movwf   0x1, 0           	MOVWF	r0x01
003c58   0e01     movlw   0x1              	MOVLW	0x01
003c5a   6e02     movwf   0x2, 0           	MOVWF	r0x02
003c5c   6a03     clrf    0x3, 0           	CLRF	r0x03
                                           _00880_DS_:
003c5e   c000     movff   0, 0x4           	MOVFF	r0x00, r0x04
003c60   f004
003c62   c001     movff   0x1, 0x5         	MOVFF	r0x01, r0x05
003c64   f005
003c66   c002     movff   0x2, 0x6         	MOVFF	r0x02, r0x06
003c68   f006
003c6a   c003     movff   0x3, 0x7         	MOVFF	r0x03, r0x07
003c6c   f007
003c6e   0eff     movlw   0xff             	MOVLW	0xff
003c70   2600     addwf   0, 0x1, 0        	ADDWF	r0x00, F
003c72   2201     addwfc  0x1, 0x1, 0      	ADDWFC	r0x01, F
003c74   2202     addwfc  0x2, 0x1, 0      	ADDWFC	r0x02, F
003c76   2203     addwfc  0x3, 0x1, 0      	ADDWFC	r0x03, F
003c78   5004     movf    0x4, 0, 0        	MOVF	r0x04, W
003c7a   1005     iorwf   0x5, 0, 0        	IORWF	r0x05, W
003c7c   1006     iorwf   0x6, 0, 0        	IORWF	r0x06, W
003c7e   1007     iorwf   0x7, 0, 0        	IORWF	r0x07, W
003c80   e011     bz      0x3ca4           	BZ	_00883_DS_
                                           ;	.line	633; /home/regis/Hobbies/Electronique/Projets/Pinguino/projets/TFT/ILI9325.c	DATA = c.h8;
003c82   ce58     movff   0xe58, 0xf8a     	MOVFF	(_ILI9325_clearScreen_c_1_139 + 1), _LATB
003c84   ff8a
                                           ;	.line	634; /home/regis/Hobbies/Electronique/Projets/Pinguino/projets/TFT/ILI9325.c	LowWR;	// Enable Write
003c86   5089     movf    0x89, 0, 0       	MOVF	_LATA, W
003c88   6e04     movwf   0x4, 0           	MOVWF	r0x04
003c8a   0efd     movlw   0xfd             	MOVLW	0xfd
003c8c   1404     andwf   0x4, 0, 0        	ANDWF	r0x04, W
003c8e   6e89     movwf   0x89, 0          	MOVWF	_LATA
                                           ;	.line	635; /home/regis/Hobbies/Electronique/Projets/Pinguino/projets/TFT/ILI9325.c	HighWR;	// Disable Write
003c90   8289     bsf     0x89, 0x1, 0     	BSF	_LATA, 1
                                           ;	.line	637; /home/regis/Hobbies/Electronique/Projets/Pinguino/projets/TFT/ILI9325.c	DATA = c.l8;
003c92   ce57     movff   0xe57, 0xf8a     	MOVFF	_ILI9325_clearScreen_c_1_139, _LATB
003c94   ff8a
                                           ;	.line	638; /home/regis/Hobbies/Electronique/Projets/Pinguino/projets/TFT/ILI9325.c	LowWR;	// Enable Write
003c96   5089     movf    0x89, 0, 0       	MOVF	_LATA, W
003c98   6e04     movwf   0x4, 0           	MOVWF	r0x04
003c9a   0efd     movlw   0xfd             	MOVLW	0xfd
003c9c   1404     andwf   0x4, 0, 0        	ANDWF	r0x04, W
003c9e   6e89     movwf   0x89, 0          	MOVWF	_LATA
                                           ;	.line	639; /home/regis/Hobbies/Electronique/Projets/Pinguino/projets/TFT/ILI9325.c	HighWR;	// Disable Write
003ca0   8289     bsf     0x89, 0x1, 0     	BSF	_LATA, 1
003ca2   d7dd     bra     0x3c5e           	BRA	_00880_DS_
                                           _00883_DS_:
003ca4   cfe4     movff   0xfe4, 0x7       	MOVFF	PREINC1, r0x07
003ca6   f007
003ca8   cfe4     movff   0xfe4, 0x6       	MOVFF	PREINC1, r0x06
003caa   f006
003cac   cfe4     movff   0xfe4, 0x5       	MOVFF	PREINC1, r0x05
003cae   f005
003cb0   cfe4     movff   0xfe4, 0x4       	MOVFF	PREINC1, r0x04
003cb2   f004
003cb4   cfe4     movff   0xfe4, 0x3       	MOVFF	PREINC1, r0x03
003cb6   f003
003cb8   cfe4     movff   0xfe4, 0x2       	MOVFF	PREINC1, r0x02
003cba   f002
003cbc   cfe4     movff   0xfe4, 0x1       	MOVFF	PREINC1, r0x01
003cbe   f001
003cc0   cfe4     movff   0xfe4, 0         	MOVFF	PREINC1, r0x00
003cc2   f000
003cc4   0012     return  0                	RETURN	
                                           
                                           ; ; Starting pCode block
                                           S_main__ILI9325_setWindow	code
                                           _ILI9325_setWindow:
                                           ;	.line	579; /home/regis/Hobbies/Electronique/Projets/Pinguino/projets/TFT/ILI9325.c	void ILI9325_setWindow(u16 x1, u16 y1, u16 x2, u16 y2)
0034f2   cfd9     movff   0xfd9, 0xfe5     	MOVFF	FSR2L, POSTDEC1
0034f4   ffe5
0034f6   cfe1     movff   0xfe1, 0xfd9     	MOVFF	FSR1L, FSR2L
0034f8   ffd9
0034fa   c000     movff   0, 0xfe5         	MOVFF	r0x00, POSTDEC1
0034fc   ffe5
0034fe   c001     movff   0x1, 0xfe5       	MOVFF	r0x01, POSTDEC1
003500   ffe5
003502   c002     movff   0x2, 0xfe5       	MOVFF	r0x02, POSTDEC1
003504   ffe5
003506   c003     movff   0x3, 0xfe5       	MOVFF	r0x03, POSTDEC1
003508   ffe5
00350a   c004     movff   0x4, 0xfe5       	MOVFF	r0x04, POSTDEC1
00350c   ffe5
00350e   c005     movff   0x5, 0xfe5       	MOVFF	r0x05, POSTDEC1
003510   ffe5
003512   c006     movff   0x6, 0xfe5       	MOVFF	r0x06, POSTDEC1
003514   ffe5
003516   c007     movff   0x7, 0xfe5       	MOVFF	r0x07, POSTDEC1
003518   ffe5
00351a   c008     movff   0x8, 0xfe5       	MOVFF	r0x08, POSTDEC1
00351c   ffe5
00351e   c009     movff   0x9, 0xfe5       	MOVFF	r0x09, POSTDEC1
003520   ffe5
003522   0e02     movlw   0x2              	MOVLW	0x02
003524   cfdb     movff   0xfdb, 0         	MOVFF	PLUSW2, r0x00
003526   f000
003528   0e03     movlw   0x3              	MOVLW	0x03
00352a   cfdb     movff   0xfdb, 0x1       	MOVFF	PLUSW2, r0x01
00352c   f001
00352e   0e04     movlw   0x4              	MOVLW	0x04
003530   cfdb     movff   0xfdb, 0x2       	MOVFF	PLUSW2, r0x02
003532   f002
003534   0e05     movlw   0x5              	MOVLW	0x05
003536   cfdb     movff   0xfdb, 0x3       	MOVFF	PLUSW2, r0x03
003538   f003
00353a   0e06     movlw   0x6              	MOVLW	0x06
00353c   cfdb     movff   0xfdb, 0x4       	MOVFF	PLUSW2, r0x04
00353e   f004
003540   0e07     movlw   0x7              	MOVLW	0x07
003542   cfdb     movff   0xfdb, 0x5       	MOVFF	PLUSW2, r0x05
003544   f005
003546   0e08     movlw   0x8              	MOVLW	0x08
003548   cfdb     movff   0xfdb, 0x6       	MOVFF	PLUSW2, r0x06
00354a   f006
00354c   0e09     movlw   0x9              	MOVLW	0x09
00354e   cfdb     movff   0xfdb, 0x7       	MOVFF	PLUSW2, r0x07
003550   f007
                                           ;	.line	581; /home/regis/Hobbies/Electronique/Projets/Pinguino/projets/TFT/ILI9325.c	ILI9325.screen.startx = x1;
003552   5000     movf    0, 0, 0          	MOVF	r0x00, W
003554   010e     movlb   0xe              	BANKSEL	(_ILI9325 + 1)
003556   6f01     movwf   0x1, 0x1         	MOVWF	(_ILI9325 + 1), B
003558   5001     movf    0x1, 0, 0        	MOVF	r0x01, W
                                           ; removed redundant BANKSEL
00355a   6f02     movwf   0x2, 0x1         	MOVWF	(_ILI9325 + 2), B
                                           ;	.line	582; /home/regis/Hobbies/Electronique/Projets/Pinguino/projets/TFT/ILI9325.c	ILI9325.screen.starty = y1;
00355c   5002     movf    0x2, 0, 0        	MOVF	r0x02, W
                                           ; removed redundant BANKSEL
00355e   6f03     movwf   0x3, 0x1         	MOVWF	(_ILI9325 + 3), B
003560   5003     movf    0x3, 0, 0        	MOVF	r0x03, W
                                           ; removed redundant BANKSEL
003562   6f04     movwf   0x4, 0x1         	MOVWF	(_ILI9325 + 4), B
                                           ;	.line	583; /home/regis/Hobbies/Electronique/Projets/Pinguino/projets/TFT/ILI9325.c	ILI9325.screen.endx = x2;
003564   5004     movf    0x4, 0, 0        	MOVF	r0x04, W
                                           ; removed redundant BANKSEL
003566   6f05     movwf   0x5, 0x1         	MOVWF	(_ILI9325 + 5), B
003568   5005     movf    0x5, 0, 0        	MOVF	r0x05, W
                                           ; removed redundant BANKSEL
00356a   6f06     movwf   0x6, 0x1         	MOVWF	(_ILI9325 + 6), B
                                           ;	.line	584; /home/regis/Hobbies/Electronique/Projets/Pinguino/projets/TFT/ILI9325.c	ILI9325.screen.endy = y2;
00356c   5006     movf    0x6, 0, 0        	MOVF	r0x06, W
                                           ; removed redundant BANKSEL
00356e   6f07     movwf   0x7, 0x1         	MOVWF	(_ILI9325 + 7), B
003570   5007     movf    0x7, 0, 0        	MOVF	r0x07, W
                                           ; removed redundant BANKSEL
003572   6f08     movwf   0x8, 0x1         	MOVWF	(_ILI9325 + 8), B
                                           ;	.line	585; /home/regis/Hobbies/Electronique/Projets/Pinguino/projets/TFT/ILI9325.c	ILI9325.screen.width = x2 - x1;
003574   5000     movf    0, 0, 0          	MOVF	r0x00, W
003576   5c04     subwf   0x4, 0, 0        	SUBWF	r0x04, W
003578   6e08     movwf   0x8, 0           	MOVWF	r0x08
00357a   5001     movf    0x1, 0, 0        	MOVF	r0x01, W
00357c   5805     subwfb  0x5, 0, 0        	SUBWFB	r0x05, W
00357e   6e09     movwf   0x9, 0           	MOVWF	r0x09
003580   5008     movf    0x8, 0, 0        	MOVF	r0x08, W
                                           ; removed redundant BANKSEL
003582   6f09     movwf   0x9, 0x1         	MOVWF	(_ILI9325 + 9), B
003584   5009     movf    0x9, 0, 0        	MOVF	r0x09, W
                                           ; removed redundant BANKSEL
003586   6f0a     movwf   0xa, 0x1         	MOVWF	(_ILI9325 + 10), B
                                           ;	.line	586; /home/regis/Hobbies/Electronique/Projets/Pinguino/projets/TFT/ILI9325.c	ILI9325.screen.height = y2 - y1;
003588   5002     movf    0x2, 0, 0        	MOVF	r0x02, W
00358a   5c06     subwf   0x6, 0, 0        	SUBWF	r0x06, W
00358c   6e08     movwf   0x8, 0           	MOVWF	r0x08
00358e   5003     movf    0x3, 0, 0        	MOVF	r0x03, W
003590   5807     subwfb  0x7, 0, 0        	SUBWFB	r0x07, W
003592   6e09     movwf   0x9, 0           	MOVWF	r0x09
003594   5008     movf    0x8, 0, 0        	MOVF	r0x08, W
                                           ; removed redundant BANKSEL
003596   6f0b     movwf   0xb, 0x1         	MOVWF	(_ILI9325 + 11), B
003598   5009     movf    0x9, 0, 0        	MOVF	r0x09, W
                                           ; removed redundant BANKSEL
00359a   6f0c     movwf   0xc, 0x1         	MOVWF	(_ILI9325 + 12), B
                                           ;	.line	590; /home/regis/Hobbies/Electronique/Projets/Pinguino/projets/TFT/ILI9325.c	ILI9325_write(HorizontalRAMStartAddressPosition, x1);
00359c   5001     movf    0x1, 0, 0        	MOVF	r0x01, W
00359e   6ee5     movwf   0xe5, 0          	MOVWF	POSTDEC1
0035a0   5000     movf    0, 0, 0          	MOVF	r0x00, W
0035a2   6ee5     movwf   0xe5, 0          	MOVWF	POSTDEC1
0035a4   0e50     movlw   0x50             	MOVLW	0x50
0035a6   6ee5     movwf   0xe5, 0          	MOVWF	POSTDEC1
0035a8   ec88     call    0x4910, 0        	CALL	_ILI9325_write
0035aa   f024
0035ac   0e03     movlw   0x3              	MOVLW	0x03
0035ae   26e1     addwf   0xe1, 0x1, 0     	ADDWF	FSR1L, F
                                           ;	.line	591; /home/regis/Hobbies/Electronique/Projets/Pinguino/projets/TFT/ILI9325.c	ILI9325_write(HorizontalRAMEndAddressPosition, x2);
0035b0   5005     movf    0x5, 0, 0        	MOVF	r0x05, W
0035b2   6ee5     movwf   0xe5, 0          	MOVWF	POSTDEC1
0035b4   5004     movf    0x4, 0, 0        	MOVF	r0x04, W
0035b6   6ee5     movwf   0xe5, 0          	MOVWF	POSTDEC1
0035b8   0e51     movlw   0x51             	MOVLW	0x51
0035ba   6ee5     movwf   0xe5, 0          	MOVWF	POSTDEC1
0035bc   ec88     call    0x4910, 0        	CALL	_ILI9325_write
0035be   f024
0035c0   0e03     movlw   0x3              	MOVLW	0x03
0035c2   26e1     addwf   0xe1, 0x1, 0     	ADDWF	FSR1L, F
                                           ;	.line	592; /home/regis/Hobbies/Electronique/Projets/Pinguino/projets/TFT/ILI9325.c	ILI9325_write(VerticalRAMStartAddressPosition, y1);
0035c4   5003     movf    0x3, 0, 0        	MOVF	r0x03, W
0035c6   6ee5     movwf   0xe5, 0          	MOVWF	POSTDEC1
0035c8   5002     movf    0x2, 0, 0        	MOVF	r0x02, W
0035ca   6ee5     movwf   0xe5, 0          	MOVWF	POSTDEC1
0035cc   0e52     movlw   0x52             	MOVLW	0x52
0035ce   6ee5     movwf   0xe5, 0          	MOVWF	POSTDEC1
0035d0   ec88     call    0x4910, 0        	CALL	_ILI9325_write
0035d2   f024
0035d4   0e03     movlw   0x3              	MOVLW	0x03
0035d6   26e1     addwf   0xe1, 0x1, 0     	ADDWF	FSR1L, F
                                           ;	.line	593; /home/regis/Hobbies/Electronique/Projets/Pinguino/projets/TFT/ILI9325.c	ILI9325_write(VerticalRAMEndAddressPosition, y2);
0035d8   5007     movf    0x7, 0, 0        	MOVF	r0x07, W
0035da   6ee5     movwf   0xe5, 0          	MOVWF	POSTDEC1
0035dc   5006     movf    0x6, 0, 0        	MOVF	r0x06, W
0035de   6ee5     movwf   0xe5, 0          	MOVWF	POSTDEC1
0035e0   0e53     movlw   0x53             	MOVLW	0x53
0035e2   6ee5     movwf   0xe5, 0          	MOVWF	POSTDEC1
0035e4   ec88     call    0x4910, 0        	CALL	_ILI9325_write
0035e6   f024
0035e8   0e03     movlw   0x3              	MOVLW	0x03
0035ea   26e1     addwf   0xe1, 0x1, 0     	ADDWF	FSR1L, F
                                           ;	.line	597; /home/regis/Hobbies/Electronique/Projets/Pinguino/projets/TFT/ILI9325.c	ILI9325_setCursor(x1, y1);
0035ec   5003     movf    0x3, 0, 0        	MOVF	r0x03, W
0035ee   6ee5     movwf   0xe5, 0          	MOVWF	POSTDEC1
0035f0   5002     movf    0x2, 0, 0        	MOVF	r0x02, W
0035f2   6ee5     movwf   0xe5, 0          	MOVWF	POSTDEC1
0035f4   5001     movf    0x1, 0, 0        	MOVF	r0x01, W
0035f6   6ee5     movwf   0xe5, 0          	MOVWF	POSTDEC1
0035f8   5000     movf    0, 0, 0          	MOVF	r0x00, W
0035fa   6ee5     movwf   0xe5, 0          	MOVWF	POSTDEC1
0035fc   ecb4     call    0x3f68, 0        	CALL	_ILI9325_setCursor
0035fe   f01f
003600   0e04     movlw   0x4              	MOVLW	0x04
003602   26e1     addwf   0xe1, 0x1, 0     	ADDWF	FSR1L, F
003604   cfe4     movff   0xfe4, 0x9       	MOVFF	PREINC1, r0x09
003606   f009
003608   cfe4     movff   0xfe4, 0x8       	MOVFF	PREINC1, r0x08
00360a   f008
00360c   cfe4     movff   0xfe4, 0x7       	MOVFF	PREINC1, r0x07
00360e   f007
003610   cfe4     movff   0xfe4, 0x6       	MOVFF	PREINC1, r0x06
003612   f006
003614   cfe4     movff   0xfe4, 0x5       	MOVFF	PREINC1, r0x05
003616   f005
003618   cfe4     movff   0xfe4, 0x4       	MOVFF	PREINC1, r0x04
00361a   f004
00361c   cfe4     movff   0xfe4, 0x3       	MOVFF	PREINC1, r0x03
00361e   f003
003620   cfe4     movff   0xfe4, 0x2       	MOVFF	PREINC1, r0x02
003622   f002
003624   cfe4     movff   0xfe4, 0x1       	MOVFF	PREINC1, r0x01
003626   f001
003628   cfe4     movff   0xfe4, 0         	MOVFF	PREINC1, r0x00
00362a   f000
00362c   cfe4     movff   0xfe4, 0xfd9     	MOVFF	PREINC1, FSR2L
00362e   ffd9
003630   0012     return  0                	RETURN	
                                           
                                           ; ; Starting pCode block
                                           S_main__ILI9325_readPixel	code
                                           _ILI9325_readPixel:
                                           ;	.line	554; /home/regis/Hobbies/Electronique/Projets/Pinguino/projets/TFT/ILI9325.c	u16 ILI9325_readPixel(u16 x, u16 y)
0041e0   cfd9     movff   0xfd9, 0xfe5     	MOVFF	FSR2L, POSTDEC1
0041e2   ffe5
0041e4   cfe1     movff   0xfe1, 0xfd9     	MOVFF	FSR1L, FSR2L
0041e6   ffd9
0041e8   c000     movff   0, 0xfe5         	MOVFF	r0x00, POSTDEC1
0041ea   ffe5
0041ec   c001     movff   0x1, 0xfe5       	MOVFF	r0x01, POSTDEC1
0041ee   ffe5
0041f0   c002     movff   0x2, 0xfe5       	MOVFF	r0x02, POSTDEC1
0041f2   ffe5
0041f4   c003     movff   0x3, 0xfe5       	MOVFF	r0x03, POSTDEC1
0041f6   ffe5
0041f8   0e02     movlw   0x2              	MOVLW	0x02
0041fa   cfdb     movff   0xfdb, 0         	MOVFF	PLUSW2, r0x00
0041fc   f000
0041fe   0e03     movlw   0x3              	MOVLW	0x03
004200   cfdb     movff   0xfdb, 0x1       	MOVFF	PLUSW2, r0x01
004202   f001
004204   0e04     movlw   0x4              	MOVLW	0x04
004206   cfdb     movff   0xfdb, 0x2       	MOVFF	PLUSW2, r0x02
004208   f002
00420a   0e05     movlw   0x5              	MOVLW	0x05
00420c   cfdb     movff   0xfdb, 0x3       	MOVFF	PLUSW2, r0x03
00420e   f003
                                           ;	.line	558; /home/regis/Hobbies/Electronique/Projets/Pinguino/projets/TFT/ILI9325.c	if ((x > ILI9325.screen.endx) || (y > ILI9325.screen.endy)) return 0;
004210   5001     movf    0x1, 0, 0        	MOVF	r0x01, W
004212   010e     movlb   0xe              	BANKSEL	(_ILI9325 + 6)
004214   5d06     subwf   0x6, 0, 0x1      	SUBWF	(_ILI9325 + 6), W, B
004216   e102     bnz     0x421c           	BNZ	_00869_DS_
004218   5000     movf    0, 0, 0          	MOVF	r0x00, W
                                           ; removed redundant BANKSEL
00421a   5d05     subwf   0x5, 0, 0x1      	SUBWF	(_ILI9325 + 5), W, B
                                           _00869_DS_:
00421c   e307     bnc     0x422c           	BNC	_00862_DS_
00421e   5003     movf    0x3, 0, 0        	MOVF	r0x03, W
004220   010e     movlb   0xe              	BANKSEL	(_ILI9325 + 8)
004222   5d08     subwf   0x8, 0, 0x1      	SUBWF	(_ILI9325 + 8), W, B
004224   e102     bnz     0x422a           	BNZ	_00870_DS_
004226   5002     movf    0x2, 0, 0        	MOVF	r0x02, W
                                           ; removed redundant BANKSEL
004228   5d07     subwf   0x7, 0, 0x1      	SUBWF	(_ILI9325 + 7), W, B
                                           _00870_DS_:
00422a   e203     bc      0x4232           	BC	_00863_DS_
                                           _00862_DS_:
00422c   6af3     clrf    0xf3, 0          	CLRF	PRODL
00422e   6ae8     clrf    0xe8, 0          	CLRF	WREG
004230   d015     bra     0x425c           	BRA	_00865_DS_
                                           _00863_DS_:
                                           ;	.line	559; /home/regis/Hobbies/Electronique/Projets/Pinguino/projets/TFT/ILI9325.c	ILI9325_setCursor(x, y);
004232   5003     movf    0x3, 0, 0        	MOVF	r0x03, W
004234   6ee5     movwf   0xe5, 0          	MOVWF	POSTDEC1
004236   5002     movf    0x2, 0, 0        	MOVF	r0x02, W
004238   6ee5     movwf   0xe5, 0          	MOVWF	POSTDEC1
00423a   5001     movf    0x1, 0, 0        	MOVF	r0x01, W
00423c   6ee5     movwf   0xe5, 0          	MOVWF	POSTDEC1
00423e   5000     movf    0, 0, 0          	MOVF	r0x00, W
004240   6ee5     movwf   0xe5, 0          	MOVWF	POSTDEC1
004242   ecb4     call    0x3f68, 0        	CALL	_ILI9325_setCursor
004244   f01f
004246   0e04     movlw   0x4              	MOVLW	0x04
004248   26e1     addwf   0xe1, 0x1, 0     	ADDWF	FSR1L, F
                                           ;	.line	561; /home/regis/Hobbies/Electronique/Projets/Pinguino/projets/TFT/ILI9325.c	c = ILI9325_read(ReadDatatoGRAM);
00424a   0e22     movlw   0x22             	MOVLW	0x22
00424c   6ee5     movwf   0xe5, 0          	MOVWF	POSTDEC1
00424e   ec8f     call    0x4b1e, 0        	CALL	_ILI9325_read
004250   f025
004252   cff3     movff   0xff3, 0x1       	MOVFF	PRODL, r0x01
004254   f001
004256   52e6     movf    0xe6, 0x1, 0     	MOVF	POSTINC1, F
                                           ;	.line	564; /home/regis/Hobbies/Electronique/Projets/Pinguino/projets/TFT/ILI9325.c	return c;
004258   c001     movff   0x1, 0xff3       	MOVFF	r0x01, PRODL
00425a   fff3
                                           _00865_DS_:
00425c   cfe4     movff   0xfe4, 0x3       	MOVFF	PREINC1, r0x03
00425e   f003
004260   cfe4     movff   0xfe4, 0x2       	MOVFF	PREINC1, r0x02
004262   f002
004264   cfe4     movff   0xfe4, 0x1       	MOVFF	PREINC1, r0x01
004266   f001
004268   cfe4     movff   0xfe4, 0         	MOVFF	PREINC1, r0x00
00426a   f000
00426c   cfe4     movff   0xfe4, 0xfd9     	MOVFF	PREINC1, FSR2L
00426e   ffd9
004270   0012     return  0                	RETURN	
                                           
                                           ; ; Starting pCode block
                                           S_main__ILI9325_delPixel	code
                                           _ILI9325_delPixel:
                                           ;	.line	535; /home/regis/Hobbies/Electronique/Projets/Pinguino/projets/TFT/ILI9325.c	void ILI9325_delPixel(u16 x, u16 y)
004272   cfd9     movff   0xfd9, 0xfe5     	MOVFF	FSR2L, POSTDEC1
004274   ffe5
004276   cfe1     movff   0xfe1, 0xfd9     	MOVFF	FSR1L, FSR2L
004278   ffd9
00427a   c000     movff   0, 0xfe5         	MOVFF	r0x00, POSTDEC1
00427c   ffe5
00427e   c001     movff   0x1, 0xfe5       	MOVFF	r0x01, POSTDEC1
004280   ffe5
004282   c002     movff   0x2, 0xfe5       	MOVFF	r0x02, POSTDEC1
004284   ffe5
004286   c003     movff   0x3, 0xfe5       	MOVFF	r0x03, POSTDEC1
004288   ffe5
00428a   0e02     movlw   0x2              	MOVLW	0x02
00428c   cfdb     movff   0xfdb, 0         	MOVFF	PLUSW2, r0x00
00428e   f000
004290   0e03     movlw   0x3              	MOVLW	0x03
004292   cfdb     movff   0xfdb, 0x1       	MOVFF	PLUSW2, r0x01
004294   f001
004296   0e04     movlw   0x4              	MOVLW	0x04
004298   cfdb     movff   0xfdb, 0x2       	MOVFF	PLUSW2, r0x02
00429a   f002
00429c   0e05     movlw   0x5              	MOVLW	0x05
00429e   cfdb     movff   0xfdb, 0x3       	MOVFF	PLUSW2, r0x03
0042a0   f003
                                           ;	.line	537; /home/regis/Hobbies/Electronique/Projets/Pinguino/projets/TFT/ILI9325.c	if ((x > ILI9325.screen.endx) || (y > ILI9325.screen.endy)) return;
0042a2   5001     movf    0x1, 0, 0        	MOVF	r0x01, W
0042a4   010e     movlb   0xe              	BANKSEL	(_ILI9325 + 6)
0042a6   5d06     subwf   0x6, 0, 0x1      	SUBWF	(_ILI9325 + 6), W, B
0042a8   e102     bnz     0x42ae           	BNZ	_00856_DS_
0042aa   5000     movf    0, 0, 0          	MOVF	r0x00, W
                                           ; removed redundant BANKSEL
0042ac   5d05     subwf   0x5, 0, 0x1      	SUBWF	(_ILI9325 + 5), W, B
                                           _00856_DS_:
0042ae   e31f     bnc     0x42ee           	BNC	_00852_DS_
0042b0   5003     movf    0x3, 0, 0        	MOVF	r0x03, W
0042b2   010e     movlb   0xe              	BANKSEL	(_ILI9325 + 8)
0042b4   5d08     subwf   0x8, 0, 0x1      	SUBWF	(_ILI9325 + 8), W, B
0042b6   e102     bnz     0x42bc           	BNZ	_00857_DS_
0042b8   5002     movf    0x2, 0, 0        	MOVF	r0x02, W
                                           ; removed redundant BANKSEL
0042ba   5d07     subwf   0x7, 0, 0x1      	SUBWF	(_ILI9325 + 7), W, B
                                           _00857_DS_:
0042bc   e201     bc      0x42c0           	BC	_00850_DS_
                                           _00849_DS_:
0042be   d017     bra     0x42ee           	BRA	_00852_DS_
                                           _00850_DS_:
                                           ;	.line	538; /home/regis/Hobbies/Electronique/Projets/Pinguino/projets/TFT/ILI9325.c	ILI9325_setCursor(x, y);
0042c0   5003     movf    0x3, 0, 0        	MOVF	r0x03, W
0042c2   6ee5     movwf   0xe5, 0          	MOVWF	POSTDEC1
0042c4   5002     movf    0x2, 0, 0        	MOVF	r0x02, W
0042c6   6ee5     movwf   0xe5, 0          	MOVWF	POSTDEC1
0042c8   5001     movf    0x1, 0, 0        	MOVF	r0x01, W
0042ca   6ee5     movwf   0xe5, 0          	MOVWF	POSTDEC1
0042cc   5000     movf    0, 0, 0          	MOVF	r0x00, W
0042ce   6ee5     movwf   0xe5, 0          	MOVWF	POSTDEC1
0042d0   ecb4     call    0x3f68, 0        	CALL	_ILI9325_setCursor
0042d2   f01f
0042d4   0e04     movlw   0x4              	MOVLW	0x04
0042d6   26e1     addwf   0xe1, 0x1, 0     	ADDWF	FSR1L, F
0042d8   010e     movlb   0xe              	BANKSEL	(_ILI9325 + 17)
                                           ;	.line	540; /home/regis/Hobbies/Electronique/Projets/Pinguino/projets/TFT/ILI9325.c	ILI9325_write(WriteDatatoGRAM, ILI9325.bcolor.c);// write color to GRAM
0042da   5111     movf    0x11, 0, 0x1     	MOVF	(_ILI9325 + 17), W, B
0042dc   6ee5     movwf   0xe5, 0          	MOVWF	POSTDEC1
                                           ; removed redundant BANKSEL
0042de   5110     movf    0x10, 0, 0x1     	MOVF	(_ILI9325 + 16), W, B
0042e0   6ee5     movwf   0xe5, 0          	MOVWF	POSTDEC1
0042e2   0e22     movlw   0x22             	MOVLW	0x22
0042e4   6ee5     movwf   0xe5, 0          	MOVWF	POSTDEC1
0042e6   ec88     call    0x4910, 0        	CALL	_ILI9325_write
0042e8   f024
0042ea   0e03     movlw   0x3              	MOVLW	0x03
0042ec   26e1     addwf   0xe1, 0x1, 0     	ADDWF	FSR1L, F
                                           _00852_DS_:
0042ee   cfe4     movff   0xfe4, 0x3       	MOVFF	PREINC1, r0x03
0042f0   f003
0042f2   cfe4     movff   0xfe4, 0x2       	MOVFF	PREINC1, r0x02
0042f4   f002
0042f6   cfe4     movff   0xfe4, 0x1       	MOVFF	PREINC1, r0x01
0042f8   f001
0042fa   cfe4     movff   0xfe4, 0         	MOVFF	PREINC1, r0x00
0042fc   f000
0042fe   cfe4     movff   0xfe4, 0xfd9     	MOVFF	PREINC1, FSR2L
004300   ffd9
004302   0012     return  0                	RETURN	
                                           
                                           ; ; Starting pCode block
                                           S_main__ILI9325_drawPixel	code
                                           _ILI9325_drawPixel:
                                           ;	.line	517; /home/regis/Hobbies/Electronique/Projets/Pinguino/projets/TFT/ILI9325.c	void ILI9325_drawPixel(u16 x, u16 y)
004304   cfd9     movff   0xfd9, 0xfe5     	MOVFF	FSR2L, POSTDEC1
004306   ffe5
004308   cfe1     movff   0xfe1, 0xfd9     	MOVFF	FSR1L, FSR2L
00430a   ffd9
00430c   c000     movff   0, 0xfe5         	MOVFF	r0x00, POSTDEC1
00430e   ffe5
004310   c001     movff   0x1, 0xfe5       	MOVFF	r0x01, POSTDEC1
004312   ffe5
004314   c002     movff   0x2, 0xfe5       	MOVFF	r0x02, POSTDEC1
004316   ffe5
004318   c003     movff   0x3, 0xfe5       	MOVFF	r0x03, POSTDEC1
00431a   ffe5
00431c   0e02     movlw   0x2              	MOVLW	0x02
00431e   cfdb     movff   0xfdb, 0         	MOVFF	PLUSW2, r0x00
004320   f000
004322   0e03     movlw   0x3              	MOVLW	0x03
004324   cfdb     movff   0xfdb, 0x1       	MOVFF	PLUSW2, r0x01
004326   f001
004328   0e04     movlw   0x4              	MOVLW	0x04
00432a   cfdb     movff   0xfdb, 0x2       	MOVFF	PLUSW2, r0x02
00432c   f002
00432e   0e05     movlw   0x5              	MOVLW	0x05
004330   cfdb     movff   0xfdb, 0x3       	MOVFF	PLUSW2, r0x03
004332   f003
                                           ;	.line	519; /home/regis/Hobbies/Electronique/Projets/Pinguino/projets/TFT/ILI9325.c	if ((x > ILI9325.screen.endx) || (y > ILI9325.screen.endy)) return;
004334   5001     movf    0x1, 0, 0        	MOVF	r0x01, W
004336   010e     movlb   0xe              	BANKSEL	(_ILI9325 + 6)
004338   5d06     subwf   0x6, 0, 0x1      	SUBWF	(_ILI9325 + 6), W, B
00433a   e102     bnz     0x4340           	BNZ	_00843_DS_
00433c   5000     movf    0, 0, 0          	MOVF	r0x00, W
                                           ; removed redundant BANKSEL
00433e   5d05     subwf   0x5, 0, 0x1      	SUBWF	(_ILI9325 + 5), W, B
                                           _00843_DS_:
004340   e31f     bnc     0x4380           	BNC	_00839_DS_
004342   5003     movf    0x3, 0, 0        	MOVF	r0x03, W
004344   010e     movlb   0xe              	BANKSEL	(_ILI9325 + 8)
004346   5d08     subwf   0x8, 0, 0x1      	SUBWF	(_ILI9325 + 8), W, B
004348   e102     bnz     0x434e           	BNZ	_00844_DS_
00434a   5002     movf    0x2, 0, 0        	MOVF	r0x02, W
                                           ; removed redundant BANKSEL
00434c   5d07     subwf   0x7, 0, 0x1      	SUBWF	(_ILI9325 + 7), W, B
                                           _00844_DS_:
00434e   e201     bc      0x4352           	BC	_00837_DS_
                                           _00836_DS_:
004350   d017     bra     0x4380           	BRA	_00839_DS_
                                           _00837_DS_:
                                           ;	.line	520; /home/regis/Hobbies/Electronique/Projets/Pinguino/projets/TFT/ILI9325.c	ILI9325_setCursor(x, y);
004352   5003     movf    0x3, 0, 0        	MOVF	r0x03, W
004354   6ee5     movwf   0xe5, 0          	MOVWF	POSTDEC1
004356   5002     movf    0x2, 0, 0        	MOVF	r0x02, W
004358   6ee5     movwf   0xe5, 0          	MOVWF	POSTDEC1
00435a   5001     movf    0x1, 0, 0        	MOVF	r0x01, W
00435c   6ee5     movwf   0xe5, 0          	MOVWF	POSTDEC1
00435e   5000     movf    0, 0, 0          	MOVF	r0x00, W
004360   6ee5     movwf   0xe5, 0          	MOVWF	POSTDEC1
004362   ecb4     call    0x3f68, 0        	CALL	_ILI9325_setCursor
004364   f01f
004366   0e04     movlw   0x4              	MOVLW	0x04
004368   26e1     addwf   0xe1, 0x1, 0     	ADDWF	FSR1L, F
00436a   010e     movlb   0xe              	BANKSEL	(_ILI9325 + 22)
                                           ;	.line	522; /home/regis/Hobbies/Electronique/Projets/Pinguino/projets/TFT/ILI9325.c	ILI9325_write(WriteDatatoGRAM, ILI9325.color.c);// write color to GRAM
00436c   5116     movf    0x16, 0, 0x1     	MOVF	(_ILI9325 + 22), W, B
00436e   6ee5     movwf   0xe5, 0          	MOVWF	POSTDEC1
                                           ; removed redundant BANKSEL
004370   5115     movf    0x15, 0, 0x1     	MOVF	(_ILI9325 + 21), W, B
004372   6ee5     movwf   0xe5, 0          	MOVWF	POSTDEC1
004374   0e22     movlw   0x22             	MOVLW	0x22
004376   6ee5     movwf   0xe5, 0          	MOVWF	POSTDEC1
004378   ec88     call    0x4910, 0        	CALL	_ILI9325_write
00437a   f024
00437c   0e03     movlw   0x3              	MOVLW	0x03
00437e   26e1     addwf   0xe1, 0x1, 0     	ADDWF	FSR1L, F
                                           _00839_DS_:
004380   cfe4     movff   0xfe4, 0x3       	MOVFF	PREINC1, r0x03
004382   f003
004384   cfe4     movff   0xfe4, 0x2       	MOVFF	PREINC1, r0x02
004386   f002
004388   cfe4     movff   0xfe4, 0x1       	MOVFF	PREINC1, r0x01
00438a   f001
00438c   cfe4     movff   0xfe4, 0         	MOVFF	PREINC1, r0x00
00438e   f000
004390   cfe4     movff   0xfe4, 0xfd9     	MOVFF	PREINC1, FSR2L
004392   ffd9
004394   0012     return  0                	RETURN	
                                           
                                           ; ; Starting pCode block
                                           S_main__ILI9325_setCursor	code
                                           _ILI9325_setCursor:
                                           ;	.line	489; /home/regis/Hobbies/Electronique/Projets/Pinguino/projets/TFT/ILI9325.c	void ILI9325_setCursor(u16 x, u16 y)
003f68   cfd9     movff   0xfd9, 0xfe5     	MOVFF	FSR2L, POSTDEC1
003f6a   ffe5
003f6c   cfe1     movff   0xfe1, 0xfd9     	MOVFF	FSR1L, FSR2L
003f6e   ffd9
003f70   c000     movff   0, 0xfe5         	MOVFF	r0x00, POSTDEC1
003f72   ffe5
003f74   c001     movff   0x1, 0xfe5       	MOVFF	r0x01, POSTDEC1
003f76   ffe5
003f78   c002     movff   0x2, 0xfe5       	MOVFF	r0x02, POSTDEC1
003f7a   ffe5
003f7c   c003     movff   0x3, 0xfe5       	MOVFF	r0x03, POSTDEC1
003f7e   ffe5
003f80   0e02     movlw   0x2              	MOVLW	0x02
003f82   cfdb     movff   0xfdb, 0         	MOVFF	PLUSW2, r0x00
003f84   f000
003f86   0e03     movlw   0x3              	MOVLW	0x03
003f88   cfdb     movff   0xfdb, 0x1       	MOVFF	PLUSW2, r0x01
003f8a   f001
003f8c   0e04     movlw   0x4              	MOVLW	0x04
003f8e   cfdb     movff   0xfdb, 0x2       	MOVFF	PLUSW2, r0x02
003f90   f002
003f92   0e05     movlw   0x5              	MOVLW	0x05
003f94   cfdb     movff   0xfdb, 0x3       	MOVFF	PLUSW2, r0x03
003f96   f003
003f98   010e     movlb   0xe              	BANKSEL	_ILI9325
                                           ;	.line	491; /home/regis/Hobbies/Electronique/Projets/Pinguino/projets/TFT/ILI9325.c	if (ILI9325.orientation == LANDSCAPE)
003f9a   5100     movf    0, 0, 0x1        	MOVF	_ILI9325, W, B
003f9c   0a65     xorlw   0x65             	XORLW	0x65
003f9e   e10a     bnz     0x3fb4           	BNZ	_00824_DS_
                                           ;	.line	493; /home/regis/Hobbies/Electronique/Projets/Pinguino/projets/TFT/ILI9325.c	ILI9325.cursor.x = y;			// save current position
003fa0   5002     movf    0x2, 0, 0        	MOVF	r0x02, W
003fa2   010e     movlb   0xe              	BANKSEL	(_ILI9325 + 23)
003fa4   6f17     movwf   0x17, 0x1        	MOVWF	(_ILI9325 + 23), B
003fa6   5003     movf    0x3, 0, 0        	MOVF	r0x03, W
                                           ; removed redundant BANKSEL
003fa8   6f18     movwf   0x18, 0x1        	MOVWF	(_ILI9325 + 24), B
                                           ;	.line	494; /home/regis/Hobbies/Electronique/Projets/Pinguino/projets/TFT/ILI9325.c	ILI9325.cursor.y = x;
003faa   5000     movf    0, 0, 0          	MOVF	r0x00, W
                                           ; removed redundant BANKSEL
003fac   6f19     movwf   0x19, 0x1        	MOVWF	(_ILI9325 + 25), B
003fae   5001     movf    0x1, 0, 0        	MOVF	r0x01, W
                                           ; removed redundant BANKSEL
003fb0   6f1a     movwf   0x1a, 0x1        	MOVWF	(_ILI9325 + 26), B
003fb2   d009     bra     0x3fc6           	BRA	_00825_DS_
                                           _00824_DS_:
                                           ;	.line	498; /home/regis/Hobbies/Electronique/Projets/Pinguino/projets/TFT/ILI9325.c	ILI9325.cursor.x = x;			// save current position
003fb4   5000     movf    0, 0, 0          	MOVF	r0x00, W
003fb6   010e     movlb   0xe              	BANKSEL	(_ILI9325 + 23)
003fb8   6f17     movwf   0x17, 0x1        	MOVWF	(_ILI9325 + 23), B
003fba   5001     movf    0x1, 0, 0        	MOVF	r0x01, W
                                           ; removed redundant BANKSEL
003fbc   6f18     movwf   0x18, 0x1        	MOVWF	(_ILI9325 + 24), B
                                           ;	.line	499; /home/regis/Hobbies/Electronique/Projets/Pinguino/projets/TFT/ILI9325.c	ILI9325.cursor.y = y;
003fbe   5002     movf    0x2, 0, 0        	MOVF	r0x02, W
                                           ; removed redundant BANKSEL
003fc0   6f19     movwf   0x19, 0x1        	MOVWF	(_ILI9325 + 25), B
003fc2   5003     movf    0x3, 0, 0        	MOVF	r0x03, W
                                           ; removed redundant BANKSEL
003fc4   6f1a     movwf   0x1a, 0x1        	MOVWF	(_ILI9325 + 26), B
                                           _00825_DS_:
003fc6   010e     movlb   0xe              	BANKSEL	(_ILI9325 + 24)
                                           ;	.line	503; /home/regis/Hobbies/Electronique/Projets/Pinguino/projets/TFT/ILI9325.c	ILI9325_write(GRAMHorizontalAddressSet, ILI9325.cursor.x);
003fc8   5118     movf    0x18, 0, 0x1     	MOVF	(_ILI9325 + 24), W, B
003fca   6ee5     movwf   0xe5, 0          	MOVWF	POSTDEC1
                                           ; removed redundant BANKSEL
003fcc   5117     movf    0x17, 0, 0x1     	MOVF	(_ILI9325 + 23), W, B
003fce   6ee5     movwf   0xe5, 0          	MOVWF	POSTDEC1
003fd0   0e20     movlw   0x20             	MOVLW	0x20
003fd2   6ee5     movwf   0xe5, 0          	MOVWF	POSTDEC1
003fd4   ec88     call    0x4910, 0        	CALL	_ILI9325_write
003fd6   f024
003fd8   0e03     movlw   0x3              	MOVLW	0x03
003fda   26e1     addwf   0xe1, 0x1, 0     	ADDWF	FSR1L, F
003fdc   010e     movlb   0xe              	BANKSEL	(_ILI9325 + 26)
                                           ;	.line	504; /home/regis/Hobbies/Electronique/Projets/Pinguino/projets/TFT/ILI9325.c	ILI9325_write(GRAMVerticalAddressSet, ILI9325.cursor.y);
003fde   511a     movf    0x1a, 0, 0x1     	MOVF	(_ILI9325 + 26), W, B
003fe0   6ee5     movwf   0xe5, 0          	MOVWF	POSTDEC1
                                           ; removed redundant BANKSEL
003fe2   5119     movf    0x19, 0, 0x1     	MOVF	(_ILI9325 + 25), W, B
003fe4   6ee5     movwf   0xe5, 0          	MOVWF	POSTDEC1
003fe6   0e21     movlw   0x21             	MOVLW	0x21
003fe8   6ee5     movwf   0xe5, 0          	MOVWF	POSTDEC1
003fea   ec88     call    0x4910, 0        	CALL	_ILI9325_write
003fec   f024
003fee   0e03     movlw   0x3              	MOVLW	0x03
003ff0   26e1     addwf   0xe1, 0x1, 0     	ADDWF	FSR1L, F
003ff2   cfe4     movff   0xfe4, 0x3       	MOVFF	PREINC1, r0x03
003ff4   f003
003ff6   cfe4     movff   0xfe4, 0x2       	MOVFF	PREINC1, r0x02
003ff8   f002
003ffa   cfe4     movff   0xfe4, 0x1       	MOVFF	PREINC1, r0x01
003ffc   f001
003ffe   cfe4     movff   0xfe4, 0         	MOVFF	PREINC1, r0x00
004000   f000
004002   cfe4     movff   0xfe4, 0xfd9     	MOVFF	PREINC1, FSR2L
004004   ffd9
004006   0012     return  0                	RETURN	
                                           
                                           ; ; Starting pCode block
                                           S_main__ILI9325_test	code
                                           _ILI9325_test:
                                           ;	.line	451; /home/regis/Hobbies/Electronique/Projets/Pinguino/projets/TFT/ILI9325.c	void ILI9325_test(void)
002f92   c000     movff   0, 0xfe5         	MOVFF	r0x00, POSTDEC1
002f94   ffe5
002f96   c001     movff   0x1, 0xfe5       	MOVFF	r0x01, POSTDEC1
002f98   ffe5
002f9a   c002     movff   0x2, 0xfe5       	MOVFF	r0x02, POSTDEC1
002f9c   ffe5
002f9e   c003     movff   0x3, 0xfe5       	MOVFF	r0x03, POSTDEC1
002fa0   ffe5
002fa2   c004     movff   0x4, 0xfe5       	MOVFF	r0x04, POSTDEC1
002fa4   ffe5
002fa6   c005     movff   0x5, 0xfe5       	MOVFF	r0x05, POSTDEC1
002fa8   ffe5
002faa   c006     movff   0x6, 0xfe5       	MOVFF	r0x06, POSTDEC1
002fac   ffe5
002fae   c007     movff   0x7, 0xfe5       	MOVFF	r0x07, POSTDEC1
002fb0   ffe5
002fb2   c008     movff   0x8, 0xfe5       	MOVFF	r0x08, POSTDEC1
002fb4   ffe5
002fb6   c009     movff   0x9, 0xfe5       	MOVFF	r0x09, POSTDEC1
002fb8   ffe5
002fba   c00a     movff   0xa, 0xfe5       	MOVFF	r0x0a, POSTDEC1
002fbc   ffe5
002fbe   c00b     movff   0xb, 0xfe5       	MOVFF	r0x0b, POSTDEC1
002fc0   ffe5
002fc2   c00c     movff   0xc, 0xfe5       	MOVFF	r0x0c, POSTDEC1
002fc4   ffe5
002fc6   c00d     movff   0xd, 0xfe5       	MOVFF	r0x0d, POSTDEC1
002fc8   ffe5
                                           ;	.line	455; /home/regis/Hobbies/Electronique/Projets/Pinguino/projets/TFT/ILI9325.c	ILI9325_setCursor(0,0);	// set cursor home
002fca   0e00     movlw   0                	MOVLW	0x00
002fcc   6ae5     clrf    0xe5, 0          	CLRF	POSTDEC1
002fce   6ae5     clrf    0xe5, 0          	CLRF	POSTDEC1
002fd0   6ae5     clrf    0xe5, 0          	CLRF	POSTDEC1
002fd2   6ae5     clrf    0xe5, 0          	CLRF	POSTDEC1
002fd4   ecb4     call    0x3f68, 0        	CALL	_ILI9325_setCursor
002fd6   f01f
002fd8   0e04     movlw   0x4              	MOVLW	0x04
002fda   26e1     addwf   0xe1, 0x1, 0     	ADDWF	FSR1L, F
                                           ;	.line	459; /home/regis/Hobbies/Electronique/Projets/Pinguino/projets/TFT/ILI9325.c	ILI9325_writeRegister(WriteDatatoGRAM);		// write GRAM
002fdc   0e22     movlw   0x22             	MOVLW	0x22
002fde   6ee5     movwf   0xe5, 0          	MOVWF	POSTDEC1
002fe0   ecd9     call    0x49b2, 0        	CALL	_ILI9325_writeRegister
002fe2   f024
002fe4   52e6     movf    0xe6, 0x1, 0     	MOVF	POSTINC1, F
                                           ;	.line	460; /home/regis/Hobbies/Electronique/Projets/Pinguino/projets/TFT/ILI9325.c	for (i=ILI9325.screen.starty; i<ILI9325.screen.endy; i++)
002fe6   ce03     movff   0xe03, 0         	MOVFF	(_ILI9325 + 3), r0x00
002fe8   f000
002fea   ce04     movff   0xe04, 0x1       	MOVFF	(_ILI9325 + 4), r0x01
002fec   f001
002fee   6a02     clrf    0x2, 0           	CLRF	r0x02
002ff0   6a03     clrf    0x3, 0           	CLRF	r0x03
                                           _00791_DS_:
002ff2   ce07     movff   0xe07, 0x4       	MOVFF	(_ILI9325 + 7), r0x04
002ff4   f004
002ff6   ce08     movff   0xe08, 0x5       	MOVFF	(_ILI9325 + 8), r0x05
002ff8   f005
002ffa   6a06     clrf    0x6, 0           	CLRF	r0x06
002ffc   6a07     clrf    0x7, 0           	CLRF	r0x07
002ffe   5007     movf    0x7, 0, 0        	MOVF	r0x07, W
003000   5c03     subwf   0x3, 0, 0        	SUBWF	r0x03, W
003002   e108     bnz     0x3014           	BNZ	_00811_DS_
003004   5006     movf    0x6, 0, 0        	MOVF	r0x06, W
003006   5c02     subwf   0x2, 0, 0        	SUBWF	r0x02, W
003008   e105     bnz     0x3014           	BNZ	_00811_DS_
00300a   5005     movf    0x5, 0, 0        	MOVF	r0x05, W
00300c   5c01     subwf   0x1, 0, 0        	SUBWF	r0x01, W
00300e   e102     bnz     0x3014           	BNZ	_00811_DS_
003010   5004     movf    0x4, 0, 0        	MOVF	r0x04, W
003012   5c00     subwf   0, 0, 0          	SUBWF	r0x00, W
                                           _00811_DS_:
003014   b0d8     btfsc   0xd8, 0, 0       	BTFSC	STATUS, 0
003016   d05c     bra     0x30d0           	BRA	_00795_DS_
                                           ;	.line	462; /home/regis/Hobbies/Electronique/Projets/Pinguino/projets/TFT/ILI9325.c	for (j=ILI9325.screen.startx; j<ILI9325.screen.endx; j++)
003018   ce01     movff   0xe01, 0x4       	MOVFF	(_ILI9325 + 1), r0x04
00301a   f004
00301c   ce02     movff   0xe02, 0x5       	MOVFF	(_ILI9325 + 2), r0x05
00301e   f005
003020   6a06     clrf    0x6, 0           	CLRF	r0x06
003022   6a07     clrf    0x7, 0           	CLRF	r0x07
003024   0e00     movlw   0                	MOVLW	0x00
003026   5c03     subwf   0x3, 0, 0        	SUBWF	r0x03, W
003028   e108     bnz     0x303a           	BNZ	_00813_DS_
00302a   0e00     movlw   0                	MOVLW	0x00
00302c   5c02     subwf   0x2, 0, 0        	SUBWF	r0x02, W
00302e   e105     bnz     0x303a           	BNZ	_00813_DS_
003030   0e00     movlw   0                	MOVLW	0x00
003032   5c01     subwf   0x1, 0, 0        	SUBWF	r0x01, W
003034   e102     bnz     0x303a           	BNZ	_00813_DS_
003036   0ed6     movlw   0xd6             	MOVLW	0xd6
003038   5c00     subwf   0, 0, 0          	SUBWF	r0x00, W
                                           _00813_DS_:
00303a   6a08     clrf    0x8, 0           	CLRF	r0x08
00303c   3608     rlcf    0x8, 0x1, 0      	RLCF	r0x08, F
00303e   0e00     movlw   0                	MOVLW	0x00
003040   5c03     subwf   0x3, 0, 0        	SUBWF	r0x03, W
003042   e108     bnz     0x3054           	BNZ	_00815_DS_
003044   0e00     movlw   0                	MOVLW	0x00
003046   5c02     subwf   0x2, 0, 0        	SUBWF	r0x02, W
003048   e105     bnz     0x3054           	BNZ	_00815_DS_
00304a   0e00     movlw   0                	MOVLW	0x00
00304c   5c01     subwf   0x1, 0, 0        	SUBWF	r0x01, W
00304e   e102     bnz     0x3054           	BNZ	_00815_DS_
003050   0e6b     movlw   0x6b             	MOVLW	0x6b
003052   5c00     subwf   0, 0, 0          	SUBWF	r0x00, W
                                           _00815_DS_:
003054   6a09     clrf    0x9, 0           	CLRF	r0x09
003056   3609     rlcf    0x9, 0x1, 0      	RLCF	r0x09, F
                                           _00787_DS_:
003058   ce05     movff   0xe05, 0xa       	MOVFF	(_ILI9325 + 5), r0x0a
00305a   f00a
00305c   ce06     movff   0xe06, 0xb       	MOVFF	(_ILI9325 + 6), r0x0b
00305e   f00b
003060   6a0c     clrf    0xc, 0           	CLRF	r0x0c
003062   6a0d     clrf    0xd, 0           	CLRF	r0x0d
003064   500d     movf    0xd, 0, 0        	MOVF	r0x0d, W
003066   5c07     subwf   0x7, 0, 0        	SUBWF	r0x07, W
003068   e108     bnz     0x307a           	BNZ	_00816_DS_
00306a   500c     movf    0xc, 0, 0        	MOVF	r0x0c, W
00306c   5c06     subwf   0x6, 0, 0        	SUBWF	r0x06, W
00306e   e105     bnz     0x307a           	BNZ	_00816_DS_
003070   500b     movf    0xb, 0, 0        	MOVF	r0x0b, W
003072   5c05     subwf   0x5, 0, 0        	SUBWF	r0x05, W
003074   e102     bnz     0x307a           	BNZ	_00816_DS_
003076   500a     movf    0xa, 0, 0        	MOVF	r0x0a, W
003078   5c04     subwf   0x4, 0, 0        	SUBWF	r0x04, W
                                           _00816_DS_:
00307a   e223     bc      0x30c2           	BC	_00793_DS_
                                           ;	.line	464; /home/regis/Hobbies/Electronique/Projets/Pinguino/projets/TFT/ILI9325.c	if (i>213) ILI9325_writeData(Red);
00307c   5008     movf    0x8, 0, 0        	MOVF	r0x08, W
00307e   e009     bz      0x3092           	BZ	_00785_DS_
003080   0ef8     movlw   0xf8             	MOVLW	0xf8
003082   6ee5     movwf   0xe5, 0          	MOVWF	POSTDEC1
003084   0e00     movlw   0                	MOVLW	0x00
003086   6ae5     clrf    0xe5, 0          	CLRF	POSTDEC1
003088   ec06     call    0x480c, 0        	CALL	_ILI9325_writeData
00308a   f024
00308c   52e6     movf    0xe6, 0x1, 0     	MOVF	POSTINC1, F
00308e   52e6     movf    0xe6, 0x1, 0     	MOVF	POSTINC1, F
003090   d011     bra     0x30b4           	BRA	_00789_DS_
                                           _00785_DS_:
                                           ;	.line	465; /home/regis/Hobbies/Electronique/Projets/Pinguino/projets/TFT/ILI9325.c	else if(i>106) ILI9325_writeData(White);
003092   5009     movf    0x9, 0, 0        	MOVF	r0x09, W
003094   e008     bz      0x30a6           	BZ	_00782_DS_
003096   0eff     movlw   0xff             	MOVLW	0xff
003098   68e5     setf    0xe5, 0          	SETF	POSTDEC1
00309a   68e5     setf    0xe5, 0          	SETF	POSTDEC1
00309c   ec06     call    0x480c, 0        	CALL	_ILI9325_writeData
00309e   f024
0030a0   52e6     movf    0xe6, 0x1, 0     	MOVF	POSTINC1, F
0030a2   52e6     movf    0xe6, 0x1, 0     	MOVF	POSTINC1, F
0030a4   d007     bra     0x30b4           	BRA	_00789_DS_
                                           _00782_DS_:
                                           ;	.line	466; /home/regis/Hobbies/Electronique/Projets/Pinguino/projets/TFT/ILI9325.c	else ILI9325_writeData(Blue);
0030a6   6ae5     clrf    0xe5, 0          	CLRF	POSTDEC1
0030a8   0e1f     movlw   0x1f             	MOVLW	0x1f
0030aa   6ee5     movwf   0xe5, 0          	MOVWF	POSTDEC1
0030ac   ec06     call    0x480c, 0        	CALL	_ILI9325_writeData
0030ae   f024
0030b0   52e6     movf    0xe6, 0x1, 0     	MOVF	POSTINC1, F
0030b2   52e6     movf    0xe6, 0x1, 0     	MOVF	POSTINC1, F
                                           _00789_DS_:
                                           ;	.line	462; /home/regis/Hobbies/Electronique/Projets/Pinguino/projets/TFT/ILI9325.c	for (j=ILI9325.screen.startx; j<ILI9325.screen.endx; j++)
0030b4   2a04     incf    0x4, 0x1, 0      	INCF	r0x04, F
0030b6   e3d0     bnc     0x3058           	BNC	_00787_DS_
0030b8   2a05     incf    0x5, 0x1, 0      	INCF	r0x05, F
0030ba   e3ce     bnc     0x3058           	BNC	_00787_DS_
0030bc   4a06     infsnz  0x6, 0x1, 0      	INFSNZ	r0x06, F
0030be   2a07     incf    0x7, 0x1, 0      	INCF	r0x07, F
                                           _00817_DS_:
0030c0   d7cb     bra     0x3058           	BRA	_00787_DS_
                                           _00793_DS_:
                                           ;	.line	460; /home/regis/Hobbies/Electronique/Projets/Pinguino/projets/TFT/ILI9325.c	for (i=ILI9325.screen.starty; i<ILI9325.screen.endy; i++)
0030c2   2a00     incf    0, 0x1, 0        	INCF	r0x00, F
0030c4   e396     bnc     0x2ff2           	BNC	_00791_DS_
0030c6   2a01     incf    0x1, 0x1, 0      	INCF	r0x01, F
0030c8   e394     bnc     0x2ff2           	BNC	_00791_DS_
0030ca   4a02     infsnz  0x2, 0x1, 0      	INFSNZ	r0x02, F
0030cc   2a03     incf    0x3, 0x1, 0      	INCF	r0x03, F
                                           _00818_DS_:
0030ce   d791     bra     0x2ff2           	BRA	_00791_DS_
                                           _00795_DS_:
0030d0   cfe4     movff   0xfe4, 0xd       	MOVFF	PREINC1, r0x0d
0030d2   f00d
0030d4   cfe4     movff   0xfe4, 0xc       	MOVFF	PREINC1, r0x0c
0030d6   f00c
0030d8   cfe4     movff   0xfe4, 0xb       	MOVFF	PREINC1, r0x0b
0030da   f00b
0030dc   cfe4     movff   0xfe4, 0xa       	MOVFF	PREINC1, r0x0a
0030de   f00a
0030e0   cfe4     movff   0xfe4, 0x9       	MOVFF	PREINC1, r0x09
0030e2   f009
0030e4   cfe4     movff   0xfe4, 0x8       	MOVFF	PREINC1, r0x08
0030e6   f008
0030e8   cfe4     movff   0xfe4, 0x7       	MOVFF	PREINC1, r0x07
0030ea   f007
0030ec   cfe4     movff   0xfe4, 0x6       	MOVFF	PREINC1, r0x06
0030ee   f006
0030f0   cfe4     movff   0xfe4, 0x5       	MOVFF	PREINC1, r0x05
0030f2   f005
0030f4   cfe4     movff   0xfe4, 0x4       	MOVFF	PREINC1, r0x04
0030f6   f004
0030f8   cfe4     movff   0xfe4, 0x3       	MOVFF	PREINC1, r0x03
0030fa   f003
0030fc   cfe4     movff   0xfe4, 0x2       	MOVFF	PREINC1, r0x02
0030fe   f002
003100   cfe4     movff   0xfe4, 0x1       	MOVFF	PREINC1, r0x01
003102   f001
003104   cfe4     movff   0xfe4, 0         	MOVFF	PREINC1, r0x00
003106   f000
003108   0012     return  0                	RETURN	
                                           
                                           ; ; Starting pCode block
                                           S_main__ILI9325_setBackgroundColor	code
                                           _ILI9325_setBackgroundColor:
                                           ;	.line	435; /home/regis/Hobbies/Electronique/Projets/Pinguino/projets/TFT/ILI9325.c	void ILI9325_setBackgroundColor(u16 color)
00452c   cfd9     movff   0xfd9, 0xfe5     	MOVFF	FSR2L, POSTDEC1
00452e   ffe5
004530   cfe1     movff   0xfe1, 0xfd9     	MOVFF	FSR1L, FSR2L
004532   ffd9
004534   c000     movff   0, 0xfe5         	MOVFF	r0x00, POSTDEC1
004536   ffe5
004538   c001     movff   0x1, 0xfe5       	MOVFF	r0x01, POSTDEC1
00453a   ffe5
00453c   c002     movff   0x2, 0xfe5       	MOVFF	r0x02, POSTDEC1
00453e   ffe5
004540   c003     movff   0x3, 0xfe5       	MOVFF	r0x03, POSTDEC1
004542   ffe5
004544   0e02     movlw   0x2              	MOVLW	0x02
004546   cfdb     movff   0xfdb, 0         	MOVFF	PLUSW2, r0x00
004548   f000
00454a   0e03     movlw   0x3              	MOVLW	0x03
00454c   cfdb     movff   0xfdb, 0x1       	MOVFF	PLUSW2, r0x01
00454e   f001
                                           ;	.line	437; /home/regis/Hobbies/Electronique/Projets/Pinguino/projets/TFT/ILI9325.c	ILI9325.bcolor.r = (color >> 11) & 0x1f;
004550   3801     swapf   0x1, 0, 0        	SWAPF	r0x01, W
004552   44e8     rlncf   0xe8, 0, 0       	RLNCF	WREG, W
004554   0b1f     andlw   0x1f             	ANDLW	0x1f
004556   6e02     movwf   0x2, 0           	MOVWF	r0x02
004558   0e1f     movlw   0x1f             	MOVLW	0x1f
00455a   1602     andwf   0x2, 0x1, 0      	ANDWF	r0x02, F
00455c   5002     movf    0x2, 0, 0        	MOVF	r0x02, W
00455e   010e     movlb   0xe              	BANKSEL	(_ILI9325 + 13)
004560   6f0d     movwf   0xd, 0x1         	MOVWF	(_ILI9325 + 13), B
                                           ;	.line	438; /home/regis/Hobbies/Electronique/Projets/Pinguino/projets/TFT/ILI9325.c	ILI9325.bcolor.g = (color >> 5)  & 0x3f;
004562   3800     swapf   0, 0, 0          	SWAPF	r0x00, W
004564   0b0f     andlw   0xf              	ANDLW	0x0f
004566   6e02     movwf   0x2, 0           	MOVWF	r0x02
004568   3801     swapf   0x1, 0, 0        	SWAPF	r0x01, W
00456a   6e03     movwf   0x3, 0           	MOVWF	r0x03
00456c   0bf0     andlw   0xf0             	ANDLW	0xf0
00456e   1a03     xorwf   0x3, 0x1, 0      	XORWF	r0x03, F
004570   2602     addwf   0x2, 0x1, 0      	ADDWF	r0x02, F
004572   3203     rrcf    0x3, 0x1, 0      	RRCF	r0x03, F
004574   3202     rrcf    0x2, 0x1, 0      	RRCF	r0x02, F
004576   0e3f     movlw   0x3f             	MOVLW	0x3f
004578   1602     andwf   0x2, 0x1, 0      	ANDWF	r0x02, F
00457a   5002     movf    0x2, 0, 0        	MOVF	r0x02, W
                                           ; removed redundant BANKSEL
00457c   6f0e     movwf   0xe, 0x1         	MOVWF	(_ILI9325 + 14), B
                                           ;	.line	439; /home/regis/Hobbies/Electronique/Projets/Pinguino/projets/TFT/ILI9325.c	ILI9325.bcolor.b = (color >> 0)  & 0x1f;
00457e   c000     movff   0, 0x2           	MOVFF	r0x00, r0x02
004580   f002
004582   0e1f     movlw   0x1f             	MOVLW	0x1f
004584   1602     andwf   0x2, 0x1, 0      	ANDWF	r0x02, F
004586   5002     movf    0x2, 0, 0        	MOVF	r0x02, W
                                           ; removed redundant BANKSEL
004588   6f0f     movwf   0xf, 0x1         	MOVWF	(_ILI9325 + 15), B
                                           ;	.line	440; /home/regis/Hobbies/Electronique/Projets/Pinguino/projets/TFT/ILI9325.c	ILI9325.bcolor.c = color; // ILI9325_color565(r,g,b);
00458a   5000     movf    0, 0, 0          	MOVF	r0x00, W
                                           ; removed redundant BANKSEL
00458c   6f10     movwf   0x10, 0x1        	MOVWF	(_ILI9325 + 16), B
00458e   5001     movf    0x1, 0, 0        	MOVF	r0x01, W
                                           ; removed redundant BANKSEL
004590   6f11     movwf   0x11, 0x1        	MOVWF	(_ILI9325 + 17), B
004592   cfe4     movff   0xfe4, 0x3       	MOVFF	PREINC1, r0x03
004594   f003
004596   cfe4     movff   0xfe4, 0x2       	MOVFF	PREINC1, r0x02
004598   f002
00459a   cfe4     movff   0xfe4, 0x1       	MOVFF	PREINC1, r0x01
00459c   f001
00459e   cfe4     movff   0xfe4, 0         	MOVFF	PREINC1, r0x00
0045a0   f000
0045a2   cfe4     movff   0xfe4, 0xfd9     	MOVFF	PREINC1, FSR2L
0045a4   ffd9
0045a6   0012     return  0                	RETURN	
                                           
                                           ; ; Starting pCode block
                                           S_main__ILI9325_setColor	code
                                           _ILI9325_setColor:
                                           ;	.line	418; /home/regis/Hobbies/Electronique/Projets/Pinguino/projets/TFT/ILI9325.c	void ILI9325_setColor(u16 color)
0045a8   cfd9     movff   0xfd9, 0xfe5     	MOVFF	FSR2L, POSTDEC1
0045aa   ffe5
0045ac   cfe1     movff   0xfe1, 0xfd9     	MOVFF	FSR1L, FSR2L
0045ae   ffd9
0045b0   c000     movff   0, 0xfe5         	MOVFF	r0x00, POSTDEC1
0045b2   ffe5
0045b4   c001     movff   0x1, 0xfe5       	MOVFF	r0x01, POSTDEC1
0045b6   ffe5
0045b8   c002     movff   0x2, 0xfe5       	MOVFF	r0x02, POSTDEC1
0045ba   ffe5
0045bc   c003     movff   0x3, 0xfe5       	MOVFF	r0x03, POSTDEC1
0045be   ffe5
0045c0   0e02     movlw   0x2              	MOVLW	0x02
0045c2   cfdb     movff   0xfdb, 0         	MOVFF	PLUSW2, r0x00
0045c4   f000
0045c6   0e03     movlw   0x3              	MOVLW	0x03
0045c8   cfdb     movff   0xfdb, 0x1       	MOVFF	PLUSW2, r0x01
0045ca   f001
                                           ;	.line	420; /home/regis/Hobbies/Electronique/Projets/Pinguino/projets/TFT/ILI9325.c	ILI9325.color.r = (color >> 11) & 0x1f;
0045cc   3801     swapf   0x1, 0, 0        	SWAPF	r0x01, W
0045ce   44e8     rlncf   0xe8, 0, 0       	RLNCF	WREG, W
0045d0   0b1f     andlw   0x1f             	ANDLW	0x1f
0045d2   6e02     movwf   0x2, 0           	MOVWF	r0x02
0045d4   0e1f     movlw   0x1f             	MOVLW	0x1f
0045d6   1602     andwf   0x2, 0x1, 0      	ANDWF	r0x02, F
0045d8   5002     movf    0x2, 0, 0        	MOVF	r0x02, W
0045da   010e     movlb   0xe              	BANKSEL	(_ILI9325 + 18)
0045dc   6f12     movwf   0x12, 0x1        	MOVWF	(_ILI9325 + 18), B
                                           ;	.line	421; /home/regis/Hobbies/Electronique/Projets/Pinguino/projets/TFT/ILI9325.c	ILI9325.color.g = (color >> 5)  & 0x3f;
0045de   3800     swapf   0, 0, 0          	SWAPF	r0x00, W
0045e0   0b0f     andlw   0xf              	ANDLW	0x0f
0045e2   6e02     movwf   0x2, 0           	MOVWF	r0x02
0045e4   3801     swapf   0x1, 0, 0        	SWAPF	r0x01, W
0045e6   6e03     movwf   0x3, 0           	MOVWF	r0x03
0045e8   0bf0     andlw   0xf0             	ANDLW	0xf0
0045ea   1a03     xorwf   0x3, 0x1, 0      	XORWF	r0x03, F
0045ec   2602     addwf   0x2, 0x1, 0      	ADDWF	r0x02, F
0045ee   3203     rrcf    0x3, 0x1, 0      	RRCF	r0x03, F
0045f0   3202     rrcf    0x2, 0x1, 0      	RRCF	r0x02, F
0045f2   0e3f     movlw   0x3f             	MOVLW	0x3f
0045f4   1602     andwf   0x2, 0x1, 0      	ANDWF	r0x02, F
0045f6   5002     movf    0x2, 0, 0        	MOVF	r0x02, W
                                           ; removed redundant BANKSEL
0045f8   6f13     movwf   0x13, 0x1        	MOVWF	(_ILI9325 + 19), B
                                           ;	.line	422; /home/regis/Hobbies/Electronique/Projets/Pinguino/projets/TFT/ILI9325.c	ILI9325.color.b = (color >> 0)  & 0x1f;
0045fa   c000     movff   0, 0x2           	MOVFF	r0x00, r0x02
0045fc   f002
0045fe   0e1f     movlw   0x1f             	MOVLW	0x1f
004600   1602     andwf   0x2, 0x1, 0      	ANDWF	r0x02, F
004602   5002     movf    0x2, 0, 0        	MOVF	r0x02, W
                                           ; removed redundant BANKSEL
004604   6f14     movwf   0x14, 0x1        	MOVWF	(_ILI9325 + 20), B
                                           ;	.line	423; /home/regis/Hobbies/Electronique/Projets/Pinguino/projets/TFT/ILI9325.c	ILI9325.color.c = color; // ILI9325_color565(r,g,b);
004606   5000     movf    0, 0, 0          	MOVF	r0x00, W
                                           ; removed redundant BANKSEL
004608   6f15     movwf   0x15, 0x1        	MOVWF	(_ILI9325 + 21), B
00460a   5001     movf    0x1, 0, 0        	MOVF	r0x01, W
                                           ; removed redundant BANKSEL
00460c   6f16     movwf   0x16, 0x1        	MOVWF	(_ILI9325 + 22), B
00460e   cfe4     movff   0xfe4, 0x3       	MOVFF	PREINC1, r0x03
004610   f003
004612   cfe4     movff   0xfe4, 0x2       	MOVFF	PREINC1, r0x02
004614   f002
004616   cfe4     movff   0xfe4, 0x1       	MOVFF	PREINC1, r0x01
004618   f001
00461a   cfe4     movff   0xfe4, 0         	MOVFF	PREINC1, r0x00
00461c   f000
00461e   cfe4     movff   0xfe4, 0xfd9     	MOVFF	PREINC1, FSR2L
004620   ffd9
004622   0012     return  0                	RETURN	
                                           
                                           ; ; Starting pCode block
                                           S_main__ILI9325_color565	code
                                           _ILI9325_color565:
                                           ;	.line	393; /home/regis/Hobbies/Electronique/Projets/Pinguino/projets/TFT/ILI9325.c	u16 ILI9325_color565(u8 r, u8 g, u8 b)
003ec6   cfd9     movff   0xfd9, 0xfe5     	MOVFF	FSR2L, POSTDEC1
003ec8   ffe5
003eca   cfe1     movff   0xfe1, 0xfd9     	MOVFF	FSR1L, FSR2L
003ecc   ffd9
003ece   c000     movff   0, 0xfe5         	MOVFF	r0x00, POSTDEC1
003ed0   ffe5
003ed2   c001     movff   0x1, 0xfe5       	MOVFF	r0x01, POSTDEC1
003ed4   ffe5
003ed6   c002     movff   0x2, 0xfe5       	MOVFF	r0x02, POSTDEC1
003ed8   ffe5
003eda   c003     movff   0x3, 0xfe5       	MOVFF	r0x03, POSTDEC1
003edc   ffe5
003ede   c004     movff   0x4, 0xfe5       	MOVFF	r0x04, POSTDEC1
003ee0   ffe5
003ee2   c005     movff   0x5, 0xfe5       	MOVFF	r0x05, POSTDEC1
003ee4   ffe5
003ee6   c006     movff   0x6, 0xfe5       	MOVFF	r0x06, POSTDEC1
003ee8   ffe5
003eea   0e02     movlw   0x2              	MOVLW	0x02
003eec   cfdb     movff   0xfdb, 0         	MOVFF	PLUSW2, r0x00
003eee   f000
003ef0   0e03     movlw   0x3              	MOVLW	0x03
003ef2   cfdb     movff   0xfdb, 0x1       	MOVFF	PLUSW2, r0x01
003ef4   f001
003ef6   0e04     movlw   0x4              	MOVLW	0x04
003ef8   cfdb     movff   0xfdb, 0x2       	MOVFF	PLUSW2, r0x02
003efa   f002
                                           ;	.line	406; /home/regis/Hobbies/Electronique/Projets/Pinguino/projets/TFT/ILI9325.c	return ((r >> 3) << 11) | ((g >> 2) << 5) | (b >> 3);
003efc   3800     swapf   0, 0, 0          	SWAPF	r0x00, W
003efe   44e8     rlncf   0xe8, 0, 0       	RLNCF	WREG, W
003f00   0b1f     andlw   0x1f             	ANDLW	0x1f
003f02   6e00     movwf   0, 0             	MOVWF	r0x00
003f04   3800     swapf   0, 0, 0          	SWAPF	r0x00, W
003f06   40e8     rrncf   0xe8, 0, 0       	RRNCF	WREG, W
003f08   0bf8     andlw   0xf8             	ANDLW	0xf8
003f0a   6e05     movwf   0x5, 0           	MOVWF	r0x05
003f0c   6a04     clrf    0x4, 0           	CLRF	r0x04
003f0e   4001     rrncf   0x1, 0, 0        	RRNCF	r0x01, W
003f10   40e8     rrncf   0xe8, 0, 0       	RRNCF	WREG, W
003f12   0b3f     andlw   0x3f             	ANDLW	0x3f
003f14   6e01     movwf   0x1, 0           	MOVWF	r0x01
003f16   6a00     clrf    0, 0             	CLRF	r0x00
003f18   3800     swapf   0, 0, 0          	SWAPF	r0x00, W
003f1a   0bf0     andlw   0xf0             	ANDLW	0xf0
003f1c   6e06     movwf   0x6, 0           	MOVWF	r0x06
003f1e   3801     swapf   0x1, 0, 0        	SWAPF	r0x01, W
003f20   6e03     movwf   0x3, 0           	MOVWF	r0x03
003f22   0b0f     andlw   0xf              	ANDLW	0x0f
003f24   1a03     xorwf   0x3, 0x1, 0      	XORWF	r0x03, F
003f26   2606     addwf   0x6, 0x1, 0      	ADDWF	r0x06, F
003f28   3603     rlcf    0x3, 0x1, 0      	RLCF	r0x03, F
003f2a   3606     rlcf    0x6, 0x1, 0      	RLCF	r0x06, F
003f2c   5003     movf    0x3, 0, 0        	MOVF	r0x03, W
003f2e   1204     iorwf   0x4, 0x1, 0      	IORWF	r0x04, F
003f30   5006     movf    0x6, 0, 0        	MOVF	r0x06, W
003f32   1205     iorwf   0x5, 0x1, 0      	IORWF	r0x05, F
003f34   3802     swapf   0x2, 0, 0        	SWAPF	r0x02, W
003f36   44e8     rlncf   0xe8, 0, 0       	RLNCF	WREG, W
003f38   0b1f     andlw   0x1f             	ANDLW	0x1f
003f3a   1204     iorwf   0x4, 0x1, 0      	IORWF	r0x04, F
003f3c   5000     movf    0, 0, 0          	MOVF	r0x00, W
003f3e   1205     iorwf   0x5, 0x1, 0      	IORWF	r0x05, F
003f40   c005     movff   0x5, 0xff3       	MOVFF	r0x05, PRODL
003f42   fff3
003f44   5004     movf    0x4, 0, 0        	MOVF	r0x04, W
003f46   cfe4     movff   0xfe4, 0x6       	MOVFF	PREINC1, r0x06
003f48   f006
003f4a   cfe4     movff   0xfe4, 0x5       	MOVFF	PREINC1, r0x05
003f4c   f005
003f4e   cfe4     movff   0xfe4, 0x4       	MOVFF	PREINC1, r0x04
003f50   f004
003f52   cfe4     movff   0xfe4, 0x3       	MOVFF	PREINC1, r0x03
003f54   f003
003f56   cfe4     movff   0xfe4, 0x2       	MOVFF	PREINC1, r0x02
003f58   f002
003f5a   cfe4     movff   0xfe4, 0x1       	MOVFF	PREINC1, r0x01
003f5c   f001
003f5e   cfe4     movff   0xfe4, 0         	MOVFF	PREINC1, r0x00
003f60   f000
003f62   cfe4     movff   0xfe4, 0xfd9     	MOVFF	PREINC1, FSR2L
003f64   ffd9
003f66   0012     return  0                	RETURN	
                                           
                                           ; ; Starting pCode block
                                           S_main__ILI9325_init	code
                                           _ILI9325_init:
                                           ;	.line	225; /home/regis/Hobbies/Electronique/Projets/Pinguino/projets/TFT/ILI9325.c	ILI9325.orientation = PORTRAIT;
002502   0e64     movlw   0x64             	MOVLW	0x64
002504   010e     movlb   0xe              	BANKSEL	_ILI9325
002506   6f00     movwf   0, 0x1           	MOVWF	_ILI9325, B
                                           ; removed redundant BANKSEL
                                           ;	.line	226; /home/regis/Hobbies/Electronique/Projets/Pinguino/projets/TFT/ILI9325.c	ILI9325.cursor.x = 0;
002508   6b17     clrf    0x17, 0x1        	CLRF	(_ILI9325 + 23), B
                                           ; removed redundant BANKSEL
00250a   6b18     clrf    0x18, 0x1        	CLRF	(_ILI9325 + 24), B
                                           ; removed redundant BANKSEL
                                           ;	.line	227; /home/regis/Hobbies/Electronique/Projets/Pinguino/projets/TFT/ILI9325.c	ILI9325.cursor.y = 0;
00250c   6b19     clrf    0x19, 0x1        	CLRF	(_ILI9325 + 25), B
                                           ; removed redundant BANKSEL
00250e   6b1a     clrf    0x1a, 0x1        	CLRF	(_ILI9325 + 26), B
                                           ; removed redundant BANKSEL
                                           ;	.line	228; /home/regis/Hobbies/Electronique/Projets/Pinguino/projets/TFT/ILI9325.c	ILI9325.screen.startx = 0;
002510   6b01     clrf    0x1, 0x1         	CLRF	(_ILI9325 + 1), B
                                           ; removed redundant BANKSEL
002512   6b02     clrf    0x2, 0x1         	CLRF	(_ILI9325 + 2), B
                                           ; removed redundant BANKSEL
                                           ;	.line	229; /home/regis/Hobbies/Electronique/Projets/Pinguino/projets/TFT/ILI9325.c	ILI9325.screen.starty = 0;
002514   6b03     clrf    0x3, 0x1         	CLRF	(_ILI9325 + 3), B
                                           ; removed redundant BANKSEL
002516   6b04     clrf    0x4, 0x1         	CLRF	(_ILI9325 + 4), B
                                           ;	.line	230; /home/regis/Hobbies/Electronique/Projets/Pinguino/projets/TFT/ILI9325.c	ILI9325.screen.endx = 239;
002518   0eef     movlw   0xef             	MOVLW	0xef
                                           ; removed redundant BANKSEL
00251a   6f05     movwf   0x5, 0x1         	MOVWF	(_ILI9325 + 5), B
                                           ; removed redundant BANKSEL
00251c   6b06     clrf    0x6, 0x1         	CLRF	(_ILI9325 + 6), B
                                           ;	.line	231; /home/regis/Hobbies/Electronique/Projets/Pinguino/projets/TFT/ILI9325.c	ILI9325.screen.endy = 319;
00251e   0e3f     movlw   0x3f             	MOVLW	0x3f
                                           ; removed redundant BANKSEL
002520   6f07     movwf   0x7, 0x1         	MOVWF	(_ILI9325 + 7), B
002522   0e01     movlw   0x1              	MOVLW	0x01
                                           ; removed redundant BANKSEL
002524   6f08     movwf   0x8, 0x1         	MOVWF	(_ILI9325 + 8), B
                                           ;	.line	232; /home/regis/Hobbies/Electronique/Projets/Pinguino/projets/TFT/ILI9325.c	ILI9325.screen.width = 240;
002526   0ef0     movlw   0xf0             	MOVLW	0xf0
                                           ; removed redundant BANKSEL
002528   6f09     movwf   0x9, 0x1         	MOVWF	(_ILI9325 + 9), B
                                           ; removed redundant BANKSEL
00252a   6b0a     clrf    0xa, 0x1         	CLRF	(_ILI9325 + 10), B
                                           ;	.line	233; /home/regis/Hobbies/Electronique/Projets/Pinguino/projets/TFT/ILI9325.c	ILI9325.screen.height = 320;
00252c   0e40     movlw   0x40             	MOVLW	0x40
                                           ; removed redundant BANKSEL
00252e   6f0b     movwf   0xb, 0x1         	MOVWF	(_ILI9325 + 11), B
002530   0e01     movlw   0x1              	MOVLW	0x01
                                           ; removed redundant BANKSEL
002532   6f0c     movwf   0xc, 0x1         	MOVWF	(_ILI9325 + 12), B
                                           ;	.line	234; /home/regis/Hobbies/Electronique/Projets/Pinguino/projets/TFT/ILI9325.c	ILI9325.font.width = ILI9325_getFontWidth();
002534   ec68     call    0x4cd0, 0        	CALL	_ILI9325_getFontWidth
002536   f026
                                           ; #	MOVWF	r0x00
                                           ; #	MOVF	r0x00, W
002538   010e     movlb   0xe              	BANKSEL	(_ILI9325 + 27)
00253a   6f1b     movwf   0x1b, 0x1        	MOVWF	(_ILI9325 + 27), B
                                           ;	.line	235; /home/regis/Hobbies/Electronique/Projets/Pinguino/projets/TFT/ILI9325.c	ILI9325.font.height= ILI9325_getFontHeight();
00253c   ec02     call    0xc04, 0         	CALL	_ILI9325_getFontHeight
00253e   f006
                                           ; #	MOVWF	r0x00
                                           ; #	MOVF	r0x00, W
002540   010e     movlb   0xe              	BANKSEL	(_ILI9325 + 28)
002542   6f1c     movwf   0x1c, 0x1        	MOVWF	(_ILI9325 + 28), B
                                           ;	.line	240; /home/regis/Hobbies/Electronique/Projets/Pinguino/projets/TFT/ILI9325.c	dDATA = 0x00;
002544   6a93     clrf    0x93, 0          	CLRF	_TRISB
                                           ;	.line	241; /home/regis/Hobbies/Electronique/Projets/Pinguino/projets/TFT/ILI9325.c	dCMD  = 0x00;
002546   6a92     clrf    0x92, 0          	CLRF	_TRISA
                                           ;	.line	252; /home/regis/Hobbies/Electronique/Projets/Pinguino/projets/TFT/ILI9325.c	DATA = 0x00;
002548   6a8a     clrf    0x8a, 0          	CLRF	_LATB
                                           ;	.line	281; /home/regis/Hobbies/Electronique/Projets/Pinguino/projets/TFT/ILI9325.c	ILI9325_write(DriverOutputControl, 0x0100); // SS=1 (shift dir. to the right)
00254a   0e01     movlw   0x1              	MOVLW	0x01
00254c   6ee5     movwf   0xe5, 0          	MOVWF	POSTDEC1
00254e   6ae5     clrf    0xe5, 0          	CLRF	POSTDEC1
002550   6ee5     movwf   0xe5, 0          	MOVWF	POSTDEC1
002552   ec88     call    0x4910, 0        	CALL	_ILI9325_write
002554   f024
002556   0e03     movlw   0x3              	MOVLW	0x03
002558   26e1     addwf   0xe1, 0x1, 0     	ADDWF	FSR1L, F
                                           ;	.line	282; /home/regis/Hobbies/Electronique/Projets/Pinguino/projets/TFT/ILI9325.c	ILI9325_write(EntryMode, 0x1030);		    //set GRAM write direction and BGR=1 PORTRAIT MODE
00255a   0e10     movlw   0x10             	MOVLW	0x10
00255c   6ee5     movwf   0xe5, 0          	MOVWF	POSTDEC1
00255e   0e30     movlw   0x30             	MOVLW	0x30
002560   6ee5     movwf   0xe5, 0          	MOVWF	POSTDEC1
002562   0e03     movlw   0x3              	MOVLW	0x03
002564   6ee5     movwf   0xe5, 0          	MOVWF	POSTDEC1
002566   ec88     call    0x4910, 0        	CALL	_ILI9325_write
002568   f024
00256a   0e03     movlw   0x3              	MOVLW	0x03
00256c   26e1     addwf   0xe1, 0x1, 0     	ADDWF	FSR1L, F
                                           ;	.line	283; /home/regis/Hobbies/Electronique/Projets/Pinguino/projets/TFT/ILI9325.c	ILI9325_write(LCDDrivingWaveControl, 0x0700); // set 1 line inversion
00256e   0e07     movlw   0x7              	MOVLW	0x07
002570   6ee5     movwf   0xe5, 0          	MOVWF	POSTDEC1
002572   6ae5     clrf    0xe5, 0          	CLRF	POSTDEC1
002574   0e02     movlw   0x2              	MOVLW	0x02
002576   6ee5     movwf   0xe5, 0          	MOVWF	POSTDEC1
002578   ec88     call    0x4910, 0        	CALL	_ILI9325_write
00257a   f024
00257c   0e03     movlw   0x3              	MOVLW	0x03
00257e   26e1     addwf   0xe1, 0x1, 0     	ADDWF	FSR1L, F
                                           ;	.line	286; /home/regis/Hobbies/Electronique/Projets/Pinguino/projets/TFT/ILI9325.c	ILI9325_write(DisplayControl2, 0x0202); // set the back porch and front porch to 4 lines
002580   0e02     movlw   0x2              	MOVLW	0x02
002582   6ee5     movwf   0xe5, 0          	MOVWF	POSTDEC1
002584   6ee5     movwf   0xe5, 0          	MOVWF	POSTDEC1
002586   0e08     movlw   0x8              	MOVLW	0x08
002588   6ee5     movwf   0xe5, 0          	MOVWF	POSTDEC1
00258a   ec88     call    0x4910, 0        	CALL	_ILI9325_write
00258c   f024
00258e   0e03     movlw   0x3              	MOVLW	0x03
002590   26e1     addwf   0xe1, 0x1, 0     	ADDWF	FSR1L, F
                                           ;	.line	287; /home/regis/Hobbies/Electronique/Projets/Pinguino/projets/TFT/ILI9325.c	ILI9325_write(DisplayControl3, 0x0000); // set non-display area refresh cycle ISC[3:0]
002592   6ae5     clrf    0xe5, 0          	CLRF	POSTDEC1
002594   6ae5     clrf    0xe5, 0          	CLRF	POSTDEC1
002596   0e09     movlw   0x9              	MOVLW	0x09
002598   6ee5     movwf   0xe5, 0          	MOVWF	POSTDEC1
00259a   ec88     call    0x4910, 0        	CALL	_ILI9325_write
00259c   f024
00259e   0e03     movlw   0x3              	MOVLW	0x03
0025a0   26e1     addwf   0xe1, 0x1, 0     	ADDWF	FSR1L, F
                                           ;	.line	288; /home/regis/Hobbies/Electronique/Projets/Pinguino/projets/TFT/ILI9325.c	ILI9325_write(DisplayControl4, 0x0000); // FMARK function
0025a2   6ae5     clrf    0xe5, 0          	CLRF	POSTDEC1
0025a4   6ae5     clrf    0xe5, 0          	CLRF	POSTDEC1
0025a6   0e0a     movlw   0xa              	MOVLW	0x0a
0025a8   6ee5     movwf   0xe5, 0          	MOVWF	POSTDEC1
0025aa   ec88     call    0x4910, 0        	CALL	_ILI9325_write
0025ac   f024
0025ae   0e03     movlw   0x3              	MOVLW	0x03
0025b0   26e1     addwf   0xe1, 0x1, 0     	ADDWF	FSR1L, F
                                           ;	.line	294; /home/regis/Hobbies/Electronique/Projets/Pinguino/projets/TFT/ILI9325.c	ILI9325_write(PowerControl1, 0x0000); // SAP, BT[3:0], AP, DSTB, SLP, STB
0025b2   6ae5     clrf    0xe5, 0          	CLRF	POSTDEC1
0025b4   6ae5     clrf    0xe5, 0          	CLRF	POSTDEC1
0025b6   0e10     movlw   0x10             	MOVLW	0x10
0025b8   6ee5     movwf   0xe5, 0          	MOVWF	POSTDEC1
0025ba   ec88     call    0x4910, 0        	CALL	_ILI9325_write
0025bc   f024
0025be   0e03     movlw   0x3              	MOVLW	0x03
0025c0   26e1     addwf   0xe1, 0x1, 0     	ADDWF	FSR1L, F
                                           ;	.line	295; /home/regis/Hobbies/Electronique/Projets/Pinguino/projets/TFT/ILI9325.c	ILI9325_write(PowerControl2, 0x0007); // DC1[2:0], DC0[2:0], VC[2:0]
0025c2   6ae5     clrf    0xe5, 0          	CLRF	POSTDEC1
0025c4   0e07     movlw   0x7              	MOVLW	0x07
0025c6   6ee5     movwf   0xe5, 0          	MOVWF	POSTDEC1
0025c8   0e11     movlw   0x11             	MOVLW	0x11
0025ca   6ee5     movwf   0xe5, 0          	MOVWF	POSTDEC1
0025cc   ec88     call    0x4910, 0        	CALL	_ILI9325_write
0025ce   f024
0025d0   0e03     movlw   0x3              	MOVLW	0x03
0025d2   26e1     addwf   0xe1, 0x1, 0     	ADDWF	FSR1L, F
                                           ;	.line	296; /home/regis/Hobbies/Electronique/Projets/Pinguino/projets/TFT/ILI9325.c	ILI9325_write(PowerControl3, 0x0000); // VREG1OUT voltage
0025d4   6ae5     clrf    0xe5, 0          	CLRF	POSTDEC1
0025d6   6ae5     clrf    0xe5, 0          	CLRF	POSTDEC1
0025d8   0e12     movlw   0x12             	MOVLW	0x12
0025da   6ee5     movwf   0xe5, 0          	MOVWF	POSTDEC1
0025dc   ec88     call    0x4910, 0        	CALL	_ILI9325_write
0025de   f024
0025e0   0e03     movlw   0x3              	MOVLW	0x03
0025e2   26e1     addwf   0xe1, 0x1, 0     	ADDWF	FSR1L, F
                                           ;	.line	297; /home/regis/Hobbies/Electronique/Projets/Pinguino/projets/TFT/ILI9325.c	ILI9325_write(PowerControl4, 0x0000); // VDV[4:0] for VCOM amplitude
0025e4   6ae5     clrf    0xe5, 0          	CLRF	POSTDEC1
0025e6   6ae5     clrf    0xe5, 0          	CLRF	POSTDEC1
0025e8   0e13     movlw   0x13             	MOVLW	0x13
0025ea   6ee5     movwf   0xe5, 0          	MOVWF	POSTDEC1
0025ec   ec88     call    0x4910, 0        	CALL	_ILI9325_write
0025ee   f024
0025f0   0e03     movlw   0x3              	MOVLW	0x03
0025f2   26e1     addwf   0xe1, 0x1, 0     	ADDWF	FSR1L, F
                                           ;	.line	298; /home/regis/Hobbies/Electronique/Projets/Pinguino/projets/TFT/ILI9325.c	Delayms(200); // Discharge capacitor power voltage
0025f4   6ae5     clrf    0xe5, 0          	CLRF	POSTDEC1
0025f6   0ec8     movlw   0xc8             	MOVLW	0xc8
0025f8   6ee5     movwf   0xe5, 0          	MOVWF	POSTDEC1
0025fa   ec33     call    0x4866, 0        	CALL	_Delayms
0025fc   f024
0025fe   52e6     movf    0xe6, 0x1, 0     	MOVF	POSTINC1, F
002600   52e6     movf    0xe6, 0x1, 0     	MOVF	POSTINC1, F
                                           ;	.line	300; /home/regis/Hobbies/Electronique/Projets/Pinguino/projets/TFT/ILI9325.c	ILI9325_write(PowerControl1, 0x1690); // SAP=1, BT[3:0]=110, APE=1, AP=001, DSTB=0, SLP=0, STB=0
002602   0e16     movlw   0x16             	MOVLW	0x16
002604   6ee5     movwf   0xe5, 0          	MOVWF	POSTDEC1
002606   0e90     movlw   0x90             	MOVLW	0x90
002608   6ee5     movwf   0xe5, 0          	MOVWF	POSTDEC1
00260a   0e10     movlw   0x10             	MOVLW	0x10
00260c   6ee5     movwf   0xe5, 0          	MOVWF	POSTDEC1
00260e   ec88     call    0x4910, 0        	CALL	_ILI9325_write
002610   f024
002612   0e03     movlw   0x3              	MOVLW	0x03
002614   26e1     addwf   0xe1, 0x1, 0     	ADDWF	FSR1L, F
                                           ;	.line	301; /home/regis/Hobbies/Electronique/Projets/Pinguino/projets/TFT/ILI9325.c	ILI9325_write(PowerControl2, 0x0000); // DC1[2:0]=010, DC0[2:0]=010, VC[2:0]=000
002616   6ae5     clrf    0xe5, 0          	CLRF	POSTDEC1
002618   6ae5     clrf    0xe5, 0          	CLRF	POSTDEC1
00261a   0e11     movlw   0x11             	MOVLW	0x11
00261c   6ee5     movwf   0xe5, 0          	MOVWF	POSTDEC1
00261e   ec88     call    0x4910, 0        	CALL	_ILI9325_write
002620   f024
002622   0e03     movlw   0x3              	MOVLW	0x03
002624   26e1     addwf   0xe1, 0x1, 0     	ADDWF	FSR1L, F
                                           ;	.line	302; /home/regis/Hobbies/Electronique/Projets/Pinguino/projets/TFT/ILI9325.c	Delayms(50);
002626   6ae5     clrf    0xe5, 0          	CLRF	POSTDEC1
002628   0e32     movlw   0x32             	MOVLW	0x32
00262a   6ee5     movwf   0xe5, 0          	MOVWF	POSTDEC1
00262c   ec33     call    0x4866, 0        	CALL	_Delayms
00262e   f024
002630   52e6     movf    0xe6, 0x1, 0     	MOVF	POSTINC1, F
002632   52e6     movf    0xe6, 0x1, 0     	MOVF	POSTINC1, F
                                           ;	.line	304; /home/regis/Hobbies/Electronique/Projets/Pinguino/projets/TFT/ILI9325.c	ILI9325_write(PowerControl3, 0x001F); // External reference voltage= Vci;
002634   6ae5     clrf    0xe5, 0          	CLRF	POSTDEC1
002636   0e1f     movlw   0x1f             	MOVLW	0x1f
002638   6ee5     movwf   0xe5, 0          	MOVWF	POSTDEC1
00263a   0e12     movlw   0x12             	MOVLW	0x12
00263c   6ee5     movwf   0xe5, 0          	MOVWF	POSTDEC1
00263e   ec88     call    0x4910, 0        	CALL	_ILI9325_write
002640   f024
002642   0e03     movlw   0x3              	MOVLW	0x03
002644   26e1     addwf   0xe1, 0x1, 0     	ADDWF	FSR1L, F
                                           ;	.line	305; /home/regis/Hobbies/Electronique/Projets/Pinguino/projets/TFT/ILI9325.c	Delayms(50);
002646   6ae5     clrf    0xe5, 0          	CLRF	POSTDEC1
002648   0e32     movlw   0x32             	MOVLW	0x32
00264a   6ee5     movwf   0xe5, 0          	MOVWF	POSTDEC1
00264c   ec33     call    0x4866, 0        	CALL	_Delayms
00264e   f024
002650   52e6     movf    0xe6, 0x1, 0     	MOVF	POSTINC1, F
002652   52e6     movf    0xe6, 0x1, 0     	MOVF	POSTINC1, F
                                           ;	.line	307; /home/regis/Hobbies/Electronique/Projets/Pinguino/projets/TFT/ILI9325.c	ILI9325_write(PowerControl4, 0x1F00); // R13=1200 when R12=009D;VDV[4:0] for VCOM amplitude
002654   0e1f     movlw   0x1f             	MOVLW	0x1f
002656   6ee5     movwf   0xe5, 0          	MOVWF	POSTDEC1
002658   6ae5     clrf    0xe5, 0          	CLRF	POSTDEC1
00265a   0e13     movlw   0x13             	MOVLW	0x13
00265c   6ee5     movwf   0xe5, 0          	MOVWF	POSTDEC1
00265e   ec88     call    0x4910, 0        	CALL	_ILI9325_write
002660   f024
002662   0e03     movlw   0x3              	MOVLW	0x03
002664   26e1     addwf   0xe1, 0x1, 0     	ADDWF	FSR1L, F
                                           ;	.line	309; /home/regis/Hobbies/Electronique/Projets/Pinguino/projets/TFT/ILI9325.c	Delayms(50);
002666   6ae5     clrf    0xe5, 0          	CLRF	POSTDEC1
002668   0e32     movlw   0x32             	MOVLW	0x32
00266a   6ee5     movwf   0xe5, 0          	MOVWF	POSTDEC1
00266c   ec33     call    0x4866, 0        	CALL	_Delayms
00266e   f024
002670   52e6     movf    0xe6, 0x1, 0     	MOVF	POSTINC1, F
002672   52e6     movf    0xe6, 0x1, 0     	MOVF	POSTINC1, F
                                           ;	.line	316; /home/regis/Hobbies/Electronique/Projets/Pinguino/projets/TFT/ILI9325.c	ILI9325_write(GammaControl1, 0x0007);
002674   6ae5     clrf    0xe5, 0          	CLRF	POSTDEC1
002676   0e07     movlw   0x7              	MOVLW	0x07
002678   6ee5     movwf   0xe5, 0          	MOVWF	POSTDEC1
00267a   0e30     movlw   0x30             	MOVLW	0x30
00267c   6ee5     movwf   0xe5, 0          	MOVWF	POSTDEC1
00267e   ec88     call    0x4910, 0        	CALL	_ILI9325_write
002680   f024
002682   0e03     movlw   0x3              	MOVLW	0x03
002684   26e1     addwf   0xe1, 0x1, 0     	ADDWF	FSR1L, F
                                           ;	.line	317; /home/regis/Hobbies/Electronique/Projets/Pinguino/projets/TFT/ILI9325.c	ILI9325_write(GammaControl2, 0x0107);
002686   0e01     movlw   0x1              	MOVLW	0x01
002688   6ee5     movwf   0xe5, 0          	MOVWF	POSTDEC1
00268a   0e07     movlw   0x7              	MOVLW	0x07
00268c   6ee5     movwf   0xe5, 0          	MOVWF	POSTDEC1
00268e   0e31     movlw   0x31             	MOVLW	0x31
002690   6ee5     movwf   0xe5, 0          	MOVWF	POSTDEC1
002692   ec88     call    0x4910, 0        	CALL	_ILI9325_write
002694   f024
002696   0e03     movlw   0x3              	MOVLW	0x03
002698   26e1     addwf   0xe1, 0x1, 0     	ADDWF	FSR1L, F
                                           ;	.line	318; /home/regis/Hobbies/Electronique/Projets/Pinguino/projets/TFT/ILI9325.c	ILI9325_write(GammaControl3, 0x0000);
00269a   6ae5     clrf    0xe5, 0          	CLRF	POSTDEC1
00269c   6ae5     clrf    0xe5, 0          	CLRF	POSTDEC1
00269e   0e32     movlw   0x32             	MOVLW	0x32
0026a0   6ee5     movwf   0xe5, 0          	MOVWF	POSTDEC1
0026a2   ec88     call    0x4910, 0        	CALL	_ILI9325_write
0026a4   f024
0026a6   0e03     movlw   0x3              	MOVLW	0x03
0026a8   26e1     addwf   0xe1, 0x1, 0     	ADDWF	FSR1L, F
                                           ;	.line	319; /home/regis/Hobbies/Electronique/Projets/Pinguino/projets/TFT/ILI9325.c	ILI9325_write(GammaControl4, 0x0203);
0026aa   0e02     movlw   0x2              	MOVLW	0x02
0026ac   6ee5     movwf   0xe5, 0          	MOVWF	POSTDEC1
0026ae   0e03     movlw   0x3              	MOVLW	0x03
0026b0   6ee5     movwf   0xe5, 0          	MOVWF	POSTDEC1
0026b2   0e35     movlw   0x35             	MOVLW	0x35
0026b4   6ee5     movwf   0xe5, 0          	MOVWF	POSTDEC1
0026b6   ec88     call    0x4910, 0        	CALL	_ILI9325_write
0026b8   f024
0026ba   0e03     movlw   0x3              	MOVLW	0x03
0026bc   26e1     addwf   0xe1, 0x1, 0     	ADDWF	FSR1L, F
                                           ;	.line	320; /home/regis/Hobbies/Electronique/Projets/Pinguino/projets/TFT/ILI9325.c	ILI9325_write(GammaControl5, 0x0402);
0026be   0e04     movlw   0x4              	MOVLW	0x04
0026c0   6ee5     movwf   0xe5, 0          	MOVWF	POSTDEC1
0026c2   0e02     movlw   0x2              	MOVLW	0x02
0026c4   6ee5     movwf   0xe5, 0          	MOVWF	POSTDEC1
0026c6   0e36     movlw   0x36             	MOVLW	0x36
0026c8   6ee5     movwf   0xe5, 0          	MOVWF	POSTDEC1
0026ca   ec88     call    0x4910, 0        	CALL	_ILI9325_write
0026cc   f024
0026ce   0e03     movlw   0x3              	MOVLW	0x03
0026d0   26e1     addwf   0xe1, 0x1, 0     	ADDWF	FSR1L, F
                                           ;	.line	321; /home/regis/Hobbies/Electronique/Projets/Pinguino/projets/TFT/ILI9325.c	ILI9325_write(GammaControl6, 0x0000);
0026d2   6ae5     clrf    0xe5, 0          	CLRF	POSTDEC1
0026d4   6ae5     clrf    0xe5, 0          	CLRF	POSTDEC1
0026d6   0e37     movlw   0x37             	MOVLW	0x37
0026d8   6ee5     movwf   0xe5, 0          	MOVWF	POSTDEC1
0026da   ec88     call    0x4910, 0        	CALL	_ILI9325_write
0026dc   f024
0026de   0e03     movlw   0x3              	MOVLW	0x03
0026e0   26e1     addwf   0xe1, 0x1, 0     	ADDWF	FSR1L, F
                                           ;	.line	322; /home/regis/Hobbies/Electronique/Projets/Pinguino/projets/TFT/ILI9325.c	ILI9325_write(GammaControl7, 0x0207);
0026e2   0e02     movlw   0x2              	MOVLW	0x02
0026e4   6ee5     movwf   0xe5, 0          	MOVWF	POSTDEC1
0026e6   0e07     movlw   0x7              	MOVLW	0x07
0026e8   6ee5     movwf   0xe5, 0          	MOVWF	POSTDEC1
0026ea   0e38     movlw   0x38             	MOVLW	0x38
0026ec   6ee5     movwf   0xe5, 0          	MOVWF	POSTDEC1
0026ee   ec88     call    0x4910, 0        	CALL	_ILI9325_write
0026f0   f024
0026f2   0e03     movlw   0x3              	MOVLW	0x03
0026f4   26e1     addwf   0xe1, 0x1, 0     	ADDWF	FSR1L, F
                                           ;	.line	323; /home/regis/Hobbies/Electronique/Projets/Pinguino/projets/TFT/ILI9325.c	ILI9325_write(GammaControl8, 0x0000);
0026f6   6ae5     clrf    0xe5, 0          	CLRF	POSTDEC1
0026f8   6ae5     clrf    0xe5, 0          	CLRF	POSTDEC1
0026fa   0e39     movlw   0x39             	MOVLW	0x39
0026fc   6ee5     movwf   0xe5, 0          	MOVWF	POSTDEC1
0026fe   ec88     call    0x4910, 0        	CALL	_ILI9325_write
002700   f024
002702   0e03     movlw   0x3              	MOVLW	0x03
002704   26e1     addwf   0xe1, 0x1, 0     	ADDWF	FSR1L, F
                                           ;	.line	324; /home/regis/Hobbies/Electronique/Projets/Pinguino/projets/TFT/ILI9325.c	ILI9325_write(GammaControl9, 0x0203);
002706   0e02     movlw   0x2              	MOVLW	0x02
002708   6ee5     movwf   0xe5, 0          	MOVWF	POSTDEC1
00270a   0e03     movlw   0x3              	MOVLW	0x03
00270c   6ee5     movwf   0xe5, 0          	MOVWF	POSTDEC1
00270e   0e3c     movlw   0x3c             	MOVLW	0x3c
002710   6ee5     movwf   0xe5, 0          	MOVWF	POSTDEC1
002712   ec88     call    0x4910, 0        	CALL	_ILI9325_write
002714   f024
002716   0e03     movlw   0x3              	MOVLW	0x03
002718   26e1     addwf   0xe1, 0x1, 0     	ADDWF	FSR1L, F
                                           ;	.line	325; /home/regis/Hobbies/Electronique/Projets/Pinguino/projets/TFT/ILI9325.c	ILI9325_write(GammaControl10, 0x0403);
00271a   0e04     movlw   0x4              	MOVLW	0x04
00271c   6ee5     movwf   0xe5, 0          	MOVWF	POSTDEC1
00271e   0e03     movlw   0x3              	MOVLW	0x03
002720   6ee5     movwf   0xe5, 0          	MOVWF	POSTDEC1
002722   0e3d     movlw   0x3d             	MOVLW	0x3d
002724   6ee5     movwf   0xe5, 0          	MOVWF	POSTDEC1
002726   ec88     call    0x4910, 0        	CALL	_ILI9325_write
002728   f024
00272a   0e03     movlw   0x3              	MOVLW	0x03
00272c   26e1     addwf   0xe1, 0x1, 0     	ADDWF	FSR1L, F
                                           ;	.line	332; /home/regis/Hobbies/Electronique/Projets/Pinguino/projets/TFT/ILI9325.c	ILI9325_write(HorizontalRAMStartAddressPosition, 0x0000); // Horizontal GRAM Start Address
00272e   6ae5     clrf    0xe5, 0          	CLRF	POSTDEC1
002730   6ae5     clrf    0xe5, 0          	CLRF	POSTDEC1
002732   0e50     movlw   0x50             	MOVLW	0x50
002734   6ee5     movwf   0xe5, 0          	MOVWF	POSTDEC1
002736   ec88     call    0x4910, 0        	CALL	_ILI9325_write
002738   f024
00273a   0e03     movlw   0x3              	MOVLW	0x03
00273c   26e1     addwf   0xe1, 0x1, 0     	ADDWF	FSR1L, F
                                           ;	.line	333; /home/regis/Hobbies/Electronique/Projets/Pinguino/projets/TFT/ILI9325.c	ILI9325_write(HorizontalRAMEndAddressPosition, 239); // Horizontal GRAM End Address
00273e   6ae5     clrf    0xe5, 0          	CLRF	POSTDEC1
002740   0eef     movlw   0xef             	MOVLW	0xef
002742   6ee5     movwf   0xe5, 0          	MOVWF	POSTDEC1
002744   0e51     movlw   0x51             	MOVLW	0x51
002746   6ee5     movwf   0xe5, 0          	MOVWF	POSTDEC1
002748   ec88     call    0x4910, 0        	CALL	_ILI9325_write
00274a   f024
00274c   0e03     movlw   0x3              	MOVLW	0x03
00274e   26e1     addwf   0xe1, 0x1, 0     	ADDWF	FSR1L, F
                                           ;	.line	334; /home/regis/Hobbies/Electronique/Projets/Pinguino/projets/TFT/ILI9325.c	ILI9325_write(VerticalRAMStartAddressPosition, 0x0000); // Vertical GRAM Start Address
002750   6ae5     clrf    0xe5, 0          	CLRF	POSTDEC1
002752   6ae5     clrf    0xe5, 0          	CLRF	POSTDEC1
002754   0e52     movlw   0x52             	MOVLW	0x52
002756   6ee5     movwf   0xe5, 0          	MOVWF	POSTDEC1
002758   ec88     call    0x4910, 0        	CALL	_ILI9325_write
00275a   f024
00275c   0e03     movlw   0x3              	MOVLW	0x03
00275e   26e1     addwf   0xe1, 0x1, 0     	ADDWF	FSR1L, F
                                           ;	.line	335; /home/regis/Hobbies/Electronique/Projets/Pinguino/projets/TFT/ILI9325.c	ILI9325_write(VerticalRAMEndAddressPosition, 319); // Vertical GRAM Start Address
002760   0e01     movlw   0x1              	MOVLW	0x01
002762   6ee5     movwf   0xe5, 0          	MOVWF	POSTDEC1
002764   0e3f     movlw   0x3f             	MOVLW	0x3f
002766   6ee5     movwf   0xe5, 0          	MOVWF	POSTDEC1
002768   0e53     movlw   0x53             	MOVLW	0x53
00276a   6ee5     movwf   0xe5, 0          	MOVWF	POSTDEC1
00276c   ec88     call    0x4910, 0        	CALL	_ILI9325_write
00276e   f024
002770   0e03     movlw   0x3              	MOVLW	0x03
002772   26e1     addwf   0xe1, 0x1, 0     	ADDWF	FSR1L, F
                                           ;	.line	337; /home/regis/Hobbies/Electronique/Projets/Pinguino/projets/TFT/ILI9325.c	ILI9325_write(DriverOutputControl2, 0xA700); // Gate Scan Line
002774   0ea7     movlw   0xa7             	MOVLW	0xa7
002776   6ee5     movwf   0xe5, 0          	MOVWF	POSTDEC1
002778   6ae5     clrf    0xe5, 0          	CLRF	POSTDEC1
00277a   0e60     movlw   0x60             	MOVLW	0x60
00277c   6ee5     movwf   0xe5, 0          	MOVWF	POSTDEC1
00277e   ec88     call    0x4910, 0        	CALL	_ILI9325_write
002780   f024
002782   0e03     movlw   0x3              	MOVLW	0x03
002784   26e1     addwf   0xe1, 0x1, 0     	ADDWF	FSR1L, F
                                           ;	.line	338; /home/regis/Hobbies/Electronique/Projets/Pinguino/projets/TFT/ILI9325.c	ILI9325_write(BaseImageDisplayControl, 0x0001);//b111); // NDL, VLE, REV
002786   6ae5     clrf    0xe5, 0          	CLRF	POSTDEC1
002788   0e01     movlw   0x1              	MOVLW	0x01
00278a   6ee5     movwf   0xe5, 0          	MOVWF	POSTDEC1
00278c   0e61     movlw   0x61             	MOVLW	0x61
00278e   6ee5     movwf   0xe5, 0          	MOVWF	POSTDEC1
002790   ec88     call    0x4910, 0        	CALL	_ILI9325_write
002792   f024
002794   0e03     movlw   0x3              	MOVLW	0x03
002796   26e1     addwf   0xe1, 0x1, 0     	ADDWF	FSR1L, F
                                           ;	.line	352; /home/regis/Hobbies/Electronique/Projets/Pinguino/projets/TFT/ILI9325.c	ILI9325_write(PanelInterfaceControl1, 0x0010); // sync with fosc/1 - 16 clocks/line
002798   6ae5     clrf    0xe5, 0          	CLRF	POSTDEC1
00279a   0e10     movlw   0x10             	MOVLW	0x10
00279c   6ee5     movwf   0xe5, 0          	MOVWF	POSTDEC1
00279e   0e90     movlw   0x90             	MOVLW	0x90
0027a0   6ee5     movwf   0xe5, 0          	MOVWF	POSTDEC1
0027a2   ec88     call    0x4910, 0        	CALL	_ILI9325_write
0027a4   f024
0027a6   0e03     movlw   0x3              	MOVLW	0x03
0027a8   26e1     addwf   0xe1, 0x1, 0     	ADDWF	FSR1L, F
                                           ;	.line	365; /home/regis/Hobbies/Electronique/Projets/Pinguino/projets/TFT/ILI9325.c	ILI9325_write(DisplayControl1, 0x0133);
0027aa   0e01     movlw   0x1              	MOVLW	0x01
0027ac   6ee5     movwf   0xe5, 0          	MOVWF	POSTDEC1
0027ae   0e33     movlw   0x33             	MOVLW	0x33
0027b0   6ee5     movwf   0xe5, 0          	MOVWF	POSTDEC1
0027b2   0e07     movlw   0x7              	MOVLW	0x07
0027b4   6ee5     movwf   0xe5, 0          	MOVWF	POSTDEC1
0027b6   ec88     call    0x4910, 0        	CALL	_ILI9325_write
0027b8   f024
0027ba   0e03     movlw   0x3              	MOVLW	0x03
0027bc   26e1     addwf   0xe1, 0x1, 0     	ADDWF	FSR1L, F
                                           ;	.line	371; /home/regis/Hobbies/Electronique/Projets/Pinguino/projets/TFT/ILI9325.c	ILI9325_setColor(White);
0027be   0eff     movlw   0xff             	MOVLW	0xff
0027c0   68e5     setf    0xe5, 0          	SETF	POSTDEC1
0027c2   68e5     setf    0xe5, 0          	SETF	POSTDEC1
0027c4   ecd4     call    0x45a8, 0        	CALL	_ILI9325_setColor
0027c6   f022
0027c8   52e6     movf    0xe6, 0x1, 0     	MOVF	POSTINC1, F
0027ca   52e6     movf    0xe6, 0x1, 0     	MOVF	POSTINC1, F
                                           ;	.line	372; /home/regis/Hobbies/Electronique/Projets/Pinguino/projets/TFT/ILI9325.c	ILI9325_setBackgroundColor(Blue);
0027cc   6ae5     clrf    0xe5, 0          	CLRF	POSTDEC1
0027ce   0e1f     movlw   0x1f             	MOVLW	0x1f
0027d0   6ee5     movwf   0xe5, 0          	MOVWF	POSTDEC1
0027d2   ec96     call    0x452c, 0        	CALL	_ILI9325_setBackgroundColor
0027d4   f022
0027d6   52e6     movf    0xe6, 0x1, 0     	MOVF	POSTINC1, F
0027d8   52e6     movf    0xe6, 0x1, 0     	MOVF	POSTINC1, F
                                           ;	.line	373; /home/regis/Hobbies/Electronique/Projets/Pinguino/projets/TFT/ILI9325.c	ILI9325_setPortrait();
0027da   ec4d     call    0x469a, 0        	CALL	_ILI9325_setPortrait
0027dc   f023
                                           ;	.line	377; /home/regis/Hobbies/Electronique/Projets/Pinguino/projets/TFT/ILI9325.c	ILI9325_clearScreen();
0027de   ec00     call    0x3c00, 0        	CALL	_ILI9325_clearScreen
0027e0   f01e
0027e2   0012     return  0                	RETURN	
                                           
                                           ; ; Starting pCode block
                                           S_main__ILI9325_getDevice	code
                                           _ILI9325_getDevice:
                                           ;	.line	201; /home/regis/Hobbies/Electronique/Projets/Pinguino/projets/TFT/ILI9325.c	u16 ILI9325_getDevice()
004c14   c001     movff   0x1, 0xfe5       	MOVFF	r0x01, POSTDEC1
004c16   ffe5
                                           ;	.line	206; /home/regis/Hobbies/Electronique/Projets/Pinguino/projets/TFT/ILI9325.c	dev = ILI9325_read(DriverCodeRead);
004c18   0e00     movlw   0                	MOVLW	0x00
004c1a   6ae5     clrf    0xe5, 0          	CLRF	POSTDEC1
004c1c   ec8f     call    0x4b1e, 0        	CALL	_ILI9325_read
004c1e   f025
004c20   cff3     movff   0xff3, 0x1       	MOVFF	PRODL, r0x01
004c22   f001
004c24   52e6     movf    0xe6, 0x1, 0     	MOVF	POSTINC1, F
                                           ;	.line	209; /home/regis/Hobbies/Electronique/Projets/Pinguino/projets/TFT/ILI9325.c	return dev;
004c26   c001     movff   0x1, 0xff3       	MOVFF	r0x01, PRODL
004c28   fff3
004c2a   cfe4     movff   0xfe4, 0x1       	MOVFF	PREINC1, r0x01
004c2c   f001
004c2e   0012     return  0                	RETURN	
                                           
                                           ; ; Starting pCode block
                                           S_main__ILI9325_read	code
                                           _ILI9325_read:
                                           ;	.line	186; /home/regis/Hobbies/Electronique/Projets/Pinguino/projets/TFT/ILI9325.c	u16 ILI9325_read(u8 index)
004b1e   cfd9     movff   0xfd9, 0xfe5     	MOVFF	FSR2L, POSTDEC1
004b20   ffe5
004b22   cfe1     movff   0xfe1, 0xfd9     	MOVFF	FSR1L, FSR2L
004b24   ffd9
004b26   c000     movff   0, 0xfe5         	MOVFF	r0x00, POSTDEC1
004b28   ffe5
004b2a   c001     movff   0x1, 0xfe5       	MOVFF	r0x01, POSTDEC1
004b2c   ffe5
004b2e   0e02     movlw   0x2              	MOVLW	0x02
004b30   cfdb     movff   0xfdb, 0         	MOVFF	PLUSW2, r0x00
004b32   f000
                                           ;	.line	188; /home/regis/Hobbies/Electronique/Projets/Pinguino/projets/TFT/ILI9325.c	ILI9325_writeRegister(index);
004b34   5000     movf    0, 0, 0          	MOVF	r0x00, W
004b36   6ee5     movwf   0xe5, 0          	MOVWF	POSTDEC1
004b38   ecd9     call    0x49b2, 0        	CALL	_ILI9325_writeRegister
004b3a   f024
004b3c   52e6     movf    0xe6, 0x1, 0     	MOVF	POSTINC1, F
                                           ;	.line	189; /home/regis/Hobbies/Electronique/Projets/Pinguino/projets/TFT/ILI9325.c	return ILI9325_readData();
004b3e   ecd9     call    0x47b2, 0        	CALL	_ILI9325_readData
004b40   f023
004b42   cff3     movff   0xff3, 0x1       	MOVFF	PRODL, r0x01
004b44   f001
004b46   c001     movff   0x1, 0xff3       	MOVFF	r0x01, PRODL
004b48   fff3
004b4a   cfe4     movff   0xfe4, 0x1       	MOVFF	PREINC1, r0x01
004b4c   f001
004b4e   cfe4     movff   0xfe4, 0         	MOVFF	PREINC1, r0x00
004b50   f000
004b52   cfe4     movff   0xfe4, 0xfd9     	MOVFF	PREINC1, FSR2L
004b54   ffd9
004b56   0012     return  0                	RETURN	
                                           
                                           ; ; Starting pCode block
                                           S_main__ILI9325_readData	code
                                           _ILI9325_readData:
                                           ;	.line	141; /home/regis/Hobbies/Electronique/Projets/Pinguino/projets/TFT/ILI9325.c	u16 ILI9325_readData()
0047b2   c000     movff   0, 0xfe5         	MOVFF	r0x00, POSTDEC1
0047b4   ffe5
                                           ;	.line	145; /home/regis/Hobbies/Electronique/Projets/Pinguino/projets/TFT/ILI9325.c	HighRS;	// Disable Register Selection Signal
0047b6   8089     bsf     0x89, 0, 0       	BSF	_LATA, 0
                                           ;	.line	146; /home/regis/Hobbies/Electronique/Projets/Pinguino/projets/TFT/ILI9325.c	HighRD; // Disable Read Mode
0047b8   8489     bsf     0x89, 0x2, 0     	BSF	_LATA, 2
                                           ;	.line	147; /home/regis/Hobbies/Electronique/Projets/Pinguino/projets/TFT/ILI9325.c	HighWR; // Disable Write Mode
0047ba   8289     bsf     0x89, 0x1, 0     	BSF	_LATA, 1
                                           ;	.line	151; /home/regis/Hobbies/Electronique/Projets/Pinguino/projets/TFT/ILI9325.c	dDATA = 0xFF;
0047bc   6893     setf    0x93, 0          	SETF	_TRISB
                                           ;	.line	156; /home/regis/Hobbies/Electronique/Projets/Pinguino/projets/TFT/ILI9325.c	LowRD;
0047be   5089     movf    0x89, 0, 0       	MOVF	_LATA, W
0047c0   6e00     movwf   0, 0             	MOVWF	r0x00
0047c2   0efb     movlw   0xfb             	MOVLW	0xfb
0047c4   1400     andwf   0, 0, 0          	ANDWF	r0x00, W
0047c6   6e89     movwf   0x89, 0          	MOVWF	_LATA
                                           ;	.line	157; /home/regis/Hobbies/Electronique/Projets/Pinguino/projets/TFT/ILI9325.c	Delayms(10);
0047c8   6ae5     clrf    0xe5, 0          	CLRF	POSTDEC1
0047ca   0e0a     movlw   0xa              	MOVLW	0x0a
0047cc   6ee5     movwf   0xe5, 0          	MOVWF	POSTDEC1
0047ce   ec33     call    0x4866, 0        	CALL	_Delayms
0047d0   f024
0047d2   52e6     movf    0xe6, 0x1, 0     	MOVF	POSTINC1, F
0047d4   52e6     movf    0xe6, 0x1, 0     	MOVF	POSTINC1, F
                                           ;	.line	158; /home/regis/Hobbies/Electronique/Projets/Pinguino/projets/TFT/ILI9325.c	d.h8 = DATA;
0047d6   508a     movf    0x8a, 0, 0       	MOVF	_LATB, W
0047d8   010e     movlb   0xe              	BANKSEL	(_ILI9325_readData_d_1_112 + 1)
0047da   6f56     movwf   0x56, 0x1        	MOVWF	(_ILI9325_readData_d_1_112 + 1), B
                                           ;	.line	159; /home/regis/Hobbies/Electronique/Projets/Pinguino/projets/TFT/ILI9325.c	HighRD;
0047dc   8489     bsf     0x89, 0x2, 0     	BSF	_LATA, 2
                                           ;	.line	161; /home/regis/Hobbies/Electronique/Projets/Pinguino/projets/TFT/ILI9325.c	LowRD;
0047de   5089     movf    0x89, 0, 0       	MOVF	_LATA, W
0047e0   6e00     movwf   0, 0             	MOVWF	r0x00
0047e2   0efb     movlw   0xfb             	MOVLW	0xfb
0047e4   1400     andwf   0, 0, 0          	ANDWF	r0x00, W
0047e6   6e89     movwf   0x89, 0          	MOVWF	_LATA
                                           ;	.line	162; /home/regis/Hobbies/Electronique/Projets/Pinguino/projets/TFT/ILI9325.c	Delayms(10);
0047e8   6ae5     clrf    0xe5, 0          	CLRF	POSTDEC1
0047ea   0e0a     movlw   0xa              	MOVLW	0x0a
0047ec   6ee5     movwf   0xe5, 0          	MOVWF	POSTDEC1
0047ee   ec33     call    0x4866, 0        	CALL	_Delayms
0047f0   f024
0047f2   52e6     movf    0xe6, 0x1, 0     	MOVF	POSTINC1, F
0047f4   52e6     movf    0xe6, 0x1, 0     	MOVF	POSTINC1, F
                                           ;	.line	163; /home/regis/Hobbies/Electronique/Projets/Pinguino/projets/TFT/ILI9325.c	d.l8 = DATA;
0047f6   508a     movf    0x8a, 0, 0       	MOVF	_LATB, W
0047f8   010e     movlb   0xe              	BANKSEL	_ILI9325_readData_d_1_112
0047fa   6f55     movwf   0x55, 0x1        	MOVWF	_ILI9325_readData_d_1_112, B
                                           ;	.line	164; /home/regis/Hobbies/Electronique/Projets/Pinguino/projets/TFT/ILI9325.c	HighRD;
0047fc   8489     bsf     0x89, 0x2, 0     	BSF	_LATA, 2
                                           ;	.line	168; /home/regis/Hobbies/Electronique/Projets/Pinguino/projets/TFT/ILI9325.c	dDATA = 0x00;
0047fe   6a93     clrf    0x93, 0          	CLRF	_TRISB
                                           ;	.line	173; /home/regis/Hobbies/Electronique/Projets/Pinguino/projets/TFT/ILI9325.c	return d.w;
004800   ce56     movff   0xe56, 0xff3     	MOVFF	(_ILI9325_readData_d_1_112 + 1), PRODL
004802   fff3
                                           ; removed redundant BANKSEL
004804   5155     movf    0x55, 0, 0x1     	MOVF	_ILI9325_readData_d_1_112, W, B
004806   cfe4     movff   0xfe4, 0         	MOVFF	PREINC1, r0x00
004808   f000
00480a   0012     return  0                	RETURN	
                                           
                                           ; ; Starting pCode block
                                           S_main__ILI9325_write	code
                                           _ILI9325_write:
                                           ;	.line	121; /home/regis/Hobbies/Electronique/Projets/Pinguino/projets/TFT/ILI9325.c	void ILI9325_write(u8 index, u16 data15)
004910   cfd9     movff   0xfd9, 0xfe5     	MOVFF	FSR2L, POSTDEC1
004912   ffe5
004914   cfe1     movff   0xfe1, 0xfd9     	MOVFF	FSR1L, FSR2L
004916   ffd9
004918   c000     movff   0, 0xfe5         	MOVFF	r0x00, POSTDEC1
00491a   ffe5
00491c   c001     movff   0x1, 0xfe5       	MOVFF	r0x01, POSTDEC1
00491e   ffe5
004920   c002     movff   0x2, 0xfe5       	MOVFF	r0x02, POSTDEC1
004922   ffe5
004924   0e02     movlw   0x2              	MOVLW	0x02
004926   cfdb     movff   0xfdb, 0         	MOVFF	PLUSW2, r0x00
004928   f000
00492a   0e03     movlw   0x3              	MOVLW	0x03
00492c   cfdb     movff   0xfdb, 0x1       	MOVFF	PLUSW2, r0x01
00492e   f001
004930   0e04     movlw   0x4              	MOVLW	0x04
004932   cfdb     movff   0xfdb, 0x2       	MOVFF	PLUSW2, r0x02
004934   f002
                                           ;	.line	123; /home/regis/Hobbies/Electronique/Projets/Pinguino/projets/TFT/ILI9325.c	ILI9325_writeRegister(index);
004936   5000     movf    0, 0, 0          	MOVF	r0x00, W
004938   6ee5     movwf   0xe5, 0          	MOVWF	POSTDEC1
00493a   ecd9     call    0x49b2, 0        	CALL	_ILI9325_writeRegister
00493c   f024
00493e   52e6     movf    0xe6, 0x1, 0     	MOVF	POSTINC1, F
                                           ;	.line	124; /home/regis/Hobbies/Electronique/Projets/Pinguino/projets/TFT/ILI9325.c	ILI9325_writeData(data15);
004940   5002     movf    0x2, 0, 0        	MOVF	r0x02, W
004942   6ee5     movwf   0xe5, 0          	MOVWF	POSTDEC1
004944   5001     movf    0x1, 0, 0        	MOVF	r0x01, W
004946   6ee5     movwf   0xe5, 0          	MOVWF	POSTDEC1
004948   ec06     call    0x480c, 0        	CALL	_ILI9325_writeData
00494a   f024
00494c   52e6     movf    0xe6, 0x1, 0     	MOVF	POSTINC1, F
00494e   52e6     movf    0xe6, 0x1, 0     	MOVF	POSTINC1, F
004950   cfe4     movff   0xfe4, 0x2       	MOVFF	PREINC1, r0x02
004952   f002
004954   cfe4     movff   0xfe4, 0x1       	MOVFF	PREINC1, r0x01
004956   f001
004958   cfe4     movff   0xfe4, 0         	MOVFF	PREINC1, r0x00
00495a   f000
00495c   cfe4     movff   0xfe4, 0xfd9     	MOVFF	PREINC1, FSR2L
00495e   ffd9
004960   0012     return  0                	RETURN	
                                           
                                           ; ; Starting pCode block
                                           S_main__ILI9325_writeData	code
                                           _ILI9325_writeData:
                                           ;	.line	92; /home/regis/Hobbies/Electronique/Projets/Pinguino/projets/TFT/ILI9325.c	void ILI9325_writeData(u16 data15)
00480c   cfd9     movff   0xfd9, 0xfe5     	MOVFF	FSR2L, POSTDEC1
00480e   ffe5
004810   cfe1     movff   0xfe1, 0xfd9     	MOVFF	FSR1L, FSR2L
004812   ffd9
004814   c000     movff   0, 0xfe5         	MOVFF	r0x00, POSTDEC1
004816   ffe5
004818   c001     movff   0x1, 0xfe5       	MOVFF	r0x01, POSTDEC1
00481a   ffe5
00481c   0e02     movlw   0x2              	MOVLW	0x02
00481e   cfdb     movff   0xfdb, 0         	MOVFF	PLUSW2, r0x00
004820   f000
004822   0e03     movlw   0x3              	MOVLW	0x03
004824   cfdb     movff   0xfdb, 0x1       	MOVFF	PLUSW2, r0x01
004826   f001
                                           ;	.line	96; /home/regis/Hobbies/Electronique/Projets/Pinguino/projets/TFT/ILI9325.c	d.w = data15;
004828   5000     movf    0, 0, 0          	MOVF	r0x00, W
00482a   010e     movlb   0xe              	BANKSEL	_ILI9325_writeData_d_1_109
00482c   6f53     movwf   0x53, 0x1        	MOVWF	_ILI9325_writeData_d_1_109, B
00482e   5001     movf    0x1, 0, 0        	MOVF	r0x01, W
                                           ; removed redundant BANKSEL
004830   6f54     movwf   0x54, 0x1        	MOVWF	(_ILI9325_writeData_d_1_109 + 1), B
                                           ;	.line	97; /home/regis/Hobbies/Electronique/Projets/Pinguino/projets/TFT/ILI9325.c	HighRS;	// Disable Register Selection Signal
004832   8089     bsf     0x89, 0, 0       	BSF	_LATA, 0
                                           ;	.line	98; /home/regis/Hobbies/Electronique/Projets/Pinguino/projets/TFT/ILI9325.c	HighRD; // Disable Read Mode
004834   8489     bsf     0x89, 0x2, 0     	BSF	_LATA, 2
                                           ;	.line	99; /home/regis/Hobbies/Electronique/Projets/Pinguino/projets/TFT/ILI9325.c	HighWR; // Disable Write Mode
004836   8289     bsf     0x89, 0x1, 0     	BSF	_LATA, 1
                                           ;	.line	101; /home/regis/Hobbies/Electronique/Projets/Pinguino/projets/TFT/ILI9325.c	DATA = d.h8;
004838   ce54     movff   0xe54, 0xf8a     	MOVFF	(_ILI9325_writeData_d_1_109 + 1), _LATB
00483a   ff8a
                                           ;	.line	102; /home/regis/Hobbies/Electronique/Projets/Pinguino/projets/TFT/ILI9325.c	LowWR;	// Enable Write
00483c   5089     movf    0x89, 0, 0       	MOVF	_LATA, W
00483e   6e00     movwf   0, 0             	MOVWF	r0x00
004840   0efd     movlw   0xfd             	MOVLW	0xfd
004842   1400     andwf   0, 0, 0          	ANDWF	r0x00, W
004844   6e89     movwf   0x89, 0          	MOVWF	_LATA
                                           ;	.line	103; /home/regis/Hobbies/Electronique/Projets/Pinguino/projets/TFT/ILI9325.c	HighWR;	// Disable Write
004846   8289     bsf     0x89, 0x1, 0     	BSF	_LATA, 1
                                           ;	.line	105; /home/regis/Hobbies/Electronique/Projets/Pinguino/projets/TFT/ILI9325.c	DATA = d.l8;
004848   ce53     movff   0xe53, 0xf8a     	MOVFF	_ILI9325_writeData_d_1_109, _LATB
00484a   ff8a
                                           ;	.line	106; /home/regis/Hobbies/Electronique/Projets/Pinguino/projets/TFT/ILI9325.c	LowWR;	// Enable Write
00484c   5089     movf    0x89, 0, 0       	MOVF	_LATA, W
00484e   6e00     movwf   0, 0             	MOVWF	r0x00
004850   0efd     movlw   0xfd             	MOVLW	0xfd
004852   1400     andwf   0, 0, 0          	ANDWF	r0x00, W
004854   6e89     movwf   0x89, 0          	MOVWF	_LATA
                                           ;	.line	107; /home/regis/Hobbies/Electronique/Projets/Pinguino/projets/TFT/ILI9325.c	HighWR;	// Disable Write
004856   8289     bsf     0x89, 0x1, 0     	BSF	_LATA, 1
004858   cfe4     movff   0xfe4, 0x1       	MOVFF	PREINC1, r0x01
00485a   f001
00485c   cfe4     movff   0xfe4, 0         	MOVFF	PREINC1, r0x00
00485e   f000
004860   cfe4     movff   0xfe4, 0xfd9     	MOVFF	PREINC1, FSR2L
004862   ffd9
004864   0012     return  0                	RETURN	
                                           
                                           ; ; Starting pCode block
                                           S_main__ILI9325_writeRegister	code
                                           _ILI9325_writeRegister:
                                           ;	.line	63; /home/regis/Hobbies/Electronique/Projets/Pinguino/projets/TFT/ILI9325.c	void ILI9325_writeRegister(u8 index)
0049b2   cfd9     movff   0xfd9, 0xfe5     	MOVFF	FSR2L, POSTDEC1
0049b4   ffe5
0049b6   cfe1     movff   0xfe1, 0xfd9     	MOVFF	FSR1L, FSR2L
0049b8   ffd9
0049ba   c000     movff   0, 0xfe5         	MOVFF	r0x00, POSTDEC1
0049bc   ffe5
0049be   c001     movff   0x1, 0xfe5       	MOVFF	r0x01, POSTDEC1
0049c0   ffe5
0049c2   0e02     movlw   0x2              	MOVLW	0x02
0049c4   cfdb     movff   0xfdb, 0         	MOVFF	PLUSW2, r0x00
0049c6   f000
                                           ;	.line	65; /home/regis/Hobbies/Electronique/Projets/Pinguino/projets/TFT/ILI9325.c	LowRS;	// Enable Register Selection Signal
0049c8   5089     movf    0x89, 0, 0       	MOVF	_LATA, W
0049ca   6e01     movwf   0x1, 0           	MOVWF	r0x01
0049cc   0efe     movlw   0xfe             	MOVLW	0xfe
0049ce   1401     andwf   0x1, 0, 0        	ANDWF	r0x01, W
0049d0   6e89     movwf   0x89, 0          	MOVWF	_LATA
                                           ;	.line	66; /home/regis/Hobbies/Electronique/Projets/Pinguino/projets/TFT/ILI9325.c	HighRD; // Disable Read Mode
0049d2   8489     bsf     0x89, 0x2, 0     	BSF	_LATA, 2
                                           ;	.line	67; /home/regis/Hobbies/Electronique/Projets/Pinguino/projets/TFT/ILI9325.c	HighWR; // Disable Write Mode
0049d4   8289     bsf     0x89, 0x1, 0     	BSF	_LATA, 1
                                           ;	.line	69; /home/regis/Hobbies/Electronique/Projets/Pinguino/projets/TFT/ILI9325.c	DATA = 0;
0049d6   6a8a     clrf    0x8a, 0          	CLRF	_LATB
                                           ;	.line	70; /home/regis/Hobbies/Electronique/Projets/Pinguino/projets/TFT/ILI9325.c	LowWR;	// Enable Write
0049d8   5089     movf    0x89, 0, 0       	MOVF	_LATA, W
0049da   6e01     movwf   0x1, 0           	MOVWF	r0x01
0049dc   0efd     movlw   0xfd             	MOVLW	0xfd
0049de   1401     andwf   0x1, 0, 0        	ANDWF	r0x01, W
0049e0   6e89     movwf   0x89, 0          	MOVWF	_LATA
                                           ;	.line	71; /home/regis/Hobbies/Electronique/Projets/Pinguino/projets/TFT/ILI9325.c	HighWR;	// Disable Write
0049e2   8289     bsf     0x89, 0x1, 0     	BSF	_LATA, 1
                                           ;	.line	73; /home/regis/Hobbies/Electronique/Projets/Pinguino/projets/TFT/ILI9325.c	DATA = index;
0049e4   c000     movff   0, 0xf8a         	MOVFF	r0x00, _LATB
0049e6   ff8a
                                           ;	.line	74; /home/regis/Hobbies/Electronique/Projets/Pinguino/projets/TFT/ILI9325.c	LowWR;	// Enable Write
0049e8   5089     movf    0x89, 0, 0       	MOVF	_LATA, W
0049ea   6e00     movwf   0, 0             	MOVWF	r0x00
0049ec   0efd     movlw   0xfd             	MOVLW	0xfd
0049ee   1400     andwf   0, 0, 0          	ANDWF	r0x00, W
0049f0   6e89     movwf   0x89, 0          	MOVWF	_LATA
                                           ;	.line	75; /home/regis/Hobbies/Electronique/Projets/Pinguino/projets/TFT/ILI9325.c	HighWR;	// Disable Write
0049f2   8289     bsf     0x89, 0x1, 0     	BSF	_LATA, 1
0049f4   cfe4     movff   0xfe4, 0x1       	MOVFF	PREINC1, r0x01
0049f6   f001
0049f8   cfe4     movff   0xfe4, 0         	MOVFF	PREINC1, r0x00
0049fa   f000
0049fc   cfe4     movff   0xfe4, 0xfd9     	MOVFF	PREINC1, FSR2L
0049fe   ffd9
004a00   0012     return  0                	RETURN	
                                           
                                           ; ; Starting pCode block
                                           S_main__drawBitmap	code
                                           _drawBitmap:
                                           ;	.line	542; /home/regis/Hobbies/Electronique/Projets/Pinguino/projets/TFT/graphic.c	void drawBitmap(u16 x, u16 y, u16 w, u16 h, const u8* bitmap)
002a6c   cfd9     movff   0xfd9, 0xfe5     	MOVFF	FSR2L, POSTDEC1
002a6e   ffe5
002a70   cfe1     movff   0xfe1, 0xfd9     	MOVFF	FSR1L, FSR2L
002a72   ffd9
002a74   c000     movff   0, 0xfe5         	MOVFF	r0x00, POSTDEC1
002a76   ffe5
002a78   c001     movff   0x1, 0xfe5       	MOVFF	r0x01, POSTDEC1
002a7a   ffe5
002a7c   c002     movff   0x2, 0xfe5       	MOVFF	r0x02, POSTDEC1
002a7e   ffe5
002a80   c003     movff   0x3, 0xfe5       	MOVFF	r0x03, POSTDEC1
002a82   ffe5
002a84   c004     movff   0x4, 0xfe5       	MOVFF	r0x04, POSTDEC1
002a86   ffe5
002a88   c005     movff   0x5, 0xfe5       	MOVFF	r0x05, POSTDEC1
002a8a   ffe5
002a8c   c006     movff   0x6, 0xfe5       	MOVFF	r0x06, POSTDEC1
002a8e   ffe5
002a90   c007     movff   0x7, 0xfe5       	MOVFF	r0x07, POSTDEC1
002a92   ffe5
002a94   c008     movff   0x8, 0xfe5       	MOVFF	r0x08, POSTDEC1
002a96   ffe5
002a98   c009     movff   0x9, 0xfe5       	MOVFF	r0x09, POSTDEC1
002a9a   ffe5
002a9c   c00a     movff   0xa, 0xfe5       	MOVFF	r0x0a, POSTDEC1
002a9e   ffe5
002aa0   c00b     movff   0xb, 0xfe5       	MOVFF	r0x0b, POSTDEC1
002aa2   ffe5
002aa4   c00c     movff   0xc, 0xfe5       	MOVFF	r0x0c, POSTDEC1
002aa6   ffe5
002aa8   c00d     movff   0xd, 0xfe5       	MOVFF	r0x0d, POSTDEC1
002aaa   ffe5
002aac   c00e     movff   0xe, 0xfe5       	MOVFF	r0x0e, POSTDEC1
002aae   ffe5
002ab0   c00f     movff   0xf, 0xfe5       	MOVFF	r0x0f, POSTDEC1
002ab2   ffe5
002ab4   c010     movff   0x10, 0xfe5      	MOVFF	r0x10, POSTDEC1
002ab6   ffe5
002ab8   c011     movff   0x11, 0xfe5      	MOVFF	r0x11, POSTDEC1
002aba   ffe5
002abc   c012     movff   0x12, 0xfe5      	MOVFF	r0x12, POSTDEC1
002abe   ffe5
002ac0   c013     movff   0x13, 0xfe5      	MOVFF	r0x13, POSTDEC1
002ac2   ffe5
002ac4   c014     movff   0x14, 0xfe5      	MOVFF	r0x14, POSTDEC1
002ac6   ffe5
002ac8   c015     movff   0x15, 0xfe5      	MOVFF	r0x15, POSTDEC1
002aca   ffe5
002acc   0e02     movlw   0x2              	MOVLW	0x02
002ace   cfdb     movff   0xfdb, 0         	MOVFF	PLUSW2, r0x00
002ad0   f000
002ad2   0e03     movlw   0x3              	MOVLW	0x03
002ad4   cfdb     movff   0xfdb, 0x1       	MOVFF	PLUSW2, r0x01
002ad6   f001
002ad8   0e04     movlw   0x4              	MOVLW	0x04
002ada   cfdb     movff   0xfdb, 0x2       	MOVFF	PLUSW2, r0x02
002adc   f002
002ade   0e05     movlw   0x5              	MOVLW	0x05
002ae0   cfdb     movff   0xfdb, 0x3       	MOVFF	PLUSW2, r0x03
002ae2   f003
002ae4   0e06     movlw   0x6              	MOVLW	0x06
002ae6   cfdb     movff   0xfdb, 0x4       	MOVFF	PLUSW2, r0x04
002ae8   f004
002aea   0e07     movlw   0x7              	MOVLW	0x07
002aec   cfdb     movff   0xfdb, 0x5       	MOVFF	PLUSW2, r0x05
002aee   f005
002af0   0e08     movlw   0x8              	MOVLW	0x08
002af2   cfdb     movff   0xfdb, 0x6       	MOVFF	PLUSW2, r0x06
002af4   f006
002af6   0e09     movlw   0x9              	MOVLW	0x09
002af8   cfdb     movff   0xfdb, 0x7       	MOVFF	PLUSW2, r0x07
002afa   f007
002afc   0e0a     movlw   0xa              	MOVLW	0x0a
002afe   cfdb     movff   0xfdb, 0x8       	MOVFF	PLUSW2, r0x08
002b00   f008
002b02   0e0b     movlw   0xb              	MOVLW	0x0b
002b04   cfdb     movff   0xfdb, 0x9       	MOVFF	PLUSW2, r0x09
002b06   f009
002b08   0e0c     movlw   0xc              	MOVLW	0x0c
002b0a   cfdb     movff   0xfdb, 0xa       	MOVFF	PLUSW2, r0x0a
002b0c   f00a
                                           ;	.line	546; /home/regis/Hobbies/Electronique/Projets/Pinguino/projets/TFT/graphic.c	for (j=0; j<h; j++)
002b0e   6a0b     clrf    0xb, 0           	CLRF	r0x0b
002b10   6a0c     clrf    0xc, 0           	CLRF	r0x0c
                                           _00709_DS_:
002b12   5007     movf    0x7, 0, 0        	MOVF	r0x07, W
002b14   5c0c     subwf   0xc, 0, 0        	SUBWF	r0x0c, W
002b16   e102     bnz     0x2b1c           	BNZ	_00725_DS_
002b18   5006     movf    0x6, 0, 0        	MOVF	r0x06, W
002b1a   5c0b     subwf   0xb, 0, 0        	SUBWF	r0x0b, W
                                           _00725_DS_:
002b1c   b0d8     btfsc   0xd8, 0, 0       	BTFSC	STATUS, 0
002b1e   d05a     bra     0x2bd4           	BRA	_00713_DS_
                                           ;	.line	548; /home/regis/Hobbies/Electronique/Projets/Pinguino/projets/TFT/graphic.c	for (i=0; i<w; i++ )
002b20   90d8     bcf     0xd8, 0, 0       	BCF	STATUS, 0
002b22   300c     rrcf    0xc, 0, 0        	RRCF	r0x0c, W
002b24   6e0e     movwf   0xe, 0           	MOVWF	r0x0e
002b26   300b     rrcf    0xb, 0, 0        	RRCF	r0x0b, W
002b28   6e0d     movwf   0xd, 0           	MOVWF	r0x0d
002b2a   90d8     bcf     0xd8, 0, 0       	BCF	STATUS, 0
002b2c   320e     rrcf    0xe, 0x1, 0      	RRCF	r0x0e, F
002b2e   320d     rrcf    0xd, 0x1, 0      	RRCF	r0x0d, F
002b30   90d8     bcf     0xd8, 0, 0       	BCF	STATUS, 0
002b32   320e     rrcf    0xe, 0x1, 0      	RRCF	r0x0e, F
002b34   320d     rrcf    0xd, 0x1, 0      	RRCF	r0x0d, F
002b36   5005     movf    0x5, 0, 0        	MOVF	r0x05, W
002b38   6ee5     movwf   0xe5, 0          	MOVWF	POSTDEC1
002b3a   5004     movf    0x4, 0, 0        	MOVF	r0x04, W
002b3c   6ee5     movwf   0xe5, 0          	MOVWF	POSTDEC1
002b3e   500e     movf    0xe, 0, 0        	MOVF	r0x0e, W
002b40   6ee5     movwf   0xe5, 0          	MOVWF	POSTDEC1
002b42   500d     movf    0xd, 0, 0        	MOVF	r0x0d, W
002b44   6ee5     movwf   0xe5, 0          	MOVWF	POSTDEC1
002b46   ec54     call    0x40a8, 0        	CALL	__mulint
002b48   f020
002b4a   6e0d     movwf   0xd, 0           	MOVWF	r0x0d
002b4c   cff3     movff   0xff3, 0xe       	MOVFF	PRODL, r0x0e
002b4e   f00e
002b50   0e04     movlw   0x4              	MOVLW	0x04
002b52   26e1     addwf   0xe1, 0x1, 0     	ADDWF	FSR1L, F
002b54   500b     movf    0xb, 0, 0        	MOVF	r0x0b, W
002b56   2402     addwf   0x2, 0, 0        	ADDWF	r0x02, W
002b58   6e0f     movwf   0xf, 0           	MOVWF	r0x0f
002b5a   500c     movf    0xc, 0, 0        	MOVF	r0x0c, W
002b5c   2003     addwfc  0x3, 0, 0        	ADDWFC	r0x03, W
002b5e   6e10     movwf   0x10, 0          	MOVWF	r0x10
002b60   6a11     clrf    0x11, 0          	CLRF	r0x11
002b62   6a12     clrf    0x12, 0          	CLRF	r0x12
                                           _00705_DS_:
002b64   5005     movf    0x5, 0, 0        	MOVF	r0x05, W
002b66   5c12     subwf   0x12, 0, 0       	SUBWF	r0x12, W
002b68   e102     bnz     0x2b6e           	BNZ	_00726_DS_
002b6a   5004     movf    0x4, 0, 0        	MOVF	r0x04, W
002b6c   5c11     subwf   0x11, 0, 0       	SUBWF	r0x11, W
                                           _00726_DS_:
002b6e   e22f     bc      0x2bce           	BC	_00711_DS_
                                           ;	.line	550; /home/regis/Hobbies/Electronique/Projets/Pinguino/projets/TFT/graphic.c	ILI9325_setColor(bitmap[i + (j/8) * w]);
002b70   500d     movf    0xd, 0, 0        	MOVF	r0x0d, W
002b72   2411     addwf   0x11, 0, 0       	ADDWF	r0x11, W
002b74   6e13     movwf   0x13, 0          	MOVWF	r0x13
002b76   500e     movf    0xe, 0, 0        	MOVF	r0x0e, W
002b78   2012     addwfc  0x12, 0, 0       	ADDWFC	r0x12, W
002b7a   6e14     movwf   0x14, 0          	MOVWF	r0x14
002b7c   6a15     clrf    0x15, 0          	CLRF	r0x15
002b7e   5008     movf    0x8, 0, 0        	MOVF	r0x08, W
002b80   2613     addwf   0x13, 0x1, 0     	ADDWF	r0x13, F
002b82   5009     movf    0x9, 0, 0        	MOVF	r0x09, W
002b84   2214     addwfc  0x14, 0x1, 0     	ADDWFC	r0x14, F
002b86   500a     movf    0xa, 0, 0        	MOVF	r0x0a, W
002b88   2215     addwfc  0x15, 0x1, 0     	ADDWFC	r0x15, F
002b8a   c013     movff   0x13, 0xfe9      	MOVFF	r0x13, FSR0L
002b8c   ffe9
002b8e   c014     movff   0x14, 0xff3      	MOVFF	r0x14, PRODL
002b90   fff3
002b92   5015     movf    0x15, 0, 0       	MOVF	r0x15, W
002b94   ecdd     call    0x4bba, 0        	CALL	__gptrget1
002b96   f025
002b98   6ae5     clrf    0xe5, 0          	CLRF	POSTDEC1
002b9a   6ee5     movwf   0xe5, 0          	MOVWF	POSTDEC1
002b9c   ecd4     call    0x45a8, 0        	CALL	_ILI9325_setColor
002b9e   f022
002ba0   52e6     movf    0xe6, 0x1, 0     	MOVF	POSTINC1, F
002ba2   52e6     movf    0xe6, 0x1, 0     	MOVF	POSTINC1, F
                                           ;	.line	551; /home/regis/Hobbies/Electronique/Projets/Pinguino/projets/TFT/graphic.c	drawPixel(x+i, y+j);
002ba4   5011     movf    0x11, 0, 0       	MOVF	r0x11, W
002ba6   2400     addwf   0, 0, 0          	ADDWF	r0x00, W
002ba8   6e13     movwf   0x13, 0          	MOVWF	r0x13
002baa   5012     movf    0x12, 0, 0       	MOVF	r0x12, W
002bac   2001     addwfc  0x1, 0, 0        	ADDWFC	r0x01, W
002bae   6e14     movwf   0x14, 0          	MOVWF	r0x14
002bb0   5010     movf    0x10, 0, 0       	MOVF	r0x10, W
002bb2   6ee5     movwf   0xe5, 0          	MOVWF	POSTDEC1
002bb4   500f     movf    0xf, 0, 0        	MOVF	r0x0f, W
002bb6   6ee5     movwf   0xe5, 0          	MOVWF	POSTDEC1
002bb8   5014     movf    0x14, 0, 0       	MOVF	r0x14, W
002bba   6ee5     movwf   0xe5, 0          	MOVWF	POSTDEC1
002bbc   5013     movf    0x13, 0, 0       	MOVF	r0x13, W
002bbe   6ee5     movwf   0xe5, 0          	MOVWF	POSTDEC1
002bc0   ec7d     call    0x46fa, 0        	CALL	_drawPixel
002bc2   f023
002bc4   0e04     movlw   0x4              	MOVLW	0x04
002bc6   26e1     addwf   0xe1, 0x1, 0     	ADDWF	FSR1L, F
                                           ;	.line	548; /home/regis/Hobbies/Electronique/Projets/Pinguino/projets/TFT/graphic.c	for (i=0; i<w; i++ )
002bc8   4a11     infsnz  0x11, 0x1, 0     	INFSNZ	r0x11, F
002bca   2a12     incf    0x12, 0x1, 0     	INCF	r0x12, F
002bcc   d7cb     bra     0x2b64           	BRA	_00705_DS_
                                           _00711_DS_:
                                           ;	.line	546; /home/regis/Hobbies/Electronique/Projets/Pinguino/projets/TFT/graphic.c	for (j=0; j<h; j++)
002bce   4a0b     infsnz  0xb, 0x1, 0      	INFSNZ	r0x0b, F
002bd0   2a0c     incf    0xc, 0x1, 0      	INCF	r0x0c, F
002bd2   d79f     bra     0x2b12           	BRA	_00709_DS_
                                           _00713_DS_:
002bd4   cfe4     movff   0xfe4, 0x15      	MOVFF	PREINC1, r0x15
002bd6   f015
002bd8   cfe4     movff   0xfe4, 0x14      	MOVFF	PREINC1, r0x14
002bda   f014
002bdc   cfe4     movff   0xfe4, 0x13      	MOVFF	PREINC1, r0x13
002bde   f013
002be0   cfe4     movff   0xfe4, 0x12      	MOVFF	PREINC1, r0x12
002be2   f012
002be4   cfe4     movff   0xfe4, 0x11      	MOVFF	PREINC1, r0x11
002be6   f011
002be8   cfe4     movff   0xfe4, 0x10      	MOVFF	PREINC1, r0x10
002bea   f010
002bec   cfe4     movff   0xfe4, 0xf       	MOVFF	PREINC1, r0x0f
002bee   f00f
002bf0   cfe4     movff   0xfe4, 0xe       	MOVFF	PREINC1, r0x0e
002bf2   f00e
002bf4   cfe4     movff   0xfe4, 0xd       	MOVFF	PREINC1, r0x0d
002bf6   f00d
002bf8   cfe4     movff   0xfe4, 0xc       	MOVFF	PREINC1, r0x0c
002bfa   f00c
002bfc   cfe4     movff   0xfe4, 0xb       	MOVFF	PREINC1, r0x0b
002bfe   f00b
002c00   cfe4     movff   0xfe4, 0xa       	MOVFF	PREINC1, r0x0a
002c02   f00a
002c04   cfe4     movff   0xfe4, 0x9       	MOVFF	PREINC1, r0x09
002c06   f009
002c08   cfe4     movff   0xfe4, 0x8       	MOVFF	PREINC1, r0x08
002c0a   f008
002c0c   cfe4     movff   0xfe4, 0x7       	MOVFF	PREINC1, r0x07
002c0e   f007
002c10   cfe4     movff   0xfe4, 0x6       	MOVFF	PREINC1, r0x06
002c12   f006
002c14   cfe4     movff   0xfe4, 0x5       	MOVFF	PREINC1, r0x05
002c16   f005
002c18   cfe4     movff   0xfe4, 0x4       	MOVFF	PREINC1, r0x04
002c1a   f004
002c1c   cfe4     movff   0xfe4, 0x3       	MOVFF	PREINC1, r0x03
002c1e   f003
002c20   cfe4     movff   0xfe4, 0x2       	MOVFF	PREINC1, r0x02
002c22   f002
002c24   cfe4     movff   0xfe4, 0x1       	MOVFF	PREINC1, r0x01
002c26   f001
002c28   cfe4     movff   0xfe4, 0         	MOVFF	PREINC1, r0x00
002c2a   f000
002c2c   cfe4     movff   0xfe4, 0xfd9     	MOVFF	PREINC1, FSR2L
002c2e   ffd9
002c30   0012     return  0                	RETURN	
                                           
                                           ; ; Starting pCode block
                                           S_main__drawLine	code
                                           _drawLine:
                                           ;	.line	116; /home/regis/Hobbies/Electronique/Projets/Pinguino/projets/TFT/graphic.c	void drawLine(u16 x0, u16 y0, u16 x1, u16 y1)
0027e4   cfd9     movff   0xfd9, 0xfe5     	MOVFF	FSR2L, POSTDEC1
0027e6   ffe5
0027e8   cfe1     movff   0xfe1, 0xfd9     	MOVFF	FSR1L, FSR2L
0027ea   ffd9
0027ec   c000     movff   0, 0xfe5         	MOVFF	r0x00, POSTDEC1
0027ee   ffe5
0027f0   c001     movff   0x1, 0xfe5       	MOVFF	r0x01, POSTDEC1
0027f2   ffe5
0027f4   c002     movff   0x2, 0xfe5       	MOVFF	r0x02, POSTDEC1
0027f6   ffe5
0027f8   c003     movff   0x3, 0xfe5       	MOVFF	r0x03, POSTDEC1
0027fa   ffe5
0027fc   c004     movff   0x4, 0xfe5       	MOVFF	r0x04, POSTDEC1
0027fe   ffe5
002800   c005     movff   0x5, 0xfe5       	MOVFF	r0x05, POSTDEC1
002802   ffe5
002804   c006     movff   0x6, 0xfe5       	MOVFF	r0x06, POSTDEC1
002806   ffe5
002808   c007     movff   0x7, 0xfe5       	MOVFF	r0x07, POSTDEC1
00280a   ffe5
00280c   c008     movff   0x8, 0xfe5       	MOVFF	r0x08, POSTDEC1
00280e   ffe5
002810   c009     movff   0x9, 0xfe5       	MOVFF	r0x09, POSTDEC1
002812   ffe5
002814   c00a     movff   0xa, 0xfe5       	MOVFF	r0x0a, POSTDEC1
002816   ffe5
002818   c00b     movff   0xb, 0xfe5       	MOVFF	r0x0b, POSTDEC1
00281a   ffe5
00281c   c00c     movff   0xc, 0xfe5       	MOVFF	r0x0c, POSTDEC1
00281e   ffe5
002820   c00d     movff   0xd, 0xfe5       	MOVFF	r0x0d, POSTDEC1
002822   ffe5
002824   c00e     movff   0xe, 0xfe5       	MOVFF	r0x0e, POSTDEC1
002826   ffe5
002828   c00f     movff   0xf, 0xfe5       	MOVFF	r0x0f, POSTDEC1
00282a   ffe5
00282c   c010     movff   0x10, 0xfe5      	MOVFF	r0x10, POSTDEC1
00282e   ffe5
002830   c011     movff   0x11, 0xfe5      	MOVFF	r0x11, POSTDEC1
002832   ffe5
002834   0e02     movlw   0x2              	MOVLW	0x02
002836   cfdb     movff   0xfdb, 0         	MOVFF	PLUSW2, r0x00
002838   f000
00283a   0e03     movlw   0x3              	MOVLW	0x03
00283c   cfdb     movff   0xfdb, 0x1       	MOVFF	PLUSW2, r0x01
00283e   f001
002840   0e04     movlw   0x4              	MOVLW	0x04
002842   cfdb     movff   0xfdb, 0x2       	MOVFF	PLUSW2, r0x02
002844   f002
002846   0e05     movlw   0x5              	MOVLW	0x05
002848   cfdb     movff   0xfdb, 0x3       	MOVFF	PLUSW2, r0x03
00284a   f003
00284c   0e06     movlw   0x6              	MOVLW	0x06
00284e   cfdb     movff   0xfdb, 0x4       	MOVFF	PLUSW2, r0x04
002850   f004
002852   0e07     movlw   0x7              	MOVLW	0x07
002854   cfdb     movff   0xfdb, 0x5       	MOVFF	PLUSW2, r0x05
002856   f005
002858   0e08     movlw   0x8              	MOVLW	0x08
00285a   cfdb     movff   0xfdb, 0x6       	MOVFF	PLUSW2, r0x06
00285c   f006
00285e   0e09     movlw   0x9              	MOVLW	0x09
002860   cfdb     movff   0xfdb, 0x7       	MOVFF	PLUSW2, r0x07
002862   f007
                                           ;	.line	131; /home/regis/Hobbies/Electronique/Projets/Pinguino/projets/TFT/graphic.c	steep = _abs_(y1 - y0) > abs(x1 - x0);
002864   5002     movf    0x2, 0, 0        	MOVF	r0x02, W
002866   5c06     subwf   0x6, 0, 0        	SUBWF	r0x06, W
002868   6e08     movwf   0x8, 0           	MOVWF	r0x08
00286a   5003     movf    0x3, 0, 0        	MOVF	r0x03, W
00286c   5807     subwfb  0x7, 0, 0        	SUBWFB	r0x07, W
                                           ; #	MOVWF	r0x09
                                           ; #	MOVF	r0x08, W
                                           ; #	IORWF	r0x09, W
00286e   6e09     movwf   0x9, 0           	MOVWF	r0x09
002870   1008     iorwf   0x8, 0, 0        	IORWF	r0x08, W
002872   e005     bz      0x287e           	BZ	_00665_DS_
002874   c008     movff   0x8, 0xa         	MOVFF	r0x08, r0x0a
002876   f00a
002878   c009     movff   0x9, 0xb         	MOVFF	r0x09, r0x0b
00287a   f00b
00287c   d006     bra     0x288a           	BRA	_00666_DS_
                                           _00665_DS_:
00287e   1c09     comf    0x9, 0, 0        	COMF	r0x09, W
002880   6e0b     movwf   0xb, 0           	MOVWF	r0x0b
002882   1c08     comf    0x8, 0, 0        	COMF	r0x08, W
002884   6e0a     movwf   0xa, 0           	MOVWF	r0x0a
002886   4a0a     infsnz  0xa, 0x1, 0      	INFSNZ	r0x0a, F
002888   2a0b     incf    0xb, 0x1, 0      	INCF	r0x0b, F
                                           _00666_DS_:
00288a   5000     movf    0, 0, 0          	MOVF	r0x00, W
00288c   5c04     subwf   0x4, 0, 0        	SUBWF	r0x04, W
00288e   6e08     movwf   0x8, 0           	MOVWF	r0x08
002890   5001     movf    0x1, 0, 0        	MOVF	r0x01, W
002892   5805     subwfb  0x5, 0, 0        	SUBWFB	r0x05, W
                                           ; #	MOVWF	r0x09
                                           ; #	MOVF	r0x08, W
                                           ; #	IORWF	r0x09, W
002894   6e09     movwf   0x9, 0           	MOVWF	r0x09
002896   1008     iorwf   0x8, 0, 0        	IORWF	r0x08, W
002898   e005     bz      0x28a4           	BZ	_00667_DS_
00289a   c008     movff   0x8, 0xc         	MOVFF	r0x08, r0x0c
00289c   f00c
00289e   c009     movff   0x9, 0xd         	MOVFF	r0x09, r0x0d
0028a0   f00d
0028a2   d006     bra     0x28b0           	BRA	_00668_DS_
                                           _00667_DS_:
0028a4   1c09     comf    0x9, 0, 0        	COMF	r0x09, W
0028a6   6e0d     movwf   0xd, 0           	MOVWF	r0x0d
0028a8   1c08     comf    0x8, 0, 0        	COMF	r0x08, W
0028aa   6e0c     movwf   0xc, 0           	MOVWF	r0x0c
0028ac   4a0c     infsnz  0xc, 0x1, 0      	INFSNZ	r0x0c, F
0028ae   2a0d     incf    0xd, 0x1, 0      	INCF	r0x0d, F
                                           _00668_DS_:
0028b0   500b     movf    0xb, 0, 0        	MOVF	r0x0b, W
0028b2   5c0d     subwf   0xd, 0, 0        	SUBWF	r0x0d, W
0028b4   e102     bnz     0x28ba           	BNZ	_00695_DS_
0028b6   500a     movf    0xa, 0, 0        	MOVF	r0x0a, W
0028b8   5c0c     subwf   0xc, 0, 0        	SUBWF	r0x0c, W
                                           _00695_DS_:
0028ba   70d8     btg     0xd8, 0, 0       	BTG	STATUS, 0
0028bc   6a0a     clrf    0xa, 0           	CLRF	r0x0a
0028be   360a     rlcf    0xa, 0x1, 0      	RLCF	r0x0a, F
0028c0   c00a     movff   0xa, 0x8         	MOVFF	r0x0a, r0x08
0028c2   f008
0028c4   6a09     clrf    0x9, 0           	CLRF	r0x09
0028c6   be0a     btfsc   0xa, 0x7, 0      	BTFSC	r0x0a, 7
0028c8   6809     setf    0x9, 0           	SETF	r0x09
                                           ;	.line	133; /home/regis/Hobbies/Electronique/Projets/Pinguino/projets/TFT/graphic.c	if (steep)
0028ca   5008     movf    0x8, 0, 0        	MOVF	r0x08, W
0028cc   1009     iorwf   0x9, 0, 0        	IORWF	r0x09, W
0028ce   e018     bz      0x2900           	BZ	_00648_DS_
                                           ;	.line	135; /home/regis/Hobbies/Electronique/Projets/Pinguino/projets/TFT/graphic.c	t = x0; x0 = y0; y0 = t;
0028d0   c000     movff   0, 0xa           	MOVFF	r0x00, r0x0a
0028d2   f00a
0028d4   c001     movff   0x1, 0xb         	MOVFF	r0x01, r0x0b
0028d6   f00b
0028d8   c002     movff   0x2, 0           	MOVFF	r0x02, r0x00
0028da   f000
0028dc   c003     movff   0x3, 0x1         	MOVFF	r0x03, r0x01
0028de   f001
0028e0   c00a     movff   0xa, 0x2         	MOVFF	r0x0a, r0x02
0028e2   f002
0028e4   c00b     movff   0xb, 0x3         	MOVFF	r0x0b, r0x03
0028e6   f003
                                           ;	.line	136; /home/regis/Hobbies/Electronique/Projets/Pinguino/projets/TFT/graphic.c	t = x1; x1 = y1; y1 = t;
0028e8   c004     movff   0x4, 0xa         	MOVFF	r0x04, r0x0a
0028ea   f00a
0028ec   c005     movff   0x5, 0xb         	MOVFF	r0x05, r0x0b
0028ee   f00b
0028f0   c006     movff   0x6, 0x4         	MOVFF	r0x06, r0x04
0028f2   f004
0028f4   c007     movff   0x7, 0x5         	MOVFF	r0x07, r0x05
0028f6   f005
0028f8   c00a     movff   0xa, 0x6         	MOVFF	r0x0a, r0x06
0028fa   f006
0028fc   c00b     movff   0xb, 0x7         	MOVFF	r0x0b, r0x07
0028fe   f007
                                           _00648_DS_:
                                           ;	.line	139; /home/regis/Hobbies/Electronique/Projets/Pinguino/projets/TFT/graphic.c	if (x0 > x1)
002900   5001     movf    0x1, 0, 0        	MOVF	r0x01, W
002902   5c05     subwf   0x5, 0, 0        	SUBWF	r0x05, W
002904   e102     bnz     0x290a           	BNZ	_00696_DS_
002906   5000     movf    0, 0, 0          	MOVF	r0x00, W
002908   5c04     subwf   0x4, 0, 0        	SUBWF	r0x04, W
                                           _00696_DS_:
00290a   e218     bc      0x293c           	BC	_00650_DS_
                                           ;	.line	141; /home/regis/Hobbies/Electronique/Projets/Pinguino/projets/TFT/graphic.c	t = x0; x0 = x1; x1 = t;
00290c   c000     movff   0, 0xa           	MOVFF	r0x00, r0x0a
00290e   f00a
002910   c001     movff   0x1, 0xb         	MOVFF	r0x01, r0x0b
002912   f00b
002914   c004     movff   0x4, 0           	MOVFF	r0x04, r0x00
002916   f000
002918   c005     movff   0x5, 0x1         	MOVFF	r0x05, r0x01
00291a   f001
00291c   c00a     movff   0xa, 0x4         	MOVFF	r0x0a, r0x04
00291e   f004
002920   c00b     movff   0xb, 0x5         	MOVFF	r0x0b, r0x05
002922   f005
                                           ;	.line	142; /home/regis/Hobbies/Electronique/Projets/Pinguino/projets/TFT/graphic.c	t = y0; y0 = y1; y1 = t;
002924   c002     movff   0x2, 0xa         	MOVFF	r0x02, r0x0a
002926   f00a
002928   c003     movff   0x3, 0xb         	MOVFF	r0x03, r0x0b
00292a   f00b
00292c   c006     movff   0x6, 0x2         	MOVFF	r0x06, r0x02
00292e   f002
002930   c007     movff   0x7, 0x3         	MOVFF	r0x07, r0x03
002932   f003
002934   c00a     movff   0xa, 0x6         	MOVFF	r0x0a, r0x06
002936   f006
002938   c00b     movff   0xb, 0x7         	MOVFF	r0x0b, r0x07
00293a   f007
                                           _00650_DS_:
                                           ;	.line	145; /home/regis/Hobbies/Electronique/Projets/Pinguino/projets/TFT/graphic.c	deltax = x1 - x0;
00293c   5000     movf    0, 0, 0          	MOVF	r0x00, W
00293e   5c04     subwf   0x4, 0, 0        	SUBWF	r0x04, W
002940   6e0a     movwf   0xa, 0           	MOVWF	r0x0a
002942   5001     movf    0x1, 0, 0        	MOVF	r0x01, W
002944   5805     subwfb  0x5, 0, 0        	SUBWFB	r0x05, W
002946   6e0b     movwf   0xb, 0           	MOVWF	r0x0b
                                           ;	.line	146; /home/regis/Hobbies/Electronique/Projets/Pinguino/projets/TFT/graphic.c	deltay = _abs_(y1 - y0);
002948   5002     movf    0x2, 0, 0        	MOVF	r0x02, W
00294a   5c06     subwf   0x6, 0, 0        	SUBWF	r0x06, W
00294c   6e0c     movwf   0xc, 0           	MOVWF	r0x0c
00294e   5003     movf    0x3, 0, 0        	MOVF	r0x03, W
002950   5807     subwfb  0x7, 0, 0        	SUBWFB	r0x07, W
                                           ; #	MOVWF	r0x0d
                                           ; #	MOVF	r0x0c, W
                                           ; #	IORWF	r0x0d, W
002952   6e0d     movwf   0xd, 0           	MOVWF	r0x0d
002954   100c     iorwf   0xc, 0, 0        	IORWF	r0x0c, W
002956   e005     bz      0x2962           	BZ	_00669_DS_
002958   c00c     movff   0xc, 0xe         	MOVFF	r0x0c, r0x0e
00295a   f00e
00295c   c00d     movff   0xd, 0xf         	MOVFF	r0x0d, r0x0f
00295e   f00f
002960   d006     bra     0x296e           	BRA	_00670_DS_
                                           _00669_DS_:
002962   1c0d     comf    0xd, 0, 0        	COMF	r0x0d, W
002964   6e0f     movwf   0xf, 0           	MOVWF	r0x0f
002966   1c0c     comf    0xc, 0, 0        	COMF	r0x0c, W
002968   6e0e     movwf   0xe, 0           	MOVWF	r0x0e
00296a   4a0e     infsnz  0xe, 0x1, 0      	INFSNZ	r0x0e, F
00296c   2a0f     incf    0xf, 0x1, 0      	INCF	r0x0f, F
                                           _00670_DS_:
00296e   c00e     movff   0xe, 0xc         	MOVFF	r0x0e, r0x0c
002970   f00c
002972   c00f     movff   0xf, 0xd         	MOVFF	r0x0f, r0x0d
002974   f00d
                                           ;	.line	148; /home/regis/Hobbies/Electronique/Projets/Pinguino/projets/TFT/graphic.c	error = 0;
002976   6a0e     clrf    0xe, 0           	CLRF	r0x0e
002978   6a0f     clrf    0xf, 0           	CLRF	r0x0f
                                           ;	.line	149; /home/regis/Hobbies/Electronique/Projets/Pinguino/projets/TFT/graphic.c	y = y0;
00297a   c002     movff   0x2, 0x10        	MOVFF	r0x02, r0x10
00297c   f010
00297e   c003     movff   0x3, 0x11        	MOVFF	r0x03, r0x11
002980   f011
                                           ;	.line	151; /home/regis/Hobbies/Electronique/Projets/Pinguino/projets/TFT/graphic.c	if (y0 < y1) ystep = 1; else ystep = -1;
002982   5007     movf    0x7, 0, 0        	MOVF	r0x07, W
002984   5c03     subwf   0x3, 0, 0        	SUBWF	r0x03, W
002986   e102     bnz     0x298c           	BNZ	_00698_DS_
002988   5006     movf    0x6, 0, 0        	MOVF	r0x06, W
00298a   5c02     subwf   0x2, 0, 0        	SUBWF	r0x02, W
                                           _00698_DS_:
00298c   e204     bc      0x2996           	BC	_00652_DS_
00298e   0e01     movlw   0x1              	MOVLW	0x01
002990   6e02     movwf   0x2, 0           	MOVWF	r0x02
002992   6a03     clrf    0x3, 0           	CLRF	r0x03
002994   d002     bra     0x299a           	BRA	_00659_DS_
                                           _00652_DS_:
002996   6802     setf    0x2, 0           	SETF	r0x02
002998   6803     setf    0x3, 0           	SETF	r0x03
                                           _00659_DS_:
                                           ;	.line	153; /home/regis/Hobbies/Electronique/Projets/Pinguino/projets/TFT/graphic.c	for (x = x0; x < x1; x++)
00299a   5000     movf    0, 0, 0          	MOVF	r0x00, W
00299c   6e06     movwf   0x6, 0           	MOVWF	r0x06
00299e   5001     movf    0x1, 0, 0        	MOVF	r0x01, W
0029a0   6e07     movwf   0x7, 0           	MOVWF	r0x07
0029a2   5005     movf    0x5, 0, 0        	MOVF	r0x05, W
0029a4   5c07     subwf   0x7, 0, 0        	SUBWF	r0x07, W
0029a6   e102     bnz     0x29ac           	BNZ	_00699_DS_
0029a8   5004     movf    0x4, 0, 0        	MOVF	r0x04, W
0029aa   5c06     subwf   0x6, 0, 0        	SUBWF	r0x06, W
                                           _00699_DS_:
0029ac   e238     bc      0x2a1e           	BC	_00663_DS_
                                           ;	.line	155; /home/regis/Hobbies/Electronique/Projets/Pinguino/projets/TFT/graphic.c	if (steep)
0029ae   5008     movf    0x8, 0, 0        	MOVF	r0x08, W
0029b0   1009     iorwf   0x9, 0, 0        	IORWF	r0x09, W
0029b2   e00d     bz      0x29ce           	BZ	_00655_DS_
                                           ;	.line	156; /home/regis/Hobbies/Electronique/Projets/Pinguino/projets/TFT/graphic.c	drawPixel(y,x);
0029b4   5001     movf    0x1, 0, 0        	MOVF	r0x01, W
0029b6   6ee5     movwf   0xe5, 0          	MOVWF	POSTDEC1
0029b8   5000     movf    0, 0, 0          	MOVF	r0x00, W
0029ba   6ee5     movwf   0xe5, 0          	MOVWF	POSTDEC1
0029bc   5011     movf    0x11, 0, 0       	MOVF	r0x11, W
0029be   6ee5     movwf   0xe5, 0          	MOVWF	POSTDEC1
0029c0   5010     movf    0x10, 0, 0       	MOVF	r0x10, W
0029c2   6ee5     movwf   0xe5, 0          	MOVWF	POSTDEC1
0029c4   ec7d     call    0x46fa, 0        	CALL	_drawPixel
0029c6   f023
0029c8   0e04     movlw   0x4              	MOVLW	0x04
0029ca   26e1     addwf   0xe1, 0x1, 0     	ADDWF	FSR1L, F
0029cc   d00c     bra     0x29e6           	BRA	_00656_DS_
                                           _00655_DS_:
                                           ;	.line	158; /home/regis/Hobbies/Electronique/Projets/Pinguino/projets/TFT/graphic.c	drawPixel(x,y);
0029ce   5011     movf    0x11, 0, 0       	MOVF	r0x11, W
0029d0   6ee5     movwf   0xe5, 0          	MOVWF	POSTDEC1
0029d2   5010     movf    0x10, 0, 0       	MOVF	r0x10, W
0029d4   6ee5     movwf   0xe5, 0          	MOVWF	POSTDEC1
0029d6   5001     movf    0x1, 0, 0        	MOVF	r0x01, W
0029d8   6ee5     movwf   0xe5, 0          	MOVWF	POSTDEC1
0029da   5000     movf    0, 0, 0          	MOVF	r0x00, W
0029dc   6ee5     movwf   0xe5, 0          	MOVWF	POSTDEC1
0029de   ec7d     call    0x46fa, 0        	CALL	_drawPixel
0029e0   f023
0029e2   0e04     movlw   0x4              	MOVLW	0x04
0029e4   26e1     addwf   0xe1, 0x1, 0     	ADDWF	FSR1L, F
                                           _00656_DS_:
                                           ;	.line	160; /home/regis/Hobbies/Electronique/Projets/Pinguino/projets/TFT/graphic.c	error += deltay;
0029e6   500c     movf    0xc, 0, 0        	MOVF	r0x0c, W
0029e8   260e     addwf   0xe, 0x1, 0      	ADDWF	r0x0e, F
0029ea   500d     movf    0xd, 0, 0        	MOVF	r0x0d, W
0029ec   220f     addwfc  0xf, 0x1, 0      	ADDWFC	r0x0f, F
                                           ;	.line	162; /home/regis/Hobbies/Electronique/Projets/Pinguino/projets/TFT/graphic.c	if ( (error<<1) >= deltax)
0029ee   500e     movf    0xe, 0, 0        	MOVF	r0x0e, W
0029f0   6e06     movwf   0x6, 0           	MOVWF	r0x06
0029f2   2606     addwf   0x6, 0x1, 0      	ADDWF	r0x06, F
0029f4   340f     rlcf    0xf, 0, 0        	RLCF	r0x0f, W
                                           ; #	MOVWF	r0x07
                                           ; #	MOVF	r0x07, W
0029f6   0f80     addlw   0x80             	ADDLW	0x80
0029f8   6ef3     movwf   0xf3, 0          	MOVWF	PRODL
0029fa   500b     movf    0xb, 0, 0        	MOVF	r0x0b, W
0029fc   0f80     addlw   0x80             	ADDLW	0x80
0029fe   5cf3     subwf   0xf3, 0, 0       	SUBWF	PRODL, W
002a00   e102     bnz     0x2a06           	BNZ	_00700_DS_
002a02   500a     movf    0xa, 0, 0        	MOVF	r0x0a, W
002a04   5c06     subwf   0x6, 0, 0        	SUBWF	r0x06, W
                                           _00700_DS_:
002a06   e308     bnc     0x2a18           	BNC	_00661_DS_
                                           ;	.line	164; /home/regis/Hobbies/Electronique/Projets/Pinguino/projets/TFT/graphic.c	y += ystep;
002a08   5002     movf    0x2, 0, 0        	MOVF	r0x02, W
002a0a   2610     addwf   0x10, 0x1, 0     	ADDWF	r0x10, F
002a0c   5003     movf    0x3, 0, 0        	MOVF	r0x03, W
002a0e   2211     addwfc  0x11, 0x1, 0     	ADDWFC	r0x11, F
                                           ;	.line	165; /home/regis/Hobbies/Electronique/Projets/Pinguino/projets/TFT/graphic.c	error -= deltax;
002a10   500a     movf    0xa, 0, 0        	MOVF	r0x0a, W
002a12   5e0e     subwf   0xe, 0x1, 0      	SUBWF	r0x0e, F
002a14   500b     movf    0xb, 0, 0        	MOVF	r0x0b, W
002a16   5a0f     subwfb  0xf, 0x1, 0      	SUBWFB	r0x0f, F
                                           _00661_DS_:
                                           ;	.line	153; /home/regis/Hobbies/Electronique/Projets/Pinguino/projets/TFT/graphic.c	for (x = x0; x < x1; x++)
002a18   4a00     infsnz  0, 0x1, 0        	INFSNZ	r0x00, F
002a1a   2a01     incf    0x1, 0x1, 0      	INCF	r0x01, F
002a1c   d7be     bra     0x299a           	BRA	_00659_DS_
                                           _00663_DS_:
002a1e   cfe4     movff   0xfe4, 0x11      	MOVFF	PREINC1, r0x11
002a20   f011
002a22   cfe4     movff   0xfe4, 0x10      	MOVFF	PREINC1, r0x10
002a24   f010
002a26   cfe4     movff   0xfe4, 0xf       	MOVFF	PREINC1, r0x0f
002a28   f00f
002a2a   cfe4     movff   0xfe4, 0xe       	MOVFF	PREINC1, r0x0e
002a2c   f00e
002a2e   cfe4     movff   0xfe4, 0xd       	MOVFF	PREINC1, r0x0d
002a30   f00d
002a32   cfe4     movff   0xfe4, 0xc       	MOVFF	PREINC1, r0x0c
002a34   f00c
002a36   cfe4     movff   0xfe4, 0xb       	MOVFF	PREINC1, r0x0b
002a38   f00b
002a3a   cfe4     movff   0xfe4, 0xa       	MOVFF	PREINC1, r0x0a
002a3c   f00a
002a3e   cfe4     movff   0xfe4, 0x9       	MOVFF	PREINC1, r0x09
002a40   f009
002a42   cfe4     movff   0xfe4, 0x8       	MOVFF	PREINC1, r0x08
002a44   f008
002a46   cfe4     movff   0xfe4, 0x7       	MOVFF	PREINC1, r0x07
002a48   f007
002a4a   cfe4     movff   0xfe4, 0x6       	MOVFF	PREINC1, r0x06
002a4c   f006
002a4e   cfe4     movff   0xfe4, 0x5       	MOVFF	PREINC1, r0x05
002a50   f005
002a52   cfe4     movff   0xfe4, 0x4       	MOVFF	PREINC1, r0x04
002a54   f004
002a56   cfe4     movff   0xfe4, 0x3       	MOVFF	PREINC1, r0x03
002a58   f003
002a5a   cfe4     movff   0xfe4, 0x2       	MOVFF	PREINC1, r0x02
002a5c   f002
002a5e   cfe4     movff   0xfe4, 0x1       	MOVFF	PREINC1, r0x01
002a60   f001
002a62   cfe4     movff   0xfe4, 0         	MOVFF	PREINC1, r0x00
002a64   f000
002a66   cfe4     movff   0xfe4, 0xfd9     	MOVFF	PREINC1, FSR2L
002a68   ffd9
002a6a   0012     return  0                	RETURN	
                                           
                                           ; ; Starting pCode block
                                           S_main__fillCircle	code
                                           _fillCircle:
                                           ;	.line	105; /home/regis/Hobbies/Electronique/Projets/Pinguino/projets/TFT/graphic.c	void fillCircle(u16 x, u16 y, u16 radius)
002c32   cfd9     movff   0xfd9, 0xfe5     	MOVFF	FSR2L, POSTDEC1
002c34   ffe5
002c36   cfe1     movff   0xfe1, 0xfd9     	MOVFF	FSR1L, FSR2L
002c38   ffd9
002c3a   c000     movff   0, 0xfe5         	MOVFF	r0x00, POSTDEC1
002c3c   ffe5
002c3e   c001     movff   0x1, 0xfe5       	MOVFF	r0x01, POSTDEC1
002c40   ffe5
002c42   c002     movff   0x2, 0xfe5       	MOVFF	r0x02, POSTDEC1
002c44   ffe5
002c46   c003     movff   0x3, 0xfe5       	MOVFF	r0x03, POSTDEC1
002c48   ffe5
002c4a   c004     movff   0x4, 0xfe5       	MOVFF	r0x04, POSTDEC1
002c4c   ffe5
002c4e   c005     movff   0x5, 0xfe5       	MOVFF	r0x05, POSTDEC1
002c50   ffe5
002c52   c006     movff   0x6, 0xfe5       	MOVFF	r0x06, POSTDEC1
002c54   ffe5
002c56   c007     movff   0x7, 0xfe5       	MOVFF	r0x07, POSTDEC1
002c58   ffe5
002c5a   c008     movff   0x8, 0xfe5       	MOVFF	r0x08, POSTDEC1
002c5c   ffe5
002c5e   c009     movff   0x9, 0xfe5       	MOVFF	r0x09, POSTDEC1
002c60   ffe5
002c62   c00a     movff   0xa, 0xfe5       	MOVFF	r0x0a, POSTDEC1
002c64   ffe5
002c66   c00b     movff   0xb, 0xfe5       	MOVFF	r0x0b, POSTDEC1
002c68   ffe5
002c6a   c00c     movff   0xc, 0xfe5       	MOVFF	r0x0c, POSTDEC1
002c6c   ffe5
002c6e   c00d     movff   0xd, 0xfe5       	MOVFF	r0x0d, POSTDEC1
002c70   ffe5
002c72   c00e     movff   0xe, 0xfe5       	MOVFF	r0x0e, POSTDEC1
002c74   ffe5
002c76   c00f     movff   0xf, 0xfe5       	MOVFF	r0x0f, POSTDEC1
002c78   ffe5
002c7a   c010     movff   0x10, 0xfe5      	MOVFF	r0x10, POSTDEC1
002c7c   ffe5
002c7e   c011     movff   0x11, 0xfe5      	MOVFF	r0x11, POSTDEC1
002c80   ffe5
002c82   c012     movff   0x12, 0xfe5      	MOVFF	r0x12, POSTDEC1
002c84   ffe5
002c86   c013     movff   0x13, 0xfe5      	MOVFF	r0x13, POSTDEC1
002c88   ffe5
002c8a   0e02     movlw   0x2              	MOVLW	0x02
002c8c   cfdb     movff   0xfdb, 0         	MOVFF	PLUSW2, r0x00
002c8e   f000
002c90   0e03     movlw   0x3              	MOVLW	0x03
002c92   cfdb     movff   0xfdb, 0x1       	MOVFF	PLUSW2, r0x01
002c94   f001
002c96   0e04     movlw   0x4              	MOVLW	0x04
002c98   cfdb     movff   0xfdb, 0x2       	MOVFF	PLUSW2, r0x02
002c9a   f002
002c9c   0e05     movlw   0x5              	MOVLW	0x05
002c9e   cfdb     movff   0xfdb, 0x3       	MOVFF	PLUSW2, r0x03
002ca0   f003
002ca2   0e06     movlw   0x6              	MOVLW	0x06
002ca4   cfdb     movff   0xfdb, 0x4       	MOVFF	PLUSW2, r0x04
002ca6   f004
002ca8   0e07     movlw   0x7              	MOVLW	0x07
002caa   cfdb     movff   0xfdb, 0x5       	MOVFF	PLUSW2, r0x05
002cac   f005
                                           ;	.line	108; /home/regis/Hobbies/Electronique/Projets/Pinguino/projets/TFT/graphic.c	for(y1=-radius; y1<=radius; y1++) 
002cae   1c05     comf    0x5, 0, 0        	COMF	r0x05, W
002cb0   6e07     movwf   0x7, 0           	MOVWF	r0x07
002cb2   1c04     comf    0x4, 0, 0        	COMF	r0x04, W
002cb4   6e06     movwf   0x6, 0           	MOVWF	r0x06
002cb6   4a06     infsnz  0x6, 0x1, 0      	INFSNZ	r0x06, F
002cb8   2a07     incf    0x7, 0x1, 0      	INCF	r0x07, F
002cba   c006     movff   0x6, 0x8         	MOVFF	r0x06, r0x08
002cbc   f008
002cbe   c007     movff   0x7, 0x9         	MOVFF	r0x07, r0x09
002cc0   f009
002cc2   5005     movf    0x5, 0, 0        	MOVF	r0x05, W
002cc4   6ee5     movwf   0xe5, 0          	MOVWF	POSTDEC1
002cc6   5004     movf    0x4, 0, 0        	MOVF	r0x04, W
002cc8   6ee5     movwf   0xe5, 0          	MOVWF	POSTDEC1
002cca   5005     movf    0x5, 0, 0        	MOVF	r0x05, W
002ccc   6ee5     movwf   0xe5, 0          	MOVWF	POSTDEC1
002cce   5004     movf    0x4, 0, 0        	MOVF	r0x04, W
002cd0   6ee5     movwf   0xe5, 0          	MOVWF	POSTDEC1
002cd2   ec54     call    0x40a8, 0        	CALL	__mulint
002cd4   f020
002cd6   6e0a     movwf   0xa, 0           	MOVWF	r0x0a
002cd8   cff3     movff   0xff3, 0xb       	MOVFF	PRODL, r0x0b
002cda   f00b
002cdc   0e04     movlw   0x4              	MOVLW	0x04
002cde   26e1     addwf   0xe1, 0x1, 0     	ADDWF	FSR1L, F
                                           _00621_DS_:
002ce0   5008     movf    0x8, 0, 0        	MOVF	r0x08, W
002ce2   6e0c     movwf   0xc, 0           	MOVWF	r0x0c
                                           ; #	MOVF	r0x09, W
                                           ; #	MOVWF	r0x0d
                                           ; #	MOVF	r0x0d, W
002ce4   5009     movf    0x9, 0, 0        	MOVF	r0x09, W
002ce6   5c05     subwf   0x5, 0, 0        	SUBWF	r0x05, W
002ce8   e102     bnz     0x2cee           	BNZ	_00640_DS_
002cea   500c     movf    0xc, 0, 0        	MOVF	r0x0c, W
002cec   5c04     subwf   0x4, 0, 0        	SUBWF	r0x04, W
                                           _00640_DS_:
002cee   a0d8     btfss   0xd8, 0, 0       	BTFSS	STATUS, 0
002cf0   d053     bra     0x2d98           	BRA	_00625_DS_
                                           ;	.line	109; /home/regis/Hobbies/Electronique/Projets/Pinguino/projets/TFT/graphic.c	for(x1=-radius; x1<=radius; x1++) 
002cf2   5009     movf    0x9, 0, 0        	MOVF	r0x09, W
002cf4   6ee5     movwf   0xe5, 0          	MOVWF	POSTDEC1
002cf6   5008     movf    0x8, 0, 0        	MOVF	r0x08, W
002cf8   6ee5     movwf   0xe5, 0          	MOVWF	POSTDEC1
002cfa   5009     movf    0x9, 0, 0        	MOVF	r0x09, W
002cfc   6ee5     movwf   0xe5, 0          	MOVWF	POSTDEC1
002cfe   5008     movf    0x8, 0, 0        	MOVF	r0x08, W
002d00   6ee5     movwf   0xe5, 0          	MOVWF	POSTDEC1
002d02   ec54     call    0x40a8, 0        	CALL	__mulint
002d04   f020
002d06   6e0c     movwf   0xc, 0           	MOVWF	r0x0c
002d08   cff3     movff   0xff3, 0xd       	MOVFF	PRODL, r0x0d
002d0a   f00d
002d0c   0e04     movlw   0x4              	MOVLW	0x04
002d0e   26e1     addwf   0xe1, 0x1, 0     	ADDWF	FSR1L, F
002d10   c006     movff   0x6, 0xe         	MOVFF	r0x06, r0x0e
002d12   f00e
002d14   c007     movff   0x7, 0xf         	MOVFF	r0x07, r0x0f
002d16   f00f
                                           _00617_DS_:
002d18   500e     movf    0xe, 0, 0        	MOVF	r0x0e, W
002d1a   6e10     movwf   0x10, 0          	MOVWF	r0x10
                                           ; #	MOVF	r0x0f, W
                                           ; #	MOVWF	r0x11
                                           ; #	MOVF	r0x11, W
002d1c   500f     movf    0xf, 0, 0        	MOVF	r0x0f, W
002d1e   6e11     movwf   0x11, 0          	MOVWF	r0x11
002d20   5c05     subwf   0x5, 0, 0        	SUBWF	r0x05, W
002d22   e102     bnz     0x2d28           	BNZ	_00641_DS_
002d24   5010     movf    0x10, 0, 0       	MOVF	r0x10, W
002d26   5c04     subwf   0x4, 0, 0        	SUBWF	r0x04, W
                                           _00641_DS_:
002d28   e334     bnc     0x2d92           	BNC	_00623_DS_
                                           ;	.line	110; /home/regis/Hobbies/Electronique/Projets/Pinguino/projets/TFT/graphic.c	if(x1*x1+y1*y1 <= radius*radius) 
002d2a   500f     movf    0xf, 0, 0        	MOVF	r0x0f, W
002d2c   6ee5     movwf   0xe5, 0          	MOVWF	POSTDEC1
002d2e   500e     movf    0xe, 0, 0        	MOVF	r0x0e, W
002d30   6ee5     movwf   0xe5, 0          	MOVWF	POSTDEC1
002d32   500f     movf    0xf, 0, 0        	MOVF	r0x0f, W
002d34   6ee5     movwf   0xe5, 0          	MOVWF	POSTDEC1
002d36   500e     movf    0xe, 0, 0        	MOVF	r0x0e, W
002d38   6ee5     movwf   0xe5, 0          	MOVWF	POSTDEC1
002d3a   ec54     call    0x40a8, 0        	CALL	__mulint
002d3c   f020
002d3e   6e12     movwf   0x12, 0          	MOVWF	r0x12
002d40   cff3     movff   0xff3, 0x13      	MOVFF	PRODL, r0x13
002d42   f013
002d44   0e04     movlw   0x4              	MOVLW	0x04
002d46   26e1     addwf   0xe1, 0x1, 0     	ADDWF	FSR1L, F
002d48   500c     movf    0xc, 0, 0        	MOVF	r0x0c, W
002d4a   2612     addwf   0x12, 0x1, 0     	ADDWF	r0x12, F
002d4c   500d     movf    0xd, 0, 0        	MOVF	r0x0d, W
002d4e   2213     addwfc  0x13, 0x1, 0     	ADDWFC	r0x13, F
002d50   5013     movf    0x13, 0, 0       	MOVF	r0x13, W
002d52   5c0b     subwf   0xb, 0, 0        	SUBWF	r0x0b, W
002d54   e102     bnz     0x2d5a           	BNZ	_00642_DS_
002d56   5012     movf    0x12, 0, 0       	MOVF	r0x12, W
002d58   5c0a     subwf   0xa, 0, 0        	SUBWF	r0x0a, W
                                           _00642_DS_:
002d5a   e318     bnc     0x2d8c           	BNC	_00619_DS_
                                           ;	.line	111; /home/regis/Hobbies/Electronique/Projets/Pinguino/projets/TFT/graphic.c	drawPixel(x+x1, y+y1); 
002d5c   5000     movf    0, 0, 0          	MOVF	r0x00, W
002d5e   2610     addwf   0x10, 0x1, 0     	ADDWF	r0x10, F
002d60   5001     movf    0x1, 0, 0        	MOVF	r0x01, W
002d62   2211     addwfc  0x11, 0x1, 0     	ADDWFC	r0x11, F
002d64   5008     movf    0x8, 0, 0        	MOVF	r0x08, W
002d66   6e12     movwf   0x12, 0          	MOVWF	r0x12
002d68   5009     movf    0x9, 0, 0        	MOVF	r0x09, W
002d6a   6e13     movwf   0x13, 0          	MOVWF	r0x13
002d6c   5002     movf    0x2, 0, 0        	MOVF	r0x02, W
002d6e   2612     addwf   0x12, 0x1, 0     	ADDWF	r0x12, F
002d70   5003     movf    0x3, 0, 0        	MOVF	r0x03, W
002d72   2213     addwfc  0x13, 0x1, 0     	ADDWFC	r0x13, F
002d74   5013     movf    0x13, 0, 0       	MOVF	r0x13, W
002d76   6ee5     movwf   0xe5, 0          	MOVWF	POSTDEC1
002d78   5012     movf    0x12, 0, 0       	MOVF	r0x12, W
002d7a   6ee5     movwf   0xe5, 0          	MOVWF	POSTDEC1
002d7c   5011     movf    0x11, 0, 0       	MOVF	r0x11, W
002d7e   6ee5     movwf   0xe5, 0          	MOVWF	POSTDEC1
002d80   5010     movf    0x10, 0, 0       	MOVF	r0x10, W
002d82   6ee5     movwf   0xe5, 0          	MOVWF	POSTDEC1
002d84   ec7d     call    0x46fa, 0        	CALL	_drawPixel
002d86   f023
002d88   0e04     movlw   0x4              	MOVLW	0x04
002d8a   26e1     addwf   0xe1, 0x1, 0     	ADDWF	FSR1L, F
                                           _00619_DS_:
                                           ;	.line	109; /home/regis/Hobbies/Electronique/Projets/Pinguino/projets/TFT/graphic.c	for(x1=-radius; x1<=radius; x1++) 
002d8c   4a0e     infsnz  0xe, 0x1, 0      	INFSNZ	r0x0e, F
002d8e   2a0f     incf    0xf, 0x1, 0      	INCF	r0x0f, F
002d90   d7c3     bra     0x2d18           	BRA	_00617_DS_
                                           _00623_DS_:
                                           ;	.line	108; /home/regis/Hobbies/Electronique/Projets/Pinguino/projets/TFT/graphic.c	for(y1=-radius; y1<=radius; y1++) 
002d92   4a08     infsnz  0x8, 0x1, 0      	INFSNZ	r0x08, F
002d94   2a09     incf    0x9, 0x1, 0      	INCF	r0x09, F
002d96   d7a4     bra     0x2ce0           	BRA	_00621_DS_
                                           _00625_DS_:
002d98   cfe4     movff   0xfe4, 0x13      	MOVFF	PREINC1, r0x13
002d9a   f013
002d9c   cfe4     movff   0xfe4, 0x12      	MOVFF	PREINC1, r0x12
002d9e   f012
002da0   cfe4     movff   0xfe4, 0x11      	MOVFF	PREINC1, r0x11
002da2   f011
002da4   cfe4     movff   0xfe4, 0x10      	MOVFF	PREINC1, r0x10
002da6   f010
002da8   cfe4     movff   0xfe4, 0xf       	MOVFF	PREINC1, r0x0f
002daa   f00f
002dac   cfe4     movff   0xfe4, 0xe       	MOVFF	PREINC1, r0x0e
002dae   f00e
002db0   cfe4     movff   0xfe4, 0xd       	MOVFF	PREINC1, r0x0d
002db2   f00d
002db4   cfe4     movff   0xfe4, 0xc       	MOVFF	PREINC1, r0x0c
002db6   f00c
002db8   cfe4     movff   0xfe4, 0xb       	MOVFF	PREINC1, r0x0b
002dba   f00b
002dbc   cfe4     movff   0xfe4, 0xa       	MOVFF	PREINC1, r0x0a
002dbe   f00a
002dc0   cfe4     movff   0xfe4, 0x9       	MOVFF	PREINC1, r0x09
002dc2   f009
002dc4   cfe4     movff   0xfe4, 0x8       	MOVFF	PREINC1, r0x08
002dc6   f008
002dc8   cfe4     movff   0xfe4, 0x7       	MOVFF	PREINC1, r0x07
002dca   f007
002dcc   cfe4     movff   0xfe4, 0x6       	MOVFF	PREINC1, r0x06
002dce   f006
002dd0   cfe4     movff   0xfe4, 0x5       	MOVFF	PREINC1, r0x05
002dd2   f005
002dd4   cfe4     movff   0xfe4, 0x4       	MOVFF	PREINC1, r0x04
002dd6   f004
002dd8   cfe4     movff   0xfe4, 0x3       	MOVFF	PREINC1, r0x03
002dda   f003
002ddc   cfe4     movff   0xfe4, 0x2       	MOVFF	PREINC1, r0x02
002dde   f002
002de0   cfe4     movff   0xfe4, 0x1       	MOVFF	PREINC1, r0x01
002de2   f001
002de4   cfe4     movff   0xfe4, 0         	MOVFF	PREINC1, r0x00
002de6   f000
002de8   cfe4     movff   0xfe4, 0xfd9     	MOVFF	PREINC1, FSR2L
002dea   ffd9
002dec   0012     return  0                	RETURN	
                                           
                                           ; ; Starting pCode block
                                           S_main__drawCircle	code
                                           _drawCircle:
                                           ;	.line	70; /home/regis/Hobbies/Electronique/Projets/Pinguino/projets/TFT/graphic.c	void drawCircle(u16 x, u16 y, u16 radius)
0021e4   cfd9     movff   0xfd9, 0xfe5     	MOVFF	FSR2L, POSTDEC1
0021e6   ffe5
0021e8   cfe1     movff   0xfe1, 0xfd9     	MOVFF	FSR1L, FSR2L
0021ea   ffd9
0021ec   c000     movff   0, 0xfe5         	MOVFF	r0x00, POSTDEC1
0021ee   ffe5
0021f0   c001     movff   0x1, 0xfe5       	MOVFF	r0x01, POSTDEC1
0021f2   ffe5
0021f4   c002     movff   0x2, 0xfe5       	MOVFF	r0x02, POSTDEC1
0021f6   ffe5
0021f8   c003     movff   0x3, 0xfe5       	MOVFF	r0x03, POSTDEC1
0021fa   ffe5
0021fc   c004     movff   0x4, 0xfe5       	MOVFF	r0x04, POSTDEC1
0021fe   ffe5
002200   c005     movff   0x5, 0xfe5       	MOVFF	r0x05, POSTDEC1
002202   ffe5
002204   c006     movff   0x6, 0xfe5       	MOVFF	r0x06, POSTDEC1
002206   ffe5
002208   c007     movff   0x7, 0xfe5       	MOVFF	r0x07, POSTDEC1
00220a   ffe5
00220c   c008     movff   0x8, 0xfe5       	MOVFF	r0x08, POSTDEC1
00220e   ffe5
002210   c009     movff   0x9, 0xfe5       	MOVFF	r0x09, POSTDEC1
002212   ffe5
002214   c00a     movff   0xa, 0xfe5       	MOVFF	r0x0a, POSTDEC1
002216   ffe5
002218   c00b     movff   0xb, 0xfe5       	MOVFF	r0x0b, POSTDEC1
00221a   ffe5
00221c   c00c     movff   0xc, 0xfe5       	MOVFF	r0x0c, POSTDEC1
00221e   ffe5
002220   c00d     movff   0xd, 0xfe5       	MOVFF	r0x0d, POSTDEC1
002222   ffe5
002224   c00e     movff   0xe, 0xfe5       	MOVFF	r0x0e, POSTDEC1
002226   ffe5
002228   c00f     movff   0xf, 0xfe5       	MOVFF	r0x0f, POSTDEC1
00222a   ffe5
00222c   c010     movff   0x10, 0xfe5      	MOVFF	r0x10, POSTDEC1
00222e   ffe5
002230   c011     movff   0x11, 0xfe5      	MOVFF	r0x11, POSTDEC1
002232   ffe5
002234   c012     movff   0x12, 0xfe5      	MOVFF	r0x12, POSTDEC1
002236   ffe5
002238   c013     movff   0x13, 0xfe5      	MOVFF	r0x13, POSTDEC1
00223a   ffe5
00223c   c014     movff   0x14, 0xfe5      	MOVFF	r0x14, POSTDEC1
00223e   ffe5
002240   c015     movff   0x15, 0xfe5      	MOVFF	r0x15, POSTDEC1
002242   ffe5
002244   c016     movff   0x16, 0xfe5      	MOVFF	r0x16, POSTDEC1
002246   ffe5
002248   c017     movff   0x17, 0xfe5      	MOVFF	r0x17, POSTDEC1
00224a   ffe5
00224c   0e02     movlw   0x2              	MOVLW	0x02
00224e   cfdb     movff   0xfdb, 0         	MOVFF	PLUSW2, r0x00
002250   f000
002252   0e03     movlw   0x3              	MOVLW	0x03
002254   cfdb     movff   0xfdb, 0x1       	MOVFF	PLUSW2, r0x01
002256   f001
002258   0e04     movlw   0x4              	MOVLW	0x04
00225a   cfdb     movff   0xfdb, 0x2       	MOVFF	PLUSW2, r0x02
00225c   f002
00225e   0e05     movlw   0x5              	MOVLW	0x05
002260   cfdb     movff   0xfdb, 0x3       	MOVFF	PLUSW2, r0x03
002262   f003
002264   0e06     movlw   0x6              	MOVLW	0x06
002266   cfdb     movff   0xfdb, 0x4       	MOVFF	PLUSW2, r0x04
002268   f004
00226a   0e07     movlw   0x7              	MOVLW	0x07
00226c   cfdb     movff   0xfdb, 0x5       	MOVFF	PLUSW2, r0x05
00226e   f005
                                           ;	.line	72; /home/regis/Hobbies/Electronique/Projets/Pinguino/projets/TFT/graphic.c	s16 f = 1 - radius;
002270   5004     movf    0x4, 0, 0        	MOVF	r0x04, W
002272   0801     sublw   0x1              	SUBLW	0x01
002274   6e06     movwf   0x6, 0           	MOVWF	r0x06
002276   0e00     movlw   0                	MOVLW	0x00
002278   5405     subfwb  0x5, 0, 0        	SUBFWB	r0x05, W
00227a   6e07     movwf   0x7, 0           	MOVWF	r0x07
                                           ;	.line	74; /home/regis/Hobbies/Electronique/Projets/Pinguino/projets/TFT/graphic.c	s16 ddF_y = -2 * radius;
00227c   5005     movf    0x5, 0, 0        	MOVF	r0x05, W
00227e   6ee5     movwf   0xe5, 0          	MOVWF	POSTDEC1
002280   5004     movf    0x4, 0, 0        	MOVF	r0x04, W
002282   6ee5     movwf   0xe5, 0          	MOVWF	POSTDEC1
002284   68e5     setf    0xe5, 0          	SETF	POSTDEC1
002286   0efe     movlw   0xfe             	MOVLW	0xfe
002288   6ee5     movwf   0xe5, 0          	MOVWF	POSTDEC1
00228a   ec54     call    0x40a8, 0        	CALL	__mulint
00228c   f020
00228e   6e08     movwf   0x8, 0           	MOVWF	r0x08
002290   cff3     movff   0xff3, 0x9       	MOVFF	PRODL, r0x09
002292   f009
002294   0e04     movlw   0x4              	MOVLW	0x04
002296   26e1     addwf   0xe1, 0x1, 0     	ADDWF	FSR1L, F
                                           ;	.line	78; /home/regis/Hobbies/Electronique/Projets/Pinguino/projets/TFT/graphic.c	drawPixel(x, y + radius);
002298   5004     movf    0x4, 0, 0        	MOVF	r0x04, W
00229a   2402     addwf   0x2, 0, 0        	ADDWF	r0x02, W
00229c   6e0a     movwf   0xa, 0           	MOVWF	r0x0a
00229e   5005     movf    0x5, 0, 0        	MOVF	r0x05, W
0022a0   2003     addwfc  0x3, 0, 0        	ADDWFC	r0x03, W
                                           ; #	MOVWF	r0x0b
                                           ; #	MOVF	r0x0b, W
0022a2   6ee5     movwf   0xe5, 0          	MOVWF	POSTDEC1
0022a4   500a     movf    0xa, 0, 0        	MOVF	r0x0a, W
0022a6   6ee5     movwf   0xe5, 0          	MOVWF	POSTDEC1
0022a8   5001     movf    0x1, 0, 0        	MOVF	r0x01, W
0022aa   6ee5     movwf   0xe5, 0          	MOVWF	POSTDEC1
0022ac   5000     movf    0, 0, 0          	MOVF	r0x00, W
0022ae   6ee5     movwf   0xe5, 0          	MOVWF	POSTDEC1
0022b0   ec7d     call    0x46fa, 0        	CALL	_drawPixel
0022b2   f023
0022b4   0e04     movlw   0x4              	MOVLW	0x04
0022b6   26e1     addwf   0xe1, 0x1, 0     	ADDWF	FSR1L, F
                                           ;	.line	79; /home/regis/Hobbies/Electronique/Projets/Pinguino/projets/TFT/graphic.c	drawPixel(x, y - radius);
0022b8   5004     movf    0x4, 0, 0        	MOVF	r0x04, W
0022ba   5c02     subwf   0x2, 0, 0        	SUBWF	r0x02, W
0022bc   6e0a     movwf   0xa, 0           	MOVWF	r0x0a
0022be   5005     movf    0x5, 0, 0        	MOVF	r0x05, W
0022c0   5803     subwfb  0x3, 0, 0        	SUBWFB	r0x03, W
                                           ; #	MOVWF	r0x0b
                                           ; #	MOVF	r0x0b, W
0022c2   6ee5     movwf   0xe5, 0          	MOVWF	POSTDEC1
0022c4   500a     movf    0xa, 0, 0        	MOVF	r0x0a, W
0022c6   6ee5     movwf   0xe5, 0          	MOVWF	POSTDEC1
0022c8   5001     movf    0x1, 0, 0        	MOVF	r0x01, W
0022ca   6ee5     movwf   0xe5, 0          	MOVWF	POSTDEC1
0022cc   5000     movf    0, 0, 0          	MOVF	r0x00, W
0022ce   6ee5     movwf   0xe5, 0          	MOVWF	POSTDEC1
0022d0   ec7d     call    0x46fa, 0        	CALL	_drawPixel
0022d2   f023
0022d4   0e04     movlw   0x4              	MOVLW	0x04
0022d6   26e1     addwf   0xe1, 0x1, 0     	ADDWF	FSR1L, F
                                           ;	.line	80; /home/regis/Hobbies/Electronique/Projets/Pinguino/projets/TFT/graphic.c	drawPixel(x + radius, y);
0022d8   5004     movf    0x4, 0, 0        	MOVF	r0x04, W
0022da   2400     addwf   0, 0, 0          	ADDWF	r0x00, W
0022dc   6e0a     movwf   0xa, 0           	MOVWF	r0x0a
0022de   5005     movf    0x5, 0, 0        	MOVF	r0x05, W
0022e0   2001     addwfc  0x1, 0, 0        	ADDWFC	r0x01, W
0022e2   6e0b     movwf   0xb, 0           	MOVWF	r0x0b
0022e4   5003     movf    0x3, 0, 0        	MOVF	r0x03, W
0022e6   6ee5     movwf   0xe5, 0          	MOVWF	POSTDEC1
0022e8   5002     movf    0x2, 0, 0        	MOVF	r0x02, W
0022ea   6ee5     movwf   0xe5, 0          	MOVWF	POSTDEC1
0022ec   500b     movf    0xb, 0, 0        	MOVF	r0x0b, W
0022ee   6ee5     movwf   0xe5, 0          	MOVWF	POSTDEC1
0022f0   500a     movf    0xa, 0, 0        	MOVF	r0x0a, W
0022f2   6ee5     movwf   0xe5, 0          	MOVWF	POSTDEC1
0022f4   ec7d     call    0x46fa, 0        	CALL	_drawPixel
0022f6   f023
0022f8   0e04     movlw   0x4              	MOVLW	0x04
0022fa   26e1     addwf   0xe1, 0x1, 0     	ADDWF	FSR1L, F
                                           ;	.line	81; /home/regis/Hobbies/Electronique/Projets/Pinguino/projets/TFT/graphic.c	drawPixel(x - radius, y);
0022fc   5004     movf    0x4, 0, 0        	MOVF	r0x04, W
0022fe   5c00     subwf   0, 0, 0          	SUBWF	r0x00, W
002300   6e0a     movwf   0xa, 0           	MOVWF	r0x0a
002302   5005     movf    0x5, 0, 0        	MOVF	r0x05, W
002304   5801     subwfb  0x1, 0, 0        	SUBWFB	r0x01, W
002306   6e0b     movwf   0xb, 0           	MOVWF	r0x0b
002308   5003     movf    0x3, 0, 0        	MOVF	r0x03, W
00230a   6ee5     movwf   0xe5, 0          	MOVWF	POSTDEC1
00230c   5002     movf    0x2, 0, 0        	MOVF	r0x02, W
00230e   6ee5     movwf   0xe5, 0          	MOVWF	POSTDEC1
002310   500b     movf    0xb, 0, 0        	MOVF	r0x0b, W
002312   6ee5     movwf   0xe5, 0          	MOVWF	POSTDEC1
002314   500a     movf    0xa, 0, 0        	MOVF	r0x0a, W
002316   6ee5     movwf   0xe5, 0          	MOVWF	POSTDEC1
002318   ec7d     call    0x46fa, 0        	CALL	_drawPixel
00231a   f023
00231c   0e04     movlw   0x4              	MOVLW	0x04
00231e   26e1     addwf   0xe1, 0x1, 0     	ADDWF	FSR1L, F
                                           ;	.line	83; /home/regis/Hobbies/Electronique/Projets/Pinguino/projets/TFT/graphic.c	while(x1 < y1)
002320   6a0a     clrf    0xa, 0           	CLRF	r0x0a
002322   6a0b     clrf    0xb, 0           	CLRF	r0x0b
002324   0e01     movlw   0x1              	MOVLW	0x01
002326   6e0c     movwf   0xc, 0           	MOVWF	r0x0c
002328   6a0d     clrf    0xd, 0           	CLRF	r0x0d
                                           _00598_DS_:
00232a   500b     movf    0xb, 0, 0        	MOVF	r0x0b, W
00232c   0f80     addlw   0x80             	ADDLW	0x80
00232e   6ef3     movwf   0xf3, 0          	MOVWF	PRODL
002330   5005     movf    0x5, 0, 0        	MOVF	r0x05, W
002332   0f80     addlw   0x80             	ADDLW	0x80
002334   5cf3     subwf   0xf3, 0, 0       	SUBWF	PRODL, W
002336   e102     bnz     0x233c           	BNZ	_00610_DS_
002338   5004     movf    0x4, 0, 0        	MOVF	r0x04, W
00233a   5c0a     subwf   0xa, 0, 0        	SUBWF	r0x0a, W
                                           _00610_DS_:
00233c   b0d8     btfsc   0xd8, 0, 0       	BTFSC	STATUS, 0
00233e   d0ae     bra     0x249c           	BRA	_00601_DS_
                                           ;	.line	85; /home/regis/Hobbies/Electronique/Projets/Pinguino/projets/TFT/graphic.c	if(f >= 0) 
002340   80d8     bsf     0xd8, 0, 0       	BSF	STATUS, 0
002342   ae07     btfss   0x7, 0x7, 0      	BTFSS	r0x07, 7
002344   90d8     bcf     0xd8, 0, 0       	BCF	STATUS, 0
002346   e20b     bc      0x235e           	BC	_00597_DS_
                                           ;	.line	87; /home/regis/Hobbies/Electronique/Projets/Pinguino/projets/TFT/graphic.c	y1--;
002348   0eff     movlw   0xff             	MOVLW	0xff
00234a   2604     addwf   0x4, 0x1, 0      	ADDWF	r0x04, F
00234c   2205     addwfc  0x5, 0x1, 0      	ADDWFC	r0x05, F
                                           ;	.line	88; /home/regis/Hobbies/Electronique/Projets/Pinguino/projets/TFT/graphic.c	ddF_y += 2;
00234e   0e02     movlw   0x2              	MOVLW	0x02
002350   2608     addwf   0x8, 0x1, 0      	ADDWF	r0x08, F
002352   b0d8     btfsc   0xd8, 0, 0       	BTFSC	STATUS, 0
002354   2a09     incf    0x9, 0x1, 0      	INCF	r0x09, F
                                           ;	.line	89; /home/regis/Hobbies/Electronique/Projets/Pinguino/projets/TFT/graphic.c	f += ddF_y;
002356   5008     movf    0x8, 0, 0        	MOVF	r0x08, W
002358   2606     addwf   0x6, 0x1, 0      	ADDWF	r0x06, F
00235a   5009     movf    0x9, 0, 0        	MOVF	r0x09, W
00235c   2207     addwfc  0x7, 0x1, 0      	ADDWFC	r0x07, F
                                           _00597_DS_:
                                           ;	.line	91; /home/regis/Hobbies/Electronique/Projets/Pinguino/projets/TFT/graphic.c	x1++;
00235e   4a0a     infsnz  0xa, 0x1, 0      	INFSNZ	r0x0a, F
002360   2a0b     incf    0xb, 0x1, 0      	INCF	r0x0b, F
                                           ;	.line	92; /home/regis/Hobbies/Electronique/Projets/Pinguino/projets/TFT/graphic.c	ddF_x += 2;
002362   0e02     movlw   0x2              	MOVLW	0x02
002364   260c     addwf   0xc, 0x1, 0      	ADDWF	r0x0c, F
002366   b0d8     btfsc   0xd8, 0, 0       	BTFSC	STATUS, 0
002368   2a0d     incf    0xd, 0x1, 0      	INCF	r0x0d, F
                                           ;	.line	93; /home/regis/Hobbies/Electronique/Projets/Pinguino/projets/TFT/graphic.c	f += ddF_x;    
00236a   500c     movf    0xc, 0, 0        	MOVF	r0x0c, W
00236c   2606     addwf   0x6, 0x1, 0      	ADDWF	r0x06, F
00236e   500d     movf    0xd, 0, 0        	MOVF	r0x0d, W
002370   2207     addwfc  0x7, 0x1, 0      	ADDWFC	r0x07, F
                                           ;	.line	94; /home/regis/Hobbies/Electronique/Projets/Pinguino/projets/TFT/graphic.c	drawPixel(x + x1, y + y1);
002372   500a     movf    0xa, 0, 0        	MOVF	r0x0a, W
002374   6e0e     movwf   0xe, 0           	MOVWF	r0x0e
002376   500b     movf    0xb, 0, 0        	MOVF	r0x0b, W
002378   6e0f     movwf   0xf, 0           	MOVWF	r0x0f
00237a   500e     movf    0xe, 0, 0        	MOVF	r0x0e, W
00237c   2400     addwf   0, 0, 0          	ADDWF	r0x00, W
00237e   6e10     movwf   0x10, 0          	MOVWF	r0x10
002380   500f     movf    0xf, 0, 0        	MOVF	r0x0f, W
002382   2001     addwfc  0x1, 0, 0        	ADDWFC	r0x01, W
002384   6e11     movwf   0x11, 0          	MOVWF	r0x11
002386   5004     movf    0x4, 0, 0        	MOVF	r0x04, W
002388   6e12     movwf   0x12, 0          	MOVWF	r0x12
00238a   5005     movf    0x5, 0, 0        	MOVF	r0x05, W
00238c   6e13     movwf   0x13, 0          	MOVWF	r0x13
00238e   5012     movf    0x12, 0, 0       	MOVF	r0x12, W
002390   2402     addwf   0x2, 0, 0        	ADDWF	r0x02, W
002392   6e14     movwf   0x14, 0          	MOVWF	r0x14
002394   5013     movf    0x13, 0, 0       	MOVF	r0x13, W
002396   2003     addwfc  0x3, 0, 0        	ADDWFC	r0x03, W
                                           ; #	MOVWF	r0x15
                                           ; #	MOVF	r0x15, W
002398   6e15     movwf   0x15, 0          	MOVWF	r0x15
00239a   6ee5     movwf   0xe5, 0          	MOVWF	POSTDEC1
00239c   5014     movf    0x14, 0, 0       	MOVF	r0x14, W
00239e   6ee5     movwf   0xe5, 0          	MOVWF	POSTDEC1
0023a0   5011     movf    0x11, 0, 0       	MOVF	r0x11, W
0023a2   6ee5     movwf   0xe5, 0          	MOVWF	POSTDEC1
0023a4   5010     movf    0x10, 0, 0       	MOVF	r0x10, W
0023a6   6ee5     movwf   0xe5, 0          	MOVWF	POSTDEC1
0023a8   ec7d     call    0x46fa, 0        	CALL	_drawPixel
0023aa   f023
0023ac   0e04     movlw   0x4              	MOVLW	0x04
0023ae   26e1     addwf   0xe1, 0x1, 0     	ADDWF	FSR1L, F
                                           ;	.line	95; /home/regis/Hobbies/Electronique/Projets/Pinguino/projets/TFT/graphic.c	drawPixel(x - x1, y + y1);
0023b0   500e     movf    0xe, 0, 0        	MOVF	r0x0e, W
0023b2   5c00     subwf   0, 0, 0          	SUBWF	r0x00, W
0023b4   6e16     movwf   0x16, 0          	MOVWF	r0x16
0023b6   500f     movf    0xf, 0, 0        	MOVF	r0x0f, W
0023b8   5801     subwfb  0x1, 0, 0        	SUBWFB	r0x01, W
0023ba   6e17     movwf   0x17, 0          	MOVWF	r0x17
0023bc   5015     movf    0x15, 0, 0       	MOVF	r0x15, W
0023be   6ee5     movwf   0xe5, 0          	MOVWF	POSTDEC1
0023c0   5014     movf    0x14, 0, 0       	MOVF	r0x14, W
0023c2   6ee5     movwf   0xe5, 0          	MOVWF	POSTDEC1
0023c4   5017     movf    0x17, 0, 0       	MOVF	r0x17, W
0023c6   6ee5     movwf   0xe5, 0          	MOVWF	POSTDEC1
0023c8   5016     movf    0x16, 0, 0       	MOVF	r0x16, W
0023ca   6ee5     movwf   0xe5, 0          	MOVWF	POSTDEC1
0023cc   ec7d     call    0x46fa, 0        	CALL	_drawPixel
0023ce   f023
0023d0   0e04     movlw   0x4              	MOVLW	0x04
0023d2   26e1     addwf   0xe1, 0x1, 0     	ADDWF	FSR1L, F
                                           ;	.line	96; /home/regis/Hobbies/Electronique/Projets/Pinguino/projets/TFT/graphic.c	drawPixel(x + x1, y - y1);
0023d4   5012     movf    0x12, 0, 0       	MOVF	r0x12, W
0023d6   5c02     subwf   0x2, 0, 0        	SUBWF	r0x02, W
0023d8   6e14     movwf   0x14, 0          	MOVWF	r0x14
0023da   5013     movf    0x13, 0, 0       	MOVF	r0x13, W
0023dc   5803     subwfb  0x3, 0, 0        	SUBWFB	r0x03, W
                                           ; #	MOVWF	r0x15
                                           ; #	MOVF	r0x15, W
0023de   6e15     movwf   0x15, 0          	MOVWF	r0x15
0023e0   6ee5     movwf   0xe5, 0          	MOVWF	POSTDEC1
0023e2   5014     movf    0x14, 0, 0       	MOVF	r0x14, W
0023e4   6ee5     movwf   0xe5, 0          	MOVWF	POSTDEC1
0023e6   5011     movf    0x11, 0, 0       	MOVF	r0x11, W
0023e8   6ee5     movwf   0xe5, 0          	MOVWF	POSTDEC1
0023ea   5010     movf    0x10, 0, 0       	MOVF	r0x10, W
0023ec   6ee5     movwf   0xe5, 0          	MOVWF	POSTDEC1
0023ee   ec7d     call    0x46fa, 0        	CALL	_drawPixel
0023f0   f023
0023f2   0e04     movlw   0x4              	MOVLW	0x04
0023f4   26e1     addwf   0xe1, 0x1, 0     	ADDWF	FSR1L, F
                                           ;	.line	97; /home/regis/Hobbies/Electronique/Projets/Pinguino/projets/TFT/graphic.c	drawPixel(x - x1, y - y1);
0023f6   5015     movf    0x15, 0, 0       	MOVF	r0x15, W
0023f8   6ee5     movwf   0xe5, 0          	MOVWF	POSTDEC1
0023fa   5014     movf    0x14, 0, 0       	MOVF	r0x14, W
0023fc   6ee5     movwf   0xe5, 0          	MOVWF	POSTDEC1
0023fe   5017     movf    0x17, 0, 0       	MOVF	r0x17, W
002400   6ee5     movwf   0xe5, 0          	MOVWF	POSTDEC1
002402   5016     movf    0x16, 0, 0       	MOVF	r0x16, W
002404   6ee5     movwf   0xe5, 0          	MOVWF	POSTDEC1
002406   ec7d     call    0x46fa, 0        	CALL	_drawPixel
002408   f023
00240a   0e04     movlw   0x4              	MOVLW	0x04
00240c   26e1     addwf   0xe1, 0x1, 0     	ADDWF	FSR1L, F
                                           ;	.line	98; /home/regis/Hobbies/Electronique/Projets/Pinguino/projets/TFT/graphic.c	drawPixel(x + y1, y + x1);
00240e   5012     movf    0x12, 0, 0       	MOVF	r0x12, W
002410   2400     addwf   0, 0, 0          	ADDWF	r0x00, W
002412   6e10     movwf   0x10, 0          	MOVWF	r0x10
002414   5013     movf    0x13, 0, 0       	MOVF	r0x13, W
002416   2001     addwfc  0x1, 0, 0        	ADDWFC	r0x01, W
002418   6e11     movwf   0x11, 0          	MOVWF	r0x11
00241a   500e     movf    0xe, 0, 0        	MOVF	r0x0e, W
00241c   2402     addwf   0x2, 0, 0        	ADDWF	r0x02, W
00241e   6e14     movwf   0x14, 0          	MOVWF	r0x14
002420   500f     movf    0xf, 0, 0        	MOVF	r0x0f, W
002422   2003     addwfc  0x3, 0, 0        	ADDWFC	r0x03, W
                                           ; #	MOVWF	r0x15
                                           ; #	MOVF	r0x15, W
002424   6e15     movwf   0x15, 0          	MOVWF	r0x15
002426   6ee5     movwf   0xe5, 0          	MOVWF	POSTDEC1
002428   5014     movf    0x14, 0, 0       	MOVF	r0x14, W
00242a   6ee5     movwf   0xe5, 0          	MOVWF	POSTDEC1
00242c   5011     movf    0x11, 0, 0       	MOVF	r0x11, W
00242e   6ee5     movwf   0xe5, 0          	MOVWF	POSTDEC1
002430   5010     movf    0x10, 0, 0       	MOVF	r0x10, W
002432   6ee5     movwf   0xe5, 0          	MOVWF	POSTDEC1
002434   ec7d     call    0x46fa, 0        	CALL	_drawPixel
002436   f023
002438   0e04     movlw   0x4              	MOVLW	0x04
00243a   26e1     addwf   0xe1, 0x1, 0     	ADDWF	FSR1L, F
                                           ;	.line	99; /home/regis/Hobbies/Electronique/Projets/Pinguino/projets/TFT/graphic.c	drawPixel(x - y1, y + x1);
00243c   5012     movf    0x12, 0, 0       	MOVF	r0x12, W
00243e   5c00     subwf   0, 0, 0          	SUBWF	r0x00, W
002440   6e12     movwf   0x12, 0          	MOVWF	r0x12
002442   5013     movf    0x13, 0, 0       	MOVF	r0x13, W
002444   5801     subwfb  0x1, 0, 0        	SUBWFB	r0x01, W
002446   6e13     movwf   0x13, 0          	MOVWF	r0x13
002448   5015     movf    0x15, 0, 0       	MOVF	r0x15, W
00244a   6ee5     movwf   0xe5, 0          	MOVWF	POSTDEC1
00244c   5014     movf    0x14, 0, 0       	MOVF	r0x14, W
00244e   6ee5     movwf   0xe5, 0          	MOVWF	POSTDEC1
002450   5013     movf    0x13, 0, 0       	MOVF	r0x13, W
002452   6ee5     movwf   0xe5, 0          	MOVWF	POSTDEC1
002454   5012     movf    0x12, 0, 0       	MOVF	r0x12, W
002456   6ee5     movwf   0xe5, 0          	MOVWF	POSTDEC1
002458   ec7d     call    0x46fa, 0        	CALL	_drawPixel
00245a   f023
00245c   0e04     movlw   0x4              	MOVLW	0x04
00245e   26e1     addwf   0xe1, 0x1, 0     	ADDWF	FSR1L, F
                                           ;	.line	100; /home/regis/Hobbies/Electronique/Projets/Pinguino/projets/TFT/graphic.c	drawPixel(x + y1, y - x1);
002460   500e     movf    0xe, 0, 0        	MOVF	r0x0e, W
002462   5c02     subwf   0x2, 0, 0        	SUBWF	r0x02, W
002464   6e0e     movwf   0xe, 0           	MOVWF	r0x0e
002466   500f     movf    0xf, 0, 0        	MOVF	r0x0f, W
002468   5803     subwfb  0x3, 0, 0        	SUBWFB	r0x03, W
                                           ; #	MOVWF	r0x0f
                                           ; #	MOVF	r0x0f, W
00246a   6e0f     movwf   0xf, 0           	MOVWF	r0x0f
00246c   6ee5     movwf   0xe5, 0          	MOVWF	POSTDEC1
00246e   500e     movf    0xe, 0, 0        	MOVF	r0x0e, W
002470   6ee5     movwf   0xe5, 0          	MOVWF	POSTDEC1
002472   5011     movf    0x11, 0, 0       	MOVF	r0x11, W
002474   6ee5     movwf   0xe5, 0          	MOVWF	POSTDEC1
002476   5010     movf    0x10, 0, 0       	MOVF	r0x10, W
002478   6ee5     movwf   0xe5, 0          	MOVWF	POSTDEC1
00247a   ec7d     call    0x46fa, 0        	CALL	_drawPixel
00247c   f023
00247e   0e04     movlw   0x4              	MOVLW	0x04
002480   26e1     addwf   0xe1, 0x1, 0     	ADDWF	FSR1L, F
                                           ;	.line	101; /home/regis/Hobbies/Electronique/Projets/Pinguino/projets/TFT/graphic.c	drawPixel(x - y1, y - x1);
002482   500f     movf    0xf, 0, 0        	MOVF	r0x0f, W
002484   6ee5     movwf   0xe5, 0          	MOVWF	POSTDEC1
002486   500e     movf    0xe, 0, 0        	MOVF	r0x0e, W
002488   6ee5     movwf   0xe5, 0          	MOVWF	POSTDEC1
00248a   5013     movf    0x13, 0, 0       	MOVF	r0x13, W
00248c   6ee5     movwf   0xe5, 0          	MOVWF	POSTDEC1
00248e   5012     movf    0x12, 0, 0       	MOVF	r0x12, W
002490   6ee5     movwf   0xe5, 0          	MOVWF	POSTDEC1
002492   ec7d     call    0x46fa, 0        	CALL	_drawPixel
002494   f023
002496   0e04     movlw   0x4              	MOVLW	0x04
002498   26e1     addwf   0xe1, 0x1, 0     	ADDWF	FSR1L, F
00249a   d747     bra     0x232a           	BRA	_00598_DS_
                                           _00601_DS_:
00249c   cfe4     movff   0xfe4, 0x17      	MOVFF	PREINC1, r0x17
00249e   f017
0024a0   cfe4     movff   0xfe4, 0x16      	MOVFF	PREINC1, r0x16
0024a2   f016
0024a4   cfe4     movff   0xfe4, 0x15      	MOVFF	PREINC1, r0x15
0024a6   f015
0024a8   cfe4     movff   0xfe4, 0x14      	MOVFF	PREINC1, r0x14
0024aa   f014
0024ac   cfe4     movff   0xfe4, 0x13      	MOVFF	PREINC1, r0x13
0024ae   f013
0024b0   cfe4     movff   0xfe4, 0x12      	MOVFF	PREINC1, r0x12
0024b2   f012
0024b4   cfe4     movff   0xfe4, 0x11      	MOVFF	PREINC1, r0x11
0024b6   f011
0024b8   cfe4     movff   0xfe4, 0x10      	MOVFF	PREINC1, r0x10
0024ba   f010
0024bc   cfe4     movff   0xfe4, 0xf       	MOVFF	PREINC1, r0x0f
0024be   f00f
0024c0   cfe4     movff   0xfe4, 0xe       	MOVFF	PREINC1, r0x0e
0024c2   f00e
0024c4   cfe4     movff   0xfe4, 0xd       	MOVFF	PREINC1, r0x0d
0024c6   f00d
0024c8   cfe4     movff   0xfe4, 0xc       	MOVFF	PREINC1, r0x0c
0024ca   f00c
0024cc   cfe4     movff   0xfe4, 0xb       	MOVFF	PREINC1, r0x0b
0024ce   f00b
0024d0   cfe4     movff   0xfe4, 0xa       	MOVFF	PREINC1, r0x0a
0024d2   f00a
0024d4   cfe4     movff   0xfe4, 0x9       	MOVFF	PREINC1, r0x09
0024d6   f009
0024d8   cfe4     movff   0xfe4, 0x8       	MOVFF	PREINC1, r0x08
0024da   f008
0024dc   cfe4     movff   0xfe4, 0x7       	MOVFF	PREINC1, r0x07
0024de   f007
0024e0   cfe4     movff   0xfe4, 0x6       	MOVFF	PREINC1, r0x06
0024e2   f006
0024e4   cfe4     movff   0xfe4, 0x5       	MOVFF	PREINC1, r0x05
0024e6   f005
0024e8   cfe4     movff   0xfe4, 0x4       	MOVFF	PREINC1, r0x04
0024ea   f004
0024ec   cfe4     movff   0xfe4, 0x3       	MOVFF	PREINC1, r0x03
0024ee   f003
0024f0   cfe4     movff   0xfe4, 0x2       	MOVFF	PREINC1, r0x02
0024f2   f002
0024f4   cfe4     movff   0xfe4, 0x1       	MOVFF	PREINC1, r0x01
0024f6   f001
0024f8   cfe4     movff   0xfe4, 0         	MOVFF	PREINC1, r0x00
0024fa   f000
0024fc   cfe4     movff   0xfe4, 0xfd9     	MOVFF	PREINC1, FSR2L
0024fe   ffd9
002500   0012     return  0                	RETURN	
                                           
                                           ; ; Starting pCode block
                                           S_main__psprintf	code
                                           _psprintf:
                                           ;	.line	463; /home/regis/Hobbies/Electronique/Projets/Pinguino/svn/branches/x.4/p8/include/pinguino/core/stdio.c	u8 psprintf(u8 *out, const u8 *format, ...)
004396   cfd9     movff   0xfd9, 0xfe5     	MOVFF	FSR2L, POSTDEC1
004398   ffe5
00439a   cfe1     movff   0xfe1, 0xfd9     	MOVFF	FSR1L, FSR2L
00439c   ffd9
00439e   c000     movff   0, 0xfe5         	MOVFF	r0x00, POSTDEC1
0043a0   ffe5
0043a2   c001     movff   0x1, 0xfe5       	MOVFF	r0x01, POSTDEC1
0043a4   ffe5
0043a6   c002     movff   0x2, 0xfe5       	MOVFF	r0x02, POSTDEC1
0043a8   ffe5
0043aa   c003     movff   0x3, 0xfe5       	MOVFF	r0x03, POSTDEC1
0043ac   ffe5
0043ae   c004     movff   0x4, 0xfe5       	MOVFF	r0x04, POSTDEC1
0043b0   ffe5
                                           ;	.line	467; /home/regis/Hobbies/Electronique/Projets/Pinguino/svn/branches/x.4/p8/include/pinguino/core/stdio.c	va_start(args, format);
0043b2   0e05     movlw   0x5              	MOVLW	0x05
0043b4   24d9     addwf   0xd9, 0, 0       	ADDWF	FSR2L, W
0043b6   6e00     movwf   0, 0             	MOVWF	r0x00
0043b8   0e00     movlw   0                	MOVLW	0x00
0043ba   20da     addwfc  0xda, 0, 0       	ADDWFC	FSR2H, W
                                           ; #	MOVWF	r0x01
                                           ; #	MOVF	r0x01, W
                                           ; #	MOVWF	r0x01
                                           ; #	MOVWF	r0x01
0043bc   6e01     movwf   0x1, 0           	MOVWF	r0x01
                                           ; #	MOVF	r0x00, W
                                           ; #	MOVWF	r0x00
0043be   0e80     movlw   0x80             	MOVLW	0x80
0043c0   6e02     movwf   0x2, 0           	MOVWF	r0x02
0043c2   0e03     movlw   0x3              	MOVLW	0x03
0043c4   2600     addwf   0, 0x1, 0        	ADDWF	r0x00, F
0043c6   0e00     movlw   0                	MOVLW	0x00
0043c8   2201     addwfc  0x1, 0x1, 0      	ADDWFC	r0x01, F
0043ca   2202     addwfc  0x2, 0x1, 0      	ADDWFC	r0x02, F
                                           ;	.line	468; /home/regis/Hobbies/Electronique/Projets/Pinguino/svn/branches/x.4/p8/include/pinguino/core/stdio.c	return pprint(&out, format, args);
0043cc   0e02     movlw   0x2              	MOVLW	0x02
0043ce   24d9     addwf   0xd9, 0, 0       	ADDWF	FSR2L, W
0043d0   6e03     movwf   0x3, 0           	MOVWF	r0x03
0043d2   0e00     movlw   0                	MOVLW	0x00
0043d4   20da     addwfc  0xda, 0, 0       	ADDWFC	FSR2H, W
                                           ; #	MOVWF	r0x04
                                           ; #	MOVF	r0x04, W
                                           ; #	MOVWF	r0x04
                                           ; #	MOVWF	r0x04
0043d6   6e04     movwf   0x4, 0           	MOVWF	r0x04
                                           ; #	MOVF	r0x03, W
                                           ; #	MOVWF	r0x03
0043d8   5002     movf    0x2, 0, 0        	MOVF	r0x02, W
0043da   6ee5     movwf   0xe5, 0          	MOVWF	POSTDEC1
0043dc   5001     movf    0x1, 0, 0        	MOVF	r0x01, W
0043de   6ee5     movwf   0xe5, 0          	MOVWF	POSTDEC1
0043e0   5000     movf    0, 0, 0          	MOVF	r0x00, W
0043e2   6ee5     movwf   0xe5, 0          	MOVWF	POSTDEC1
0043e4   0e07     movlw   0x7              	MOVLW	0x07
0043e6   cfdb     movff   0xfdb, 0xfe5     	MOVFF	PLUSW2, POSTDEC1
0043e8   ffe5
0043ea   0e06     movlw   0x6              	MOVLW	0x06
0043ec   cfdb     movff   0xfdb, 0xfe5     	MOVFF	PLUSW2, POSTDEC1
0043ee   ffe5
0043f0   0e05     movlw   0x5              	MOVLW	0x05
0043f2   cfdb     movff   0xfdb, 0xfe5     	MOVFF	PLUSW2, POSTDEC1
0043f4   ffe5
0043f6   0e80     movlw   0x80             	MOVLW	0x80
0043f8   6ee5     movwf   0xe5, 0          	MOVWF	POSTDEC1
0043fa   5004     movf    0x4, 0, 0        	MOVF	r0x04, W
0043fc   6ee5     movwf   0xe5, 0          	MOVWF	POSTDEC1
0043fe   5003     movf    0x3, 0, 0        	MOVF	r0x03, W
004400   6ee5     movwf   0xe5, 0          	MOVWF	POSTDEC1
004402   ec0e     call    0xc1c, 0         	CALL	_pprint
004404   f006
004406   6e00     movwf   0, 0             	MOVWF	r0x00
004408   0e09     movlw   0x9              	MOVLW	0x09
00440a   26e1     addwf   0xe1, 0x1, 0     	ADDWF	FSR1L, F
00440c   5000     movf    0, 0, 0          	MOVF	r0x00, W
00440e   cfe4     movff   0xfe4, 0x4       	MOVFF	PREINC1, r0x04
004410   f004
004412   cfe4     movff   0xfe4, 0x3       	MOVFF	PREINC1, r0x03
004414   f003
004416   cfe4     movff   0xfe4, 0x2       	MOVFF	PREINC1, r0x02
004418   f002
00441a   cfe4     movff   0xfe4, 0x1       	MOVFF	PREINC1, r0x01
00441c   f001
00441e   cfe4     movff   0xfe4, 0         	MOVFF	PREINC1, r0x00
004420   f000
004422   cfe4     movff   0xfe4, 0xfd9     	MOVFF	PREINC1, FSR2L
004424   ffd9
004426   0012     return  0                	RETURN	
                                           
                                           ; ; Starting pCode block
                                           S_main__psprintf2	code
                                           _psprintf2:
                                           ;	.line	457; /home/regis/Hobbies/Electronique/Projets/Pinguino/svn/branches/x.4/p8/include/pinguino/core/stdio.c	u8 psprintf2(u8 *out, const u8 *format, va_list args)
003e22   cfd9     movff   0xfd9, 0xfe5     	MOVFF	FSR2L, POSTDEC1
003e24   ffe5
003e26   cfe1     movff   0xfe1, 0xfd9     	MOVFF	FSR1L, FSR2L
003e28   ffd9
003e2a   c000     movff   0, 0xfe5         	MOVFF	r0x00, POSTDEC1
003e2c   ffe5
003e2e   c001     movff   0x1, 0xfe5       	MOVFF	r0x01, POSTDEC1
003e30   ffe5
003e32   c002     movff   0x2, 0xfe5       	MOVFF	r0x02, POSTDEC1
003e34   ffe5
003e36   c003     movff   0x3, 0xfe5       	MOVFF	r0x03, POSTDEC1
003e38   ffe5
003e3a   c004     movff   0x4, 0xfe5       	MOVFF	r0x04, POSTDEC1
003e3c   ffe5
003e3e   c005     movff   0x5, 0xfe5       	MOVFF	r0x05, POSTDEC1
003e40   ffe5
003e42   0e02     movlw   0x2              	MOVLW	0x02
003e44   cfdb     movff   0xfdb, 0xe4e     	MOVFF	PLUSW2, _psprintf2_out_1_73
003e46   fe4e
003e48   0e03     movlw   0x3              	MOVLW	0x03
003e4a   cfdb     movff   0xfdb, 0xe4f     	MOVFF	PLUSW2, (_psprintf2_out_1_73 + 1)
003e4c   fe4f
003e4e   0e04     movlw   0x4              	MOVLW	0x04
003e50   cfdb     movff   0xfdb, 0xe50     	MOVFF	PLUSW2, (_psprintf2_out_1_73 + 2)
003e52   fe50
003e54   0e05     movlw   0x5              	MOVLW	0x05
003e56   cfdb     movff   0xfdb, 0         	MOVFF	PLUSW2, r0x00
003e58   f000
003e5a   0e06     movlw   0x6              	MOVLW	0x06
003e5c   cfdb     movff   0xfdb, 0x1       	MOVFF	PLUSW2, r0x01
003e5e   f001
003e60   0e07     movlw   0x7              	MOVLW	0x07
003e62   cfdb     movff   0xfdb, 0x2       	MOVFF	PLUSW2, r0x02
003e64   f002
003e66   0e08     movlw   0x8              	MOVLW	0x08
003e68   cfdb     movff   0xfdb, 0x3       	MOVFF	PLUSW2, r0x03
003e6a   f003
003e6c   0e09     movlw   0x9              	MOVLW	0x09
003e6e   cfdb     movff   0xfdb, 0x4       	MOVFF	PLUSW2, r0x04
003e70   f004
003e72   0e0a     movlw   0xa              	MOVLW	0x0a
003e74   cfdb     movff   0xfdb, 0x5       	MOVFF	PLUSW2, r0x05
003e76   f005
                                           ;	.line	459; /home/regis/Hobbies/Electronique/Projets/Pinguino/svn/branches/x.4/p8/include/pinguino/core/stdio.c	return pprint(&out, format, args);
003e78   5005     movf    0x5, 0, 0        	MOVF	r0x05, W
003e7a   6ee5     movwf   0xe5, 0          	MOVWF	POSTDEC1
003e7c   5004     movf    0x4, 0, 0        	MOVF	r0x04, W
003e7e   6ee5     movwf   0xe5, 0          	MOVWF	POSTDEC1
003e80   5003     movf    0x3, 0, 0        	MOVF	r0x03, W
003e82   6ee5     movwf   0xe5, 0          	MOVWF	POSTDEC1
003e84   5002     movf    0x2, 0, 0        	MOVF	r0x02, W
003e86   6ee5     movwf   0xe5, 0          	MOVWF	POSTDEC1
003e88   5001     movf    0x1, 0, 0        	MOVF	r0x01, W
003e8a   6ee5     movwf   0xe5, 0          	MOVWF	POSTDEC1
003e8c   5000     movf    0, 0, 0          	MOVF	r0x00, W
003e8e   6ee5     movwf   0xe5, 0          	MOVWF	POSTDEC1
003e90   0e80     movlw   0x80             	MOVLW	0x80
003e92   6ee5     movwf   0xe5, 0          	MOVWF	POSTDEC1
003e94   0e0e     movlw   0xe              	MOVLW	HIGH(_psprintf2_out_1_73)
003e96   6ee5     movwf   0xe5, 0          	MOVWF	POSTDEC1
003e98   0e4e     movlw   0x4e             	MOVLW	LOW(_psprintf2_out_1_73)
003e9a   6ee5     movwf   0xe5, 0          	MOVWF	POSTDEC1
003e9c   ec0e     call    0xc1c, 0         	CALL	_pprint
003e9e   f006
003ea0   6e00     movwf   0, 0             	MOVWF	r0x00
003ea2   0e09     movlw   0x9              	MOVLW	0x09
003ea4   26e1     addwf   0xe1, 0x1, 0     	ADDWF	FSR1L, F
003ea6   5000     movf    0, 0, 0          	MOVF	r0x00, W
003ea8   cfe4     movff   0xfe4, 0x5       	MOVFF	PREINC1, r0x05
003eaa   f005
003eac   cfe4     movff   0xfe4, 0x4       	MOVFF	PREINC1, r0x04
003eae   f004
003eb0   cfe4     movff   0xfe4, 0x3       	MOVFF	PREINC1, r0x03
003eb2   f003
003eb4   cfe4     movff   0xfe4, 0x2       	MOVFF	PREINC1, r0x02
003eb6   f002
003eb8   cfe4     movff   0xfe4, 0x1       	MOVFF	PREINC1, r0x01
003eba   f001
003ebc   cfe4     movff   0xfe4, 0         	MOVFF	PREINC1, r0x00
003ebe   f000
003ec0   cfe4     movff   0xfe4, 0xfd9     	MOVFF	PREINC1, FSR2L
003ec2   ffd9
003ec4   0012     return  0                	RETURN	
                                           
                                           ; ; Starting pCode block
                                           S_main__pprintf	code
                                           _pprintf:
                                           ;	.line	443; /home/regis/Hobbies/Electronique/Projets/Pinguino/svn/branches/x.4/p8/include/pinguino/core/stdio.c	u8 pprintf(funcout func, const u8 *format, va_list args)
004008   cfd9     movff   0xfd9, 0xfe5     	MOVFF	FSR2L, POSTDEC1
00400a   ffe5
00400c   cfe1     movff   0xfe1, 0xfd9     	MOVFF	FSR1L, FSR2L
00400e   ffd9
004010   c000     movff   0, 0xfe5         	MOVFF	r0x00, POSTDEC1
004012   ffe5
004014   c001     movff   0x1, 0xfe5       	MOVFF	r0x01, POSTDEC1
004016   ffe5
004018   c002     movff   0x2, 0xfe5       	MOVFF	r0x02, POSTDEC1
00401a   ffe5
00401c   c003     movff   0x3, 0xfe5       	MOVFF	r0x03, POSTDEC1
00401e   ffe5
004020   c004     movff   0x4, 0xfe5       	MOVFF	r0x04, POSTDEC1
004022   ffe5
004024   c005     movff   0x5, 0xfe5       	MOVFF	r0x05, POSTDEC1
004026   ffe5
004028   0e02     movlw   0x2              	MOVLW	0x02
00402a   cfdb     movff   0xfdb, 0xe4b     	MOVFF	PLUSW2, _pputchar
00402c   fe4b
00402e   0e03     movlw   0x3              	MOVLW	0x03
004030   cfdb     movff   0xfdb, 0xe4c     	MOVFF	PLUSW2, (_pputchar + 1)
004032   fe4c
004034   0e04     movlw   0x4              	MOVLW	0x04
004036   cfdb     movff   0xfdb, 0xe4d     	MOVFF	PLUSW2, (_pputchar + 2)
004038   fe4d
00403a   0e05     movlw   0x5              	MOVLW	0x05
00403c   cfdb     movff   0xfdb, 0         	MOVFF	PLUSW2, r0x00
00403e   f000
004040   0e06     movlw   0x6              	MOVLW	0x06
004042   cfdb     movff   0xfdb, 0x1       	MOVFF	PLUSW2, r0x01
004044   f001
004046   0e07     movlw   0x7              	MOVLW	0x07
004048   cfdb     movff   0xfdb, 0x2       	MOVFF	PLUSW2, r0x02
00404a   f002
00404c   0e08     movlw   0x8              	MOVLW	0x08
00404e   cfdb     movff   0xfdb, 0x3       	MOVFF	PLUSW2, r0x03
004050   f003
004052   0e09     movlw   0x9              	MOVLW	0x09
004054   cfdb     movff   0xfdb, 0x4       	MOVFF	PLUSW2, r0x04
004056   f004
004058   0e0a     movlw   0xa              	MOVLW	0x0a
00405a   cfdb     movff   0xfdb, 0x5       	MOVFF	PLUSW2, r0x05
00405c   f005
                                           ;	.line	449; /home/regis/Hobbies/Electronique/Projets/Pinguino/svn/branches/x.4/p8/include/pinguino/core/stdio.c	return pprint(0, format, args);
00405e   5005     movf    0x5, 0, 0        	MOVF	r0x05, W
004060   6ee5     movwf   0xe5, 0          	MOVWF	POSTDEC1
004062   5004     movf    0x4, 0, 0        	MOVF	r0x04, W
004064   6ee5     movwf   0xe5, 0          	MOVWF	POSTDEC1
004066   5003     movf    0x3, 0, 0        	MOVF	r0x03, W
004068   6ee5     movwf   0xe5, 0          	MOVWF	POSTDEC1
00406a   5002     movf    0x2, 0, 0        	MOVF	r0x02, W
00406c   6ee5     movwf   0xe5, 0          	MOVWF	POSTDEC1
00406e   5001     movf    0x1, 0, 0        	MOVF	r0x01, W
004070   6ee5     movwf   0xe5, 0          	MOVWF	POSTDEC1
004072   5000     movf    0, 0, 0          	MOVF	r0x00, W
004074   6ee5     movwf   0xe5, 0          	MOVWF	POSTDEC1
004076   0e00     movlw   0                	MOVLW	0x00
004078   6ae5     clrf    0xe5, 0          	CLRF	POSTDEC1
00407a   6ae5     clrf    0xe5, 0          	CLRF	POSTDEC1
00407c   6ae5     clrf    0xe5, 0          	CLRF	POSTDEC1
00407e   ec0e     call    0xc1c, 0         	CALL	_pprint
004080   f006
004082   6e00     movwf   0, 0             	MOVWF	r0x00
004084   0e09     movlw   0x9              	MOVLW	0x09
004086   26e1     addwf   0xe1, 0x1, 0     	ADDWF	FSR1L, F
004088   5000     movf    0, 0, 0          	MOVF	r0x00, W
00408a   cfe4     movff   0xfe4, 0x5       	MOVFF	PREINC1, r0x05
00408c   f005
00408e   cfe4     movff   0xfe4, 0x4       	MOVFF	PREINC1, r0x04
004090   f004
004092   cfe4     movff   0xfe4, 0x3       	MOVFF	PREINC1, r0x03
004094   f003
004096   cfe4     movff   0xfe4, 0x2       	MOVFF	PREINC1, r0x02
004098   f002
00409a   cfe4     movff   0xfe4, 0x1       	MOVFF	PREINC1, r0x01
00409c   f001
00409e   cfe4     movff   0xfe4, 0         	MOVFF	PREINC1, r0x00
0040a0   f000
0040a2   cfe4     movff   0xfe4, 0xfd9     	MOVFF	PREINC1, FSR2L
0040a4   ffd9
0040a6   0012     return  0                	RETURN	
                                           
                                           ; ; Starting pCode block
                                           S_main__pprint	code
                                           _pprint:
                                           ;	.line	298; /home/regis/Hobbies/Electronique/Projets/Pinguino/svn/branches/x.4/p8/include/pinguino/core/stdio.c	static u8 pprint(u8 **out, const u8 *format, va_list args)
000c1c   cfd9     movff   0xfd9, 0xfe5     	MOVFF	FSR2L, POSTDEC1
000c1e   ffe5
000c20   cfe1     movff   0xfe1, 0xfd9     	MOVFF	FSR1L, FSR2L
000c22   ffd9
000c24   c000     movff   0, 0xfe5         	MOVFF	r0x00, POSTDEC1
000c26   ffe5
000c28   c001     movff   0x1, 0xfe5       	MOVFF	r0x01, POSTDEC1
000c2a   ffe5
000c2c   c002     movff   0x2, 0xfe5       	MOVFF	r0x02, POSTDEC1
000c2e   ffe5
000c30   c003     movff   0x3, 0xfe5       	MOVFF	r0x03, POSTDEC1
000c32   ffe5
000c34   c004     movff   0x4, 0xfe5       	MOVFF	r0x04, POSTDEC1
000c36   ffe5
000c38   c005     movff   0x5, 0xfe5       	MOVFF	r0x05, POSTDEC1
000c3a   ffe5
000c3c   c006     movff   0x6, 0xfe5       	MOVFF	r0x06, POSTDEC1
000c3e   ffe5
000c40   c007     movff   0x7, 0xfe5       	MOVFF	r0x07, POSTDEC1
000c42   ffe5
000c44   c008     movff   0x8, 0xfe5       	MOVFF	r0x08, POSTDEC1
000c46   ffe5
000c48   c009     movff   0x9, 0xfe5       	MOVFF	r0x09, POSTDEC1
000c4a   ffe5
000c4c   c00a     movff   0xa, 0xfe5       	MOVFF	r0x0a, POSTDEC1
000c4e   ffe5
000c50   c00b     movff   0xb, 0xfe5       	MOVFF	r0x0b, POSTDEC1
000c52   ffe5
000c54   c00c     movff   0xc, 0xfe5       	MOVFF	r0x0c, POSTDEC1
000c56   ffe5
000c58   c00d     movff   0xd, 0xfe5       	MOVFF	r0x0d, POSTDEC1
000c5a   ffe5
000c5c   c00e     movff   0xe, 0xfe5       	MOVFF	r0x0e, POSTDEC1
000c5e   ffe5
000c60   c00f     movff   0xf, 0xfe5       	MOVFF	r0x0f, POSTDEC1
000c62   ffe5
000c64   c010     movff   0x10, 0xfe5      	MOVFF	r0x10, POSTDEC1
000c66   ffe5
000c68   c011     movff   0x11, 0xfe5      	MOVFF	r0x11, POSTDEC1
000c6a   ffe5
000c6c   c012     movff   0x12, 0xfe5      	MOVFF	r0x12, POSTDEC1
000c6e   ffe5
000c70   c013     movff   0x13, 0xfe5      	MOVFF	r0x13, POSTDEC1
000c72   ffe5
000c74   c014     movff   0x14, 0xfe5      	MOVFF	r0x14, POSTDEC1
000c76   ffe5
000c78   c015     movff   0x15, 0xfe5      	MOVFF	r0x15, POSTDEC1
000c7a   ffe5
000c7c   0e02     movlw   0x2              	MOVLW	0x02
000c7e   cfdb     movff   0xfdb, 0         	MOVFF	PLUSW2, r0x00
000c80   f000
000c82   0e03     movlw   0x3              	MOVLW	0x03
000c84   cfdb     movff   0xfdb, 0x1       	MOVFF	PLUSW2, r0x01
000c86   f001
000c88   0e04     movlw   0x4              	MOVLW	0x04
000c8a   cfdb     movff   0xfdb, 0x2       	MOVFF	PLUSW2, r0x02
000c8c   f002
000c8e   0e05     movlw   0x5              	MOVLW	0x05
000c90   cfdb     movff   0xfdb, 0x3       	MOVFF	PLUSW2, r0x03
000c92   f003
000c94   0e06     movlw   0x6              	MOVLW	0x06
000c96   cfdb     movff   0xfdb, 0x4       	MOVFF	PLUSW2, r0x04
000c98   f004
000c9a   0e07     movlw   0x7              	MOVLW	0x07
000c9c   cfdb     movff   0xfdb, 0x5       	MOVFF	PLUSW2, r0x05
000c9e   f005
000ca0   0e08     movlw   0x8              	MOVLW	0x08
000ca2   cfdb     movff   0xfdb, 0x6       	MOVFF	PLUSW2, r0x06
000ca4   f006
000ca6   0e09     movlw   0x9              	MOVLW	0x09
000ca8   cfdb     movff   0xfdb, 0x7       	MOVFF	PLUSW2, r0x07
000caa   f007
000cac   0e0a     movlw   0xa              	MOVLW	0x0a
000cae   cfdb     movff   0xfdb, 0x8       	MOVFF	PLUSW2, r0x08
000cb0   f008
                                           ;	.line	302; /home/regis/Hobbies/Electronique/Projets/Pinguino/svn/branches/x.4/p8/include/pinguino/core/stdio.c	register u8 pc = 0;
000cb2   6a09     clrf    0x9, 0           	CLRF	r0x09
                                           ;	.line	303; /home/regis/Hobbies/Electronique/Projets/Pinguino/svn/branches/x.4/p8/include/pinguino/core/stdio.c	u8 precision = 2; // default value is 2 digits fractional part
000cb4   0e02     movlw   0x2              	MOVLW	0x02
000cb6   6e0a     movwf   0xa, 0           	MOVWF	r0x0a
                                           ;	.line	306; /home/regis/Hobbies/Electronique/Projets/Pinguino/svn/branches/x.4/p8/include/pinguino/core/stdio.c	u8 islong = 0;
000cb8   6a0b     clrf    0xb, 0           	CLRF	r0x0b
                                           _00451_DS_:
                                           ;	.line	308; /home/regis/Hobbies/Electronique/Projets/Pinguino/svn/branches/x.4/p8/include/pinguino/core/stdio.c	for (; *format != 0; ++format)
000cba   c003     movff   0x3, 0xfe9       	MOVFF	r0x03, FSR0L
000cbc   ffe9
000cbe   c004     movff   0x4, 0xff3       	MOVFF	r0x04, PRODL
000cc0   fff3
000cc2   5005     movf    0x5, 0, 0        	MOVF	r0x05, W
000cc4   ecdd     call    0x4bba, 0        	CALL	__gptrget1
000cc6   f025
000cc8   6e0c     movwf   0xc, 0           	MOVWF	r0x0c
000cca   500c     movf    0xc, 0, 0        	MOVF	r0x0c, W
000ccc   b4d8     btfsc   0xd8, 0x2, 0     	BTFSC	STATUS, 2
000cce   ef0b     goto    0x1216           	GOTO	_00454_DS_
000cd0   f009
                                           ;	.line	310; /home/regis/Hobbies/Electronique/Projets/Pinguino/svn/branches/x.4/p8/include/pinguino/core/stdio.c	if (*format == '%')
000cd2   500c     movf    0xc, 0, 0        	MOVF	r0x0c, W
000cd4   0a25     xorlw   0x25             	XORLW	0x25
000cd6   e002     bz      0xcdc            	BZ	_00531_DS_
000cd8   eff2     goto    0x11e4           	GOTO	_00447_DS_
000cda   f008
                                           _00531_DS_:
                                           ;	.line	312; /home/regis/Hobbies/Electronique/Projets/Pinguino/svn/branches/x.4/p8/include/pinguino/core/stdio.c	width = pad = 0;		// default is left justify, no zero padded
000cdc   6a0c     clrf    0xc, 0           	CLRF	r0x0c
000cde   6a0d     clrf    0xd, 0           	CLRF	r0x0d
                                           ;	.line	313; /home/regis/Hobbies/Electronique/Projets/Pinguino/svn/branches/x.4/p8/include/pinguino/core/stdio.c	++format;				// get the next format identifier
000ce0   2a03     incf    0x3, 0x1, 0      	INCF	r0x03, F
000ce2   e302     bnc     0xce8            	BNC	_00532_DS_
000ce4   4a04     infsnz  0x4, 0x1, 0      	INFSNZ	r0x04, F
000ce6   2a05     incf    0x5, 0x1, 0      	INCF	r0x05, F
                                           _00532_DS_:
                                           ;	.line	315; /home/regis/Hobbies/Electronique/Projets/Pinguino/svn/branches/x.4/p8/include/pinguino/core/stdio.c	if (*format == '\0')	// end of line
000ce8   c003     movff   0x3, 0xfe9       	MOVFF	r0x03, FSR0L
000cea   ffe9
000cec   c004     movff   0x4, 0xff3       	MOVFF	r0x04, PRODL
000cee   fff3
000cf0   5005     movf    0x5, 0, 0        	MOVF	r0x05, W
000cf2   ecdd     call    0x4bba, 0        	CALL	__gptrget1
000cf4   f025
000cf6   6e0e     movwf   0xe, 0           	MOVWF	r0x0e
000cf8   500e     movf    0xe, 0, 0        	MOVF	r0x0e, W
000cfa   b4d8     btfsc   0xd8, 0x2, 0     	BTFSC	STATUS, 2
000cfc   ef0b     goto    0x1216           	GOTO	_00454_DS_
000cfe   f009
                                           ;	.line	318; /home/regis/Hobbies/Electronique/Projets/Pinguino/svn/branches/x.4/p8/include/pinguino/core/stdio.c	if (*format == '%')		// error
000d00   500e     movf    0xe, 0, 0        	MOVF	r0x0e, W
000d02   0a25     xorlw   0x25             	XORLW	0x25
000d04   e102     bnz     0xd0a            	BNZ	_00534_DS_
000d06   eff2     goto    0x11e4           	GOTO	_00447_DS_
000d08   f008
                                           _00534_DS_:
                                           ;	.line	321; /home/regis/Hobbies/Electronique/Projets/Pinguino/svn/branches/x.4/p8/include/pinguino/core/stdio.c	if (*format == '-')		// right justify
000d0a   500e     movf    0xe, 0, 0        	MOVF	r0x0e, W
000d0c   0a2d     xorlw   0x2d             	XORLW	0x2d
000d0e   e106     bnz     0xd1c            	BNZ	_00477_DS_
                                           ;	.line	323; /home/regis/Hobbies/Electronique/Projets/Pinguino/svn/branches/x.4/p8/include/pinguino/core/stdio.c	++format;
000d10   2a03     incf    0x3, 0x1, 0      	INCF	r0x03, F
000d12   e302     bnc     0xd18            	BNC	_00537_DS_
000d14   4a04     infsnz  0x4, 0x1, 0      	INFSNZ	r0x04, F
000d16   2a05     incf    0x5, 0x1, 0      	INCF	r0x05, F
                                           _00537_DS_:
                                           ;	.line	324; /home/regis/Hobbies/Electronique/Projets/Pinguino/svn/branches/x.4/p8/include/pinguino/core/stdio.c	pad = PAD_RIGHT;
000d18   0e01     movlw   0x1              	MOVLW	0x01
000d1a   6e0c     movwf   0xc, 0           	MOVWF	r0x0c
                                           _00477_DS_:
                                           ;	.line	327; /home/regis/Hobbies/Electronique/Projets/Pinguino/svn/branches/x.4/p8/include/pinguino/core/stdio.c	while (*format == '0')	// field is padded with 0's instead of blanks
000d1c   c003     movff   0x3, 0xe         	MOVFF	r0x03, r0x0e
000d1e   f00e
000d20   c004     movff   0x4, 0xf         	MOVFF	r0x04, r0x0f
000d22   f00f
000d24   c005     movff   0x5, 0x10        	MOVFF	r0x05, r0x10
000d26   f010
                                           _00416_DS_:
000d28   c00e     movff   0xe, 0xfe9       	MOVFF	r0x0e, FSR0L
000d2a   ffe9
000d2c   c00f     movff   0xf, 0xff3       	MOVFF	r0x0f, PRODL
000d2e   fff3
000d30   5010     movf    0x10, 0, 0       	MOVF	r0x10, W
000d32   ecdd     call    0x4bba, 0        	CALL	__gptrget1
000d34   f025
                                           ; #	MOVWF	r0x11
                                           ; #	MOVF	r0x11, W
000d36   0a30     xorlw   0x30             	XORLW	0x30
000d38   e106     bnz     0xd46            	BNZ	_00458_DS_
                                           ;	.line	329; /home/regis/Hobbies/Electronique/Projets/Pinguino/svn/branches/x.4/p8/include/pinguino/core/stdio.c	++format;
000d3a   2a0e     incf    0xe, 0x1, 0      	INCF	r0x0e, F
000d3c   e302     bnc     0xd42            	BNC	_00540_DS_
000d3e   4a0f     infsnz  0xf, 0x1, 0      	INFSNZ	r0x0f, F
000d40   2a10     incf    0x10, 0x1, 0     	INCF	r0x10, F
                                           _00540_DS_:
                                           ;	.line	330; /home/regis/Hobbies/Electronique/Projets/Pinguino/svn/branches/x.4/p8/include/pinguino/core/stdio.c	pad |= PAD_ZERO;
000d42   820c     bsf     0xc, 0x1, 0      	BSF	r0x0c, 1
000d44   d7f1     bra     0xd28            	BRA	_00416_DS_
                                           _00458_DS_:
                                           ;	.line	333; /home/regis/Hobbies/Electronique/Projets/Pinguino/svn/branches/x.4/p8/include/pinguino/core/stdio.c	for ( ; *format >= '0' && *format <= '9'; ++format)
000d46   c00e     movff   0xe, 0xfe9       	MOVFF	r0x0e, FSR0L
000d48   ffe9
000d4a   c00f     movff   0xf, 0xff3       	MOVFF	r0x0f, PRODL
000d4c   fff3
000d4e   5010     movf    0x10, 0, 0       	MOVF	r0x10, W
000d50   ecdd     call    0x4bba, 0        	CALL	__gptrget1
000d52   f025
000d54   6e11     movwf   0x11, 0          	MOVWF	r0x11
000d56   0e30     movlw   0x30             	MOVLW	0x30
000d58   5c11     subwf   0x11, 0, 0       	SUBWF	r0x11, W
000d5a   e313     bnc     0xd82            	BNC	_00500_DS_
000d5c   0e3a     movlw   0x3a             	MOVLW	0x3a
000d5e   5c11     subwf   0x11, 0, 0       	SUBWF	r0x11, W
000d60   e210     bc      0xd82            	BC	_00500_DS_
                                           ; ;multiply lit val:0x0a by variable r0x0d and store in r0x0d
                                           ;	.line	335; /home/regis/Hobbies/Electronique/Projets/Pinguino/svn/branches/x.4/p8/include/pinguino/core/stdio.c	width *= 10;
000d62   500d     movf    0xd, 0, 0        	MOVF	r0x0d, W
000d64   0d0a     mullw   0xa              	MULLW	0x0a
000d66   cff3     movff   0xff3, 0xd       	MOVFF	PRODL, r0x0d
000d68   f00d
                                           ;	.line	336; /home/regis/Hobbies/Electronique/Projets/Pinguino/svn/branches/x.4/p8/include/pinguino/core/stdio.c	width += *format - '0';
000d6a   0ed0     movlw   0xd0             	MOVLW	0xd0
000d6c   2611     addwf   0x11, 0x1, 0     	ADDWF	r0x11, F
000d6e   500d     movf    0xd, 0, 0        	MOVF	r0x0d, W
000d70   6e12     movwf   0x12, 0          	MOVWF	r0x12
000d72   5011     movf    0x11, 0, 0       	MOVF	r0x11, W
000d74   2412     addwf   0x12, 0, 0       	ADDWF	r0x12, W
000d76   6e0d     movwf   0xd, 0           	MOVWF	r0x0d
                                           ;	.line	333; /home/regis/Hobbies/Electronique/Projets/Pinguino/svn/branches/x.4/p8/include/pinguino/core/stdio.c	for ( ; *format >= '0' && *format <= '9'; ++format)
000d78   2a0e     incf    0xe, 0x1, 0      	INCF	r0x0e, F
000d7a   e302     bnc     0xd80            	BNC	_00544_DS_
000d7c   4a0f     infsnz  0xf, 0x1, 0      	INFSNZ	r0x0f, F
000d7e   2a10     incf    0x10, 0x1, 0     	INCF	r0x10, F
                                           _00544_DS_:
000d80   d7e2     bra     0xd46            	BRA	_00458_DS_
                                           _00500_DS_:
000d82   c00e     movff   0xe, 0x3         	MOVFF	r0x0e, r0x03
000d84   f003
000d86   c00f     movff   0xf, 0x4         	MOVFF	r0x0f, r0x04
000d88   f004
000d8a   c010     movff   0x10, 0x5        	MOVFF	r0x10, r0x05
000d8c   f005
                                           ;	.line	346; /home/regis/Hobbies/Electronique/Projets/Pinguino/svn/branches/x.4/p8/include/pinguino/core/stdio.c	if (*format == '.')		// float precision
000d8e   c00e     movff   0xe, 0xfe9       	MOVFF	r0x0e, FSR0L
000d90   ffe9
000d92   c00f     movff   0xf, 0xff3       	MOVFF	r0x0f, PRODL
000d94   fff3
000d96   5010     movf    0x10, 0, 0       	MOVF	r0x10, W
000d98   ecdd     call    0x4bba, 0        	CALL	__gptrget1
000d9a   f025
                                           ; #	MOVWF	r0x11
                                           ; #	MOVF	r0x11, W
000d9c   0a2e     xorlw   0x2e             	XORLW	0x2e
000d9e   e10a     bnz     0xdb4            	BNZ	_00484_DS_
                                           ;	.line	348; /home/regis/Hobbies/Electronique/Projets/Pinguino/svn/branches/x.4/p8/include/pinguino/core/stdio.c	++format;
000da0   500e     movf    0xe, 0, 0        	MOVF	r0x0e, W
000da2   0f01     addlw   0x1              	ADDLW	0x01
000da4   6e03     movwf   0x3, 0           	MOVWF	r0x03
000da6   0e00     movlw   0                	MOVLW	0x00
000da8   200f     addwfc  0xf, 0, 0        	ADDWFC	r0x0f, W
000daa   6e04     movwf   0x4, 0           	MOVWF	r0x04
000dac   0e00     movlw   0                	MOVLW	0x00
000dae   2010     addwfc  0x10, 0, 0       	ADDWFC	r0x10, W
000db0   6e05     movwf   0x5, 0           	MOVWF	r0x05
                                           ;	.line	349; /home/regis/Hobbies/Electronique/Projets/Pinguino/svn/branches/x.4/p8/include/pinguino/core/stdio.c	precision = 0;
000db2   6a0a     clrf    0xa, 0           	CLRF	r0x0a
                                           _00484_DS_:
000db4   c003     movff   0x3, 0xe         	MOVFF	r0x03, r0x0e
000db6   f00e
000db8   c004     movff   0x4, 0xf         	MOVFF	r0x04, r0x0f
000dba   f00f
000dbc   c005     movff   0x5, 0x10        	MOVFF	r0x05, r0x10
000dbe   f010
                                           _00463_DS_:
                                           ;	.line	352; /home/regis/Hobbies/Electronique/Projets/Pinguino/svn/branches/x.4/p8/include/pinguino/core/stdio.c	for ( ; *format >= '0' && *format <= '9'; ++format)
000dc0   c00e     movff   0xe, 0xfe9       	MOVFF	r0x0e, FSR0L
000dc2   ffe9
000dc4   c00f     movff   0xf, 0xff3       	MOVFF	r0x0f, PRODL
000dc6   fff3
000dc8   5010     movf    0x10, 0, 0       	MOVF	r0x10, W
000dca   ecdd     call    0x4bba, 0        	CALL	__gptrget1
000dcc   f025
000dce   6e11     movwf   0x11, 0          	MOVWF	r0x11
000dd0   0e30     movlw   0x30             	MOVLW	0x30
000dd2   5c11     subwf   0x11, 0, 0       	SUBWF	r0x11, W
000dd4   e313     bnc     0xdfc            	BNC	_00501_DS_
000dd6   0e3a     movlw   0x3a             	MOVLW	0x3a
000dd8   5c11     subwf   0x11, 0, 0       	SUBWF	r0x11, W
000dda   e210     bc      0xdfc            	BC	_00501_DS_
                                           ; ;multiply lit val:0x0a by variable r0x0a and store in r0x0a
                                           ;	.line	354; /home/regis/Hobbies/Electronique/Projets/Pinguino/svn/branches/x.4/p8/include/pinguino/core/stdio.c	precision *= 10;
000ddc   500a     movf    0xa, 0, 0        	MOVF	r0x0a, W
000dde   0d0a     mullw   0xa              	MULLW	0x0a
000de0   cff3     movff   0xff3, 0xa       	MOVFF	PRODL, r0x0a
000de2   f00a
                                           ;	.line	355; /home/regis/Hobbies/Electronique/Projets/Pinguino/svn/branches/x.4/p8/include/pinguino/core/stdio.c	precision += *format - '0';
000de4   0ed0     movlw   0xd0             	MOVLW	0xd0
000de6   2611     addwf   0x11, 0x1, 0     	ADDWF	r0x11, F
000de8   500a     movf    0xa, 0, 0        	MOVF	r0x0a, W
000dea   6e12     movwf   0x12, 0          	MOVWF	r0x12
000dec   5011     movf    0x11, 0, 0       	MOVF	r0x11, W
000dee   2412     addwf   0x12, 0, 0       	ADDWF	r0x12, W
000df0   6e0a     movwf   0xa, 0           	MOVWF	r0x0a
                                           ;	.line	352; /home/regis/Hobbies/Electronique/Projets/Pinguino/svn/branches/x.4/p8/include/pinguino/core/stdio.c	for ( ; *format >= '0' && *format <= '9'; ++format)
000df2   2a0e     incf    0xe, 0x1, 0      	INCF	r0x0e, F
000df4   e302     bnc     0xdfa            	BNC	_00549_DS_
000df6   4a0f     infsnz  0xf, 0x1, 0      	INFSNZ	r0x0f, F
000df8   2a10     incf    0x10, 0x1, 0     	INCF	r0x10, F
                                           _00549_DS_:
000dfa   d7e2     bra     0xdc0            	BRA	_00463_DS_
                                           _00501_DS_:
000dfc   c00e     movff   0xe, 0x3         	MOVFF	r0x0e, r0x03
000dfe   f003
000e00   c00f     movff   0xf, 0x4         	MOVFF	r0x0f, r0x04
000e02   f004
000e04   c010     movff   0x10, 0x5        	MOVFF	r0x10, r0x05
000e06   f005
                                           ;	.line	358; /home/regis/Hobbies/Electronique/Projets/Pinguino/svn/branches/x.4/p8/include/pinguino/core/stdio.c	if (*format == 'f') 	// float
000e08   c00e     movff   0xe, 0xfe9       	MOVFF	r0x0e, FSR0L
000e0a   ffe9
000e0c   c00f     movff   0xf, 0xff3       	MOVFF	r0x0f, PRODL
000e0e   fff3
000e10   5010     movf    0x10, 0, 0       	MOVF	r0x10, W
000e12   ecdd     call    0x4bba, 0        	CALL	__gptrget1
000e14   f025
                                           ; #	MOVWF	r0x11
                                           ; #	MOVF	r0x11, W
000e16   6e11     movwf   0x11, 0          	MOVWF	r0x11
000e18   0a66     xorlw   0x66             	XORLW	0x66
000e1a   e001     bz      0xe1e            	BZ	_00551_DS_
000e1c   d03f     bra     0xe9c            	BRA	_00422_DS_
                                           _00551_DS_:
                                           ;	.line	360; /home/regis/Hobbies/Electronique/Projets/Pinguino/svn/branches/x.4/p8/include/pinguino/core/stdio.c	pc += pprintfl(out, va_arg(args, float), width, pad, separator, precision);
000e1e   5006     movf    0x6, 0, 0        	MOVF	r0x06, W
000e20   0f04     addlw   0x4              	ADDLW	0x04
000e22   6e12     movwf   0x12, 0          	MOVWF	r0x12
000e24   0e00     movlw   0                	MOVLW	0x00
000e26   2007     addwfc  0x7, 0, 0        	ADDWFC	r0x07, W
000e28   6e13     movwf   0x13, 0          	MOVWF	r0x13
000e2a   0e00     movlw   0                	MOVLW	0x00
000e2c   2008     addwfc  0x8, 0, 0        	ADDWFC	r0x08, W
000e2e   6e14     movwf   0x14, 0          	MOVWF	r0x14
000e30   c012     movff   0x12, 0x6        	MOVFF	r0x12, r0x06
000e32   f006
000e34   c013     movff   0x13, 0x7        	MOVFF	r0x13, r0x07
000e36   f007
000e38   c014     movff   0x14, 0x8        	MOVFF	r0x14, r0x08
000e3a   f008
000e3c   0efc     movlw   0xfc             	MOVLW	0xfc
000e3e   2612     addwf   0x12, 0x1, 0     	ADDWF	r0x12, F
000e40   0eff     movlw   0xff             	MOVLW	0xff
000e42   2213     addwfc  0x13, 0x1, 0     	ADDWFC	r0x13, F
000e44   2214     addwfc  0x14, 0x1, 0     	ADDWFC	r0x14, F
                                           ; #	MOVF	r0x14, W
                                           ; #	MOVWF	r0x14
                                           ; #	MOVF	r0x14, W
                                           ; #	MOVF	r0x13, W
                                           ; #	MOVF	r0x13, W
                                           ; #	MOVWF	r0x13
                                           ; #	MOVF	r0x13, W
                                           ; #	MOVF	r0x12, W
                                           ; #	MOVF	r0x12, W
                                           ; #	MOVWF	r0x12
000e46   c012     movff   0x12, 0xfe9      	MOVFF	r0x12, FSR0L
000e48   ffe9
000e4a   c013     movff   0x13, 0xff3      	MOVFF	r0x13, PRODL
000e4c   fff3
000e4e   5014     movf    0x14, 0, 0       	MOVF	r0x14, W
000e50   ec6f     call    0x4ade, 0        	CALL	__gptrget4
000e52   f025
000e54   6e12     movwf   0x12, 0          	MOVWF	r0x12
000e56   cff3     movff   0xff3, 0x13      	MOVFF	PRODL, r0x13
000e58   f013
000e5a   cff4     movff   0xff4, 0x14      	MOVFF	PRODH, r0x14
000e5c   f014
000e5e   cfe9     movff   0xfe9, 0x15      	MOVFF	FSR0L, r0x15
000e60   f015
000e62   500a     movf    0xa, 0, 0        	MOVF	r0x0a, W
000e64   6ee5     movwf   0xe5, 0          	MOVWF	POSTDEC1
000e66   6ae5     clrf    0xe5, 0          	CLRF	POSTDEC1
000e68   500c     movf    0xc, 0, 0        	MOVF	r0x0c, W
000e6a   6ee5     movwf   0xe5, 0          	MOVWF	POSTDEC1
000e6c   500d     movf    0xd, 0, 0        	MOVF	r0x0d, W
000e6e   6ee5     movwf   0xe5, 0          	MOVWF	POSTDEC1
000e70   5015     movf    0x15, 0, 0       	MOVF	r0x15, W
000e72   6ee5     movwf   0xe5, 0          	MOVWF	POSTDEC1
000e74   5014     movf    0x14, 0, 0       	MOVF	r0x14, W
000e76   6ee5     movwf   0xe5, 0          	MOVWF	POSTDEC1
000e78   5013     movf    0x13, 0, 0       	MOVF	r0x13, W
000e7a   6ee5     movwf   0xe5, 0          	MOVWF	POSTDEC1
000e7c   5012     movf    0x12, 0, 0       	MOVF	r0x12, W
000e7e   6ee5     movwf   0xe5, 0          	MOVWF	POSTDEC1
000e80   5002     movf    0x2, 0, 0        	MOVF	r0x02, W
000e82   6ee5     movwf   0xe5, 0          	MOVWF	POSTDEC1
000e84   5001     movf    0x1, 0, 0        	MOVF	r0x01, W
000e86   6ee5     movwf   0xe5, 0          	MOVWF	POSTDEC1
000e88   5000     movf    0, 0, 0          	MOVF	r0x00, W
000e8a   6ee5     movwf   0xe5, 0          	MOVWF	POSTDEC1
000e8c   ec8b     call    0x1916, 0        	CALL	_pprintfl
000e8e   f00c
000e90   6e12     movwf   0x12, 0          	MOVWF	r0x12
000e92   0e0b     movlw   0xb              	MOVLW	0x0b
000e94   26e1     addwf   0xe1, 0x1, 0     	ADDWF	FSR1L, F
000e96   5012     movf    0x12, 0, 0       	MOVF	r0x12, W
000e98   2609     addwf   0x9, 0x1, 0      	ADDWF	r0x09, F
                                           ;	.line	361; /home/regis/Hobbies/Electronique/Projets/Pinguino/svn/branches/x.4/p8/include/pinguino/core/stdio.c	continue;
000e9a   d1b7     bra     0x120a           	BRA	_00453_DS_
                                           _00422_DS_:
                                           ;	.line	364; /home/regis/Hobbies/Electronique/Projets/Pinguino/svn/branches/x.4/p8/include/pinguino/core/stdio.c	if (*format == 's')		// string
000e9c   5011     movf    0x11, 0, 0       	MOVF	r0x11, W
000e9e   0a73     xorlw   0x73             	XORLW	0x73
000ea0   e001     bz      0xea4            	BZ	_00553_DS_
000ea2   d044     bra     0xf2c            	BRA	_00424_DS_
                                           _00553_DS_:
                                           ;	.line	366; /home/regis/Hobbies/Electronique/Projets/Pinguino/svn/branches/x.4/p8/include/pinguino/core/stdio.c	u8 *s = va_arg(args, u8*);
000ea4   5006     movf    0x6, 0, 0        	MOVF	r0x06, W
000ea6   0f03     addlw   0x3              	ADDLW	0x03
000ea8   6e12     movwf   0x12, 0          	MOVWF	r0x12
000eaa   0e00     movlw   0                	MOVLW	0x00
000eac   2007     addwfc  0x7, 0, 0        	ADDWFC	r0x07, W
000eae   6e13     movwf   0x13, 0          	MOVWF	r0x13
000eb0   0e00     movlw   0                	MOVLW	0x00
000eb2   2008     addwfc  0x8, 0, 0        	ADDWFC	r0x08, W
000eb4   6e14     movwf   0x14, 0          	MOVWF	r0x14
000eb6   c012     movff   0x12, 0x6        	MOVFF	r0x12, r0x06
000eb8   f006
000eba   c013     movff   0x13, 0x7        	MOVFF	r0x13, r0x07
000ebc   f007
000ebe   c014     movff   0x14, 0x8        	MOVFF	r0x14, r0x08
000ec0   f008
000ec2   0efd     movlw   0xfd             	MOVLW	0xfd
000ec4   2612     addwf   0x12, 0x1, 0     	ADDWF	r0x12, F
000ec6   0eff     movlw   0xff             	MOVLW	0xff
000ec8   2213     addwfc  0x13, 0x1, 0     	ADDWFC	r0x13, F
000eca   2214     addwfc  0x14, 0x1, 0     	ADDWFC	r0x14, F
                                           ; #	MOVF	r0x14, W
                                           ; #	MOVWF	r0x14
                                           ; #	MOVF	r0x14, W
                                           ; #	MOVF	r0x13, W
                                           ; #	MOVF	r0x13, W
                                           ; #	MOVWF	r0x13
                                           ; #	MOVF	r0x13, W
                                           ; #	MOVF	r0x12, W
                                           ; #	MOVF	r0x12, W
                                           ; #	MOVWF	r0x12
000ecc   c012     movff   0x12, 0xfe9      	MOVFF	r0x12, FSR0L
000ece   ffe9
000ed0   c013     movff   0x13, 0xff3      	MOVFF	r0x13, PRODL
000ed2   fff3
000ed4   5014     movf    0x14, 0, 0       	MOVF	r0x14, W
000ed6   ecac     call    0x4b58, 0        	CALL	__gptrget3
000ed8   f025
000eda   6e12     movwf   0x12, 0          	MOVWF	r0x12
000edc   cff3     movff   0xff3, 0x13      	MOVFF	PRODL, r0x13
000ede   f013
000ee0   cff4     movff   0xff4, 0x14      	MOVFF	PRODH, r0x14
000ee2   f014
                                           ;	.line	367; /home/regis/Hobbies/Electronique/Projets/Pinguino/svn/branches/x.4/p8/include/pinguino/core/stdio.c	pc += pprints(out, s?s:"(null)", width, pad);
000ee4   1013     iorwf   0x13, 0, 0       	IORWF	r0x13, W
                                           ; #	IORWF	r0x14, W
                                           ; #	BTFSC	STATUS, 2
                                           ; #	GOTO	_00469_DS_
                                           ; #	GOTO	_00470_DS_
                                           ; #	MOVLW	UPPER(__str_0)
000ee6   1014     iorwf   0x14, 0, 0       	IORWF	r0x14, W
000ee8   e106     bnz     0xef6            	BNZ	_00470_DS_
000eea   0e00     movlw   0                	MOVLW	UPPER(__str_0)
000eec   6e14     movwf   0x14, 0          	MOVWF	r0x14
000eee   0e18     movlw   0x18             	MOVLW	HIGH(__str_0)
000ef0   6e13     movwf   0x13, 0          	MOVWF	r0x13
000ef2   0e96     movlw   0x96             	MOVLW	LOW(__str_0)
000ef4   6e12     movwf   0x12, 0          	MOVWF	r0x12
                                           _00470_DS_:
000ef6   500c     movf    0xc, 0, 0        	MOVF	r0x0c, W
000ef8   6ee5     movwf   0xe5, 0          	MOVWF	POSTDEC1
000efa   500d     movf    0xd, 0, 0        	MOVF	r0x0d, W
000efc   6ee5     movwf   0xe5, 0          	MOVWF	POSTDEC1
000efe   5014     movf    0x14, 0, 0       	MOVF	r0x14, W
000f00   6ee5     movwf   0xe5, 0          	MOVWF	POSTDEC1
000f02   5013     movf    0x13, 0, 0       	MOVF	r0x13, W
000f04   6ee5     movwf   0xe5, 0          	MOVWF	POSTDEC1
000f06   5012     movf    0x12, 0, 0       	MOVF	r0x12, W
000f08   6ee5     movwf   0xe5, 0          	MOVWF	POSTDEC1
000f0a   5002     movf    0x2, 0, 0        	MOVF	r0x02, W
000f0c   6ee5     movwf   0xe5, 0          	MOVWF	POSTDEC1
000f0e   5001     movf    0x1, 0, 0        	MOVF	r0x01, W
000f10   6ee5     movwf   0xe5, 0          	MOVWF	POSTDEC1
000f12   5000     movf    0, 0, 0          	MOVF	r0x00, W
000f14   6ee5     movwf   0xe5, 0          	MOVWF	POSTDEC1
000f16   ecf7     call    0x2dee, 0        	CALL	_pprints
000f18   f016
000f1a   6e12     movwf   0x12, 0          	MOVWF	r0x12
000f1c   0e08     movlw   0x8              	MOVLW	0x08
000f1e   26e1     addwf   0xe1, 0x1, 0     	ADDWF	FSR1L, F
000f20   5009     movf    0x9, 0, 0        	MOVF	r0x09, W
000f22   6e13     movwf   0x13, 0          	MOVWF	r0x13
000f24   5012     movf    0x12, 0, 0       	MOVF	r0x12, W
000f26   2413     addwf   0x13, 0, 0       	ADDWF	r0x13, W
000f28   6e09     movwf   0x9, 0           	MOVWF	r0x09
                                           ;	.line	368; /home/regis/Hobbies/Electronique/Projets/Pinguino/svn/branches/x.4/p8/include/pinguino/core/stdio.c	continue;
000f2a   d16f     bra     0x120a           	BRA	_00453_DS_
                                           _00424_DS_:
                                           ;	.line	371; /home/regis/Hobbies/Electronique/Projets/Pinguino/svn/branches/x.4/p8/include/pinguino/core/stdio.c	if (*format == 'l')		// long support
000f2c   5011     movf    0x11, 0, 0       	MOVF	r0x11, W
000f2e   0a6c     xorlw   0x6c             	XORLW	0x6c
000f30   e10b     bnz     0xf48            	BNZ	_00426_DS_
                                           ;	.line	373; /home/regis/Hobbies/Electronique/Projets/Pinguino/svn/branches/x.4/p8/include/pinguino/core/stdio.c	++format;
000f32   500e     movf    0xe, 0, 0        	MOVF	r0x0e, W
000f34   0f01     addlw   0x1              	ADDLW	0x01
000f36   6e03     movwf   0x3, 0           	MOVWF	r0x03
000f38   0e00     movlw   0                	MOVLW	0x00
000f3a   200f     addwfc  0xf, 0, 0        	ADDWFC	r0x0f, W
000f3c   6e04     movwf   0x4, 0           	MOVWF	r0x04
000f3e   0e00     movlw   0                	MOVLW	0x00
000f40   2010     addwfc  0x10, 0, 0       	ADDWFC	r0x10, W
000f42   6e05     movwf   0x5, 0           	MOVWF	r0x05
                                           ;	.line	374; /home/regis/Hobbies/Electronique/Projets/Pinguino/svn/branches/x.4/p8/include/pinguino/core/stdio.c	islong = 1;
000f44   0e01     movlw   0x1              	MOVLW	0x01
000f46   6e0b     movwf   0xb, 0           	MOVWF	r0x0b
                                           _00426_DS_:
                                           ;	.line	377; /home/regis/Hobbies/Electronique/Projets/Pinguino/svn/branches/x.4/p8/include/pinguino/core/stdio.c	if (islong)
000f48   500b     movf    0xb, 0, 0        	MOVF	r0x0b, W
000f4a   e023     bz      0xf92            	BZ	_00428_DS_
                                           ;	.line	378; /home/regis/Hobbies/Electronique/Projets/Pinguino/svn/branches/x.4/p8/include/pinguino/core/stdio.c	val = va_arg(args, u32);
000f4c   5006     movf    0x6, 0, 0        	MOVF	r0x06, W
000f4e   0f04     addlw   0x4              	ADDLW	0x04
000f50   6e0e     movwf   0xe, 0           	MOVWF	r0x0e
000f52   0e00     movlw   0                	MOVLW	0x00
000f54   2007     addwfc  0x7, 0, 0        	ADDWFC	r0x07, W
000f56   6e0f     movwf   0xf, 0           	MOVWF	r0x0f
000f58   0e00     movlw   0                	MOVLW	0x00
000f5a   2008     addwfc  0x8, 0, 0        	ADDWFC	r0x08, W
000f5c   6e10     movwf   0x10, 0          	MOVWF	r0x10
000f5e   c00e     movff   0xe, 0x6         	MOVFF	r0x0e, r0x06
000f60   f006
000f62   c00f     movff   0xf, 0x7         	MOVFF	r0x0f, r0x07
000f64   f007
000f66   c010     movff   0x10, 0x8        	MOVFF	r0x10, r0x08
000f68   f008
000f6a   0efc     movlw   0xfc             	MOVLW	0xfc
000f6c   260e     addwf   0xe, 0x1, 0      	ADDWF	r0x0e, F
000f6e   0eff     movlw   0xff             	MOVLW	0xff
000f70   220f     addwfc  0xf, 0x1, 0      	ADDWFC	r0x0f, F
000f72   2210     addwfc  0x10, 0x1, 0     	ADDWFC	r0x10, F
                                           ; #	MOVF	r0x10, W
                                           ; #	MOVWF	r0x10
                                           ; #	MOVF	r0x10, W
                                           ; #	MOVF	r0x0f, W
                                           ; #	MOVF	r0x0f, W
                                           ; #	MOVWF	r0x0f
                                           ; #	MOVF	r0x0f, W
                                           ; #	MOVF	r0x0e, W
                                           ; #	MOVF	r0x0e, W
                                           ; #	MOVWF	r0x0e
000f74   c00e     movff   0xe, 0xfe9       	MOVFF	r0x0e, FSR0L
000f76   ffe9
000f78   c00f     movff   0xf, 0xff3       	MOVFF	r0x0f, PRODL
000f7a   fff3
000f7c   5010     movf    0x10, 0, 0       	MOVF	r0x10, W
000f7e   ec6f     call    0x4ade, 0        	CALL	__gptrget4
000f80   f025
000f82   6e0e     movwf   0xe, 0           	MOVWF	r0x0e
000f84   cff3     movff   0xff3, 0xf       	MOVFF	PRODL, r0x0f
000f86   f00f
000f88   cff4     movff   0xff4, 0x10      	MOVFF	PRODH, r0x10
000f8a   f010
000f8c   cfe9     movff   0xfe9, 0x11      	MOVFF	FSR0L, r0x11
000f8e   f011
000f90   d024     bra     0xfda            	BRA	_00429_DS_
                                           _00428_DS_:
                                           ;	.line	380; /home/regis/Hobbies/Electronique/Projets/Pinguino/svn/branches/x.4/p8/include/pinguino/core/stdio.c	val = (u32)va_arg(args, u16);
000f92   5006     movf    0x6, 0, 0        	MOVF	r0x06, W
000f94   0f02     addlw   0x2              	ADDLW	0x02
000f96   6e12     movwf   0x12, 0          	MOVWF	r0x12
000f98   0e00     movlw   0                	MOVLW	0x00
000f9a   2007     addwfc  0x7, 0, 0        	ADDWFC	r0x07, W
000f9c   6e13     movwf   0x13, 0          	MOVWF	r0x13
000f9e   0e00     movlw   0                	MOVLW	0x00
000fa0   2008     addwfc  0x8, 0, 0        	ADDWFC	r0x08, W
000fa2   6e14     movwf   0x14, 0          	MOVWF	r0x14
000fa4   c012     movff   0x12, 0x6        	MOVFF	r0x12, r0x06
000fa6   f006
000fa8   c013     movff   0x13, 0x7        	MOVFF	r0x13, r0x07
000faa   f007
000fac   c014     movff   0x14, 0x8        	MOVFF	r0x14, r0x08
000fae   f008
000fb0   0efe     movlw   0xfe             	MOVLW	0xfe
000fb2   2612     addwf   0x12, 0x1, 0     	ADDWF	r0x12, F
000fb4   0eff     movlw   0xff             	MOVLW	0xff
000fb6   2213     addwfc  0x13, 0x1, 0     	ADDWFC	r0x13, F
000fb8   2214     addwfc  0x14, 0x1, 0     	ADDWFC	r0x14, F
                                           ; #	MOVF	r0x14, W
                                           ; #	MOVWF	r0x14
                                           ; #	MOVF	r0x14, W
                                           ; #	MOVF	r0x13, W
                                           ; #	MOVF	r0x13, W
                                           ; #	MOVWF	r0x13
                                           ; #	MOVF	r0x13, W
                                           ; #	MOVF	r0x12, W
                                           ; #	MOVF	r0x12, W
                                           ; #	MOVWF	r0x12
000fba   c012     movff   0x12, 0xfe9      	MOVFF	r0x12, FSR0L
000fbc   ffe9
000fbe   c013     movff   0x13, 0xff3      	MOVFF	r0x13, PRODL
000fc0   fff3
000fc2   5014     movf    0x14, 0, 0       	MOVF	r0x14, W
000fc4   ecc7     call    0x4b8e, 0        	CALL	__gptrget2
000fc6   f025
000fc8   6e12     movwf   0x12, 0          	MOVWF	r0x12
000fca   cff3     movff   0xff3, 0x13      	MOVFF	PRODL, r0x13
000fcc   f013
000fce   c012     movff   0x12, 0xe        	MOVFF	r0x12, r0x0e
000fd0   f00e
000fd2   c013     movff   0x13, 0xf        	MOVFF	r0x13, r0x0f
000fd4   f00f
000fd6   6a10     clrf    0x10, 0          	CLRF	r0x10
000fd8   6a11     clrf    0x11, 0          	CLRF	r0x11
                                           _00429_DS_:
                                           ;	.line	382; /home/regis/Hobbies/Electronique/Projets/Pinguino/svn/branches/x.4/p8/include/pinguino/core/stdio.c	if (*format == 'u')		// unsigned integer
000fda   c003     movff   0x3, 0xfe9       	MOVFF	r0x03, FSR0L
000fdc   ffe9
000fde   c004     movff   0x4, 0xff3       	MOVFF	r0x04, PRODL
000fe0   fff3
000fe2   5005     movf    0x5, 0, 0        	MOVF	r0x05, W
000fe4   ecdd     call    0x4bba, 0        	CALL	__gptrget1
000fe6   f025
                                           ; #	MOVWF	r0x12
                                           ; #	MOVF	r0x12, W
000fe8   6e12     movwf   0x12, 0          	MOVWF	r0x12
000fea   0a75     xorlw   0x75             	XORLW	0x75
000fec   e120     bnz     0x102e           	BNZ	_00431_DS_
                                           ;	.line	384; /home/regis/Hobbies/Electronique/Projets/Pinguino/svn/branches/x.4/p8/include/pinguino/core/stdio.c	pc += pprinti(out, val, 10, 0, width, pad, separator, 'a');
000fee   0e61     movlw   0x61             	MOVLW	0x61
000ff0   6ee5     movwf   0xe5, 0          	MOVWF	POSTDEC1
000ff2   6ae5     clrf    0xe5, 0          	CLRF	POSTDEC1
000ff4   500c     movf    0xc, 0, 0        	MOVF	r0x0c, W
000ff6   6ee5     movwf   0xe5, 0          	MOVWF	POSTDEC1
000ff8   500d     movf    0xd, 0, 0        	MOVF	r0x0d, W
000ffa   6ee5     movwf   0xe5, 0          	MOVWF	POSTDEC1
000ffc   6ae5     clrf    0xe5, 0          	CLRF	POSTDEC1
000ffe   0e0a     movlw   0xa              	MOVLW	0x0a
001000   6ee5     movwf   0xe5, 0          	MOVWF	POSTDEC1
001002   5011     movf    0x11, 0, 0       	MOVF	r0x11, W
001004   6ee5     movwf   0xe5, 0          	MOVWF	POSTDEC1
001006   5010     movf    0x10, 0, 0       	MOVF	r0x10, W
001008   6ee5     movwf   0xe5, 0          	MOVWF	POSTDEC1
00100a   500f     movf    0xf, 0, 0        	MOVF	r0x0f, W
00100c   6ee5     movwf   0xe5, 0          	MOVWF	POSTDEC1
00100e   500e     movf    0xe, 0, 0        	MOVF	r0x0e, W
001010   6ee5     movwf   0xe5, 0          	MOVWF	POSTDEC1
001012   5002     movf    0x2, 0, 0        	MOVF	r0x02, W
001014   6ee5     movwf   0xe5, 0          	MOVWF	POSTDEC1
001016   5001     movf    0x1, 0, 0        	MOVF	r0x01, W
001018   6ee5     movwf   0xe5, 0          	MOVWF	POSTDEC1
00101a   5000     movf    0, 0, 0          	MOVF	r0x00, W
00101c   6ee5     movwf   0xe5, 0          	MOVWF	POSTDEC1
00101e   ec60     call    0x1ec0, 0        	CALL	_pprinti
001020   f00f
001022   6e13     movwf   0x13, 0          	MOVWF	r0x13
001024   0e0d     movlw   0xd              	MOVLW	0x0d
001026   26e1     addwf   0xe1, 0x1, 0     	ADDWF	FSR1L, F
001028   5013     movf    0x13, 0, 0       	MOVF	r0x13, W
00102a   2609     addwf   0x9, 0x1, 0      	ADDWF	r0x09, F
                                           ;	.line	385; /home/regis/Hobbies/Electronique/Projets/Pinguino/svn/branches/x.4/p8/include/pinguino/core/stdio.c	continue;
00102c   d0ee     bra     0x120a           	BRA	_00453_DS_
                                           _00431_DS_:
                                           ;	.line	388; /home/regis/Hobbies/Electronique/Projets/Pinguino/svn/branches/x.4/p8/include/pinguino/core/stdio.c	if (*format == 'd' || *format == 'i')		// decimal signed integer
00102e   5012     movf    0x12, 0, 0       	MOVF	r0x12, W
001030   0a64     xorlw   0x64             	XORLW	0x64
001032   e003     bz      0x103a           	BZ	_00432_DS_
001034   5012     movf    0x12, 0, 0       	MOVF	r0x12, W
001036   0a69     xorlw   0x69             	XORLW	0x69
001038   e121     bnz     0x107c           	BNZ	_00433_DS_
                                           _00432_DS_:
                                           ;	.line	390; /home/regis/Hobbies/Electronique/Projets/Pinguino/svn/branches/x.4/p8/include/pinguino/core/stdio.c	pc += pprinti(out, val, 10, 1, width, pad, separator, 'a');
00103a   0e61     movlw   0x61             	MOVLW	0x61
00103c   6ee5     movwf   0xe5, 0          	MOVWF	POSTDEC1
00103e   6ae5     clrf    0xe5, 0          	CLRF	POSTDEC1
001040   500c     movf    0xc, 0, 0        	MOVF	r0x0c, W
001042   6ee5     movwf   0xe5, 0          	MOVWF	POSTDEC1
001044   500d     movf    0xd, 0, 0        	MOVF	r0x0d, W
001046   6ee5     movwf   0xe5, 0          	MOVWF	POSTDEC1
001048   0e01     movlw   0x1              	MOVLW	0x01
00104a   6ee5     movwf   0xe5, 0          	MOVWF	POSTDEC1
00104c   0e0a     movlw   0xa              	MOVLW	0x0a
00104e   6ee5     movwf   0xe5, 0          	MOVWF	POSTDEC1
001050   5011     movf    0x11, 0, 0       	MOVF	r0x11, W
001052   6ee5     movwf   0xe5, 0          	MOVWF	POSTDEC1
001054   5010     movf    0x10, 0, 0       	MOVF	r0x10, W
001056   6ee5     movwf   0xe5, 0          	MOVWF	POSTDEC1
001058   500f     movf    0xf, 0, 0        	MOVF	r0x0f, W
00105a   6ee5     movwf   0xe5, 0          	MOVWF	POSTDEC1
00105c   500e     movf    0xe, 0, 0        	MOVF	r0x0e, W
00105e   6ee5     movwf   0xe5, 0          	MOVWF	POSTDEC1
001060   5002     movf    0x2, 0, 0        	MOVF	r0x02, W
001062   6ee5     movwf   0xe5, 0          	MOVWF	POSTDEC1
001064   5001     movf    0x1, 0, 0        	MOVF	r0x01, W
001066   6ee5     movwf   0xe5, 0          	MOVWF	POSTDEC1
001068   5000     movf    0, 0, 0          	MOVF	r0x00, W
00106a   6ee5     movwf   0xe5, 0          	MOVWF	POSTDEC1
00106c   ec60     call    0x1ec0, 0        	CALL	_pprinti
00106e   f00f
001070   6e13     movwf   0x13, 0          	MOVWF	r0x13
001072   0e0d     movlw   0xd              	MOVLW	0x0d
001074   26e1     addwf   0xe1, 0x1, 0     	ADDWF	FSR1L, F
001076   5013     movf    0x13, 0, 0       	MOVF	r0x13, W
001078   2609     addwf   0x9, 0x1, 0      	ADDWF	r0x09, F
                                           ;	.line	391; /home/regis/Hobbies/Electronique/Projets/Pinguino/svn/branches/x.4/p8/include/pinguino/core/stdio.c	continue;
00107a   d0c7     bra     0x120a           	BRA	_00453_DS_
                                           _00433_DS_:
                                           ;	.line	394; /home/regis/Hobbies/Electronique/Projets/Pinguino/svn/branches/x.4/p8/include/pinguino/core/stdio.c	if (*format == 'x' || *format == 'p')	// lower hexa or pointer
00107c   5012     movf    0x12, 0, 0       	MOVF	r0x12, W
00107e   0a78     xorlw   0x78             	XORLW	0x78
001080   e003     bz      0x1088           	BZ	_00435_DS_
001082   5012     movf    0x12, 0, 0       	MOVF	r0x12, W
001084   0a70     xorlw   0x70             	XORLW	0x70
001086   e120     bnz     0x10c8           	BNZ	_00436_DS_
                                           _00435_DS_:
                                           ;	.line	396; /home/regis/Hobbies/Electronique/Projets/Pinguino/svn/branches/x.4/p8/include/pinguino/core/stdio.c	pc += pprinti(out, val, 16, 0, width, pad, separator, 'a');
001088   0e61     movlw   0x61             	MOVLW	0x61
00108a   6ee5     movwf   0xe5, 0          	MOVWF	POSTDEC1
00108c   6ae5     clrf    0xe5, 0          	CLRF	POSTDEC1
00108e   500c     movf    0xc, 0, 0        	MOVF	r0x0c, W
001090   6ee5     movwf   0xe5, 0          	MOVWF	POSTDEC1
001092   500d     movf    0xd, 0, 0        	MOVF	r0x0d, W
001094   6ee5     movwf   0xe5, 0          	MOVWF	POSTDEC1
001096   6ae5     clrf    0xe5, 0          	CLRF	POSTDEC1
001098   0e10     movlw   0x10             	MOVLW	0x10
00109a   6ee5     movwf   0xe5, 0          	MOVWF	POSTDEC1
00109c   5011     movf    0x11, 0, 0       	MOVF	r0x11, W
00109e   6ee5     movwf   0xe5, 0          	MOVWF	POSTDEC1
0010a0   5010     movf    0x10, 0, 0       	MOVF	r0x10, W
0010a2   6ee5     movwf   0xe5, 0          	MOVWF	POSTDEC1
0010a4   500f     movf    0xf, 0, 0        	MOVF	r0x0f, W
0010a6   6ee5     movwf   0xe5, 0          	MOVWF	POSTDEC1
0010a8   500e     movf    0xe, 0, 0        	MOVF	r0x0e, W
0010aa   6ee5     movwf   0xe5, 0          	MOVWF	POSTDEC1
0010ac   5002     movf    0x2, 0, 0        	MOVF	r0x02, W
0010ae   6ee5     movwf   0xe5, 0          	MOVWF	POSTDEC1
0010b0   5001     movf    0x1, 0, 0        	MOVF	r0x01, W
0010b2   6ee5     movwf   0xe5, 0          	MOVWF	POSTDEC1
0010b4   5000     movf    0, 0, 0          	MOVF	r0x00, W
0010b6   6ee5     movwf   0xe5, 0          	MOVWF	POSTDEC1
0010b8   ec60     call    0x1ec0, 0        	CALL	_pprinti
0010ba   f00f
0010bc   6e13     movwf   0x13, 0          	MOVWF	r0x13
0010be   0e0d     movlw   0xd              	MOVLW	0x0d
0010c0   26e1     addwf   0xe1, 0x1, 0     	ADDWF	FSR1L, F
0010c2   5013     movf    0x13, 0, 0       	MOVF	r0x13, W
0010c4   2609     addwf   0x9, 0x1, 0      	ADDWF	r0x09, F
                                           ;	.line	397; /home/regis/Hobbies/Electronique/Projets/Pinguino/svn/branches/x.4/p8/include/pinguino/core/stdio.c	continue;
0010c6   d0a1     bra     0x120a           	BRA	_00453_DS_
                                           _00436_DS_:
                                           ;	.line	400; /home/regis/Hobbies/Electronique/Projets/Pinguino/svn/branches/x.4/p8/include/pinguino/core/stdio.c	if (*format == 'X' || *format == 'P')	// upper hexa or pointer
0010c8   5012     movf    0x12, 0, 0       	MOVF	r0x12, W
0010ca   0a58     xorlw   0x58             	XORLW	0x58
0010cc   e003     bz      0x10d4           	BZ	_00438_DS_
0010ce   5012     movf    0x12, 0, 0       	MOVF	r0x12, W
0010d0   0a50     xorlw   0x50             	XORLW	0x50
0010d2   e120     bnz     0x1114           	BNZ	_00439_DS_
                                           _00438_DS_:
                                           ;	.line	402; /home/regis/Hobbies/Electronique/Projets/Pinguino/svn/branches/x.4/p8/include/pinguino/core/stdio.c	pc += pprinti(out, val, 16, 0, width, pad, separator, 'A');
0010d4   0e41     movlw   0x41             	MOVLW	0x41
0010d6   6ee5     movwf   0xe5, 0          	MOVWF	POSTDEC1
0010d8   6ae5     clrf    0xe5, 0          	CLRF	POSTDEC1
0010da   500c     movf    0xc, 0, 0        	MOVF	r0x0c, W
0010dc   6ee5     movwf   0xe5, 0          	MOVWF	POSTDEC1
0010de   500d     movf    0xd, 0, 0        	MOVF	r0x0d, W
0010e0   6ee5     movwf   0xe5, 0          	MOVWF	POSTDEC1
0010e2   6ae5     clrf    0xe5, 0          	CLRF	POSTDEC1
0010e4   0e10     movlw   0x10             	MOVLW	0x10
0010e6   6ee5     movwf   0xe5, 0          	MOVWF	POSTDEC1
0010e8   5011     movf    0x11, 0, 0       	MOVF	r0x11, W
0010ea   6ee5     movwf   0xe5, 0          	MOVWF	POSTDEC1
0010ec   5010     movf    0x10, 0, 0       	MOVF	r0x10, W
0010ee   6ee5     movwf   0xe5, 0          	MOVWF	POSTDEC1
0010f0   500f     movf    0xf, 0, 0        	MOVF	r0x0f, W
0010f2   6ee5     movwf   0xe5, 0          	MOVWF	POSTDEC1
0010f4   500e     movf    0xe, 0, 0        	MOVF	r0x0e, W
0010f6   6ee5     movwf   0xe5, 0          	MOVWF	POSTDEC1
0010f8   5002     movf    0x2, 0, 0        	MOVF	r0x02, W
0010fa   6ee5     movwf   0xe5, 0          	MOVWF	POSTDEC1
0010fc   5001     movf    0x1, 0, 0        	MOVF	r0x01, W
0010fe   6ee5     movwf   0xe5, 0          	MOVWF	POSTDEC1
001100   5000     movf    0, 0, 0          	MOVF	r0x00, W
001102   6ee5     movwf   0xe5, 0          	MOVWF	POSTDEC1
001104   ec60     call    0x1ec0, 0        	CALL	_pprinti
001106   f00f
001108   6e13     movwf   0x13, 0          	MOVWF	r0x13
00110a   0e0d     movlw   0xd              	MOVLW	0x0d
00110c   26e1     addwf   0xe1, 0x1, 0     	ADDWF	FSR1L, F
00110e   5013     movf    0x13, 0, 0       	MOVF	r0x13, W
001110   2609     addwf   0x9, 0x1, 0      	ADDWF	r0x09, F
                                           ;	.line	403; /home/regis/Hobbies/Electronique/Projets/Pinguino/svn/branches/x.4/p8/include/pinguino/core/stdio.c	continue;
001112   d07b     bra     0x120a           	BRA	_00453_DS_
                                           _00439_DS_:
                                           ;	.line	406; /home/regis/Hobbies/Electronique/Projets/Pinguino/svn/branches/x.4/p8/include/pinguino/core/stdio.c	if (*format == 'b')		// binary
001114   5012     movf    0x12, 0, 0       	MOVF	r0x12, W
001116   0a62     xorlw   0x62             	XORLW	0x62
001118   e120     bnz     0x115a           	BNZ	_00442_DS_
                                           ;	.line	408; /home/regis/Hobbies/Electronique/Projets/Pinguino/svn/branches/x.4/p8/include/pinguino/core/stdio.c	pc += pprinti(out, val, 2, 0, width, pad, separator, 'a');
00111a   0e61     movlw   0x61             	MOVLW	0x61
00111c   6ee5     movwf   0xe5, 0          	MOVWF	POSTDEC1
00111e   6ae5     clrf    0xe5, 0          	CLRF	POSTDEC1
001120   500c     movf    0xc, 0, 0        	MOVF	r0x0c, W
001122   6ee5     movwf   0xe5, 0          	MOVWF	POSTDEC1
001124   500d     movf    0xd, 0, 0        	MOVF	r0x0d, W
001126   6ee5     movwf   0xe5, 0          	MOVWF	POSTDEC1
001128   6ae5     clrf    0xe5, 0          	CLRF	POSTDEC1
00112a   0e02     movlw   0x2              	MOVLW	0x02
00112c   6ee5     movwf   0xe5, 0          	MOVWF	POSTDEC1
00112e   5011     movf    0x11, 0, 0       	MOVF	r0x11, W
001130   6ee5     movwf   0xe5, 0          	MOVWF	POSTDEC1
001132   5010     movf    0x10, 0, 0       	MOVF	r0x10, W
001134   6ee5     movwf   0xe5, 0          	MOVWF	POSTDEC1
001136   500f     movf    0xf, 0, 0        	MOVF	r0x0f, W
001138   6ee5     movwf   0xe5, 0          	MOVWF	POSTDEC1
00113a   500e     movf    0xe, 0, 0        	MOVF	r0x0e, W
00113c   6ee5     movwf   0xe5, 0          	MOVWF	POSTDEC1
00113e   5002     movf    0x2, 0, 0        	MOVF	r0x02, W
001140   6ee5     movwf   0xe5, 0          	MOVWF	POSTDEC1
001142   5001     movf    0x1, 0, 0        	MOVF	r0x01, W
001144   6ee5     movwf   0xe5, 0          	MOVWF	POSTDEC1
001146   5000     movf    0, 0, 0          	MOVF	r0x00, W
001148   6ee5     movwf   0xe5, 0          	MOVWF	POSTDEC1
00114a   ec60     call    0x1ec0, 0        	CALL	_pprinti
00114c   f00f
00114e   6e13     movwf   0x13, 0          	MOVWF	r0x13
001150   0e0d     movlw   0xd              	MOVLW	0x0d
001152   26e1     addwf   0xe1, 0x1, 0     	ADDWF	FSR1L, F
001154   5013     movf    0x13, 0, 0       	MOVF	r0x13, W
001156   2609     addwf   0x9, 0x1, 0      	ADDWF	r0x09, F
                                           ;	.line	409; /home/regis/Hobbies/Electronique/Projets/Pinguino/svn/branches/x.4/p8/include/pinguino/core/stdio.c	continue;
001158   d058     bra     0x120a           	BRA	_00453_DS_
                                           _00442_DS_:
                                           ;	.line	412; /home/regis/Hobbies/Electronique/Projets/Pinguino/svn/branches/x.4/p8/include/pinguino/core/stdio.c	if (*format == 'o')		// octal
00115a   5012     movf    0x12, 0, 0       	MOVF	r0x12, W
00115c   0a6f     xorlw   0x6f             	XORLW	0x6f
00115e   e120     bnz     0x11a0           	BNZ	_00444_DS_
                                           ;	.line	414; /home/regis/Hobbies/Electronique/Projets/Pinguino/svn/branches/x.4/p8/include/pinguino/core/stdio.c	pc += pprinti(out, val, 8, 0, width, pad, separator, 'a');
001160   0e61     movlw   0x61             	MOVLW	0x61
001162   6ee5     movwf   0xe5, 0          	MOVWF	POSTDEC1
001164   6ae5     clrf    0xe5, 0          	CLRF	POSTDEC1
001166   500c     movf    0xc, 0, 0        	MOVF	r0x0c, W
001168   6ee5     movwf   0xe5, 0          	MOVWF	POSTDEC1
00116a   500d     movf    0xd, 0, 0        	MOVF	r0x0d, W
00116c   6ee5     movwf   0xe5, 0          	MOVWF	POSTDEC1
00116e   6ae5     clrf    0xe5, 0          	CLRF	POSTDEC1
001170   0e08     movlw   0x8              	MOVLW	0x08
001172   6ee5     movwf   0xe5, 0          	MOVWF	POSTDEC1
001174   5011     movf    0x11, 0, 0       	MOVF	r0x11, W
001176   6ee5     movwf   0xe5, 0          	MOVWF	POSTDEC1
001178   5010     movf    0x10, 0, 0       	MOVF	r0x10, W
00117a   6ee5     movwf   0xe5, 0          	MOVWF	POSTDEC1
00117c   500f     movf    0xf, 0, 0        	MOVF	r0x0f, W
00117e   6ee5     movwf   0xe5, 0          	MOVWF	POSTDEC1
001180   500e     movf    0xe, 0, 0        	MOVF	r0x0e, W
001182   6ee5     movwf   0xe5, 0          	MOVWF	POSTDEC1
001184   5002     movf    0x2, 0, 0        	MOVF	r0x02, W
001186   6ee5     movwf   0xe5, 0          	MOVWF	POSTDEC1
001188   5001     movf    0x1, 0, 0        	MOVF	r0x01, W
00118a   6ee5     movwf   0xe5, 0          	MOVWF	POSTDEC1
00118c   5000     movf    0, 0, 0          	MOVF	r0x00, W
00118e   6ee5     movwf   0xe5, 0          	MOVWF	POSTDEC1
001190   ec60     call    0x1ec0, 0        	CALL	_pprinti
001192   f00f
001194   6e13     movwf   0x13, 0          	MOVWF	r0x13
001196   0e0d     movlw   0xd              	MOVLW	0x0d
001198   26e1     addwf   0xe1, 0x1, 0     	ADDWF	FSR1L, F
00119a   5013     movf    0x13, 0, 0       	MOVF	r0x13, W
00119c   2609     addwf   0x9, 0x1, 0      	ADDWF	r0x09, F
                                           ;	.line	415; /home/regis/Hobbies/Electronique/Projets/Pinguino/svn/branches/x.4/p8/include/pinguino/core/stdio.c	continue;
00119e   d035     bra     0x120a           	BRA	_00453_DS_
                                           _00444_DS_:
                                           ;	.line	418; /home/regis/Hobbies/Electronique/Projets/Pinguino/svn/branches/x.4/p8/include/pinguino/core/stdio.c	if (*format == 'c') 	// ascii
0011a0   5012     movf    0x12, 0, 0       	MOVF	r0x12, W
0011a2   0a63     xorlw   0x63             	XORLW	0x63
0011a4   e132     bnz     0x120a           	BNZ	_00453_DS_
                                           ;	.line	420; /home/regis/Hobbies/Electronique/Projets/Pinguino/svn/branches/x.4/p8/include/pinguino/core/stdio.c	scr[0] = val;
0011a6   500e     movf    0xe, 0, 0        	MOVF	r0x0e, W
0011a8   010e     movlb   0xe              	BANKSEL	_pprint_scr_1_52
0011aa   6f51     movwf   0x51, 0x1        	MOVWF	_pprint_scr_1_52, B
                                           ; removed redundant BANKSEL
                                           ;	.line	421; /home/regis/Hobbies/Electronique/Projets/Pinguino/svn/branches/x.4/p8/include/pinguino/core/stdio.c	scr[1] = '\0';
0011ac   6b52     clrf    0x52, 0x1        	CLRF	(_pprint_scr_1_52 + 1), B
                                           ;	.line	422; /home/regis/Hobbies/Electronique/Projets/Pinguino/svn/branches/x.4/p8/include/pinguino/core/stdio.c	pc += pprints(out, scr, width, pad);
0011ae   500c     movf    0xc, 0, 0        	MOVF	r0x0c, W
0011b0   6ee5     movwf   0xe5, 0          	MOVWF	POSTDEC1
0011b2   500d     movf    0xd, 0, 0        	MOVF	r0x0d, W
0011b4   6ee5     movwf   0xe5, 0          	MOVWF	POSTDEC1
0011b6   0e80     movlw   0x80             	MOVLW	0x80
0011b8   6ee5     movwf   0xe5, 0          	MOVWF	POSTDEC1
0011ba   0e0e     movlw   0xe              	MOVLW	HIGH(_pprint_scr_1_52)
0011bc   6ee5     movwf   0xe5, 0          	MOVWF	POSTDEC1
0011be   0e51     movlw   0x51             	MOVLW	LOW(_pprint_scr_1_52)
0011c0   6ee5     movwf   0xe5, 0          	MOVWF	POSTDEC1
0011c2   5002     movf    0x2, 0, 0        	MOVF	r0x02, W
0011c4   6ee5     movwf   0xe5, 0          	MOVWF	POSTDEC1
0011c6   5001     movf    0x1, 0, 0        	MOVF	r0x01, W
0011c8   6ee5     movwf   0xe5, 0          	MOVWF	POSTDEC1
0011ca   5000     movf    0, 0, 0          	MOVF	r0x00, W
0011cc   6ee5     movwf   0xe5, 0          	MOVWF	POSTDEC1
0011ce   ecf7     call    0x2dee, 0        	CALL	_pprints
0011d0   f016
0011d2   6e0c     movwf   0xc, 0           	MOVWF	r0x0c
0011d4   0e08     movlw   0x8              	MOVLW	0x08
0011d6   26e1     addwf   0xe1, 0x1, 0     	ADDWF	FSR1L, F
0011d8   5009     movf    0x9, 0, 0        	MOVF	r0x09, W
0011da   6e0d     movwf   0xd, 0           	MOVWF	r0x0d
0011dc   500c     movf    0xc, 0, 0        	MOVF	r0x0c, W
0011de   240d     addwf   0xd, 0, 0        	ADDWF	r0x0d, W
0011e0   6e09     movwf   0x9, 0           	MOVWF	r0x09
                                           ;	.line	423; /home/regis/Hobbies/Electronique/Projets/Pinguino/svn/branches/x.4/p8/include/pinguino/core/stdio.c	continue;
0011e2   d013     bra     0x120a           	BRA	_00453_DS_
                                           _00447_DS_:
                                           ;	.line	430; /home/regis/Hobbies/Electronique/Projets/Pinguino/svn/branches/x.4/p8/include/pinguino/core/stdio.c	pprintc(out, *format);
0011e4   c003     movff   0x3, 0xfe9       	MOVFF	r0x03, FSR0L
0011e6   ffe9
0011e8   c004     movff   0x4, 0xff3       	MOVFF	r0x04, PRODL
0011ea   fff3
0011ec   5005     movf    0x5, 0, 0        	MOVF	r0x05, W
0011ee   ecdd     call    0x4bba, 0        	CALL	__gptrget1
0011f0   f025
                                           ; #	MOVWF	r0x0c
                                           ; #	MOVF	r0x0c, W
0011f2   6ee5     movwf   0xe5, 0          	MOVWF	POSTDEC1
0011f4   5002     movf    0x2, 0, 0        	MOVF	r0x02, W
0011f6   6ee5     movwf   0xe5, 0          	MOVWF	POSTDEC1
0011f8   5001     movf    0x1, 0, 0        	MOVF	r0x01, W
0011fa   6ee5     movwf   0xe5, 0          	MOVWF	POSTDEC1
0011fc   5000     movf    0, 0, 0          	MOVF	r0x00, W
0011fe   6ee5     movwf   0xe5, 0          	MOVWF	POSTDEC1
001200   ec38     call    0x3870, 0        	CALL	_pprintc
001202   f01c
001204   0e04     movlw   0x4              	MOVLW	0x04
001206   26e1     addwf   0xe1, 0x1, 0     	ADDWF	FSR1L, F
                                           ;	.line	431; /home/regis/Hobbies/Electronique/Projets/Pinguino/svn/branches/x.4/p8/include/pinguino/core/stdio.c	++pc;
001208   2a09     incf    0x9, 0x1, 0      	INCF	r0x09, F
                                           _00453_DS_:
                                           ;	.line	308; /home/regis/Hobbies/Electronique/Projets/Pinguino/svn/branches/x.4/p8/include/pinguino/core/stdio.c	for (; *format != 0; ++format)
00120a   2a03     incf    0x3, 0x1, 0      	INCF	r0x03, F
00120c   e302     bnc     0x1212           	BNC	_00576_DS_
00120e   4a04     infsnz  0x4, 0x1, 0      	INFSNZ	r0x04, F
001210   2a05     incf    0x5, 0x1, 0      	INCF	r0x05, F
                                           _00576_DS_:
001212   ef5d     goto    0xcba            	GOTO	_00451_DS_
001214   f006
                                           _00454_DS_:
                                           ;	.line	434; /home/regis/Hobbies/Electronique/Projets/Pinguino/svn/branches/x.4/p8/include/pinguino/core/stdio.c	if (out) **out = '\0';
001216   5000     movf    0, 0, 0          	MOVF	r0x00, W
001218   1001     iorwf   0x1, 0, 0        	IORWF	r0x01, W
00121a   1002     iorwf   0x2, 0, 0        	IORWF	r0x02, W
00121c   e014     bz      0x1246           	BZ	_00456_DS_
00121e   c000     movff   0, 0xfe9         	MOVFF	r0x00, FSR0L
001220   ffe9
001222   c001     movff   0x1, 0xff3       	MOVFF	r0x01, PRODL
001224   fff3
001226   5002     movf    0x2, 0, 0        	MOVF	r0x02, W
001228   ecac     call    0x4b58, 0        	CALL	__gptrget3
00122a   f025
00122c   6e00     movwf   0, 0             	MOVWF	r0x00
00122e   cff3     movff   0xff3, 0x1       	MOVFF	PRODL, r0x01
001230   f001
001232   cff4     movff   0xff4, 0x2       	MOVFF	PRODH, r0x02
001234   f002
001236   6ae5     clrf    0xe5, 0          	CLRF	POSTDEC1
001238   c000     movff   0, 0xfe9         	MOVFF	r0x00, FSR0L
00123a   ffe9
00123c   c001     movff   0x1, 0xff3       	MOVFF	r0x01, PRODL
00123e   fff3
001240   5002     movf    0x2, 0, 0        	MOVF	r0x02, W
001242   ec49     call    0x4c92, 0        	CALL	__gptrput1
001244   f026
                                           _00456_DS_:
                                           ;	.line	435; /home/regis/Hobbies/Electronique/Projets/Pinguino/svn/branches/x.4/p8/include/pinguino/core/stdio.c	return pc;
001246   5009     movf    0x9, 0, 0        	MOVF	r0x09, W
001248   cfe4     movff   0xfe4, 0x15      	MOVFF	PREINC1, r0x15
00124a   f015
00124c   cfe4     movff   0xfe4, 0x14      	MOVFF	PREINC1, r0x14
00124e   f014
001250   cfe4     movff   0xfe4, 0x13      	MOVFF	PREINC1, r0x13
001252   f013
001254   cfe4     movff   0xfe4, 0x12      	MOVFF	PREINC1, r0x12
001256   f012
001258   cfe4     movff   0xfe4, 0x11      	MOVFF	PREINC1, r0x11
00125a   f011
00125c   cfe4     movff   0xfe4, 0x10      	MOVFF	PREINC1, r0x10
00125e   f010
001260   cfe4     movff   0xfe4, 0xf       	MOVFF	PREINC1, r0x0f
001262   f00f
001264   cfe4     movff   0xfe4, 0xe       	MOVFF	PREINC1, r0x0e
001266   f00e
001268   cfe4     movff   0xfe4, 0xd       	MOVFF	PREINC1, r0x0d
00126a   f00d
00126c   cfe4     movff   0xfe4, 0xc       	MOVFF	PREINC1, r0x0c
00126e   f00c
001270   cfe4     movff   0xfe4, 0xb       	MOVFF	PREINC1, r0x0b
001272   f00b
001274   cfe4     movff   0xfe4, 0xa       	MOVFF	PREINC1, r0x0a
001276   f00a
001278   cfe4     movff   0xfe4, 0x9       	MOVFF	PREINC1, r0x09
00127a   f009
00127c   cfe4     movff   0xfe4, 0x8       	MOVFF	PREINC1, r0x08
00127e   f008
001280   cfe4     movff   0xfe4, 0x7       	MOVFF	PREINC1, r0x07
001282   f007
001284   cfe4     movff   0xfe4, 0x6       	MOVFF	PREINC1, r0x06
001286   f006
001288   cfe4     movff   0xfe4, 0x5       	MOVFF	PREINC1, r0x05
00128a   f005
00128c   cfe4     movff   0xfe4, 0x4       	MOVFF	PREINC1, r0x04
00128e   f004
001290   cfe4     movff   0xfe4, 0x3       	MOVFF	PREINC1, r0x03
001292   f003
001294   cfe4     movff   0xfe4, 0x2       	MOVFF	PREINC1, r0x02
001296   f002
001298   cfe4     movff   0xfe4, 0x1       	MOVFF	PREINC1, r0x01
00129a   f001
00129c   cfe4     movff   0xfe4, 0         	MOVFF	PREINC1, r0x00
00129e   f000
0012a0   cfe4     movff   0xfe4, 0xfd9     	MOVFF	PREINC1, FSR2L
0012a2   ffd9
0012a4   0012     return  0                	RETURN	
                                           
                                           ; ; Starting pCode block
                                           S_main__pprintfl	code
                                           _pprintfl:
                                           ;	.line	167; /home/regis/Hobbies/Electronique/Projets/Pinguino/svn/branches/x.4/p8/include/pinguino/core/stdio.c	static u8 pprintfl(u8 **out, float value, u8 width, u8 pad, u8 separator, u8 precision)
001916   cfd9     movff   0xfd9, 0xfe5     	MOVFF	FSR2L, POSTDEC1
001918   ffe5
00191a   cfe1     movff   0xfe1, 0xfd9     	MOVFF	FSR1L, FSR2L
00191c   ffd9
00191e   c000     movff   0, 0xfe5         	MOVFF	r0x00, POSTDEC1
001920   ffe5
001922   c001     movff   0x1, 0xfe5       	MOVFF	r0x01, POSTDEC1
001924   ffe5
001926   c002     movff   0x2, 0xfe5       	MOVFF	r0x02, POSTDEC1
001928   ffe5
00192a   c003     movff   0x3, 0xfe5       	MOVFF	r0x03, POSTDEC1
00192c   ffe5
00192e   c004     movff   0x4, 0xfe5       	MOVFF	r0x04, POSTDEC1
001930   ffe5
001932   c005     movff   0x5, 0xfe5       	MOVFF	r0x05, POSTDEC1
001934   ffe5
001936   c006     movff   0x6, 0xfe5       	MOVFF	r0x06, POSTDEC1
001938   ffe5
00193a   c007     movff   0x7, 0xfe5       	MOVFF	r0x07, POSTDEC1
00193c   ffe5
00193e   c008     movff   0x8, 0xfe5       	MOVFF	r0x08, POSTDEC1
001940   ffe5
001942   c009     movff   0x9, 0xfe5       	MOVFF	r0x09, POSTDEC1
001944   ffe5
001946   c00a     movff   0xa, 0xfe5       	MOVFF	r0x0a, POSTDEC1
001948   ffe5
00194a   c00b     movff   0xb, 0xfe5       	MOVFF	r0x0b, POSTDEC1
00194c   ffe5
00194e   c00c     movff   0xc, 0xfe5       	MOVFF	r0x0c, POSTDEC1
001950   ffe5
001952   c00d     movff   0xd, 0xfe5       	MOVFF	r0x0d, POSTDEC1
001954   ffe5
001956   c00e     movff   0xe, 0xfe5       	MOVFF	r0x0e, POSTDEC1
001958   ffe5
00195a   c00f     movff   0xf, 0xfe5       	MOVFF	r0x0f, POSTDEC1
00195c   ffe5
00195e   c010     movff   0x10, 0xfe5      	MOVFF	r0x10, POSTDEC1
001960   ffe5
001962   c011     movff   0x11, 0xfe5      	MOVFF	r0x11, POSTDEC1
001964   ffe5
001966   c012     movff   0x12, 0xfe5      	MOVFF	r0x12, POSTDEC1
001968   ffe5
00196a   c013     movff   0x13, 0xfe5      	MOVFF	r0x13, POSTDEC1
00196c   ffe5
00196e   c014     movff   0x14, 0xfe5      	MOVFF	r0x14, POSTDEC1
001970   ffe5
001972   c015     movff   0x15, 0xfe5      	MOVFF	r0x15, POSTDEC1
001974   ffe5
001976   c016     movff   0x16, 0xfe5      	MOVFF	r0x16, POSTDEC1
001978   ffe5
00197a   c017     movff   0x17, 0xfe5      	MOVFF	r0x17, POSTDEC1
00197c   ffe5
00197e   c018     movff   0x18, 0xfe5      	MOVFF	r0x18, POSTDEC1
001980   ffe5
001982   c019     movff   0x19, 0xfe5      	MOVFF	r0x19, POSTDEC1
001984   ffe5
001986   c01a     movff   0x1a, 0xfe5      	MOVFF	r0x1a, POSTDEC1
001988   ffe5
00198a   c01b     movff   0x1b, 0xfe5      	MOVFF	r0x1b, POSTDEC1
00198c   ffe5
00198e   c01c     movff   0x1c, 0xfe5      	MOVFF	r0x1c, POSTDEC1
001990   ffe5
001992   c01d     movff   0x1d, 0xfe5      	MOVFF	r0x1d, POSTDEC1
001994   ffe5
001996   c01e     movff   0x1e, 0xfe5      	MOVFF	r0x1e, POSTDEC1
001998   ffe5
00199a   c01f     movff   0x1f, 0xfe5      	MOVFF	r0x1f, POSTDEC1
00199c   ffe5
00199e   c020     movff   0x20, 0xfe5      	MOVFF	r0x20, POSTDEC1
0019a0   ffe5
0019a2   0e02     movlw   0x2              	MOVLW	0x02
0019a4   cfdb     movff   0xfdb, 0         	MOVFF	PLUSW2, r0x00
0019a6   f000
0019a8   0e03     movlw   0x3              	MOVLW	0x03
0019aa   cfdb     movff   0xfdb, 0x1       	MOVFF	PLUSW2, r0x01
0019ac   f001
0019ae   0e04     movlw   0x4              	MOVLW	0x04
0019b0   cfdb     movff   0xfdb, 0x2       	MOVFF	PLUSW2, r0x02
0019b2   f002
0019b4   0e05     movlw   0x5              	MOVLW	0x05
0019b6   cfdb     movff   0xfdb, 0x3       	MOVFF	PLUSW2, r0x03
0019b8   f003
0019ba   0e06     movlw   0x6              	MOVLW	0x06
0019bc   cfdb     movff   0xfdb, 0x4       	MOVFF	PLUSW2, r0x04
0019be   f004
0019c0   0e07     movlw   0x7              	MOVLW	0x07
0019c2   cfdb     movff   0xfdb, 0x5       	MOVFF	PLUSW2, r0x05
0019c4   f005
0019c6   0e08     movlw   0x8              	MOVLW	0x08
0019c8   cfdb     movff   0xfdb, 0x6       	MOVFF	PLUSW2, r0x06
0019ca   f006
0019cc   0e09     movlw   0x9              	MOVLW	0x09
0019ce   cfdb     movff   0xfdb, 0x7       	MOVFF	PLUSW2, r0x07
0019d0   f007
0019d2   0e0a     movlw   0xa              	MOVLW	0x0a
0019d4   cfdb     movff   0xfdb, 0x8       	MOVFF	PLUSW2, r0x08
0019d6   f008
0019d8   0e0c     movlw   0xc              	MOVLW	0x0c
0019da   cfdb     movff   0xfdb, 0x9       	MOVFF	PLUSW2, r0x09
0019dc   f009
                                           ;	.line	176; /home/regis/Hobbies/Electronique/Projets/Pinguino/svn/branches/x.4/p8/include/pinguino/core/stdio.c	u32 int_part  = 0;
0019de   6a0a     clrf    0xa, 0           	CLRF	r0x0a
0019e0   6a0b     clrf    0xb, 0           	CLRF	r0x0b
0019e2   6a0c     clrf    0xc, 0           	CLRF	r0x0c
0019e4   6a0d     clrf    0xd, 0           	CLRF	r0x0d
                                           ;	.line	177; /home/regis/Hobbies/Electronique/Projets/Pinguino/svn/branches/x.4/p8/include/pinguino/core/stdio.c	u32 frac_part = 0;
0019e6   6a0e     clrf    0xe, 0           	CLRF	r0x0e
0019e8   6a0f     clrf    0xf, 0           	CLRF	r0x0f
0019ea   6a10     clrf    0x10, 0          	CLRF	r0x10
0019ec   6a11     clrf    0x11, 0          	CLRF	r0x11
                                           ;	.line	179; /home/regis/Hobbies/Electronique/Projets/Pinguino/svn/branches/x.4/p8/include/pinguino/core/stdio.c	u8 buffer[PRINT_BUF_LEN], *string = buffer;
0019ee   0e0e     movlw   0xe              	MOVLW	HIGH(_pprintfl_buffer_1_38)
0019f0   6e13     movwf   0x13, 0          	MOVWF	r0x13
0019f2   0e29     movlw   0x29             	MOVLW	LOW(_pprintfl_buffer_1_38)
0019f4   6e12     movwf   0x12, 0          	MOVWF	r0x12
0019f6   0e80     movlw   0x80             	MOVLW	0x80
0019f8   6e14     movwf   0x14, 0          	MOVWF	r0x14
                                           ;	.line	180; /home/regis/Hobbies/Electronique/Projets/Pinguino/svn/branches/x.4/p8/include/pinguino/core/stdio.c	u8 tmp[PRINT_BUF_LEN], *s = tmp;
0019fa   0e0e     movlw   0xe              	MOVLW	HIGH(_pprintfl_tmp_1_38)
0019fc   6e16     movwf   0x16, 0          	MOVWF	r0x16
0019fe   0e35     movlw   0x35             	MOVLW	LOW(_pprintfl_tmp_1_38)
001a00   6e15     movwf   0x15, 0          	MOVWF	r0x15
001a02   0e80     movlw   0x80             	MOVLW	0x80
001a04   6e17     movwf   0x17, 0          	MOVWF	r0x17
                                           ;	.line	181; /home/regis/Hobbies/Electronique/Projets/Pinguino/svn/branches/x.4/p8/include/pinguino/core/stdio.c	u8 count = 0, m, t;
001a06   6a18     clrf    0x18, 0          	CLRF	r0x18
                                           ;	.line	182; /home/regis/Hobbies/Electronique/Projets/Pinguino/svn/branches/x.4/p8/include/pinguino/core/stdio.c	u8 length = PRINT_BUF_LEN - 1;
001a08   0e0b     movlw   0xb              	MOVLW	0x0b
001a0a   6e19     movwf   0x19, 0          	MOVWF	r0x19
                                           ;	.line	184; /home/regis/Hobbies/Electronique/Projets/Pinguino/svn/branches/x.4/p8/include/pinguino/core/stdio.c	helper.f = value;
001a0c   5003     movf    0x3, 0, 0        	MOVF	r0x03, W
001a0e   010e     movlb   0xe              	BANKSEL	_pprintfl_helper_1_38
001a10   6f47     movwf   0x47, 0x1        	MOVWF	_pprintfl_helper_1_38, B
001a12   5004     movf    0x4, 0, 0        	MOVF	r0x04, W
                                           ; removed redundant BANKSEL
001a14   6f48     movwf   0x48, 0x1        	MOVWF	(_pprintfl_helper_1_38 + 1), B
001a16   5005     movf    0x5, 0, 0        	MOVF	r0x05, W
                                           ; removed redundant BANKSEL
001a18   6f49     movwf   0x49, 0x1        	MOVWF	(_pprintfl_helper_1_38 + 2), B
001a1a   5006     movf    0x6, 0, 0        	MOVF	r0x06, W
                                           ; removed redundant BANKSEL
001a1c   6f4a     movwf   0x4a, 0x1        	MOVWF	(_pprintfl_helper_1_38 + 3), B
                                           ;	.line	187; /home/regis/Hobbies/Electronique/Projets/Pinguino/svn/branches/x.4/p8/include/pinguino/core/stdio.c	if (helper.l < 0)
001a1e   80d8     bsf     0xd8, 0, 0       	BSF	STATUS, 0
                                           ; removed redundant BANKSEL
001a20   af4a     btfss   0x4a, 0x7, 0x1   	BTFSS	(_pprintfl_helper_1_38 + 3), 7, B
001a22   90d8     bcf     0xd8, 0, 0       	BCF	STATUS, 0
001a24   e323     bnc     0x1a6c           	BNC	_00303_DS_
                                           ;	.line	189; /home/regis/Hobbies/Electronique/Projets/Pinguino/svn/branches/x.4/p8/include/pinguino/core/stdio.c	if (width && (pad & PAD_ZERO))
001a26   5007     movf    0x7, 0, 0        	MOVF	r0x07, W
001a28   e012     bz      0x1a4e           	BZ	_00299_DS_
001a2a   a208     btfss   0x8, 0x1, 0      	BTFSS	r0x08, 1
001a2c   d010     bra     0x1a4e           	BRA	_00299_DS_
                                           ;	.line	191; /home/regis/Hobbies/Electronique/Projets/Pinguino/svn/branches/x.4/p8/include/pinguino/core/stdio.c	pprintc(out, '-');
001a2e   0e2d     movlw   0x2d             	MOVLW	0x2d
001a30   6ee5     movwf   0xe5, 0          	MOVWF	POSTDEC1
001a32   5002     movf    0x2, 0, 0        	MOVF	r0x02, W
001a34   6ee5     movwf   0xe5, 0          	MOVWF	POSTDEC1
001a36   5001     movf    0x1, 0, 0        	MOVF	r0x01, W
001a38   6ee5     movwf   0xe5, 0          	MOVWF	POSTDEC1
001a3a   5000     movf    0, 0, 0          	MOVF	r0x00, W
001a3c   6ee5     movwf   0xe5, 0          	MOVWF	POSTDEC1
001a3e   ec38     call    0x3870, 0        	CALL	_pprintc
001a40   f01c
001a42   0e04     movlw   0x4              	MOVLW	0x04
001a44   26e1     addwf   0xe1, 0x1, 0     	ADDWF	FSR1L, F
                                           ;	.line	192; /home/regis/Hobbies/Electronique/Projets/Pinguino/svn/branches/x.4/p8/include/pinguino/core/stdio.c	++count;
001a46   0e01     movlw   0x1              	MOVLW	0x01
001a48   6e18     movwf   0x18, 0          	MOVWF	r0x18
                                           ;	.line	193; /home/regis/Hobbies/Electronique/Projets/Pinguino/svn/branches/x.4/p8/include/pinguino/core/stdio.c	--width;
001a4a   0607     decf    0x7, 0x1, 0      	DECF	r0x07, F
001a4c   d00f     bra     0x1a6c           	BRA	_00303_DS_
                                           _00299_DS_:
                                           ;	.line	197; /home/regis/Hobbies/Electronique/Projets/Pinguino/svn/branches/x.4/p8/include/pinguino/core/stdio.c	*string++ = '-';
001a4e   0e2d     movlw   0x2d             	MOVLW	0x2d
001a50   6ee5     movwf   0xe5, 0          	MOVWF	POSTDEC1
001a52   c012     movff   0x12, 0xfe9      	MOVFF	r0x12, FSR0L
001a54   ffe9
001a56   c013     movff   0x13, 0xff3      	MOVFF	r0x13, PRODL
001a58   fff3
001a5a   5014     movf    0x14, 0, 0       	MOVF	r0x14, W
001a5c   ec49     call    0x4c92, 0        	CALL	__gptrput1
001a5e   f026
001a60   2a12     incf    0x12, 0x1, 0     	INCF	r0x12, F
001a62   e302     bnc     0x1a68           	BNC	_00371_DS_
001a64   4a13     infsnz  0x13, 0x1, 0     	INFSNZ	r0x13, F
001a66   2a14     incf    0x14, 0x1, 0     	INCF	r0x14, F
                                           _00371_DS_:
                                           ;	.line	198; /home/regis/Hobbies/Electronique/Projets/Pinguino/svn/branches/x.4/p8/include/pinguino/core/stdio.c	length--;
001a68   0e0a     movlw   0xa              	MOVLW	0x0a
001a6a   6e19     movwf   0x19, 0          	MOVWF	r0x19
                                           _00303_DS_:
001a6c   010e     movlb   0xe              	BANKSEL	(_pprintfl_helper_1_38 + 2)
                                           ;	.line	204; /home/regis/Hobbies/Electronique/Projets/Pinguino/svn/branches/x.4/p8/include/pinguino/core/stdio.c	exponent = ((helper.l >> 23) & 0xFF) - 127;	
001a6e   3549     rlcf    0x49, 0, 0x1     	RLCF	(_pprintfl_helper_1_38 + 2), W, B
                                           ; removed redundant BANKSEL
001a70   354a     rlcf    0x4a, 0, 0x1     	RLCF	(_pprintfl_helper_1_38 + 3), W, B
001a72   6e03     movwf   0x3, 0           	MOVWF	r0x03
001a74   6a04     clrf    0x4, 0           	CLRF	r0x04
001a76   0e81     movlw   0x81             	MOVLW	0x81
001a78   2603     addwf   0x3, 0x1, 0      	ADDWF	r0x03, F
                                           ; removed redundant BANKSEL
                                           ;	.line	207; /home/regis/Hobbies/Electronique/Projets/Pinguino/svn/branches/x.4/p8/include/pinguino/core/stdio.c	mantissa = (helper.l & 0x7FFFFF) | 0x800000;
001a7a   5147     movf    0x47, 0, 0x1     	MOVF	_pprintfl_helper_1_38, W, B
001a7c   6e04     movwf   0x4, 0           	MOVWF	r0x04
                                           ; removed redundant BANKSEL
001a7e   5148     movf    0x48, 0, 0x1     	MOVF	(_pprintfl_helper_1_38 + 1), W, B
001a80   6e05     movwf   0x5, 0           	MOVWF	r0x05
001a82   0e7f     movlw   0x7f             	MOVLW	0x7f
                                           ; removed redundant BANKSEL
001a84   1549     andwf   0x49, 0, 0x1     	ANDWF	(_pprintfl_helper_1_38 + 2), W, B
001a86   6e06     movwf   0x6, 0           	MOVWF	r0x06
001a88   6a1a     clrf    0x1a, 0          	CLRF	r0x1a
001a8a   8e06     bsf     0x6, 0x7, 0      	BSF	r0x06, 7
                                           ;	.line	209; /home/regis/Hobbies/Electronique/Projets/Pinguino/svn/branches/x.4/p8/include/pinguino/core/stdio.c	if ( (exponent >= 31) || (exponent < -23) )
001a8c   5003     movf    0x3, 0, 0        	MOVF	r0x03, W
001a8e   0f80     addlw   0x80             	ADDLW	0x80
001a90   0f61     addlw   0x61             	ADDLW	0x61
001a92   e204     bc      0x1a9c           	BC	_00310_DS_
001a94   5003     movf    0x3, 0, 0        	MOVF	r0x03, W
001a96   0f80     addlw   0x80             	ADDLW	0x80
001a98   0f97     addlw   0x97             	ADDLW	0x97
001a9a   e21f     bc      0x1ada           	BC	_00311_DS_
                                           _00310_DS_:
                                           ;	.line	211; /home/regis/Hobbies/Electronique/Projets/Pinguino/svn/branches/x.4/p8/include/pinguino/core/stdio.c	buffer[0] = 'i';
001a9c   0e69     movlw   0x69             	MOVLW	0x69
001a9e   010e     movlb   0xe              	BANKSEL	_pprintfl_buffer_1_38
001aa0   6f29     movwf   0x29, 0x1        	MOVWF	_pprintfl_buffer_1_38, B
                                           ;	.line	212; /home/regis/Hobbies/Electronique/Projets/Pinguino/svn/branches/x.4/p8/include/pinguino/core/stdio.c	buffer[1] = 'n';
001aa2   0e6e     movlw   0x6e             	MOVLW	0x6e
                                           ; removed redundant BANKSEL
001aa4   6f2a     movwf   0x2a, 0x1        	MOVWF	(_pprintfl_buffer_1_38 + 1), B
                                           ;	.line	213; /home/regis/Hobbies/Electronique/Projets/Pinguino/svn/branches/x.4/p8/include/pinguino/core/stdio.c	buffer[2] = 'f';
001aa6   0e66     movlw   0x66             	MOVLW	0x66
                                           ; removed redundant BANKSEL
001aa8   6f2b     movwf   0x2b, 0x1        	MOVWF	(_pprintfl_buffer_1_38 + 2), B
                                           ; removed redundant BANKSEL
                                           ;	.line	214; /home/regis/Hobbies/Electronique/Projets/Pinguino/svn/branches/x.4/p8/include/pinguino/core/stdio.c	buffer[3] = '\0';
001aaa   6b2c     clrf    0x2c, 0x1        	CLRF	(_pprintfl_buffer_1_38 + 3), B
                                           ;	.line	215; /home/regis/Hobbies/Electronique/Projets/Pinguino/svn/branches/x.4/p8/include/pinguino/core/stdio.c	return pprints(out, buffer, width, pad);
001aac   5008     movf    0x8, 0, 0        	MOVF	r0x08, W
001aae   6ee5     movwf   0xe5, 0          	MOVWF	POSTDEC1
001ab0   5007     movf    0x7, 0, 0        	MOVF	r0x07, W
001ab2   6ee5     movwf   0xe5, 0          	MOVWF	POSTDEC1
001ab4   0e80     movlw   0x80             	MOVLW	0x80
001ab6   6ee5     movwf   0xe5, 0          	MOVWF	POSTDEC1
001ab8   0e0e     movlw   0xe              	MOVLW	HIGH(_pprintfl_buffer_1_38)
001aba   6ee5     movwf   0xe5, 0          	MOVWF	POSTDEC1
001abc   0e29     movlw   0x29             	MOVLW	LOW(_pprintfl_buffer_1_38)
001abe   6ee5     movwf   0xe5, 0          	MOVWF	POSTDEC1
001ac0   5002     movf    0x2, 0, 0        	MOVF	r0x02, W
001ac2   6ee5     movwf   0xe5, 0          	MOVWF	POSTDEC1
001ac4   5001     movf    0x1, 0, 0        	MOVF	r0x01, W
001ac6   6ee5     movwf   0xe5, 0          	MOVWF	POSTDEC1
001ac8   5000     movf    0, 0, 0          	MOVF	r0x00, W
001aca   6ee5     movwf   0xe5, 0          	MOVWF	POSTDEC1
001acc   ecf7     call    0x2dee, 0        	CALL	_pprints
001ace   f016
001ad0   6e1b     movwf   0x1b, 0          	MOVWF	r0x1b
001ad2   0e08     movlw   0x8              	MOVLW	0x08
001ad4   26e1     addwf   0xe1, 0x1, 0     	ADDWF	FSR1L, F
001ad6   501b     movf    0x1b, 0, 0       	MOVF	r0x1b, W
001ad8   d1ae     bra     0x1e36           	BRA	_00333_DS_
                                           _00311_DS_:
                                           ;	.line	217; /home/regis/Hobbies/Electronique/Projets/Pinguino/svn/branches/x.4/p8/include/pinguino/core/stdio.c	else if (exponent >= 23)
001ada   5003     movf    0x3, 0, 0        	MOVF	r0x03, W
001adc   0f80     addlw   0x80             	ADDLW	0x80
001ade   0f69     addlw   0x69             	ADDLW	0x69
001ae0   e325     bnc     0x1b2c           	BNC	_00308_DS_
                                           ;	.line	219; /home/regis/Hobbies/Electronique/Projets/Pinguino/svn/branches/x.4/p8/include/pinguino/core/stdio.c	int_part = mantissa << (exponent - 23);
001ae2   c003     movff   0x3, 0x1b        	MOVFF	r0x03, r0x1b
001ae4   f01b
001ae6   6a1c     clrf    0x1c, 0          	CLRF	r0x1c
001ae8   be03     btfsc   0x3, 0x7, 0      	BTFSC	r0x03, 7
001aea   681c     setf    0x1c, 0          	SETF	r0x1c
001aec   0ee9     movlw   0xe9             	MOVLW	0xe9
001aee   261b     addwf   0x1b, 0x1, 0     	ADDWF	r0x1b, F
001af0   a0d8     btfss   0xd8, 0, 0       	BTFSS	STATUS, 0
001af2   061c     decf    0x1c, 0x1, 0     	DECF	r0x1c, F
001af4   c004     movff   0x4, 0xa         	MOVFF	r0x04, r0x0a
001af6   f00a
001af8   c005     movff   0x5, 0xb         	MOVFF	r0x05, r0x0b
001afa   f00b
001afc   c006     movff   0x6, 0xc         	MOVFF	r0x06, r0x0c
001afe   f00c
001b00   c01a     movff   0x1a, 0xd        	MOVFF	r0x1a, r0x0d
001b02   f00d
001b04   501b     movf    0x1b, 0, 0       	MOVF	r0x1b, W
001b06   e011     bz      0x1b2a           	BZ	_00378_DS_
001b08   e609     bn      0x1b1c           	BN	_00381_DS_
001b0a   6ce8     negf    0xe8, 0          	NEGF	WREG
001b0c   90d8     bcf     0xd8, 0, 0       	BCF	STATUS, 0
                                           _00379_DS_:
001b0e   360a     rlcf    0xa, 0x1, 0      	RLCF	r0x0a, F
001b10   360b     rlcf    0xb, 0x1, 0      	RLCF	r0x0b, F
001b12   360c     rlcf    0xc, 0x1, 0      	RLCF	r0x0c, F
001b14   360d     rlcf    0xd, 0x1, 0      	RLCF	r0x0d, F
001b16   0f01     addlw   0x1              	ADDLW	0x01
001b18   e3fa     bnc     0x1b0e           	BNC	_00379_DS_
001b1a   d07c     bra     0x1c14           	BRA	_00312_DS_
                                           _00381_DS_:
001b1c   90d8     bcf     0xd8, 0, 0       	BCF	STATUS, 0
                                           _00380_DS_:
001b1e   320d     rrcf    0xd, 0x1, 0      	RRCF	r0x0d, F
001b20   320c     rrcf    0xc, 0x1, 0      	RRCF	r0x0c, F
001b22   320b     rrcf    0xb, 0x1, 0      	RRCF	r0x0b, F
001b24   320a     rrcf    0xa, 0x1, 0      	RRCF	r0x0a, F
001b26   0f01     addlw   0x1              	ADDLW	0x01
001b28   e3fa     bnc     0x1b1e           	BNC	_00380_DS_
                                           _00378_DS_:
001b2a   d074     bra     0x1c14           	BRA	_00312_DS_
                                           _00308_DS_:
                                           ;	.line	221; /home/regis/Hobbies/Electronique/Projets/Pinguino/svn/branches/x.4/p8/include/pinguino/core/stdio.c	else if (exponent >= 0) 
001b2c   80d8     bsf     0xd8, 0, 0       	BSF	STATUS, 0
001b2e   ae03     btfss   0x3, 0x7, 0      	BTFSS	r0x03, 7
001b30   90d8     bcf     0xd8, 0, 0       	BCF	STATUS, 0
001b32   b0d8     btfsc   0xd8, 0, 0       	BTFSC	STATUS, 0
001b34   d04a     bra     0x1bca           	BRA	_00305_DS_
                                           ;	.line	223; /home/regis/Hobbies/Electronique/Projets/Pinguino/svn/branches/x.4/p8/include/pinguino/core/stdio.c	int_part = mantissa >> (23 - exponent);
001b36   c003     movff   0x3, 0x1b        	MOVFF	r0x03, r0x1b
001b38   f01b
001b3a   6a1c     clrf    0x1c, 0          	CLRF	r0x1c
001b3c   be03     btfsc   0x3, 0x7, 0      	BTFSC	r0x03, 7
001b3e   681c     setf    0x1c, 0          	SETF	r0x1c
001b40   501b     movf    0x1b, 0, 0       	MOVF	r0x1b, W
001b42   0817     sublw   0x17             	SUBLW	0x17
001b44   6e1d     movwf   0x1d, 0          	MOVWF	r0x1d
001b46   0e00     movlw   0                	MOVLW	0x00
001b48   541c     subfwb  0x1c, 0, 0       	SUBFWB	r0x1c, W
001b4a   c004     movff   0x4, 0xa         	MOVFF	r0x04, r0x0a
001b4c   f00a
001b4e   c005     movff   0x5, 0xb         	MOVFF	r0x05, r0x0b
001b50   f00b
001b52   c006     movff   0x6, 0xc         	MOVFF	r0x06, r0x0c
001b54   f00c
001b56   c01a     movff   0x1a, 0xd        	MOVFF	r0x1a, r0x0d
001b58   f00d
001b5a   501d     movf    0x1d, 0, 0       	MOVF	r0x1d, W
001b5c   e011     bz      0x1b80           	BZ	_00382_DS_
001b5e   e609     bn      0x1b72           	BN	_00385_DS_
001b60   6ce8     negf    0xe8, 0          	NEGF	WREG
001b62   90d8     bcf     0xd8, 0, 0       	BCF	STATUS, 0
                                           _00383_DS_:
001b64   320d     rrcf    0xd, 0x1, 0      	RRCF	r0x0d, F
001b66   320c     rrcf    0xc, 0x1, 0      	RRCF	r0x0c, F
001b68   320b     rrcf    0xb, 0x1, 0      	RRCF	r0x0b, F
001b6a   320a     rrcf    0xa, 0x1, 0      	RRCF	r0x0a, F
001b6c   0f01     addlw   0x1              	ADDLW	0x01
001b6e   e3fa     bnc     0x1b64           	BNC	_00383_DS_
001b70   d007     bra     0x1b80           	BRA	_00382_DS_
                                           _00385_DS_:
001b72   90d8     bcf     0xd8, 0, 0       	BCF	STATUS, 0
                                           _00384_DS_:
001b74   360a     rlcf    0xa, 0x1, 0      	RLCF	r0x0a, F
001b76   360b     rlcf    0xb, 0x1, 0      	RLCF	r0x0b, F
001b78   360c     rlcf    0xc, 0x1, 0      	RLCF	r0x0c, F
001b7a   360d     rlcf    0xd, 0x1, 0      	RLCF	r0x0d, F
001b7c   0f01     addlw   0x1              	ADDLW	0x01
001b7e   e3fa     bnc     0x1b74           	BNC	_00384_DS_
                                           _00382_DS_:
                                           ;	.line	224; /home/regis/Hobbies/Electronique/Projets/Pinguino/svn/branches/x.4/p8/include/pinguino/core/stdio.c	frac_part = (mantissa << (exponent + 1)) & 0xFFFFFF; // mfh
001b80   4a1b     infsnz  0x1b, 0x1, 0     	INFSNZ	r0x1b, F
001b82   2a1c     incf    0x1c, 0x1, 0     	INCF	r0x1c, F
001b84   c004     movff   0x4, 0x1d        	MOVFF	r0x04, r0x1d
001b86   f01d
001b88   c005     movff   0x5, 0x1e        	MOVFF	r0x05, r0x1e
001b8a   f01e
001b8c   c006     movff   0x6, 0x1f        	MOVFF	r0x06, r0x1f
001b8e   f01f
001b90   c01a     movff   0x1a, 0x20       	MOVFF	r0x1a, r0x20
001b92   f020
001b94   501b     movf    0x1b, 0, 0       	MOVF	r0x1b, W
001b96   e011     bz      0x1bba           	BZ	_00386_DS_
001b98   e609     bn      0x1bac           	BN	_00389_DS_
001b9a   6ce8     negf    0xe8, 0          	NEGF	WREG
001b9c   90d8     bcf     0xd8, 0, 0       	BCF	STATUS, 0
                                           _00387_DS_:
001b9e   361d     rlcf    0x1d, 0x1, 0     	RLCF	r0x1d, F
001ba0   361e     rlcf    0x1e, 0x1, 0     	RLCF	r0x1e, F
001ba2   361f     rlcf    0x1f, 0x1, 0     	RLCF	r0x1f, F
001ba4   3620     rlcf    0x20, 0x1, 0     	RLCF	r0x20, F
001ba6   0f01     addlw   0x1              	ADDLW	0x01
001ba8   e3fa     bnc     0x1b9e           	BNC	_00387_DS_
001baa   d007     bra     0x1bba           	BRA	_00386_DS_
                                           _00389_DS_:
001bac   90d8     bcf     0xd8, 0, 0       	BCF	STATUS, 0
                                           _00388_DS_:
001bae   3220     rrcf    0x20, 0x1, 0     	RRCF	r0x20, F
001bb0   321f     rrcf    0x1f, 0x1, 0     	RRCF	r0x1f, F
001bb2   321e     rrcf    0x1e, 0x1, 0     	RRCF	r0x1e, F
001bb4   321d     rrcf    0x1d, 0x1, 0     	RRCF	r0x1d, F
001bb6   0f01     addlw   0x1              	ADDLW	0x01
001bb8   e3fa     bnc     0x1bae           	BNC	_00388_DS_
                                           _00386_DS_:
001bba   501d     movf    0x1d, 0, 0       	MOVF	r0x1d, W
001bbc   6e0e     movwf   0xe, 0           	MOVWF	r0x0e
001bbe   501e     movf    0x1e, 0, 0       	MOVF	r0x1e, W
001bc0   6e0f     movwf   0xf, 0           	MOVWF	r0x0f
001bc2   501f     movf    0x1f, 0, 0       	MOVF	r0x1f, W
001bc4   6e10     movwf   0x10, 0          	MOVWF	r0x10
001bc6   6a11     clrf    0x11, 0          	CLRF	r0x11
001bc8   d025     bra     0x1c14           	BRA	_00312_DS_
                                           _00305_DS_:
                                           ;	.line	227; /home/regis/Hobbies/Electronique/Projets/Pinguino/svn/branches/x.4/p8/include/pinguino/core/stdio.c	frac_part = (mantissa & 0xFFFFFF) >> -(exponent + 1);
001bca   6a1a     clrf    0x1a, 0          	CLRF	r0x1a
001bcc   6a1b     clrf    0x1b, 0          	CLRF	r0x1b
001bce   be03     btfsc   0x3, 0x7, 0      	BTFSC	r0x03, 7
001bd0   681b     setf    0x1b, 0          	SETF	r0x1b
001bd2   4a03     infsnz  0x3, 0x1, 0      	INFSNZ	r0x03, F
001bd4   2a1b     incf    0x1b, 0x1, 0     	INCF	r0x1b, F
001bd6   1e1b     comf    0x1b, 0x1, 0     	COMF	r0x1b, F
001bd8   6c03     negf    0x3, 0           	NEGF	r0x03
001bda   b4d8     btfsc   0xd8, 0x2, 0     	BTFSC	STATUS, 2
001bdc   2a1b     incf    0x1b, 0x1, 0     	INCF	r0x1b, F
001bde   c004     movff   0x4, 0xe         	MOVFF	r0x04, r0x0e
001be0   f00e
001be2   c005     movff   0x5, 0xf         	MOVFF	r0x05, r0x0f
001be4   f00f
001be6   c006     movff   0x6, 0x10        	MOVFF	r0x06, r0x10
001be8   f010
001bea   c01a     movff   0x1a, 0x11       	MOVFF	r0x1a, r0x11
001bec   f011
001bee   5003     movf    0x3, 0, 0        	MOVF	r0x03, W
001bf0   e011     bz      0x1c14           	BZ	_00312_DS_
001bf2   e609     bn      0x1c06           	BN	_00396_DS_
001bf4   6ce8     negf    0xe8, 0          	NEGF	WREG
001bf6   90d8     bcf     0xd8, 0, 0       	BCF	STATUS, 0
                                           _00394_DS_:
001bf8   3211     rrcf    0x11, 0x1, 0     	RRCF	r0x11, F
001bfa   3210     rrcf    0x10, 0x1, 0     	RRCF	r0x10, F
001bfc   320f     rrcf    0xf, 0x1, 0      	RRCF	r0x0f, F
001bfe   320e     rrcf    0xe, 0x1, 0      	RRCF	r0x0e, F
001c00   0f01     addlw   0x1              	ADDLW	0x01
001c02   e3fa     bnc     0x1bf8           	BNC	_00394_DS_
001c04   d007     bra     0x1c14           	BRA	_00312_DS_
                                           _00396_DS_:
001c06   90d8     bcf     0xd8, 0, 0       	BCF	STATUS, 0
                                           _00395_DS_:
001c08   360e     rlcf    0xe, 0x1, 0      	RLCF	r0x0e, F
001c0a   360f     rlcf    0xf, 0x1, 0      	RLCF	r0x0f, F
001c0c   3610     rlcf    0x10, 0x1, 0     	RLCF	r0x10, F
001c0e   3611     rlcf    0x11, 0x1, 0     	RLCF	r0x11, F
001c10   0f01     addlw   0x1              	ADDLW	0x01
001c12   e3fa     bnc     0x1c08           	BNC	_00395_DS_
                                           _00312_DS_:
                                           ;	.line	230; /home/regis/Hobbies/Electronique/Projets/Pinguino/svn/branches/x.4/p8/include/pinguino/core/stdio.c	if (int_part == 0)
001c14   500a     movf    0xa, 0, 0        	MOVF	r0x0a, W
001c16   100b     iorwf   0xb, 0, 0        	IORWF	r0x0b, W
001c18   100c     iorwf   0xc, 0, 0        	IORWF	r0x0c, W
001c1a   100d     iorwf   0xd, 0, 0        	IORWF	r0x0d, W
001c1c   e10f     bnz     0x1c3c           	BNZ	_00343_DS_
                                           ;	.line	232; /home/regis/Hobbies/Electronique/Projets/Pinguino/svn/branches/x.4/p8/include/pinguino/core/stdio.c	*string++ = '0';
001c1e   0e30     movlw   0x30             	MOVLW	0x30
001c20   6ee5     movwf   0xe5, 0          	MOVWF	POSTDEC1
001c22   c012     movff   0x12, 0xfe9      	MOVFF	r0x12, FSR0L
001c24   ffe9
001c26   c013     movff   0x13, 0xff3      	MOVFF	r0x13, PRODL
001c28   fff3
001c2a   5014     movf    0x14, 0, 0       	MOVF	r0x14, W
001c2c   ec49     call    0x4c92, 0        	CALL	__gptrput1
001c2e   f026
001c30   2a12     incf    0x12, 0x1, 0     	INCF	r0x12, F
001c32   e302     bnc     0x1c38           	BNC	_00397_DS_
001c34   4a13     infsnz  0x13, 0x1, 0     	INFSNZ	r0x13, F
001c36   2a14     incf    0x14, 0x1, 0     	INCF	r0x14, F
                                           _00397_DS_:
                                           ;	.line	233; /home/regis/Hobbies/Electronique/Projets/Pinguino/svn/branches/x.4/p8/include/pinguino/core/stdio.c	length--;
001c38   0619     decf    0x19, 0x1, 0     	DECF	r0x19, F
001c3a   d078     bra     0x1d2c           	BRA	_00322_DS_
                                           _00343_DS_:
                                           ;	.line	239; /home/regis/Hobbies/Electronique/Projets/Pinguino/svn/branches/x.4/p8/include/pinguino/core/stdio.c	while (int_part)
001c3c   c015     movff   0x15, 0x3        	MOVFF	r0x15, r0x03
001c3e   f003
001c40   c016     movff   0x16, 0x4        	MOVFF	r0x16, r0x04
001c42   f004
001c44   c017     movff   0x17, 0x5        	MOVFF	r0x17, r0x05
001c46   f005
001c48   6a06     clrf    0x6, 0           	CLRF	r0x06
001c4a   c019     movff   0x19, 0x15       	MOVFF	r0x19, r0x15
001c4c   f015
                                           _00314_DS_:
001c4e   500a     movf    0xa, 0, 0        	MOVF	r0x0a, W
001c50   100b     iorwf   0xb, 0, 0        	IORWF	r0x0b, W
001c52   100c     iorwf   0xc, 0, 0        	IORWF	r0x0c, W
001c54   100d     iorwf   0xd, 0, 0        	IORWF	r0x0d, W
001c56   b4d8     btfsc   0xd8, 0x2, 0     	BTFSC	STATUS, 2
001c58   d03c     bra     0x1cd2           	BRA	_00351_DS_
                                           ;	.line	241; /home/regis/Hobbies/Electronique/Projets/Pinguino/svn/branches/x.4/p8/include/pinguino/core/stdio.c	t = int_part % 10;		// decimal base
001c5a   6ae5     clrf    0xe5, 0          	CLRF	POSTDEC1
001c5c   6ae5     clrf    0xe5, 0          	CLRF	POSTDEC1
001c5e   6ae5     clrf    0xe5, 0          	CLRF	POSTDEC1
001c60   0e0a     movlw   0xa              	MOVLW	0x0a
001c62   6ee5     movwf   0xe5, 0          	MOVWF	POSTDEC1
001c64   500d     movf    0xd, 0, 0        	MOVF	r0x0d, W
001c66   6ee5     movwf   0xe5, 0          	MOVWF	POSTDEC1
001c68   500c     movf    0xc, 0, 0        	MOVF	r0x0c, W
001c6a   6ee5     movwf   0xe5, 0          	MOVWF	POSTDEC1
001c6c   500b     movf    0xb, 0, 0        	MOVF	r0x0b, W
001c6e   6ee5     movwf   0xe5, 0          	MOVWF	POSTDEC1
001c70   500a     movf    0xa, 0, 0        	MOVF	r0x0a, W
001c72   6ee5     movwf   0xe5, 0          	MOVWF	POSTDEC1
001c74   ec19     call    0x3632, 0        	CALL	__modulong
001c76   f01b
001c78   6e16     movwf   0x16, 0          	MOVWF	r0x16
001c7a   0e08     movlw   0x8              	MOVLW	0x08
001c7c   26e1     addwf   0xe1, 0x1, 0     	ADDWF	FSR1L, F
                                           ;	.line	242; /home/regis/Hobbies/Electronique/Projets/Pinguino/svn/branches/x.4/p8/include/pinguino/core/stdio.c	*s++ = t + '0';
001c7e   0e30     movlw   0x30             	MOVLW	0x30
001c80   2616     addwf   0x16, 0x1, 0     	ADDWF	r0x16, F
001c82   c016     movff   0x16, 0xfe5      	MOVFF	r0x16, POSTDEC1
001c84   ffe5
001c86   c003     movff   0x3, 0xfe9       	MOVFF	r0x03, FSR0L
001c88   ffe9
001c8a   c004     movff   0x4, 0xff3       	MOVFF	r0x04, PRODL
001c8c   fff3
001c8e   5005     movf    0x5, 0, 0        	MOVF	r0x05, W
001c90   ec49     call    0x4c92, 0        	CALL	__gptrput1
001c92   f026
001c94   2a03     incf    0x3, 0x1, 0      	INCF	r0x03, F
001c96   e302     bnc     0x1c9c           	BNC	_00398_DS_
001c98   4a04     infsnz  0x4, 0x1, 0      	INFSNZ	r0x04, F
001c9a   2a05     incf    0x5, 0x1, 0      	INCF	r0x05, F
                                           _00398_DS_:
                                           ;	.line	243; /home/regis/Hobbies/Electronique/Projets/Pinguino/svn/branches/x.4/p8/include/pinguino/core/stdio.c	int_part /= 10;
001c9c   6ae5     clrf    0xe5, 0          	CLRF	POSTDEC1
001c9e   6ae5     clrf    0xe5, 0          	CLRF	POSTDEC1
001ca0   6ae5     clrf    0xe5, 0          	CLRF	POSTDEC1
001ca2   0e0a     movlw   0xa              	MOVLW	0x0a
001ca4   6ee5     movwf   0xe5, 0          	MOVWF	POSTDEC1
001ca6   500d     movf    0xd, 0, 0        	MOVF	r0x0d, W
001ca8   6ee5     movwf   0xe5, 0          	MOVWF	POSTDEC1
001caa   500c     movf    0xc, 0, 0        	MOVF	r0x0c, W
001cac   6ee5     movwf   0xe5, 0          	MOVWF	POSTDEC1
001cae   500b     movf    0xb, 0, 0        	MOVF	r0x0b, W
001cb0   6ee5     movwf   0xe5, 0          	MOVWF	POSTDEC1
001cb2   500a     movf    0xa, 0, 0        	MOVF	r0x0a, W
001cb4   6ee5     movwf   0xe5, 0          	MOVWF	POSTDEC1
001cb6   ecab     call    0x3756, 0        	CALL	__divulong
001cb8   f01b
001cba   6e0a     movwf   0xa, 0           	MOVWF	r0x0a
001cbc   cff3     movff   0xff3, 0xb       	MOVFF	PRODL, r0x0b
001cbe   f00b
001cc0   cff4     movff   0xff4, 0xc       	MOVFF	PRODH, r0x0c
001cc2   f00c
001cc4   cfe9     movff   0xfe9, 0xd       	MOVFF	FSR0L, r0x0d
001cc6   f00d
001cc8   0e08     movlw   0x8              	MOVLW	0x08
001cca   26e1     addwf   0xe1, 0x1, 0     	ADDWF	FSR1L, F
                                           ;	.line	244; /home/regis/Hobbies/Electronique/Projets/Pinguino/svn/branches/x.4/p8/include/pinguino/core/stdio.c	m++;					// string's length counter
001ccc   2a06     incf    0x6, 0x1, 0      	INCF	r0x06, F
                                           ;	.line	245; /home/regis/Hobbies/Electronique/Projets/Pinguino/svn/branches/x.4/p8/include/pinguino/core/stdio.c	length--;
001cce   0615     decf    0x15, 0x1, 0     	DECF	r0x15, F
001cd0   d7be     bra     0x1c4e           	BRA	_00314_DS_
                                           _00351_DS_:
                                           ;	.line	248; /home/regis/Hobbies/Electronique/Projets/Pinguino/svn/branches/x.4/p8/include/pinguino/core/stdio.c	while (m--)
001cd2   c015     movff   0x15, 0x19       	MOVFF	r0x15, r0x19
001cd4   f019
001cd6   c012     movff   0x12, 0xa        	MOVFF	r0x12, r0x0a
001cd8   f00a
001cda   c013     movff   0x13, 0xb        	MOVFF	r0x13, r0x0b
001cdc   f00b
001cde   c014     movff   0x14, 0xc        	MOVFF	r0x14, r0x0c
001ce0   f00c
                                           _00317_DS_:
001ce2   c006     movff   0x6, 0xd         	MOVFF	r0x06, r0x0d
001ce4   f00d
001ce6   0606     decf    0x6, 0x1, 0      	DECF	r0x06, F
001ce8   500d     movf    0xd, 0, 0        	MOVF	r0x0d, W
001cea   e01a     bz      0x1d20           	BZ	_00352_DS_
                                           ;	.line	250; /home/regis/Hobbies/Electronique/Projets/Pinguino/svn/branches/x.4/p8/include/pinguino/core/stdio.c	*string++ = *--s;
001cec   0eff     movlw   0xff             	MOVLW	0xff
001cee   2603     addwf   0x3, 0x1, 0      	ADDWF	r0x03, F
001cf0   2204     addwfc  0x4, 0x1, 0      	ADDWFC	r0x04, F
001cf2   2205     addwfc  0x5, 0x1, 0      	ADDWFC	r0x05, F
001cf4   c003     movff   0x3, 0xfe9       	MOVFF	r0x03, FSR0L
001cf6   ffe9
001cf8   c004     movff   0x4, 0xff3       	MOVFF	r0x04, PRODL
001cfa   fff3
001cfc   5005     movf    0x5, 0, 0        	MOVF	r0x05, W
001cfe   ecdd     call    0x4bba, 0        	CALL	__gptrget1
001d00   f025
001d02   6e0d     movwf   0xd, 0           	MOVWF	r0x0d
001d04   c00d     movff   0xd, 0xfe5       	MOVFF	r0x0d, POSTDEC1
001d06   ffe5
001d08   c00a     movff   0xa, 0xfe9       	MOVFF	r0x0a, FSR0L
001d0a   ffe9
001d0c   c00b     movff   0xb, 0xff3       	MOVFF	r0x0b, PRODL
001d0e   fff3
001d10   500c     movf    0xc, 0, 0        	MOVF	r0x0c, W
001d12   ec49     call    0x4c92, 0        	CALL	__gptrput1
001d14   f026
001d16   2a0a     incf    0xa, 0x1, 0      	INCF	r0x0a, F
001d18   e3e4     bnc     0x1ce2           	BNC	_00317_DS_
001d1a   4a0b     infsnz  0xb, 0x1, 0      	INFSNZ	r0x0b, F
001d1c   2a0c     incf    0xc, 0x1, 0      	INCF	r0x0c, F
                                           _00399_DS_:
001d1e   d7e1     bra     0x1ce2           	BRA	_00317_DS_
                                           _00352_DS_:
001d20   c00a     movff   0xa, 0x12        	MOVFF	r0x0a, r0x12
001d22   f012
001d24   c00b     movff   0xb, 0x13        	MOVFF	r0x0b, r0x13
001d26   f013
001d28   c00c     movff   0xc, 0x14        	MOVFF	r0x0c, r0x14
001d2a   f014
                                           _00322_DS_:
                                           ;	.line	263; /home/regis/Hobbies/Electronique/Projets/Pinguino/svn/branches/x.4/p8/include/pinguino/core/stdio.c	if (precision > 6)
001d2c   0e07     movlw   0x7              	MOVLW	0x07
001d2e   5c09     subwf   0x9, 0, 0        	SUBWF	r0x09, W
001d30   e302     bnc     0x1d36           	BNC	_00324_DS_
                                           ;	.line	264; /home/regis/Hobbies/Electronique/Projets/Pinguino/svn/branches/x.4/p8/include/pinguino/core/stdio.c	precision = 6;
001d32   0e06     movlw   0x6              	MOVLW	0x06
001d34   6e09     movwf   0x9, 0           	MOVWF	r0x09
                                           _00324_DS_:
                                           ;	.line	267; /home/regis/Hobbies/Electronique/Projets/Pinguino/svn/branches/x.4/p8/include/pinguino/core/stdio.c	if (precision > length)
001d36   5009     movf    0x9, 0, 0        	MOVF	r0x09, W
                                           ; #	SUBWF	r0x19, W
                                           ; #	BTFSC	STATUS, 0
                                           ; #	GOTO	_00326_DS_
                                           ; #	MOVFF	r0x19, r0x09
                                           ; #	MOVLW	0x01
                                           ;	.line	268; /home/regis/Hobbies/Electronique/Projets/Pinguino/svn/branches/x.4/p8/include/pinguino/core/stdio.c	precision = length;
001d38   5c19     subwf   0x19, 0, 0       	SUBWF	r0x19, W
                                           ;	.line	271; /home/regis/Hobbies/Electronique/Projets/Pinguino/svn/branches/x.4/p8/include/pinguino/core/stdio.c	if (precision >= 1)
001d3a   a0d8     btfss   0xd8, 0, 0       	BTFSS	STATUS, 0
001d3c   c019     movff   0x19, 0x9        	MOVFF	r0x19, r0x09
001d3e   f009
001d40   0e01     movlw   0x1              	MOVLW	0x01
001d42   5c09     subwf   0x9, 0, 0        	SUBWF	r0x09, W
001d44   a0d8     btfss   0xd8, 0, 0       	BTFSS	STATUS, 0
001d46   d057     bra     0x1df6           	BRA	_00328_DS_
                                           ;	.line	274; /home/regis/Hobbies/Electronique/Projets/Pinguino/svn/branches/x.4/p8/include/pinguino/core/stdio.c	*string++ = '.';
001d48   0e2e     movlw   0x2e             	MOVLW	0x2e
001d4a   6ee5     movwf   0xe5, 0          	MOVWF	POSTDEC1
001d4c   c012     movff   0x12, 0xfe9      	MOVFF	r0x12, FSR0L
001d4e   ffe9
001d50   c013     movff   0x13, 0xff3      	MOVFF	r0x13, PRODL
001d52   fff3
001d54   5014     movf    0x14, 0, 0       	MOVF	r0x14, W
001d56   ec49     call    0x4c92, 0        	CALL	__gptrput1
001d58   f026
001d5a   2a12     incf    0x12, 0x1, 0     	INCF	r0x12, F
001d5c   e302     bnc     0x1d62           	BNC	_00403_DS_
001d5e   4a13     infsnz  0x13, 0x1, 0     	INFSNZ	r0x13, F
001d60   2a14     incf    0x14, 0x1, 0     	INCF	r0x14, F
                                           _00403_DS_:
                                           ;	.line	277; /home/regis/Hobbies/Electronique/Projets/Pinguino/svn/branches/x.4/p8/include/pinguino/core/stdio.c	for (m = 0; m < precision; m++)
001d62   c012     movff   0x12, 0x3        	MOVFF	r0x12, r0x03
001d64   f003
001d66   c013     movff   0x13, 0x4        	MOVFF	r0x13, r0x04
001d68   f004
001d6a   c014     movff   0x14, 0x5        	MOVFF	r0x14, r0x05
001d6c   f005
001d6e   6a06     clrf    0x6, 0           	CLRF	r0x06
                                           _00329_DS_:
001d70   5009     movf    0x9, 0, 0        	MOVF	r0x09, W
001d72   5c06     subwf   0x6, 0, 0        	SUBWF	r0x06, W
001d74   e23a     bc      0x1dea           	BC	_00353_DS_
                                           ;	.line	280; /home/regis/Hobbies/Electronique/Projets/Pinguino/svn/branches/x.4/p8/include/pinguino/core/stdio.c	frac_part = (frac_part << 3) + (frac_part << 1); 
001d76   500e     movf    0xe, 0, 0        	MOVF	r0x0e, W
001d78   240e     addwf   0xe, 0, 0        	ADDWF	r0x0e, W
001d7a   6e0a     movwf   0xa, 0           	MOVWF	r0x0a
001d7c   340f     rlcf    0xf, 0, 0        	RLCF	r0x0f, W
001d7e   6e0b     movwf   0xb, 0           	MOVWF	r0x0b
001d80   3410     rlcf    0x10, 0, 0       	RLCF	r0x10, W
001d82   6e0c     movwf   0xc, 0           	MOVWF	r0x0c
001d84   3411     rlcf    0x11, 0, 0       	RLCF	r0x11, W
001d86   6e0d     movwf   0xd, 0           	MOVWF	r0x0d
001d88   500a     movf    0xa, 0, 0        	MOVF	r0x0a, W
001d8a   260a     addwf   0xa, 0x1, 0      	ADDWF	r0x0a, F
001d8c   360b     rlcf    0xb, 0x1, 0      	RLCF	r0x0b, F
001d8e   360c     rlcf    0xc, 0x1, 0      	RLCF	r0x0c, F
001d90   360d     rlcf    0xd, 0x1, 0      	RLCF	r0x0d, F
001d92   500a     movf    0xa, 0, 0        	MOVF	r0x0a, W
001d94   260a     addwf   0xa, 0x1, 0      	ADDWF	r0x0a, F
001d96   360b     rlcf    0xb, 0x1, 0      	RLCF	r0x0b, F
001d98   360c     rlcf    0xc, 0x1, 0      	RLCF	r0x0c, F
001d9a   360d     rlcf    0xd, 0x1, 0      	RLCF	r0x0d, F
001d9c   500e     movf    0xe, 0, 0        	MOVF	r0x0e, W
001d9e   240e     addwf   0xe, 0, 0        	ADDWF	r0x0e, W
001da0   6e15     movwf   0x15, 0          	MOVWF	r0x15
001da2   340f     rlcf    0xf, 0, 0        	RLCF	r0x0f, W
001da4   6e16     movwf   0x16, 0          	MOVWF	r0x16
001da6   3410     rlcf    0x10, 0, 0       	RLCF	r0x10, W
001da8   6e17     movwf   0x17, 0          	MOVWF	r0x17
001daa   3411     rlcf    0x11, 0, 0       	RLCF	r0x11, W
001dac   6e19     movwf   0x19, 0          	MOVWF	r0x19
001dae   5015     movf    0x15, 0, 0       	MOVF	r0x15, W
001db0   240a     addwf   0xa, 0, 0        	ADDWF	r0x0a, W
001db2   6e0e     movwf   0xe, 0           	MOVWF	r0x0e
001db4   5016     movf    0x16, 0, 0       	MOVF	r0x16, W
001db6   200b     addwfc  0xb, 0, 0        	ADDWFC	r0x0b, W
001db8   6e0f     movwf   0xf, 0           	MOVWF	r0x0f
001dba   5017     movf    0x17, 0, 0       	MOVF	r0x17, W
001dbc   200c     addwfc  0xc, 0, 0        	ADDWFC	r0x0c, W
001dbe   6e10     movwf   0x10, 0          	MOVWF	r0x10
001dc0   5019     movf    0x19, 0, 0       	MOVF	r0x19, W
001dc2   200d     addwfc  0xd, 0, 0        	ADDWFC	r0x0d, W
                                           ; #	MOVWF	r0x11
                                           ; #	MOVF	r0x11, W
                                           ;	.line	282; /home/regis/Hobbies/Electronique/Projets/Pinguino/svn/branches/x.4/p8/include/pinguino/core/stdio.c	*string++ = (frac_part >> 24) + '0';
001dc4   6e0a     movwf   0xa, 0           	MOVWF	r0x0a
001dc6   0e30     movlw   0x30             	MOVLW	0x30
001dc8   260a     addwf   0xa, 0x1, 0      	ADDWF	r0x0a, F
001dca   c00a     movff   0xa, 0xfe5       	MOVFF	r0x0a, POSTDEC1
001dcc   ffe5
001dce   c003     movff   0x3, 0xfe9       	MOVFF	r0x03, FSR0L
001dd0   ffe9
001dd2   c004     movff   0x4, 0xff3       	MOVFF	r0x04, PRODL
001dd4   fff3
001dd6   5005     movf    0x5, 0, 0        	MOVF	r0x05, W
001dd8   ec49     call    0x4c92, 0        	CALL	__gptrput1
001dda   f026
001ddc   2a03     incf    0x3, 0x1, 0      	INCF	r0x03, F
001dde   e302     bnc     0x1de4           	BNC	_00405_DS_
001de0   4a04     infsnz  0x4, 0x1, 0      	INFSNZ	r0x04, F
001de2   2a05     incf    0x5, 0x1, 0      	INCF	r0x05, F
                                           _00405_DS_:
                                           ;	.line	284; /home/regis/Hobbies/Electronique/Projets/Pinguino/svn/branches/x.4/p8/include/pinguino/core/stdio.c	frac_part &= 0xFFFFFF;
001de4   6a11     clrf    0x11, 0          	CLRF	r0x11
                                           ;	.line	277; /home/regis/Hobbies/Electronique/Projets/Pinguino/svn/branches/x.4/p8/include/pinguino/core/stdio.c	for (m = 0; m < precision; m++)
001de6   2a06     incf    0x6, 0x1, 0      	INCF	r0x06, F
001de8   d7c3     bra     0x1d70           	BRA	_00329_DS_
                                           _00353_DS_:
001dea   c003     movff   0x3, 0x12        	MOVFF	r0x03, r0x12
001dec   f012
001dee   c004     movff   0x4, 0x13        	MOVFF	r0x04, r0x13
001df0   f013
001df2   c005     movff   0x5, 0x14        	MOVFF	r0x05, r0x14
001df4   f014
                                           _00328_DS_:
                                           ;	.line	289; /home/regis/Hobbies/Electronique/Projets/Pinguino/svn/branches/x.4/p8/include/pinguino/core/stdio.c	*string++ = '\0';
001df6   6ae5     clrf    0xe5, 0          	CLRF	POSTDEC1
001df8   c012     movff   0x12, 0xfe9      	MOVFF	r0x12, FSR0L
001dfa   ffe9
001dfc   c013     movff   0x13, 0xff3      	MOVFF	r0x13, PRODL
001dfe   fff3
001e00   5014     movf    0x14, 0, 0       	MOVF	r0x14, W
001e02   ec49     call    0x4c92, 0        	CALL	__gptrput1
001e04   f026
                                           ;	.line	291; /home/regis/Hobbies/Electronique/Projets/Pinguino/svn/branches/x.4/p8/include/pinguino/core/stdio.c	return count + pprints(out, buffer, width, pad);
001e06   5008     movf    0x8, 0, 0        	MOVF	r0x08, W
001e08   6ee5     movwf   0xe5, 0          	MOVWF	POSTDEC1
001e0a   5007     movf    0x7, 0, 0        	MOVF	r0x07, W
001e0c   6ee5     movwf   0xe5, 0          	MOVWF	POSTDEC1
001e0e   0e80     movlw   0x80             	MOVLW	0x80
001e10   6ee5     movwf   0xe5, 0          	MOVWF	POSTDEC1
001e12   0e0e     movlw   0xe              	MOVLW	HIGH(_pprintfl_buffer_1_38)
001e14   6ee5     movwf   0xe5, 0          	MOVWF	POSTDEC1
001e16   0e29     movlw   0x29             	MOVLW	LOW(_pprintfl_buffer_1_38)
001e18   6ee5     movwf   0xe5, 0          	MOVWF	POSTDEC1
001e1a   5002     movf    0x2, 0, 0        	MOVF	r0x02, W
001e1c   6ee5     movwf   0xe5, 0          	MOVWF	POSTDEC1
001e1e   5001     movf    0x1, 0, 0        	MOVF	r0x01, W
001e20   6ee5     movwf   0xe5, 0          	MOVWF	POSTDEC1
001e22   5000     movf    0, 0, 0          	MOVF	r0x00, W
001e24   6ee5     movwf   0xe5, 0          	MOVWF	POSTDEC1
001e26   ecf7     call    0x2dee, 0        	CALL	_pprints
001e28   f016
001e2a   6e00     movwf   0, 0             	MOVWF	r0x00
001e2c   0e08     movlw   0x8              	MOVLW	0x08
001e2e   26e1     addwf   0xe1, 0x1, 0     	ADDWF	FSR1L, F
001e30   5018     movf    0x18, 0, 0       	MOVF	r0x18, W
001e32   2600     addwf   0, 0x1, 0        	ADDWF	r0x00, F
001e34   5000     movf    0, 0, 0          	MOVF	r0x00, W
                                           _00333_DS_:
001e36   cfe4     movff   0xfe4, 0x20      	MOVFF	PREINC1, r0x20
001e38   f020
001e3a   cfe4     movff   0xfe4, 0x1f      	MOVFF	PREINC1, r0x1f
001e3c   f01f
001e3e   cfe4     movff   0xfe4, 0x1e      	MOVFF	PREINC1, r0x1e
001e40   f01e
001e42   cfe4     movff   0xfe4, 0x1d      	MOVFF	PREINC1, r0x1d
001e44   f01d
001e46   cfe4     movff   0xfe4, 0x1c      	MOVFF	PREINC1, r0x1c
001e48   f01c
001e4a   cfe4     movff   0xfe4, 0x1b      	MOVFF	PREINC1, r0x1b
001e4c   f01b
001e4e   cfe4     movff   0xfe4, 0x1a      	MOVFF	PREINC1, r0x1a
001e50   f01a
001e52   cfe4     movff   0xfe4, 0x19      	MOVFF	PREINC1, r0x19
001e54   f019
001e56   cfe4     movff   0xfe4, 0x18      	MOVFF	PREINC1, r0x18
001e58   f018
001e5a   cfe4     movff   0xfe4, 0x17      	MOVFF	PREINC1, r0x17
001e5c   f017
001e5e   cfe4     movff   0xfe4, 0x16      	MOVFF	PREINC1, r0x16
001e60   f016
001e62   cfe4     movff   0xfe4, 0x15      	MOVFF	PREINC1, r0x15
001e64   f015
001e66   cfe4     movff   0xfe4, 0x14      	MOVFF	PREINC1, r0x14
001e68   f014
001e6a   cfe4     movff   0xfe4, 0x13      	MOVFF	PREINC1, r0x13
001e6c   f013
001e6e   cfe4     movff   0xfe4, 0x12      	MOVFF	PREINC1, r0x12
001e70   f012
001e72   cfe4     movff   0xfe4, 0x11      	MOVFF	PREINC1, r0x11
001e74   f011
001e76   cfe4     movff   0xfe4, 0x10      	MOVFF	PREINC1, r0x10
001e78   f010
001e7a   cfe4     movff   0xfe4, 0xf       	MOVFF	PREINC1, r0x0f
001e7c   f00f
001e7e   cfe4     movff   0xfe4, 0xe       	MOVFF	PREINC1, r0x0e
001e80   f00e
001e82   cfe4     movff   0xfe4, 0xd       	MOVFF	PREINC1, r0x0d
001e84   f00d
001e86   cfe4     movff   0xfe4, 0xc       	MOVFF	PREINC1, r0x0c
001e88   f00c
001e8a   cfe4     movff   0xfe4, 0xb       	MOVFF	PREINC1, r0x0b
001e8c   f00b
001e8e   cfe4     movff   0xfe4, 0xa       	MOVFF	PREINC1, r0x0a
001e90   f00a
001e92   cfe4     movff   0xfe4, 0x9       	MOVFF	PREINC1, r0x09
001e94   f009
001e96   cfe4     movff   0xfe4, 0x8       	MOVFF	PREINC1, r0x08
001e98   f008
001e9a   cfe4     movff   0xfe4, 0x7       	MOVFF	PREINC1, r0x07
001e9c   f007
001e9e   cfe4     movff   0xfe4, 0x6       	MOVFF	PREINC1, r0x06
001ea0   f006
001ea2   cfe4     movff   0xfe4, 0x5       	MOVFF	PREINC1, r0x05
001ea4   f005
001ea6   cfe4     movff   0xfe4, 0x4       	MOVFF	PREINC1, r0x04
001ea8   f004
001eaa   cfe4     movff   0xfe4, 0x3       	MOVFF	PREINC1, r0x03
001eac   f003
001eae   cfe4     movff   0xfe4, 0x2       	MOVFF	PREINC1, r0x02
001eb0   f002
001eb2   cfe4     movff   0xfe4, 0x1       	MOVFF	PREINC1, r0x01
001eb4   f001
001eb6   cfe4     movff   0xfe4, 0         	MOVFF	PREINC1, r0x00
001eb8   f000
001eba   cfe4     movff   0xfe4, 0xfd9     	MOVFF	PREINC1, FSR2L
001ebc   ffd9
001ebe   0012     return  0                	RETURN	
                                           
                                           ; ; Starting pCode block
                                           S_main__pprinti	code
                                           _pprinti:
                                           ;	.line	112; /home/regis/Hobbies/Electronique/Projets/Pinguino/svn/branches/x.4/p8/include/pinguino/core/stdio.c	static u8 pprinti(u8 **out, u32 i, u8 base, u8 sign, u8 width, u8 pad, u8 separator, u8 letterbase)
001ec0   cfd9     movff   0xfd9, 0xfe5     	MOVFF	FSR2L, POSTDEC1
001ec2   ffe5
001ec4   cfe1     movff   0xfe1, 0xfd9     	MOVFF	FSR1L, FSR2L
001ec6   ffd9
001ec8   c000     movff   0, 0xfe5         	MOVFF	r0x00, POSTDEC1
001eca   ffe5
001ecc   c001     movff   0x1, 0xfe5       	MOVFF	r0x01, POSTDEC1
001ece   ffe5
001ed0   c002     movff   0x2, 0xfe5       	MOVFF	r0x02, POSTDEC1
001ed2   ffe5
001ed4   c003     movff   0x3, 0xfe5       	MOVFF	r0x03, POSTDEC1
001ed6   ffe5
001ed8   c004     movff   0x4, 0xfe5       	MOVFF	r0x04, POSTDEC1
001eda   ffe5
001edc   c005     movff   0x5, 0xfe5       	MOVFF	r0x05, POSTDEC1
001ede   ffe5
001ee0   c006     movff   0x6, 0xfe5       	MOVFF	r0x06, POSTDEC1
001ee2   ffe5
001ee4   c007     movff   0x7, 0xfe5       	MOVFF	r0x07, POSTDEC1
001ee6   ffe5
001ee8   c008     movff   0x8, 0xfe5       	MOVFF	r0x08, POSTDEC1
001eea   ffe5
001eec   c009     movff   0x9, 0xfe5       	MOVFF	r0x09, POSTDEC1
001eee   ffe5
001ef0   c00a     movff   0xa, 0xfe5       	MOVFF	r0x0a, POSTDEC1
001ef2   ffe5
001ef4   c00b     movff   0xb, 0xfe5       	MOVFF	r0x0b, POSTDEC1
001ef6   ffe5
001ef8   c00c     movff   0xc, 0xfe5       	MOVFF	r0x0c, POSTDEC1
001efa   ffe5
001efc   c00d     movff   0xd, 0xfe5       	MOVFF	r0x0d, POSTDEC1
001efe   ffe5
001f00   c00e     movff   0xe, 0xfe5       	MOVFF	r0x0e, POSTDEC1
001f02   ffe5
001f04   c00f     movff   0xf, 0xfe5       	MOVFF	r0x0f, POSTDEC1
001f06   ffe5
001f08   c010     movff   0x10, 0xfe5      	MOVFF	r0x10, POSTDEC1
001f0a   ffe5
001f0c   c011     movff   0x11, 0xfe5      	MOVFF	r0x11, POSTDEC1
001f0e   ffe5
001f10   c012     movff   0x12, 0xfe5      	MOVFF	r0x12, POSTDEC1
001f12   ffe5
001f14   c013     movff   0x13, 0xfe5      	MOVFF	r0x13, POSTDEC1
001f16   ffe5
001f18   c014     movff   0x14, 0xfe5      	MOVFF	r0x14, POSTDEC1
001f1a   ffe5
001f1c   c015     movff   0x15, 0xfe5      	MOVFF	r0x15, POSTDEC1
001f1e   ffe5
001f20   c016     movff   0x16, 0xfe5      	MOVFF	r0x16, POSTDEC1
001f22   ffe5
001f24   c017     movff   0x17, 0xfe5      	MOVFF	r0x17, POSTDEC1
001f26   ffe5
001f28   c018     movff   0x18, 0xfe5      	MOVFF	r0x18, POSTDEC1
001f2a   ffe5
001f2c   c019     movff   0x19, 0xfe5      	MOVFF	r0x19, POSTDEC1
001f2e   ffe5
001f30   c01a     movff   0x1a, 0xfe5      	MOVFF	r0x1a, POSTDEC1
001f32   ffe5
001f34   c01b     movff   0x1b, 0xfe5      	MOVFF	r0x1b, POSTDEC1
001f36   ffe5
001f38   0e02     movlw   0x2              	MOVLW	0x02
001f3a   cfdb     movff   0xfdb, 0         	MOVFF	PLUSW2, r0x00
001f3c   f000
001f3e   0e03     movlw   0x3              	MOVLW	0x03
001f40   cfdb     movff   0xfdb, 0x1       	MOVFF	PLUSW2, r0x01
001f42   f001
001f44   0e04     movlw   0x4              	MOVLW	0x04
001f46   cfdb     movff   0xfdb, 0x2       	MOVFF	PLUSW2, r0x02
001f48   f002
001f4a   0e05     movlw   0x5              	MOVLW	0x05
001f4c   cfdb     movff   0xfdb, 0x3       	MOVFF	PLUSW2, r0x03
001f4e   f003
001f50   0e06     movlw   0x6              	MOVLW	0x06
001f52   cfdb     movff   0xfdb, 0x4       	MOVFF	PLUSW2, r0x04
001f54   f004
001f56   0e07     movlw   0x7              	MOVLW	0x07
001f58   cfdb     movff   0xfdb, 0x5       	MOVFF	PLUSW2, r0x05
001f5a   f005
001f5c   0e08     movlw   0x8              	MOVLW	0x08
001f5e   cfdb     movff   0xfdb, 0x6       	MOVFF	PLUSW2, r0x06
001f60   f006
001f62   0e09     movlw   0x9              	MOVLW	0x09
001f64   cfdb     movff   0xfdb, 0x7       	MOVFF	PLUSW2, r0x07
001f66   f007
001f68   0e0a     movlw   0xa              	MOVLW	0x0a
001f6a   cfdb     movff   0xfdb, 0x8       	MOVFF	PLUSW2, r0x08
001f6c   f008
001f6e   0e0b     movlw   0xb              	MOVLW	0x0b
001f70   cfdb     movff   0xfdb, 0x9       	MOVFF	PLUSW2, r0x09
001f72   f009
001f74   0e0c     movlw   0xc              	MOVLW	0x0c
001f76   cfdb     movff   0xfdb, 0xa       	MOVFF	PLUSW2, r0x0a
001f78   f00a
001f7a   0e0e     movlw   0xe              	MOVLW	0x0e
001f7c   cfdb     movff   0xfdb, 0xb       	MOVFF	PLUSW2, r0x0b
001f7e   f00b
                                           ;	.line	116; /home/regis/Hobbies/Electronique/Projets/Pinguino/svn/branches/x.4/p8/include/pinguino/core/stdio.c	u8 neg = 0, pc = 0;
001f80   6a0c     clrf    0xc, 0           	CLRF	r0x0c
001f82   6a0d     clrf    0xd, 0           	CLRF	r0x0d
                                           ;	.line	117; /home/regis/Hobbies/Electronique/Projets/Pinguino/svn/branches/x.4/p8/include/pinguino/core/stdio.c	u32 t, uns32 = i;
001f84   c003     movff   0x3, 0xe         	MOVFF	r0x03, r0x0e
001f86   f00e
001f88   c004     movff   0x4, 0xf         	MOVFF	r0x04, r0x0f
001f8a   f00f
001f8c   c005     movff   0x5, 0x10        	MOVFF	r0x05, r0x10
001f8e   f010
001f90   c006     movff   0x6, 0x11        	MOVFF	r0x06, r0x11
001f92   f011
                                           ;	.line	119; /home/regis/Hobbies/Electronique/Projets/Pinguino/svn/branches/x.4/p8/include/pinguino/core/stdio.c	if (i == 0)
001f94   5003     movf    0x3, 0, 0        	MOVF	r0x03, W
001f96   1004     iorwf   0x4, 0, 0        	IORWF	r0x04, W
001f98   1005     iorwf   0x5, 0, 0        	IORWF	r0x05, W
001f9a   1006     iorwf   0x6, 0, 0        	IORWF	r0x06, W
001f9c   e11b     bnz     0x1fd4           	BNZ	_00250_DS_
                                           ;	.line	121; /home/regis/Hobbies/Electronique/Projets/Pinguino/svn/branches/x.4/p8/include/pinguino/core/stdio.c	buffer[0] = '0';
001f9e   0e30     movlw   0x30             	MOVLW	0x30
001fa0   010e     movlb   0xe              	BANKSEL	_pprinti_buffer_1_30
001fa2   6f1d     movwf   0x1d, 0x1        	MOVWF	_pprinti_buffer_1_30, B
                                           ; removed redundant BANKSEL
                                           ;	.line	122; /home/regis/Hobbies/Electronique/Projets/Pinguino/svn/branches/x.4/p8/include/pinguino/core/stdio.c	buffer[1] = '\0';
001fa4   6b1e     clrf    0x1e, 0x1        	CLRF	(_pprinti_buffer_1_30 + 1), B
                                           ;	.line	123; /home/regis/Hobbies/Electronique/Projets/Pinguino/svn/branches/x.4/p8/include/pinguino/core/stdio.c	return pprints(out, buffer, width, pad);
001fa6   500a     movf    0xa, 0, 0        	MOVF	r0x0a, W
001fa8   6ee5     movwf   0xe5, 0          	MOVWF	POSTDEC1
001faa   5009     movf    0x9, 0, 0        	MOVF	r0x09, W
001fac   6ee5     movwf   0xe5, 0          	MOVWF	POSTDEC1
001fae   0e80     movlw   0x80             	MOVLW	0x80
001fb0   6ee5     movwf   0xe5, 0          	MOVWF	POSTDEC1
001fb2   0e0e     movlw   0xe              	MOVLW	HIGH(_pprinti_buffer_1_30)
001fb4   6ee5     movwf   0xe5, 0          	MOVWF	POSTDEC1
001fb6   0e1d     movlw   0x1d             	MOVLW	LOW(_pprinti_buffer_1_30)
001fb8   6ee5     movwf   0xe5, 0          	MOVWF	POSTDEC1
001fba   5002     movf    0x2, 0, 0        	MOVF	r0x02, W
001fbc   6ee5     movwf   0xe5, 0          	MOVWF	POSTDEC1
001fbe   5001     movf    0x1, 0, 0        	MOVF	r0x01, W
001fc0   6ee5     movwf   0xe5, 0          	MOVWF	POSTDEC1
001fc2   5000     movf    0, 0, 0          	MOVF	r0x00, W
001fc4   6ee5     movwf   0xe5, 0          	MOVWF	POSTDEC1
001fc6   ecf7     call    0x2dee, 0        	CALL	_pprints
001fc8   f016
001fca   6e12     movwf   0x12, 0          	MOVWF	r0x12
001fcc   0e08     movlw   0x8              	MOVLW	0x08
001fce   26e1     addwf   0xe1, 0x1, 0     	ADDWF	FSR1L, F
001fd0   5012     movf    0x12, 0, 0       	MOVF	r0x12, W
001fd2   d0cd     bra     0x216e           	BRA	_00266_DS_
                                           _00250_DS_:
                                           ;	.line	127; /home/regis/Hobbies/Electronique/Projets/Pinguino/svn/branches/x.4/p8/include/pinguino/core/stdio.c	if ( (sign) && (base == 10) && ( (s32)i < 0 ) )
001fd4   5008     movf    0x8, 0, 0        	MOVF	r0x08, W
001fd6   e017     bz      0x2006           	BZ	_00252_DS_
001fd8   5007     movf    0x7, 0, 0        	MOVF	r0x07, W
001fda   0a0a     xorlw   0xa              	XORLW	0x0a
001fdc   e114     bnz     0x2006           	BNZ	_00252_DS_
001fde   80d8     bsf     0xd8, 0, 0       	BSF	STATUS, 0
001fe0   ae06     btfss   0x6, 0x7, 0      	BTFSS	r0x06, 7
001fe2   90d8     bcf     0xd8, 0, 0       	BCF	STATUS, 0
001fe4   e310     bnc     0x2006           	BNC	_00252_DS_
                                           ;	.line	129; /home/regis/Hobbies/Electronique/Projets/Pinguino/svn/branches/x.4/p8/include/pinguino/core/stdio.c	neg = 1;
001fe6   0e01     movlw   0x1              	MOVLW	0x01
001fe8   6e0c     movwf   0xc, 0           	MOVWF	r0x0c
                                           ;	.line	130; /home/regis/Hobbies/Electronique/Projets/Pinguino/svn/branches/x.4/p8/include/pinguino/core/stdio.c	uns32 = - (s32)i;
001fea   1c06     comf    0x6, 0, 0        	COMF	r0x06, W
001fec   6e11     movwf   0x11, 0          	MOVWF	r0x11
001fee   1c05     comf    0x5, 0, 0        	COMF	r0x05, W
001ff0   6e10     movwf   0x10, 0          	MOVWF	r0x10
001ff2   1c04     comf    0x4, 0, 0        	COMF	r0x04, W
001ff4   6e0f     movwf   0xf, 0           	MOVWF	r0x0f
001ff6   1c03     comf    0x3, 0, 0        	COMF	r0x03, W
001ff8   6e0e     movwf   0xe, 0           	MOVWF	r0x0e
001ffa   2a0e     incf    0xe, 0x1, 0      	INCF	r0x0e, F
001ffc   e104     bnz     0x2006           	BNZ	_00252_DS_
001ffe   2a0f     incf    0xf, 0x1, 0      	INCF	r0x0f, F
002000   e102     bnz     0x2006           	BNZ	_00252_DS_
002002   4a10     infsnz  0x10, 0x1, 0     	INFSNZ	r0x10, F
002004   2a11     incf    0x11, 0x1, 0     	INCF	r0x11, F
                                           _00252_DS_:
                                           ;	.line	134; /home/regis/Hobbies/Electronique/Projets/Pinguino/svn/branches/x.4/p8/include/pinguino/core/stdio.c	string = buffer + PRINT_BUF_LEN - 1;
002006   0e0e     movlw   0xe              	MOVLW	HIGH(_pprinti_buffer_1_30 + 11)
002008   6e04     movwf   0x4, 0           	MOVWF	r0x04
00200a   0e28     movlw   0x28             	MOVLW	LOW(_pprinti_buffer_1_30 + 11)
00200c   6e03     movwf   0x3, 0           	MOVWF	r0x03
00200e   0e80     movlw   0x80             	MOVLW	0x80
002010   6e05     movwf   0x5, 0           	MOVWF	r0x05
                                           ;	.line	135; /home/regis/Hobbies/Electronique/Projets/Pinguino/svn/branches/x.4/p8/include/pinguino/core/stdio.c	*string = '\0';
002012   6ae5     clrf    0xe5, 0          	CLRF	POSTDEC1
002014   c003     movff   0x3, 0xfe9       	MOVFF	r0x03, FSR0L
002016   ffe9
002018   c004     movff   0x4, 0xff3       	MOVFF	r0x04, PRODL
00201a   fff3
00201c   ec49     call    0x4c92, 0        	CALL	__gptrput1
00201e   f026
                                           ;	.line	137; /home/regis/Hobbies/Electronique/Projets/Pinguino/svn/branches/x.4/p8/include/pinguino/core/stdio.c	while (uns32)
002020   c003     movff   0x3, 0x6         	MOVFF	r0x03, r0x06
002022   f006
002024   c004     movff   0x4, 0x8         	MOVFF	r0x04, r0x08
002026   f008
002028   c005     movff   0x5, 0x12        	MOVFF	r0x05, r0x12
00202a   f012
                                           _00257_DS_:
00202c   500e     movf    0xe, 0, 0        	MOVF	r0x0e, W
00202e   100f     iorwf   0xf, 0, 0        	IORWF	r0x0f, W
002030   1010     iorwf   0x10, 0, 0       	IORWF	r0x10, W
002032   1011     iorwf   0x11, 0, 0       	IORWF	r0x11, W
002034   b4d8     btfsc   0xd8, 0x2, 0     	BTFSC	STATUS, 2
002036   d05a     bra     0x20ec           	BRA	_00278_DS_
                                           ;	.line	139; /home/regis/Hobbies/Electronique/Projets/Pinguino/svn/branches/x.4/p8/include/pinguino/core/stdio.c	t = uns32 % base;
002038   c007     movff   0x7, 0x13        	MOVFF	r0x07, r0x13
00203a   f013
00203c   6a14     clrf    0x14, 0          	CLRF	r0x14
00203e   6a15     clrf    0x15, 0          	CLRF	r0x15
002040   6a16     clrf    0x16, 0          	CLRF	r0x16
002042   6ae5     clrf    0xe5, 0          	CLRF	POSTDEC1
002044   6ae5     clrf    0xe5, 0          	CLRF	POSTDEC1
002046   6ae5     clrf    0xe5, 0          	CLRF	POSTDEC1
002048   5013     movf    0x13, 0, 0       	MOVF	r0x13, W
00204a   6ee5     movwf   0xe5, 0          	MOVWF	POSTDEC1
00204c   5011     movf    0x11, 0, 0       	MOVF	r0x11, W
00204e   6ee5     movwf   0xe5, 0          	MOVWF	POSTDEC1
002050   5010     movf    0x10, 0, 0       	MOVF	r0x10, W
002052   6ee5     movwf   0xe5, 0          	MOVWF	POSTDEC1
002054   500f     movf    0xf, 0, 0        	MOVF	r0x0f, W
002056   6ee5     movwf   0xe5, 0          	MOVWF	POSTDEC1
002058   500e     movf    0xe, 0, 0        	MOVF	r0x0e, W
00205a   6ee5     movwf   0xe5, 0          	MOVWF	POSTDEC1
00205c   ec19     call    0x3632, 0        	CALL	__modulong
00205e   f01b
002060   6e17     movwf   0x17, 0          	MOVWF	r0x17
002062   cff3     movff   0xff3, 0x18      	MOVFF	PRODL, r0x18
002064   f018
002066   cff4     movff   0xff4, 0x19      	MOVFF	PRODH, r0x19
002068   f019
00206a   cfe9     movff   0xfe9, 0x1a      	MOVFF	FSR0L, r0x1a
00206c   f01a
00206e   0e08     movlw   0x8              	MOVLW	0x08
002070   26e1     addwf   0xe1, 0x1, 0     	ADDWF	FSR1L, F
                                           ;	.line	140; /home/regis/Hobbies/Electronique/Projets/Pinguino/svn/branches/x.4/p8/include/pinguino/core/stdio.c	if ( t >= 10 )
002072   0e00     movlw   0                	MOVLW	0x00
002074   5c1a     subwf   0x1a, 0, 0       	SUBWF	r0x1a, W
002076   e108     bnz     0x2088           	BNZ	_00292_DS_
002078   0e00     movlw   0                	MOVLW	0x00
00207a   5c19     subwf   0x19, 0, 0       	SUBWF	r0x19, W
00207c   e105     bnz     0x2088           	BNZ	_00292_DS_
00207e   0e00     movlw   0                	MOVLW	0x00
002080   5c18     subwf   0x18, 0, 0       	SUBWF	r0x18, W
002082   e102     bnz     0x2088           	BNZ	_00292_DS_
002084   0e0a     movlw   0xa              	MOVLW	0x0a
002086   5c17     subwf   0x17, 0, 0       	SUBWF	r0x17, W
                                           _00292_DS_:
002088   e306     bnc     0x2096           	BNC	_00256_DS_
                                           ;	.line	141; /home/regis/Hobbies/Electronique/Projets/Pinguino/svn/branches/x.4/p8/include/pinguino/core/stdio.c	t += letterbase - '0' - 10;
00208a   c00b     movff   0xb, 0x1b        	MOVFF	r0x0b, r0x1b
00208c   f01b
00208e   0ec6     movlw   0xc6             	MOVLW	0xc6
002090   261b     addwf   0x1b, 0x1, 0     	ADDWF	r0x1b, F
002092   501b     movf    0x1b, 0, 0       	MOVF	r0x1b, W
002094   2617     addwf   0x17, 0x1, 0     	ADDWF	r0x17, F
                                           _00256_DS_:
                                           ;	.line	142; /home/regis/Hobbies/Electronique/Projets/Pinguino/svn/branches/x.4/p8/include/pinguino/core/stdio.c	*--string = t + '0';
002096   0eff     movlw   0xff             	MOVLW	0xff
002098   2606     addwf   0x6, 0x1, 0      	ADDWF	r0x06, F
00209a   2208     addwfc  0x8, 0x1, 0      	ADDWFC	r0x08, F
00209c   2212     addwfc  0x12, 0x1, 0     	ADDWFC	r0x12, F
00209e   0e30     movlw   0x30             	MOVLW	0x30
0020a0   2617     addwf   0x17, 0x1, 0     	ADDWF	r0x17, F
0020a2   c017     movff   0x17, 0xfe5      	MOVFF	r0x17, POSTDEC1
0020a4   ffe5
0020a6   c006     movff   0x6, 0xfe9       	MOVFF	r0x06, FSR0L
0020a8   ffe9
0020aa   c008     movff   0x8, 0xff3       	MOVFF	r0x08, PRODL
0020ac   fff3
0020ae   5012     movf    0x12, 0, 0       	MOVF	r0x12, W
0020b0   ec49     call    0x4c92, 0        	CALL	__gptrput1
0020b2   f026
                                           ;	.line	143; /home/regis/Hobbies/Electronique/Projets/Pinguino/svn/branches/x.4/p8/include/pinguino/core/stdio.c	uns32 /= base;
0020b4   5016     movf    0x16, 0, 0       	MOVF	r0x16, W
0020b6   6ee5     movwf   0xe5, 0          	MOVWF	POSTDEC1
0020b8   5015     movf    0x15, 0, 0       	MOVF	r0x15, W
0020ba   6ee5     movwf   0xe5, 0          	MOVWF	POSTDEC1
0020bc   5014     movf    0x14, 0, 0       	MOVF	r0x14, W
0020be   6ee5     movwf   0xe5, 0          	MOVWF	POSTDEC1
0020c0   5013     movf    0x13, 0, 0       	MOVF	r0x13, W
0020c2   6ee5     movwf   0xe5, 0          	MOVWF	POSTDEC1
0020c4   5011     movf    0x11, 0, 0       	MOVF	r0x11, W
0020c6   6ee5     movwf   0xe5, 0          	MOVWF	POSTDEC1
0020c8   5010     movf    0x10, 0, 0       	MOVF	r0x10, W
0020ca   6ee5     movwf   0xe5, 0          	MOVWF	POSTDEC1
0020cc   500f     movf    0xf, 0, 0        	MOVF	r0x0f, W
0020ce   6ee5     movwf   0xe5, 0          	MOVWF	POSTDEC1
0020d0   500e     movf    0xe, 0, 0        	MOVF	r0x0e, W
0020d2   6ee5     movwf   0xe5, 0          	MOVWF	POSTDEC1
0020d4   ecab     call    0x3756, 0        	CALL	__divulong
0020d6   f01b
0020d8   6e0e     movwf   0xe, 0           	MOVWF	r0x0e
0020da   cff3     movff   0xff3, 0xf       	MOVFF	PRODL, r0x0f
0020dc   f00f
0020de   cff4     movff   0xff4, 0x10      	MOVFF	PRODH, r0x10
0020e0   f010
0020e2   cfe9     movff   0xfe9, 0x11      	MOVFF	FSR0L, r0x11
0020e4   f011
0020e6   0e08     movlw   0x8              	MOVLW	0x08
0020e8   26e1     addwf   0xe1, 0x1, 0     	ADDWF	FSR1L, F
0020ea   d7a0     bra     0x202c           	BRA	_00257_DS_
                                           _00278_DS_:
0020ec   c006     movff   0x6, 0x3         	MOVFF	r0x06, r0x03
0020ee   f003
0020f0   c008     movff   0x8, 0x4         	MOVFF	r0x08, r0x04
0020f2   f004
0020f4   c012     movff   0x12, 0x5        	MOVFF	r0x12, r0x05
0020f6   f005
                                           ;	.line	146; /home/regis/Hobbies/Electronique/Projets/Pinguino/svn/branches/x.4/p8/include/pinguino/core/stdio.c	if (neg)
0020f8   500c     movf    0xc, 0, 0        	MOVF	r0x0c, W
0020fa   e021     bz      0x213e           	BZ	_00265_DS_
                                           ;	.line	148; /home/regis/Hobbies/Electronique/Projets/Pinguino/svn/branches/x.4/p8/include/pinguino/core/stdio.c	if (width && (pad & PAD_ZERO))
0020fc   5009     movf    0x9, 0, 0        	MOVF	r0x09, W
0020fe   e012     bz      0x2124           	BZ	_00261_DS_
002100   a20a     btfss   0xa, 0x1, 0      	BTFSS	r0x0a, 1
002102   d010     bra     0x2124           	BRA	_00261_DS_
                                           ;	.line	150; /home/regis/Hobbies/Electronique/Projets/Pinguino/svn/branches/x.4/p8/include/pinguino/core/stdio.c	pprintc(out, '-');
002104   0e2d     movlw   0x2d             	MOVLW	0x2d
002106   6ee5     movwf   0xe5, 0          	MOVWF	POSTDEC1
002108   5002     movf    0x2, 0, 0        	MOVF	r0x02, W
00210a   6ee5     movwf   0xe5, 0          	MOVWF	POSTDEC1
00210c   5001     movf    0x1, 0, 0        	MOVF	r0x01, W
00210e   6ee5     movwf   0xe5, 0          	MOVWF	POSTDEC1
002110   5000     movf    0, 0, 0          	MOVF	r0x00, W
002112   6ee5     movwf   0xe5, 0          	MOVWF	POSTDEC1
002114   ec38     call    0x3870, 0        	CALL	_pprintc
002116   f01c
002118   0e04     movlw   0x4              	MOVLW	0x04
00211a   26e1     addwf   0xe1, 0x1, 0     	ADDWF	FSR1L, F
                                           ;	.line	151; /home/regis/Hobbies/Electronique/Projets/Pinguino/svn/branches/x.4/p8/include/pinguino/core/stdio.c	++pc;
00211c   0e01     movlw   0x1              	MOVLW	0x01
00211e   6e0d     movwf   0xd, 0           	MOVWF	r0x0d
                                           ;	.line	152; /home/regis/Hobbies/Electronique/Projets/Pinguino/svn/branches/x.4/p8/include/pinguino/core/stdio.c	--width;
002120   0609     decf    0x9, 0x1, 0      	DECF	r0x09, F
002122   d00d     bra     0x213e           	BRA	_00265_DS_
                                           _00261_DS_:
                                           ;	.line	156; /home/regis/Hobbies/Electronique/Projets/Pinguino/svn/branches/x.4/p8/include/pinguino/core/stdio.c	*--string = '-';
002124   0eff     movlw   0xff             	MOVLW	0xff
002126   2603     addwf   0x3, 0x1, 0      	ADDWF	r0x03, F
002128   2204     addwfc  0x4, 0x1, 0      	ADDWFC	r0x04, F
00212a   2205     addwfc  0x5, 0x1, 0      	ADDWFC	r0x05, F
00212c   0e2d     movlw   0x2d             	MOVLW	0x2d
00212e   6ee5     movwf   0xe5, 0          	MOVWF	POSTDEC1
002130   c003     movff   0x3, 0xfe9       	MOVFF	r0x03, FSR0L
002132   ffe9
002134   c004     movff   0x4, 0xff3       	MOVFF	r0x04, PRODL
002136   fff3
002138   5005     movf    0x5, 0, 0        	MOVF	r0x05, W
00213a   ec49     call    0x4c92, 0        	CALL	__gptrput1
00213c   f026
                                           _00265_DS_:
                                           ;	.line	160; /home/regis/Hobbies/Electronique/Projets/Pinguino/svn/branches/x.4/p8/include/pinguino/core/stdio.c	return pc + pprints(out, string, width, pad);
00213e   500a     movf    0xa, 0, 0        	MOVF	r0x0a, W
002140   6ee5     movwf   0xe5, 0          	MOVWF	POSTDEC1
002142   5009     movf    0x9, 0, 0        	MOVF	r0x09, W
002144   6ee5     movwf   0xe5, 0          	MOVWF	POSTDEC1
002146   5005     movf    0x5, 0, 0        	MOVF	r0x05, W
002148   6ee5     movwf   0xe5, 0          	MOVWF	POSTDEC1
00214a   5004     movf    0x4, 0, 0        	MOVF	r0x04, W
00214c   6ee5     movwf   0xe5, 0          	MOVWF	POSTDEC1
00214e   5003     movf    0x3, 0, 0        	MOVF	r0x03, W
002150   6ee5     movwf   0xe5, 0          	MOVWF	POSTDEC1
002152   5002     movf    0x2, 0, 0        	MOVF	r0x02, W
002154   6ee5     movwf   0xe5, 0          	MOVWF	POSTDEC1
002156   5001     movf    0x1, 0, 0        	MOVF	r0x01, W
002158   6ee5     movwf   0xe5, 0          	MOVWF	POSTDEC1
00215a   5000     movf    0, 0, 0          	MOVF	r0x00, W
00215c   6ee5     movwf   0xe5, 0          	MOVWF	POSTDEC1
00215e   ecf7     call    0x2dee, 0        	CALL	_pprints
002160   f016
002162   6e00     movwf   0, 0             	MOVWF	r0x00
002164   0e08     movlw   0x8              	MOVLW	0x08
002166   26e1     addwf   0xe1, 0x1, 0     	ADDWF	FSR1L, F
002168   500d     movf    0xd, 0, 0        	MOVF	r0x0d, W
00216a   2600     addwf   0, 0x1, 0        	ADDWF	r0x00, F
00216c   5000     movf    0, 0, 0          	MOVF	r0x00, W
                                           _00266_DS_:
00216e   cfe4     movff   0xfe4, 0x1b      	MOVFF	PREINC1, r0x1b
002170   f01b
002172   cfe4     movff   0xfe4, 0x1a      	MOVFF	PREINC1, r0x1a
002174   f01a
002176   cfe4     movff   0xfe4, 0x19      	MOVFF	PREINC1, r0x19
002178   f019
00217a   cfe4     movff   0xfe4, 0x18      	MOVFF	PREINC1, r0x18
00217c   f018
00217e   cfe4     movff   0xfe4, 0x17      	MOVFF	PREINC1, r0x17
002180   f017
002182   cfe4     movff   0xfe4, 0x16      	MOVFF	PREINC1, r0x16
002184   f016
002186   cfe4     movff   0xfe4, 0x15      	MOVFF	PREINC1, r0x15
002188   f015
00218a   cfe4     movff   0xfe4, 0x14      	MOVFF	PREINC1, r0x14
00218c   f014
00218e   cfe4     movff   0xfe4, 0x13      	MOVFF	PREINC1, r0x13
002190   f013
002192   cfe4     movff   0xfe4, 0x12      	MOVFF	PREINC1, r0x12
002194   f012
002196   cfe4     movff   0xfe4, 0x11      	MOVFF	PREINC1, r0x11
002198   f011
00219a   cfe4     movff   0xfe4, 0x10      	MOVFF	PREINC1, r0x10
00219c   f010
00219e   cfe4     movff   0xfe4, 0xf       	MOVFF	PREINC1, r0x0f
0021a0   f00f
0021a2   cfe4     movff   0xfe4, 0xe       	MOVFF	PREINC1, r0x0e
0021a4   f00e
0021a6   cfe4     movff   0xfe4, 0xd       	MOVFF	PREINC1, r0x0d
0021a8   f00d
0021aa   cfe4     movff   0xfe4, 0xc       	MOVFF	PREINC1, r0x0c
0021ac   f00c
0021ae   cfe4     movff   0xfe4, 0xb       	MOVFF	PREINC1, r0x0b
0021b0   f00b
0021b2   cfe4     movff   0xfe4, 0xa       	MOVFF	PREINC1, r0x0a
0021b4   f00a
0021b6   cfe4     movff   0xfe4, 0x9       	MOVFF	PREINC1, r0x09
0021b8   f009
0021ba   cfe4     movff   0xfe4, 0x8       	MOVFF	PREINC1, r0x08
0021bc   f008
0021be   cfe4     movff   0xfe4, 0x7       	MOVFF	PREINC1, r0x07
0021c0   f007
0021c2   cfe4     movff   0xfe4, 0x6       	MOVFF	PREINC1, r0x06
0021c4   f006
0021c6   cfe4     movff   0xfe4, 0x5       	MOVFF	PREINC1, r0x05
0021c8   f005
0021ca   cfe4     movff   0xfe4, 0x4       	MOVFF	PREINC1, r0x04
0021cc   f004
0021ce   cfe4     movff   0xfe4, 0x3       	MOVFF	PREINC1, r0x03
0021d0   f003
0021d2   cfe4     movff   0xfe4, 0x2       	MOVFF	PREINC1, r0x02
0021d4   f002
0021d6   cfe4     movff   0xfe4, 0x1       	MOVFF	PREINC1, r0x01
0021d8   f001
0021da   cfe4     movff   0xfe4, 0         	MOVFF	PREINC1, r0x00
0021dc   f000
0021de   cfe4     movff   0xfe4, 0xfd9     	MOVFF	PREINC1, FSR2L
0021e0   ffd9
0021e2   0012     return  0                	RETURN	
                                           
                                           ; ; Starting pCode block
                                           S_main__pprints	code
                                           _pprints:
                                           ;	.line	62; /home/regis/Hobbies/Electronique/Projets/Pinguino/svn/branches/x.4/p8/include/pinguino/core/stdio.c	static int pprints(u8 **out, const u8 *string, u8 width, u8 pad)
002dee   cfd9     movff   0xfd9, 0xfe5     	MOVFF	FSR2L, POSTDEC1
002df0   ffe5
002df2   cfe1     movff   0xfe1, 0xfd9     	MOVFF	FSR1L, FSR2L
002df4   ffd9
002df6   c000     movff   0, 0xfe5         	MOVFF	r0x00, POSTDEC1
002df8   ffe5
002dfa   c001     movff   0x1, 0xfe5       	MOVFF	r0x01, POSTDEC1
002dfc   ffe5
002dfe   c002     movff   0x2, 0xfe5       	MOVFF	r0x02, POSTDEC1
002e00   ffe5
002e02   c003     movff   0x3, 0xfe5       	MOVFF	r0x03, POSTDEC1
002e04   ffe5
002e06   c004     movff   0x4, 0xfe5       	MOVFF	r0x04, POSTDEC1
002e08   ffe5
002e0a   c005     movff   0x5, 0xfe5       	MOVFF	r0x05, POSTDEC1
002e0c   ffe5
002e0e   c006     movff   0x6, 0xfe5       	MOVFF	r0x06, POSTDEC1
002e10   ffe5
002e12   c007     movff   0x7, 0xfe5       	MOVFF	r0x07, POSTDEC1
002e14   ffe5
002e16   c008     movff   0x8, 0xfe5       	MOVFF	r0x08, POSTDEC1
002e18   ffe5
002e1a   c009     movff   0x9, 0xfe5       	MOVFF	r0x09, POSTDEC1
002e1c   ffe5
002e1e   c00a     movff   0xa, 0xfe5       	MOVFF	r0x0a, POSTDEC1
002e20   ffe5
002e22   c00b     movff   0xb, 0xfe5       	MOVFF	r0x0b, POSTDEC1
002e24   ffe5
002e26   c00c     movff   0xc, 0xfe5       	MOVFF	r0x0c, POSTDEC1
002e28   ffe5
002e2a   c00d     movff   0xd, 0xfe5       	MOVFF	r0x0d, POSTDEC1
002e2c   ffe5
002e2e   c00e     movff   0xe, 0xfe5       	MOVFF	r0x0e, POSTDEC1
002e30   ffe5
002e32   0e02     movlw   0x2              	MOVLW	0x02
002e34   cfdb     movff   0xfdb, 0         	MOVFF	PLUSW2, r0x00
002e36   f000
002e38   0e03     movlw   0x3              	MOVLW	0x03
002e3a   cfdb     movff   0xfdb, 0x1       	MOVFF	PLUSW2, r0x01
002e3c   f001
002e3e   0e04     movlw   0x4              	MOVLW	0x04
002e40   cfdb     movff   0xfdb, 0x2       	MOVFF	PLUSW2, r0x02
002e42   f002
002e44   0e05     movlw   0x5              	MOVLW	0x05
002e46   cfdb     movff   0xfdb, 0x3       	MOVFF	PLUSW2, r0x03
002e48   f003
002e4a   0e06     movlw   0x6              	MOVLW	0x06
002e4c   cfdb     movff   0xfdb, 0x4       	MOVFF	PLUSW2, r0x04
002e4e   f004
002e50   0e07     movlw   0x7              	MOVLW	0x07
002e52   cfdb     movff   0xfdb, 0x5       	MOVFF	PLUSW2, r0x05
002e54   f005
002e56   0e08     movlw   0x8              	MOVLW	0x08
002e58   cfdb     movff   0xfdb, 0x6       	MOVFF	PLUSW2, r0x06
002e5a   f006
002e5c   0e09     movlw   0x9              	MOVLW	0x09
002e5e   cfdb     movff   0xfdb, 0x7       	MOVFF	PLUSW2, r0x07
002e60   f007
                                           ;	.line	64; /home/regis/Hobbies/Electronique/Projets/Pinguino/svn/branches/x.4/p8/include/pinguino/core/stdio.c	register u8 pc = 0;
002e62   6a08     clrf    0x8, 0           	CLRF	r0x08
                                           ;	.line	65; /home/regis/Hobbies/Electronique/Projets/Pinguino/svn/branches/x.4/p8/include/pinguino/core/stdio.c	u8 padchar = ' ';
002e64   0e20     movlw   0x20             	MOVLW	0x20
002e66   6e09     movwf   0x9, 0           	MOVWF	r0x09
                                           ;	.line	69; /home/regis/Hobbies/Electronique/Projets/Pinguino/svn/branches/x.4/p8/include/pinguino/core/stdio.c	if (width > 0)
002e68   5006     movf    0x6, 0, 0        	MOVF	r0x06, W
002e6a   e022     bz      0x2eb0           	BZ	_00188_DS_
                                           ;	.line	71; /home/regis/Hobbies/Electronique/Projets/Pinguino/svn/branches/x.4/p8/include/pinguino/core/stdio.c	for (ptr = string; *ptr; ++ptr)
002e6c   6a0a     clrf    0xa, 0           	CLRF	r0x0a
002e6e   c003     movff   0x3, 0xb         	MOVFF	r0x03, r0x0b
002e70   f00b
002e72   c004     movff   0x4, 0xc         	MOVFF	r0x04, r0x0c
002e74   f00c
002e76   c005     movff   0x5, 0xd         	MOVFF	r0x05, r0x0d
002e78   f00d
                                           _00191_DS_:
002e7a   c00b     movff   0xb, 0xfe9       	MOVFF	r0x0b, FSR0L
002e7c   ffe9
002e7e   c00c     movff   0xc, 0xff3       	MOVFF	r0x0c, PRODL
002e80   fff3
002e82   500d     movf    0xd, 0, 0        	MOVF	r0x0d, W
002e84   ecdd     call    0x4bba, 0        	CALL	__gptrget1
002e86   f025
002e88   6e0e     movwf   0xe, 0           	MOVWF	r0x0e
002e8a   500e     movf    0xe, 0, 0        	MOVF	r0x0e, W
002e8c   e006     bz      0x2e9a           	BZ	_00194_DS_
                                           ;	.line	72; /home/regis/Hobbies/Electronique/Projets/Pinguino/svn/branches/x.4/p8/include/pinguino/core/stdio.c	++len;
002e8e   2a0a     incf    0xa, 0x1, 0      	INCF	r0x0a, F
                                           ;	.line	71; /home/regis/Hobbies/Electronique/Projets/Pinguino/svn/branches/x.4/p8/include/pinguino/core/stdio.c	for (ptr = string; *ptr; ++ptr)
002e90   2a0b     incf    0xb, 0x1, 0      	INCF	r0x0b, F
002e92   e3f3     bnc     0x2e7a           	BNC	_00191_DS_
002e94   4a0c     infsnz  0xc, 0x1, 0      	INFSNZ	r0x0c, F
002e96   2a0d     incf    0xd, 0x1, 0      	INCF	r0x0d, F
                                           _00240_DS_:
002e98   d7f0     bra     0x2e7a           	BRA	_00191_DS_
                                           _00194_DS_:
                                           ;	.line	73; /home/regis/Hobbies/Electronique/Projets/Pinguino/svn/branches/x.4/p8/include/pinguino/core/stdio.c	if (len >= width)
002e9a   5006     movf    0x6, 0, 0        	MOVF	r0x06, W
002e9c   5c0a     subwf   0xa, 0, 0        	SUBWF	r0x0a, W
002e9e   e302     bnc     0x2ea4           	BNC	_00183_DS_
                                           ;	.line	74; /home/regis/Hobbies/Electronique/Projets/Pinguino/svn/branches/x.4/p8/include/pinguino/core/stdio.c	width = 0;
002ea0   6a06     clrf    0x6, 0           	CLRF	r0x06
002ea2   d002     bra     0x2ea8           	BRA	_00184_DS_
                                           _00183_DS_:
                                           ;	.line	76; /home/regis/Hobbies/Electronique/Projets/Pinguino/svn/branches/x.4/p8/include/pinguino/core/stdio.c	width -= len;
002ea4   500a     movf    0xa, 0, 0        	MOVF	r0x0a, W
002ea6   5e06     subwf   0x6, 0x1, 0      	SUBWF	r0x06, F
                                           _00184_DS_:
                                           ;	.line	77; /home/regis/Hobbies/Electronique/Projets/Pinguino/svn/branches/x.4/p8/include/pinguino/core/stdio.c	if (pad & PAD_ZERO) padchar = '0';
002ea8   a207     btfss   0x7, 0x1, 0      	BTFSS	r0x07, 1
002eaa   d002     bra     0x2eb0           	BRA	_00188_DS_
002eac   0e30     movlw   0x30             	MOVLW	0x30
002eae   6e09     movwf   0x9, 0           	MOVWF	r0x09
                                           _00188_DS_:
                                           ;	.line	79; /home/regis/Hobbies/Electronique/Projets/Pinguino/svn/branches/x.4/p8/include/pinguino/core/stdio.c	if (!(pad & PAD_RIGHT))
002eb0   b007     btfsc   0x7, 0, 0        	BTFSC	r0x07, 0
002eb2   d019     bra     0x2ee6           	BRA	_00221_DS_
002eb4   6a07     clrf    0x7, 0           	CLRF	r0x07
002eb6   c006     movff   0x6, 0xa         	MOVFF	r0x06, r0x0a
002eb8   f00a
                                           _00195_DS_:
                                           ;	.line	81; /home/regis/Hobbies/Electronique/Projets/Pinguino/svn/branches/x.4/p8/include/pinguino/core/stdio.c	for ( ; width > 0; --width)
002eba   500a     movf    0xa, 0, 0        	MOVF	r0x0a, W
002ebc   e105     bnz     0x2ec8           	BNZ	_00196_DS_
002ebe   c007     movff   0x7, 0x8         	MOVFF	r0x07, r0x08
002ec0   f008
002ec2   c00a     movff   0xa, 0x6         	MOVFF	r0x0a, r0x06
002ec4   f006
002ec6   d00f     bra     0x2ee6           	BRA	_00221_DS_
                                           _00196_DS_:
                                           ;	.line	83; /home/regis/Hobbies/Electronique/Projets/Pinguino/svn/branches/x.4/p8/include/pinguino/core/stdio.c	pprintc(out, padchar);
002ec8   5009     movf    0x9, 0, 0        	MOVF	r0x09, W
002eca   6ee5     movwf   0xe5, 0          	MOVWF	POSTDEC1
002ecc   5002     movf    0x2, 0, 0        	MOVF	r0x02, W
002ece   6ee5     movwf   0xe5, 0          	MOVWF	POSTDEC1
002ed0   5001     movf    0x1, 0, 0        	MOVF	r0x01, W
002ed2   6ee5     movwf   0xe5, 0          	MOVWF	POSTDEC1
002ed4   5000     movf    0, 0, 0          	MOVF	r0x00, W
002ed6   6ee5     movwf   0xe5, 0          	MOVWF	POSTDEC1
002ed8   ec38     call    0x3870, 0        	CALL	_pprintc
002eda   f01c
002edc   0e04     movlw   0x4              	MOVLW	0x04
002ede   26e1     addwf   0xe1, 0x1, 0     	ADDWF	FSR1L, F
                                           ;	.line	84; /home/regis/Hobbies/Electronique/Projets/Pinguino/svn/branches/x.4/p8/include/pinguino/core/stdio.c	++pc;
002ee0   2a07     incf    0x7, 0x1, 0      	INCF	r0x07, F
                                           ;	.line	81; /home/regis/Hobbies/Electronique/Projets/Pinguino/svn/branches/x.4/p8/include/pinguino/core/stdio.c	for ( ; width > 0; --width)
002ee2   060a     decf    0xa, 0x1, 0      	DECF	r0x0a, F
002ee4   d7ea     bra     0x2eba           	BRA	_00195_DS_
                                           _00221_DS_:
002ee6   c008     movff   0x8, 0x7         	MOVFF	r0x08, r0x07
002ee8   f007
                                           _00199_DS_:
                                           ;	.line	87; /home/regis/Hobbies/Electronique/Projets/Pinguino/svn/branches/x.4/p8/include/pinguino/core/stdio.c	for ( ; *string ; ++string)
002eea   c003     movff   0x3, 0xfe9       	MOVFF	r0x03, FSR0L
002eec   ffe9
002eee   c004     movff   0x4, 0xff3       	MOVFF	r0x04, PRODL
002ef0   fff3
002ef2   5005     movf    0x5, 0, 0        	MOVF	r0x05, W
002ef4   ecdd     call    0x4bba, 0        	CALL	__gptrget1
002ef6   f025
002ef8   6e08     movwf   0x8, 0           	MOVWF	r0x08
002efa   5008     movf    0x8, 0, 0        	MOVF	r0x08, W
002efc   e012     bz      0x2f22           	BZ	_00223_DS_
                                           ;	.line	89; /home/regis/Hobbies/Electronique/Projets/Pinguino/svn/branches/x.4/p8/include/pinguino/core/stdio.c	pprintc(out, *string);
002efe   5008     movf    0x8, 0, 0        	MOVF	r0x08, W
002f00   6ee5     movwf   0xe5, 0          	MOVWF	POSTDEC1
002f02   5002     movf    0x2, 0, 0        	MOVF	r0x02, W
002f04   6ee5     movwf   0xe5, 0          	MOVWF	POSTDEC1
002f06   5001     movf    0x1, 0, 0        	MOVF	r0x01, W
002f08   6ee5     movwf   0xe5, 0          	MOVWF	POSTDEC1
002f0a   5000     movf    0, 0, 0          	MOVF	r0x00, W
002f0c   6ee5     movwf   0xe5, 0          	MOVWF	POSTDEC1
002f0e   ec38     call    0x3870, 0        	CALL	_pprintc
002f10   f01c
002f12   0e04     movlw   0x4              	MOVLW	0x04
002f14   26e1     addwf   0xe1, 0x1, 0     	ADDWF	FSR1L, F
                                           ;	.line	90; /home/regis/Hobbies/Electronique/Projets/Pinguino/svn/branches/x.4/p8/include/pinguino/core/stdio.c	++pc;
002f16   2a07     incf    0x7, 0x1, 0      	INCF	r0x07, F
                                           ;	.line	87; /home/regis/Hobbies/Electronique/Projets/Pinguino/svn/branches/x.4/p8/include/pinguino/core/stdio.c	for ( ; *string ; ++string)
002f18   2a03     incf    0x3, 0x1, 0      	INCF	r0x03, F
002f1a   e3e7     bnc     0x2eea           	BNC	_00199_DS_
002f1c   4a04     infsnz  0x4, 0x1, 0      	INFSNZ	r0x04, F
002f1e   2a05     incf    0x5, 0x1, 0      	INCF	r0x05, F
                                           _00244_DS_:
002f20   d7e4     bra     0x2eea           	BRA	_00199_DS_
                                           _00223_DS_:
002f22   c007     movff   0x7, 0x3         	MOVFF	r0x07, r0x03
002f24   f003
002f26   c006     movff   0x6, 0x4         	MOVFF	r0x06, r0x04
002f28   f004
                                           _00203_DS_:
                                           ;	.line	92; /home/regis/Hobbies/Electronique/Projets/Pinguino/svn/branches/x.4/p8/include/pinguino/core/stdio.c	for ( ; width > 0; --width)
002f2a   5004     movf    0x4, 0, 0        	MOVF	r0x04, W
002f2c   e00f     bz      0x2f4c           	BZ	_00206_DS_
                                           ;	.line	94; /home/regis/Hobbies/Electronique/Projets/Pinguino/svn/branches/x.4/p8/include/pinguino/core/stdio.c	pprintc(out, padchar);
002f2e   5009     movf    0x9, 0, 0        	MOVF	r0x09, W
002f30   6ee5     movwf   0xe5, 0          	MOVWF	POSTDEC1
002f32   5002     movf    0x2, 0, 0        	MOVF	r0x02, W
002f34   6ee5     movwf   0xe5, 0          	MOVWF	POSTDEC1
002f36   5001     movf    0x1, 0, 0        	MOVF	r0x01, W
002f38   6ee5     movwf   0xe5, 0          	MOVWF	POSTDEC1
002f3a   5000     movf    0, 0, 0          	MOVF	r0x00, W
002f3c   6ee5     movwf   0xe5, 0          	MOVWF	POSTDEC1
002f3e   ec38     call    0x3870, 0        	CALL	_pprintc
002f40   f01c
002f42   0e04     movlw   0x4              	MOVLW	0x04
002f44   26e1     addwf   0xe1, 0x1, 0     	ADDWF	FSR1L, F
                                           ;	.line	95; /home/regis/Hobbies/Electronique/Projets/Pinguino/svn/branches/x.4/p8/include/pinguino/core/stdio.c	++pc;
002f46   2a03     incf    0x3, 0x1, 0      	INCF	r0x03, F
                                           ;	.line	92; /home/regis/Hobbies/Electronique/Projets/Pinguino/svn/branches/x.4/p8/include/pinguino/core/stdio.c	for ( ; width > 0; --width)
002f48   0604     decf    0x4, 0x1, 0      	DECF	r0x04, F
002f4a   d7ef     bra     0x2f2a           	BRA	_00203_DS_
                                           ; =DF= MOVFF: replaced by CRLF/SETF
                                           _00206_DS_:
                                           ;	.line	98; /home/regis/Hobbies/Electronique/Projets/Pinguino/svn/branches/x.4/p8/include/pinguino/core/stdio.c	return pc;
002f4c   6af3     clrf    0xf3, 0          	CLRF	PRODL
002f4e   5003     movf    0x3, 0, 0        	MOVF	r0x03, W
002f50   cfe4     movff   0xfe4, 0xe       	MOVFF	PREINC1, r0x0e
002f52   f00e
002f54   cfe4     movff   0xfe4, 0xd       	MOVFF	PREINC1, r0x0d
002f56   f00d
002f58   cfe4     movff   0xfe4, 0xc       	MOVFF	PREINC1, r0x0c
002f5a   f00c
002f5c   cfe4     movff   0xfe4, 0xb       	MOVFF	PREINC1, r0x0b
002f5e   f00b
002f60   cfe4     movff   0xfe4, 0xa       	MOVFF	PREINC1, r0x0a
002f62   f00a
002f64   cfe4     movff   0xfe4, 0x9       	MOVFF	PREINC1, r0x09
002f66   f009
002f68   cfe4     movff   0xfe4, 0x8       	MOVFF	PREINC1, r0x08
002f6a   f008
002f6c   cfe4     movff   0xfe4, 0x7       	MOVFF	PREINC1, r0x07
002f6e   f007
002f70   cfe4     movff   0xfe4, 0x6       	MOVFF	PREINC1, r0x06
002f72   f006
002f74   cfe4     movff   0xfe4, 0x5       	MOVFF	PREINC1, r0x05
002f76   f005
002f78   cfe4     movff   0xfe4, 0x4       	MOVFF	PREINC1, r0x04
002f7a   f004
002f7c   cfe4     movff   0xfe4, 0x3       	MOVFF	PREINC1, r0x03
002f7e   f003
002f80   cfe4     movff   0xfe4, 0x2       	MOVFF	PREINC1, r0x02
002f82   f002
002f84   cfe4     movff   0xfe4, 0x1       	MOVFF	PREINC1, r0x01
002f86   f001
002f88   cfe4     movff   0xfe4, 0         	MOVFF	PREINC1, r0x00
002f8a   f000
002f8c   cfe4     movff   0xfe4, 0xfd9     	MOVFF	PREINC1, FSR2L
002f8e   ffd9
002f90   0012     return  0                	RETURN	
                                           
                                           ; ; Starting pCode block
                                           S_main__pprintc	code
                                           _pprintc:
                                           ;	.line	42; /home/regis/Hobbies/Electronique/Projets/Pinguino/svn/branches/x.4/p8/include/pinguino/core/stdio.c	static void pprintc(u8 **str, u8 c)
003870   cfd9     movff   0xfd9, 0xfe5     	MOVFF	FSR2L, POSTDEC1
003872   ffe5
003874   cfe1     movff   0xfe1, 0xfd9     	MOVFF	FSR1L, FSR2L
003876   ffd9
003878   c000     movff   0, 0xfe5         	MOVFF	r0x00, POSTDEC1
00387a   ffe5
00387c   c001     movff   0x1, 0xfe5       	MOVFF	r0x01, POSTDEC1
00387e   ffe5
003880   c002     movff   0x2, 0xfe5       	MOVFF	r0x02, POSTDEC1
003882   ffe5
003884   c003     movff   0x3, 0xfe5       	MOVFF	r0x03, POSTDEC1
003886   ffe5
003888   c004     movff   0x4, 0xfe5       	MOVFF	r0x04, POSTDEC1
00388a   ffe5
00388c   c005     movff   0x5, 0xfe5       	MOVFF	r0x05, POSTDEC1
00388e   ffe5
003890   c006     movff   0x6, 0xfe5       	MOVFF	r0x06, POSTDEC1
003892   ffe5
003894   0e02     movlw   0x2              	MOVLW	0x02
003896   cfdb     movff   0xfdb, 0         	MOVFF	PLUSW2, r0x00
003898   f000
00389a   0e03     movlw   0x3              	MOVLW	0x03
00389c   cfdb     movff   0xfdb, 0x1       	MOVFF	PLUSW2, r0x01
00389e   f001
0038a0   0e04     movlw   0x4              	MOVLW	0x04
0038a2   cfdb     movff   0xfdb, 0x2       	MOVFF	PLUSW2, r0x02
0038a4   f002
0038a6   0e05     movlw   0x5              	MOVLW	0x05
0038a8   cfdb     movff   0xfdb, 0x3       	MOVFF	PLUSW2, r0x03
0038aa   f003
                                           ;	.line	44; /home/regis/Hobbies/Electronique/Projets/Pinguino/svn/branches/x.4/p8/include/pinguino/core/stdio.c	if (str)
0038ac   5000     movf    0, 0, 0          	MOVF	r0x00, W
0038ae   1001     iorwf   0x1, 0, 0        	IORWF	r0x01, W
0038b0   1002     iorwf   0x2, 0, 0        	IORWF	r0x02, W
0038b2   e033     bz      0x391a           	BZ	_00170_DS_
                                           ;	.line	46; /home/regis/Hobbies/Electronique/Projets/Pinguino/svn/branches/x.4/p8/include/pinguino/core/stdio.c	**str = c;
0038b4   c000     movff   0, 0xfe9         	MOVFF	r0x00, FSR0L
0038b6   ffe9
0038b8   c001     movff   0x1, 0xff3       	MOVFF	r0x01, PRODL
0038ba   fff3
0038bc   5002     movf    0x2, 0, 0        	MOVF	r0x02, W
0038be   ecac     call    0x4b58, 0        	CALL	__gptrget3
0038c0   f025
0038c2   6e04     movwf   0x4, 0           	MOVWF	r0x04
0038c4   cff3     movff   0xff3, 0x5       	MOVFF	PRODL, r0x05
0038c6   f005
0038c8   cff4     movff   0xff4, 0x6       	MOVFF	PRODH, r0x06
0038ca   f006
0038cc   c003     movff   0x3, 0xfe5       	MOVFF	r0x03, POSTDEC1
0038ce   ffe5
0038d0   c004     movff   0x4, 0xfe9       	MOVFF	r0x04, FSR0L
0038d2   ffe9
0038d4   c005     movff   0x5, 0xff3       	MOVFF	r0x05, PRODL
0038d6   fff3
0038d8   5006     movf    0x6, 0, 0        	MOVF	r0x06, W
0038da   ec49     call    0x4c92, 0        	CALL	__gptrput1
0038dc   f026
                                           ;	.line	47; /home/regis/Hobbies/Electronique/Projets/Pinguino/svn/branches/x.4/p8/include/pinguino/core/stdio.c	++(*str);
0038de   c000     movff   0, 0xfe9         	MOVFF	r0x00, FSR0L
0038e0   ffe9
0038e2   c001     movff   0x1, 0xff3       	MOVFF	r0x01, PRODL
0038e4   fff3
0038e6   5002     movf    0x2, 0, 0        	MOVF	r0x02, W
0038e8   ecac     call    0x4b58, 0        	CALL	__gptrget3
0038ea   f025
0038ec   6e04     movwf   0x4, 0           	MOVWF	r0x04
0038ee   cff3     movff   0xff3, 0x5       	MOVFF	PRODL, r0x05
0038f0   f005
0038f2   cff4     movff   0xff4, 0x6       	MOVFF	PRODH, r0x06
0038f4   f006
0038f6   2a04     incf    0x4, 0x1, 0      	INCF	r0x04, F
0038f8   e302     bnc     0x38fe           	BNC	_00176_DS_
0038fa   4a05     infsnz  0x5, 0x1, 0      	INFSNZ	r0x05, F
0038fc   2a06     incf    0x6, 0x1, 0      	INCF	r0x06, F
                                           _00176_DS_:
0038fe   c004     movff   0x4, 0xfe5       	MOVFF	r0x04, POSTDEC1
003900   ffe5
003902   c005     movff   0x5, 0xff4       	MOVFF	r0x05, PRODH
003904   fff4
003906   c006     movff   0x6, 0xff6       	MOVFF	r0x06, TBLPTRL
003908   fff6
00390a   c000     movff   0, 0xfe9         	MOVFF	r0x00, FSR0L
00390c   ffe9
00390e   c001     movff   0x1, 0xff3       	MOVFF	r0x01, PRODL
003910   fff3
003912   5002     movf    0x2, 0, 0        	MOVF	r0x02, W
003914   ec18     call    0x4c30, 0        	CALL	__gptrput3
003916   f026
003918   d016     bra     0x3946           	BRA	_00172_DS_
                                           _00170_DS_:
                                           ;	.line	51; /home/regis/Hobbies/Electronique/Projets/Pinguino/svn/branches/x.4/p8/include/pinguino/core/stdio.c	pputchar(c);
00391a   5003     movf    0x3, 0, 0        	MOVF	r0x03, W
00391c   6ee5     movwf   0xe5, 0          	MOVWF	POSTDEC1
00391e   cff2     movff   0xff2, 0xfe5     	MOVFF	INTCON, POSTDEC1
003920   ffe5
003922   9ef2     bcf     0xf2, 0x7, 0     	BCF	INTCON, 7
003924   0005     push                     	PUSH	
003926   0e44     movlw   0x44             	MOVLW	LOW(_00177_DS_)
003928   6efd     movwf   0xfd, 0          	MOVWF	TOSL
00392a   0e39     movlw   0x39             	MOVLW	HIGH(_00177_DS_)
00392c   6efe     movwf   0xfe, 0          	MOVWF	TOSH
00392e   0e00     movlw   0                	MOVLW	UPPER(_00177_DS_)
003930   6eff     movwf   0xff, 0          	MOVWF	TOSU
003932   bee4     btfsc   0xe4, 0x7, 0     	BTFSC	PREINC1, 7
003934   8ef2     bsf     0xf2, 0x7, 0     	BSF	INTCON, 7
003936   ce4d     movff   0xe4d, 0xffb     	MOVFF	(_pputchar + 2), PCLATU
003938   fffb
00393a   ce4c     movff   0xe4c, 0xffa     	MOVFF	(_pputchar + 1), PCLATH
00393c   fffa
00393e   010e     movlb   0xe              	BANKSEL	_pputchar
003940   514b     movf    0x4b, 0, 0x1     	MOVF	_pputchar, W, B
003942   6ef9     movwf   0xf9, 0          	MOVWF	PCL
                                           _00177_DS_:
003944   52e6     movf    0xe6, 0x1, 0     	MOVF	POSTINC1, F
                                           _00172_DS_:
003946   cfe4     movff   0xfe4, 0x6       	MOVFF	PREINC1, r0x06
003948   f006
00394a   cfe4     movff   0xfe4, 0x5       	MOVFF	PREINC1, r0x05
00394c   f005
00394e   cfe4     movff   0xfe4, 0x4       	MOVFF	PREINC1, r0x04
003950   f004
003952   cfe4     movff   0xfe4, 0x3       	MOVFF	PREINC1, r0x03
003954   f003
003956   cfe4     movff   0xfe4, 0x2       	MOVFF	PREINC1, r0x02
003958   f002
00395a   cfe4     movff   0xfe4, 0x1       	MOVFF	PREINC1, r0x01
00395c   f001
00395e   cfe4     movff   0xfe4, 0         	MOVFF	PREINC1, r0x00
003960   f000
003962   cfe4     movff   0xfe4, 0xfd9     	MOVFF	PREINC1, FSR2L
003964   ffd9
003966   0012     return  0                	RETURN	
                                           
                                           ; ; Starting pCode block
                                           S_main__Delayus	code
                                           _Delayus:
                                           ;	.line	17; /home/regis/Hobbies/Electronique/Projets/Pinguino/svn/branches/x.4/p8/include/pinguino/core/delay.c	void Delayus(u16 microsecondes)
004a02   cfd9     movff   0xfd9, 0xfe5     	MOVFF	FSR2L, POSTDEC1
004a04   ffe5
004a06   cfe1     movff   0xfe1, 0xfd9     	MOVFF	FSR1L, FSR2L
004a08   ffd9
004a0a   c000     movff   0, 0xfe5         	MOVFF	r0x00, POSTDEC1
004a0c   ffe5
004a0e   c001     movff   0x1, 0xfe5       	MOVFF	r0x01, POSTDEC1
004a10   ffe5
004a12   c002     movff   0x2, 0xfe5       	MOVFF	r0x02, POSTDEC1
004a14   ffe5
004a16   c003     movff   0x3, 0xfe5       	MOVFF	r0x03, POSTDEC1
004a18   ffe5
004a1a   0e02     movlw   0x2              	MOVLW	0x02
004a1c   cfdb     movff   0xfdb, 0         	MOVFF	PLUSW2, r0x00
004a1e   f000
004a20   0e03     movlw   0x3              	MOVLW	0x03
004a22   cfdb     movff   0xfdb, 0x1       	MOVFF	PLUSW2, r0x01
004a24   f001
                                           ;	.line	21; /home/regis/Hobbies/Electronique/Projets/Pinguino/svn/branches/x.4/p8/include/pinguino/core/delay.c	for (i=0;i<microsecondes;i++);
004a26   6a02     clrf    0x2, 0           	CLRF	r0x02
004a28   6a03     clrf    0x3, 0           	CLRF	r0x03
                                           _00153_DS_:
004a2a   5001     movf    0x1, 0, 0        	MOVF	r0x01, W
004a2c   5c03     subwf   0x3, 0, 0        	SUBWF	r0x03, W
004a2e   e102     bnz     0x4a34           	BNZ	_00164_DS_
004a30   5000     movf    0, 0, 0          	MOVF	r0x00, W
004a32   5c02     subwf   0x2, 0, 0        	SUBWF	r0x02, W
                                           _00164_DS_:
004a34   e203     bc      0x4a3c           	BC	_00157_DS_
004a36   4a02     infsnz  0x2, 0x1, 0      	INFSNZ	r0x02, F
004a38   2a03     incf    0x3, 0x1, 0      	INCF	r0x03, F
004a3a   d7f7     bra     0x4a2a           	BRA	_00153_DS_
                                           _00157_DS_:
004a3c   cfe4     movff   0xfe4, 0x3       	MOVFF	PREINC1, r0x03
004a3e   f003
004a40   cfe4     movff   0xfe4, 0x2       	MOVFF	PREINC1, r0x02
004a42   f002
004a44   cfe4     movff   0xfe4, 0x1       	MOVFF	PREINC1, r0x01
004a46   f001
004a48   cfe4     movff   0xfe4, 0         	MOVFF	PREINC1, r0x00
004a4a   f000
004a4c   cfe4     movff   0xfe4, 0xfd9     	MOVFF	PREINC1, FSR2L
004a4e   ffd9
004a50   0012     return  0                	RETURN	
                                           
                                           ; ; Starting pCode block
                                           S_main__Delayms	code
                                           _Delayms:
                                           ;	.line	10; /home/regis/Hobbies/Electronique/Projets/Pinguino/svn/branches/x.4/p8/include/pinguino/core/delay.c	void Delayms(u16 milliseconde)
004866   cfd9     movff   0xfd9, 0xfe5     	MOVFF	FSR2L, POSTDEC1
004868   ffe5
00486a   cfe1     movff   0xfe1, 0xfd9     	MOVFF	FSR1L, FSR2L
00486c   ffd9
00486e   c000     movff   0, 0xfe5         	MOVFF	r0x00, POSTDEC1
004870   ffe5
004872   c001     movff   0x1, 0xfe5       	MOVFF	r0x01, POSTDEC1
004874   ffe5
004876   c002     movff   0x2, 0xfe5       	MOVFF	r0x02, POSTDEC1
004878   ffe5
00487a   c003     movff   0x3, 0xfe5       	MOVFF	r0x03, POSTDEC1
00487c   ffe5
00487e   0e02     movlw   0x2              	MOVLW	0x02
004880   cfdb     movff   0xfdb, 0         	MOVFF	PLUSW2, r0x00
004882   f000
004884   0e03     movlw   0x3              	MOVLW	0x03
004886   cfdb     movff   0xfdb, 0x1       	MOVFF	PLUSW2, r0x01
004888   f001
                                           ;	.line	14; /home/regis/Hobbies/Electronique/Projets/Pinguino/svn/branches/x.4/p8/include/pinguino/core/delay.c	for (i=0;i<milliseconde;i++) delay10ktcy(1);
00488a   6a02     clrf    0x2, 0           	CLRF	r0x02
00488c   6a03     clrf    0x3, 0           	CLRF	r0x03
                                           _00137_DS_:
00488e   5001     movf    0x1, 0, 0        	MOVF	r0x01, W
004890   5c03     subwf   0x3, 0, 0        	SUBWF	r0x03, W
004892   e102     bnz     0x4898           	BNZ	_00148_DS_
004894   5000     movf    0, 0, 0          	MOVF	r0x00, W
004896   5c02     subwf   0x2, 0, 0        	SUBWF	r0x02, W
                                           _00148_DS_:
004898   e206     bc      0x48a6           	BC	_00141_DS_
00489a   0e01     movlw   0x1              	MOVLW	0x01
00489c   ec53     call    0x18a6, 0        	CALL	_delay10ktcy
00489e   f00c
0048a0   4a02     infsnz  0x2, 0x1, 0      	INFSNZ	r0x02, F
0048a2   2a03     incf    0x3, 0x1, 0      	INCF	r0x03, F
0048a4   d7f4     bra     0x488e           	BRA	_00137_DS_
                                           _00141_DS_:
0048a6   cfe4     movff   0xfe4, 0x3       	MOVFF	PREINC1, r0x03
0048a8   f003
0048aa   cfe4     movff   0xfe4, 0x2       	MOVFF	PREINC1, r0x02
0048ac   f002
0048ae   cfe4     movff   0xfe4, 0x1       	MOVFF	PREINC1, r0x01
0048b0   f001
0048b2   cfe4     movff   0xfe4, 0         	MOVFF	PREINC1, r0x00
0048b4   f000
0048b6   cfe4     movff   0xfe4, 0xfd9     	MOVFF	PREINC1, FSR2L
0048b8   ffd9
0048ba   0012     return  0                	RETURN	
                                           
                                           ; ; Starting pCode block
                                           S_main__ILI9325_getFontHeight	code
                                           _ILI9325_getFontHeight:
                                           ;	.line	14; /home/regis/Hobbies/Electronique/Projets/Pinguino/projets/TFT/Font16x8.c	return 16;
000c04   0e10     movlw   0x10             	MOVLW	0x10
000c06   0012     return  0                	RETURN	
                                           
                                           ; ; Starting pCode block
                                           S_main__ILI9325_getFontWidth	code
                                           _ILI9325_getFontWidth:
                                           ;	.line	9; /home/regis/Hobbies/Electronique/Projets/Pinguino/projets/TFT/Font16x8.c	return 8;
004cd0   0e08     movlw   0x8              	MOVLW	0x08
004cd2   0012     return  0                	RETURN	
                                           
                                           ; ; Starting pCode block
                                           S_main__SystemReset	code
                                           _SystemReset:
                                           _00120_DS_:
                                           ;	.line	79; /home/regis/Hobbies/Electronique/Projets/Pinguino/svn/branches/x.4/p8/include/pinguino/core/system.c	while(1);
004cd4   d7ff     bra     0x4cd4           	BRA	_00120_DS_
004cd6   0012     return  0                	RETURN	
                                           
                                           ; ; Starting pCode block
                                           S_main__SystemLock	code
                                           _SystemLock:
                                           ; #	MOVF	__gie_status_, W, B
                                           ; #	BTFSC	STATUS, 2
                                           ; #	GOTO	_00114_DS_
                                           ; #	BSF	_INTCONbits, 7
                                           ; #	MOVFF	PREINC1, FSR2L
004cb4   010e     movlb   0xe              	BANKSEL	__gie_status_
                                           ;	.line	67; /home/regis/Hobbies/Electronique/Projets/Pinguino/svn/branches/x.4/p8/include/pinguino/core/system.c	if (_gie_status_)
004cb6   5141     movf    0x41, 0, 0x1     	MOVF	__gie_status_, W, B
                                           ;	.line	68; /home/regis/Hobbies/Electronique/Projets/Pinguino/svn/branches/x.4/p8/include/pinguino/core/system.c	INTCONbits.GIE = 1; // enable interrupts back
004cb8   a4d8     btfss   0xd8, 0x2, 0     	BTFSS	STATUS, 2
004cba   8ef2     bsf     0xf2, 0x7, 0     	BSF	_INTCONbits, 7
004cbc   0012     return  0                	RETURN	
                                           
                                           ; ; Starting pCode block
                                           S_main__SystemUnlock	code
                                           _SystemUnlock:
                                           ;	.line	44; /home/regis/Hobbies/Electronique/Projets/Pinguino/svn/branches/x.4/p8/include/pinguino/core/system.c	if (INTCONbits.GIE)
004c66   aef2     btfss   0xf2, 0x7, 0     	BTFSS	_INTCONbits, 7
004c68   d004     bra     0x4c72           	BRA	_00106_DS_
                                           ;	.line	46; /home/regis/Hobbies/Electronique/Projets/Pinguino/svn/branches/x.4/p8/include/pinguino/core/system.c	INTCONbits.GIE = 0; // disable interrupts
004c6a   9ef2     bcf     0xf2, 0x7, 0     	BCF	_INTCONbits, 7
                                           ;	.line	47; /home/regis/Hobbies/Electronique/Projets/Pinguino/svn/branches/x.4/p8/include/pinguino/core/system.c	_gie_status_ = 1;
004c6c   0e01     movlw   0x1              	MOVLW	0x01
004c6e   010e     movlb   0xe              	BANKSEL	__gie_status_
004c70   6f41     movwf   0x41, 0x1        	MOVWF	__gie_status_, B
                                           _00106_DS_:
                                           ;	.line	49; /home/regis/Hobbies/Electronique/Projets/Pinguino/svn/branches/x.4/p8/include/pinguino/core/system.c	EECON2 = 0x55;          // magic sequence
004c72   0e55     movlw   0x55             	MOVLW	0x55
004c74   6ea7     movwf   0xa7, 0          	MOVWF	_EECON2
                                           ;	.line	50; /home/regis/Hobbies/Electronique/Projets/Pinguino/svn/branches/x.4/p8/include/pinguino/core/system.c	EECON2 = 0xAA;
004c76   0eaa     movlw   0xaa             	MOVLW	0xaa
004c78   6ea7     movwf   0xa7, 0          	MOVWF	_EECON2
004c7a   0012     return  0                	RETURN	
                                           
                                           ; ; Starting pCode block for Ival
                                           	code
                                           _font:
0012a6   0000     nop                      	DB	0x00, 0x00, 0x00, 0x00, 0x00, 0x00, 0x00, 0x00, 0x00, 0x00, 0x00, 0x00
0012a8   0000     nop                      
0012aa   0000     nop                      
0012ac   0000     nop                      
0012ae   0000     nop                      
0012b0   0000     nop                      
0012b2   0000     nop                      	DB	0x00, 0x00, 0x00, 0x00, 0x00, 0x00, 0x00, 0x00, 0x18, 0x3c, 0x3c, 0x3c
0012b4   0000     nop                      
0012b6   0000     nop                      
0012b8   0000     nop                      
0012ba   3c18     incfsz  0x18, 0, 0       
0012bc   3c3c     incfsz  0x3c, 0, 0       
0012be   1818     xorwf   0x18, 0, 0       	DB	0x18, 0x18, 0x00, 0x18, 0x18, 0x00, 0x00, 0x00, 0x00, 0x00, 0x00, 0x00
0012c0   1800     xorwf   0, 0, 0          
0012c2   0018     dw      0x18             
0012c4   0000     nop                      
0012c6   0000     nop                      
0012c8   0000     nop                      
0012ca   6666     tstfsz  0x66, 0          	DB	0x66, 0x66, 0x66, 0x00, 0x00, 0x00, 0x00, 0x00, 0x00, 0x00, 0x00, 0x00
0012cc   0066     dw      0x66             
0012ce   0000     nop                      
0012d0   0000     nop                      
0012d2   0000     nop                      
0012d4   0000     nop                      
0012d6   0000     nop                      	DB	0x00, 0x00, 0x00, 0x00, 0x36, 0x36, 0x7f, 0x36, 0x36, 0x36, 0x7f, 0x36
0012d8   0000     nop                      
0012da   3636     rlcf    0x36, 0x1, 0     
0012dc   367f     rlcf    0x7f, 0x1, 0     
0012de   3636     rlcf    0x36, 0x1, 0     
0012e0   367f     rlcf    0x7f, 0x1, 0     
0012e2   0036     dw      0x36             	DB	0x36, 0x00, 0x00, 0x00, 0x00, 0x00, 0x18, 0x18, 0x3c, 0x66, 0x60, 0x30
0012e4   0000     nop                      
0012e6   0000     nop                      
0012e8   1818     xorwf   0x18, 0, 0       
0012ea   663c     tstfsz  0x3c, 0          
0012ec   3060     rrcf    0x60, 0, 0       
0012ee   0c18     retlw   0x18             	DB	0x18, 0x0c, 0x06, 0x66, 0x3c, 0x18, 0x18, 0x00, 0x00, 0x00, 0x00, 0x70
0012f0   6606     tstfsz  0x6, 0           
0012f2   183c     xorwf   0x3c, 0, 0       
0012f4   0018     dw      0x18             
0012f6   0000     nop                      
0012f8   7000     btg     0, 0, 0          
0012fa   dad8     rcall   0x18ac           	DB	0xd8, 0xda, 0x76, 0x0c, 0x18, 0x30, 0x6e, 0x5b, 0x1b, 0x0e, 0x00, 0x00
0012fc   0c76     retlw   0x76             
0012fe   3018     rrcf    0x18, 0, 0       
001300   5b6e     subwfb  0x6e, 0x1, 0x1   
001302   0e1b     movlw   0x1b             
001304   0000     nop                      
001306   0000     nop                      	DB	0x00, 0x00, 0x00, 0x00, 0x38, 0x6c, 0x6c, 0x38, 0x60, 0x6f, 0x66, 0x66
001308   0000     nop                      
00130a   6c38     negf    0x38, 0          
00130c   386c     swapf   0x6c, 0, 0       
00130e   6f60     movwf   0x60, 0x1        
001310   6666     tstfsz  0x66, 0          
001312   003b     dw      0x3b             	DB	0x3b, 0x00, 0x00, 0x00, 0x00, 0x00, 0x00, 0x00, 0x18, 0x18, 0x18, 0x00
001314   0000     nop                      
001316   0000     nop                      
001318   0000     nop                      
00131a   1818     xorwf   0x18, 0, 0       
00131c   0018     dw      0x18             
00131e   0000     nop                      	DB	0x00, 0x00, 0x00, 0x00, 0x00, 0x00, 0x00, 0x00, 0x00, 0x00, 0x00, 0x00
001320   0000     nop                      
001322   0000     nop                      
001324   0000     nop                      
001326   0000     nop                      
001328   0000     nop                      
00132a   180c     xorwf   0xc, 0, 0        	DB	0x0c, 0x18, 0x18, 0x30, 0x30, 0x30, 0x30, 0x30, 0x18, 0x18, 0x0c, 0x00
00132c   3018     rrcf    0x18, 0, 0       
00132e   3030     rrcf    0x30, 0, 0       
001330   3030     rrcf    0x30, 0, 0       
001332   1818     xorwf   0x18, 0, 0       
001334   000c     tblwt   *                
001336   0000     nop                      	DB	0x00, 0x00, 0x00, 0x00, 0x30, 0x18, 0x18, 0x0c, 0x0c, 0x0c, 0x0c, 0x0c
001338   0000     nop                      
00133a   1830     xorwf   0x30, 0, 0       
00133c   0c18     retlw   0x18             
00133e   0c0c     retlw   0xc              
001340   0c0c     retlw   0xc              
001342   1818     xorwf   0x18, 0, 0       	DB	0x18, 0x18, 0x30, 0x00, 0x00, 0x00, 0x00, 0x00, 0x00, 0x00, 0x36, 0x1c
001344   0030     dw      0x30             
001346   0000     nop                      
001348   0000     nop                      
00134a   0000     nop                      
00134c   1c36     comf    0x36, 0, 0       
00134e   1c7f     comf    0x7f, 0, 0       	DB	0x7f, 0x1c, 0x36, 0x00, 0x00, 0x00, 0x00, 0x00, 0x00, 0x00, 0x00, 0x00
001350   0036     dw      0x36             
001352   0000     nop                      
001354   0000     nop                      
001356   0000     nop                      
001358   0000     nop                      
00135a   0000     nop                      	DB	0x00, 0x00, 0x18, 0x18, 0x7e, 0x18, 0x18, 0x00, 0x00, 0x00, 0x00, 0x00
00135c   1818     xorwf   0x18, 0, 0       
00135e   187e     xorwf   0x7e, 0, 0       
001360   0018     dw      0x18             
001362   0000     nop                      
001364   0000     nop                      
001366   0000     nop                      	DB	0x00, 0x00, 0x00, 0x00, 0x00, 0x00, 0x00, 0x00, 0x00, 0x00, 0x1c, 0x1c
001368   0000     nop                      
00136a   0000     nop                      
00136c   0000     nop                      
00136e   0000     nop                      
001370   1c1c     comf    0x1c, 0, 0       
001372   180c     xorwf   0xc, 0, 0        	DB	0x0c, 0x18, 0x00, 0x00, 0x00, 0x00, 0x00, 0x00, 0x00, 0x00, 0x00, 0x7e
001374   0000     nop                      
001376   0000     nop                      
001378   0000     nop                      
00137a   0000     nop                      
00137c   7e00     btg     0, 0x7, 0        
00137e   0000     nop                      	DB	0x00, 0x00, 0x00, 0x00, 0x00, 0x00, 0x00, 0x00, 0x00, 0x00, 0x00, 0x00
001380   0000     nop                      
001382   0000     nop                      
001384   0000     nop                      
001386   0000     nop                      
001388   0000     nop                      
00138a   0000     nop                      	DB	0x00, 0x00, 0x00, 0x00, 0x00, 0x00, 0x1c, 0x1c, 0x00, 0x00, 0x00, 0x00
00138c   0000     nop                      
00138e   0000     nop                      
001390   1c1c     comf    0x1c, 0, 0       
001392   0000     nop                      
001394   0000     nop                      
001396   0000     nop                      	DB	0x00, 0x00, 0x00, 0x06, 0x06, 0x0c, 0x0c, 0x18, 0x18, 0x30, 0x30, 0x60
001398   0600     decf    0, 0x1, 0        
00139a   0c06     retlw   0x6              
00139c   180c     xorwf   0xc, 0, 0        
00139e   3018     rrcf    0x18, 0, 0       
0013a0   6030     cpfslt  0x30, 0          
0013a2   0060     dw      0x60             	DB	0x60, 0x00, 0x00, 0x00, 0x00, 0x00, 0x00, 0x1e, 0x33, 0x37, 0x37, 0x33
0013a4   0000     nop                      
0013a6   0000     nop                      
0013a8   1e00     comf    0, 0x1, 0        
0013aa   3733     rlcf    0x33, 0x1, 0x1   
0013ac   3337     rrcf    0x37, 0x1, 0x1   
0013ae   3b3b     swapf   0x3b, 0x1, 0x1   	DB	0x3b, 0x3b, 0x33, 0x1e, 0x00, 0x00, 0x00, 0x00, 0x00, 0x00, 0x00, 0x0c
0013b0   1e33     comf    0x33, 0x1, 0     
0013b2   0000     nop                      
0013b4   0000     nop                      
0013b6   0000     nop                      
0013b8   0c00     retlw   0                
0013ba   7c1c     btg     0x1c, 0x6, 0     	DB	0x1c, 0x7c, 0x0c, 0x0c, 0x0c, 0x0c, 0x0c, 0x0c, 0x00, 0x00, 0x00, 0x00
0013bc   0c0c     retlw   0xc              
0013be   0c0c     retlw   0xc              
0013c0   0c0c     retlw   0xc              
0013c2   0000     nop                      
0013c4   0000     nop                      
0013c6   0000     nop                      	DB	0x00, 0x00, 0x00, 0x3c, 0x66, 0x66, 0x06, 0x0c, 0x18, 0x30, 0x60, 0x7e
0013c8   3c00     incfsz  0, 0, 0          
0013ca   6666     tstfsz  0x66, 0          
0013cc   0c06     retlw   0x6              
0013ce   3018     rrcf    0x18, 0, 0       
0013d0   7e60     btg     0x60, 0x7, 0     
0013d2   0000     nop                      	DB	0x00, 0x00, 0x00, 0x00, 0x00, 0x00, 0x00, 0x3c, 0x66, 0x66, 0x06, 0x1c
0013d4   0000     nop                      
0013d6   0000     nop                      
0013d8   3c00     incfsz  0, 0, 0          
0013da   6666     tstfsz  0x66, 0          
0013dc   1c06     comf    0x6, 0, 0        
0013de   6606     tstfsz  0x6, 0           	DB	0x06, 0x66, 0x66, 0x3c, 0x00, 0x00, 0x00, 0x00, 0x00, 0x00, 0x00, 0x30
0013e0   3c66     incfsz  0x66, 0, 0       
0013e2   0000     nop                      
0013e4   0000     nop                      
0013e6   0000     nop                      
0013e8   3000     rrcf    0, 0, 0          
0013ea   3630     rlcf    0x30, 0x1, 0     	DB	0x30, 0x36, 0x36, 0x36, 0x66, 0x7f, 0x06, 0x06, 0x00, 0x00, 0x00, 0x00
0013ec   3636     rlcf    0x36, 0x1, 0     
0013ee   7f66     btg     0x66, 0x7, 0x1   
0013f0   0606     decf    0x6, 0x1, 0      
0013f2   0000     nop                      
0013f4   0000     nop                      
0013f6   0000     nop                      	DB	0x00, 0x00, 0x00, 0x7e, 0x60, 0x60, 0x60, 0x7c, 0x06, 0x06, 0x0c, 0x78
0013f8   7e00     btg     0, 0x7, 0        
0013fa   6060     cpfslt  0x60, 0          
0013fc   7c60     btg     0x60, 0x6, 0     
0013fe   0606     decf    0x6, 0x1, 0      
001400   780c     btg     0xc, 0x4, 0      
001402   0000     nop                      	DB	0x00, 0x00, 0x00, 0x00, 0x00, 0x00, 0x00, 0x1c, 0x18, 0x30, 0x7c, 0x66
001404   0000     nop                      
001406   0000     nop                      
001408   1c00     comf    0, 0, 0          
00140a   3018     rrcf    0x18, 0, 0       
00140c   667c     tstfsz  0x7c, 0          
00140e   6666     tstfsz  0x66, 0          	DB	0x66, 0x66, 0x66, 0x3c, 0x00, 0x00, 0x00, 0x00, 0x00, 0x00, 0x00, 0x7e
001410   3c66     incfsz  0x66, 0, 0       
001412   0000     nop                      
001414   0000     nop                      
001416   0000     nop                      
001418   7e00     btg     0, 0x7, 0        
00141a   0c06     retlw   0x6              	DB	0x06, 0x0c, 0x0c, 0x18, 0x18, 0x30, 0x30, 0x30, 0x00, 0x00, 0x00, 0x00
00141c   180c     xorwf   0xc, 0, 0        
00141e   3018     rrcf    0x18, 0, 0       
001420   3030     rrcf    0x30, 0, 0       
001422   0000     nop                      
001424   0000     nop                      
001426   0000     nop                      	DB	0x00, 0x00, 0x00, 0x3c, 0x66, 0x66, 0x76, 0x3c, 0x6e, 0x66, 0x66, 0x3c
001428   3c00     incfsz  0, 0, 0          
00142a   6666     tstfsz  0x66, 0          
00142c   3c76     incfsz  0x76, 0, 0       
00142e   666e     tstfsz  0x6e, 0          
001430   3c66     incfsz  0x66, 0, 0       
001432   0000     nop                      	DB	0x00, 0x00, 0x00, 0x00, 0x00, 0x00, 0x00, 0x3c, 0x66, 0x66, 0x66, 0x66
001434   0000     nop                      
001436   0000     nop                      
001438   3c00     incfsz  0, 0, 0          
00143a   6666     tstfsz  0x66, 0          
00143c   6666     tstfsz  0x66, 0          
00143e   0c3e     retlw   0x3e             	DB	0x3e, 0x0c, 0x18, 0x38, 0x00, 0x00, 0x00, 0x00, 0x00, 0x00, 0x00, 0x00
001440   3818     swapf   0x18, 0, 0       
001442   0000     nop                      
001444   0000     nop                      
001446   0000     nop                      
001448   0000     nop                      
00144a   1c00     comf    0, 0, 0          	DB	0x00, 0x1c, 0x1c, 0x00, 0x00, 0x00, 0x1c, 0x1c, 0x00, 0x00, 0x00, 0x00
00144c   001c     dw      0x1c             
00144e   0000     nop                      
001450   1c1c     comf    0x1c, 0, 0       
001452   0000     nop                      
001454   0000     nop                      
001456   0000     nop                      	DB	0x00, 0x00, 0x00, 0x00, 0x00, 0x1c, 0x1c, 0x00, 0x00, 0x00, 0x1c, 0x1c
001458   0000     nop                      
00145a   1c00     comf    0, 0, 0          
00145c   001c     dw      0x1c             
00145e   0000     nop                      
001460   1c1c     comf    0x1c, 0, 0       
001462   180c     xorwf   0xc, 0, 0        	DB	0x0c, 0x18, 0x00, 0x00, 0x00, 0x00, 0x00, 0x06, 0x0c, 0x18, 0x30, 0x60
001464   0000     nop                      
001466   0000     nop                      
001468   0600     decf    0, 0x1, 0        
00146a   180c     xorwf   0xc, 0, 0        
00146c   6030     cpfslt  0x30, 0          
00146e   1830     xorwf   0x30, 0, 0       	DB	0x30, 0x18, 0x0c, 0x06, 0x00, 0x00, 0x00, 0x00, 0x00, 0x00, 0x00, 0x00
001470   060c     decf    0xc, 0x1, 0      
001472   0000     nop                      
001474   0000     nop                      
001476   0000     nop                      
001478   0000     nop                      
00147a   0000     nop                      	DB	0x00, 0x00, 0x7e, 0x00, 0x7e, 0x00, 0x00, 0x00, 0x00, 0x00, 0x00, 0x00
00147c   007e     dw      0x7e             
00147e   007e     dw      0x7e             
001480   0000     nop                      
001482   0000     nop                      
001484   0000     nop                      
001486   0000     nop                      	DB	0x00, 0x00, 0x00, 0x60, 0x30, 0x18, 0x0c, 0x06, 0x0c, 0x18, 0x30, 0x60
001488   6000     cpfslt  0, 0             
00148a   1830     xorwf   0x30, 0, 0       
00148c   060c     decf    0xc, 0x1, 0      
00148e   180c     xorwf   0xc, 0, 0        
001490   6030     cpfslt  0x30, 0          
001492   0000     nop                      	DB	0x00, 0x00, 0x00, 0x00, 0x00, 0x00, 0x00, 0x3c, 0x66, 0x66, 0x0c, 0x18
001494   0000     nop                      
001496   0000     nop                      
001498   3c00     incfsz  0, 0, 0          
00149a   6666     tstfsz  0x66, 0          
00149c   180c     xorwf   0xc, 0, 0        
00149e   0018     dw      0x18             	DB	0x18, 0x00, 0x18, 0x18, 0x00, 0x00, 0x00, 0x00, 0x00, 0x00, 0x00, 0x7e
0014a0   1818     xorwf   0x18, 0, 0       
0014a2   0000     nop                      
0014a4   0000     nop                      
0014a6   0000     nop                      
0014a8   7e00     btg     0, 0x7, 0        
0014aa   c3c3     movff   0x3c3, 0xbcf     	DB	0xc3, 0xc3, 0xcf, 0xdb, 0xdb, 0xcf, 0xc0, 0x7f, 0x00, 0x00, 0x00, 0x00
0014ac   dbcf
0014ae   cfdb     movff   0xfdb, 0xfc0     
0014b0   7fc0
0014b2   0000     nop                      
0014b4   0000     nop                      
0014b6   0000     nop                      	DB	0x00, 0x00, 0x00, 0x18, 0x3c, 0x66, 0x66, 0x66, 0x7e, 0x66, 0x66, 0x66
0014b8   1800     xorwf   0, 0, 0          
0014ba   663c     tstfsz  0x3c, 0          
0014bc   6666     tstfsz  0x66, 0          
0014be   667e     tstfsz  0x7e, 0          
0014c0   6666     tstfsz  0x66, 0          
0014c2   0000     nop                      	DB	0x00, 0x00, 0x00, 0x00, 0x00, 0x00, 0x00, 0x7c, 0x66, 0x66, 0x66, 0x7c
0014c4   0000     nop                      
0014c6   0000     nop                      
0014c8   7c00     btg     0, 0x6, 0        
0014ca   6666     tstfsz  0x66, 0          
0014cc   7c66     btg     0x66, 0x6, 0     
0014ce   6666     tstfsz  0x66, 0          	DB	0x66, 0x66, 0x66, 0x7c, 0x00, 0x00, 0x00, 0x00, 0x00, 0x00, 0x00, 0x3c
0014d0   7c66     btg     0x66, 0x6, 0     
0014d2   0000     nop                      
0014d4   0000     nop                      
0014d6   0000     nop                      
0014d8   3c00     incfsz  0, 0, 0          
0014da   6666     tstfsz  0x66, 0          	DB	0x66, 0x66, 0x60, 0x60, 0x60, 0x66, 0x66, 0x3c, 0x00, 0x00, 0x00, 0x00
0014dc   6060     cpfslt  0x60, 0          
0014de   6660     tstfsz  0x60, 0          
0014e0   3c66     incfsz  0x66, 0, 0       
0014e2   0000     nop                      
0014e4   0000     nop                      
0014e6   0000     nop                      	DB	0x00, 0x00, 0x00, 0x78, 0x6c, 0x66, 0x66, 0x66, 0x66, 0x66, 0x6c, 0x78
0014e8   7800     btg     0, 0x4, 0        
0014ea   666c     tstfsz  0x6c, 0          
0014ec   6666     tstfsz  0x66, 0          
0014ee   6666     tstfsz  0x66, 0          
0014f0   786c     btg     0x6c, 0x4, 0     
0014f2   0000     nop                      	DB	0x00, 0x00, 0x00, 0x00, 0x00, 0x00, 0x00, 0x7e, 0x60, 0x60, 0x60, 0x7c
0014f4   0000     nop                      
0014f6   0000     nop                      
0014f8   7e00     btg     0, 0x7, 0        
0014fa   6060     cpfslt  0x60, 0          
0014fc   7c60     btg     0x60, 0x6, 0     
0014fe   6060     cpfslt  0x60, 0          	DB	0x60, 0x60, 0x60, 0x7e, 0x00, 0x00, 0x00, 0x00, 0x00, 0x00, 0x00, 0x7e
001500   7e60     btg     0x60, 0x7, 0     
001502   0000     nop                      
001504   0000     nop                      
001506   0000     nop                      
001508   7e00     btg     0, 0x7, 0        
00150a   6060     cpfslt  0x60, 0          	DB	0x60, 0x60, 0x60, 0x7c, 0x60, 0x60, 0x60, 0x60, 0x00, 0x00, 0x00, 0x00
00150c   7c60     btg     0x60, 0x6, 0     
00150e   6060     cpfslt  0x60, 0          
001510   6060     cpfslt  0x60, 0          
001512   0000     nop                      
001514   0000     nop                      
001516   0000     nop                      	DB	0x00, 0x00, 0x00, 0x3c, 0x66, 0x66, 0x60, 0x60, 0x6e, 0x66, 0x66, 0x3e
001518   3c00     incfsz  0, 0, 0          
00151a   6666     tstfsz  0x66, 0          
00151c   6060     cpfslt  0x60, 0          
00151e   666e     tstfsz  0x6e, 0          
001520   3e66     incfsz  0x66, 0x1, 0     
001522   0000     nop                      	DB	0x00, 0x00, 0x00, 0x00, 0x00, 0x00, 0x00, 0x66, 0x66, 0x66, 0x66, 0x7e
001524   0000     nop                      
001526   0000     nop                      
001528   6600     tstfsz  0, 0             
00152a   6666     tstfsz  0x66, 0          
00152c   7e66     btg     0x66, 0x7, 0     
00152e   6666     tstfsz  0x66, 0          	DB	0x66, 0x66, 0x66, 0x66, 0x00, 0x00, 0x00, 0x00, 0x00, 0x00, 0x00, 0x3c
001530   6666     tstfsz  0x66, 0          
001532   0000     nop                      
001534   0000     nop                      
001536   0000     nop                      
001538   3c00     incfsz  0, 0, 0          
00153a   1818     xorwf   0x18, 0, 0       	DB	0x18, 0x18, 0x18, 0x18, 0x18, 0x18, 0x18, 0x3c, 0x00, 0x00, 0x00, 0x00
00153c   1818     xorwf   0x18, 0, 0       
00153e   1818     xorwf   0x18, 0, 0       
001540   3c18     incfsz  0x18, 0, 0       
001542   0000     nop                      
001544   0000     nop                      
001546   0000     nop                      	DB	0x00, 0x00, 0x00, 0x3c, 0x66, 0x66, 0x60, 0x60, 0x6e, 0x66, 0x66, 0x3e
001548   3c00     incfsz  0, 0, 0          
00154a   6666     tstfsz  0x66, 0          
00154c   6060     cpfslt  0x60, 0          
00154e   666e     tstfsz  0x6e, 0          
001550   3e66     incfsz  0x66, 0x1, 0     
001552   0000     nop                      	DB	0x00, 0x00, 0x00, 0x00, 0x00, 0x00, 0x00, 0x66, 0x66, 0x6c, 0x6c, 0x78
001554   0000     nop                      
001556   0000     nop                      
001558   6600     tstfsz  0, 0             
00155a   6c66     negf    0x66, 0          
00155c   786c     btg     0x6c, 0x4, 0     
00155e   6c6c     negf    0x6c, 0          	DB	0x6c, 0x6c, 0x66, 0x66, 0x00, 0x00, 0x00, 0x00, 0x00, 0x00, 0x00, 0x60
001560   6666     tstfsz  0x66, 0          
001562   0000     nop                      
001564   0000     nop                      
001566   0000     nop                      
001568   6000     cpfslt  0, 0             
00156a   6060     cpfslt  0x60, 0          	DB	0x60, 0x60, 0x60, 0x60, 0x60, 0x60, 0x60, 0x7e, 0x00, 0x00, 0x00, 0x00
00156c   6060     cpfslt  0x60, 0          
00156e   6060     cpfslt  0x60, 0          
001570   7e60     btg     0x60, 0x7, 0     
001572   0000     nop                      
001574   0000     nop                      
001576   0000     nop                      	DB	0x00, 0x00, 0x00, 0x63, 0x63, 0x77, 0x6b, 0x6b, 0x6b, 0x63, 0x63, 0x63
001578   6300     cpfseq  0, 0x1           
00157a   7763     btg     0x63, 0x3, 0x1   
00157c   6b6b     clrf    0x6b, 0x1        
00157e   636b     cpfseq  0x6b, 0x1        
001580   6363     cpfseq  0x63, 0x1        
001582   0000     nop                      	DB	0x00, 0x00, 0x00, 0x00, 0x00, 0x00, 0x00, 0x63, 0x63, 0x73, 0x7b, 0x6f
001584   0000     nop                      
001586   0000     nop                      
001588   6300     cpfseq  0, 0x1           
00158a   7363     btg     0x63, 0x1, 0x1   
00158c   6f7b     movwf   0x7b, 0x1        
00158e   6367     cpfseq  0x67, 0x1        	DB	0x67, 0x63, 0x63, 0x63, 0x00, 0x00, 0x00, 0x00, 0x00, 0x00, 0x00, 0x3c
001590   6363     cpfseq  0x63, 0x1        
001592   0000     nop                      
001594   0000     nop                      
001596   0000     nop                      
001598   3c00     incfsz  0, 0, 0          
00159a   6666     tstfsz  0x66, 0          	DB	0x66, 0x66, 0x66, 0x66, 0x66, 0x66, 0x66, 0x3c, 0x00, 0x00, 0x00, 0x00
00159c   6666     tstfsz  0x66, 0          
00159e   6666     tstfsz  0x66, 0          
0015a0   3c66     incfsz  0x66, 0, 0       
0015a2   0000     nop                      
0015a4   0000     nop                      
0015a6   0000     nop                      	DB	0x00, 0x00, 0x00, 0x7c, 0x66, 0x66, 0x66, 0x7c, 0x60, 0x60, 0x60, 0x60
0015a8   7c00     btg     0, 0x6, 0        
0015aa   6666     tstfsz  0x66, 0          
0015ac   7c66     btg     0x66, 0x6, 0     
0015ae   6060     cpfslt  0x60, 0          
0015b0   6060     cpfslt  0x60, 0          
0015b2   0000     nop                      	DB	0x00, 0x00, 0x00, 0x00, 0x00, 0x00, 0x00, 0x3c, 0x66, 0x66, 0x66, 0x66
0015b4   0000     nop                      
0015b6   0000     nop                      
0015b8   3c00     incfsz  0, 0, 0          
0015ba   6666     tstfsz  0x66, 0          
0015bc   6666     tstfsz  0x66, 0          
0015be   6666     tstfsz  0x66, 0          	DB	0x66, 0x66, 0x66, 0x3c, 0x0c, 0x06, 0x00, 0x00, 0x00, 0x00, 0x00, 0x7c
0015c0   3c66     incfsz  0x66, 0, 0       
0015c2   060c     decf    0xc, 0x1, 0      
0015c4   0000     nop                      
0015c6   0000     nop                      
0015c8   7c00     btg     0, 0x6, 0        
0015ca   6666     tstfsz  0x66, 0          	DB	0x66, 0x66, 0x66, 0x7c, 0x6c, 0x66, 0x66, 0x66, 0x00, 0x00, 0x00, 0x00
0015cc   7c66     btg     0x66, 0x6, 0     
0015ce   666c     tstfsz  0x6c, 0          
0015d0   6666     tstfsz  0x66, 0          
0015d2   0000     nop                      
0015d4   0000     nop                      
0015d6   0000     nop                      	DB	0x00, 0x00, 0x00, 0x3c, 0x66, 0x60, 0x30, 0x18, 0x0c, 0x06, 0x66, 0x3c
0015d8   3c00     incfsz  0, 0, 0          
0015da   6066     cpfslt  0x66, 0          
0015dc   1830     xorwf   0x30, 0, 0       
0015de   060c     decf    0xc, 0x1, 0      
0015e0   3c66     incfsz  0x66, 0, 0       
0015e2   0000     nop                      	DB	0x00, 0x00, 0x00, 0x00, 0x00, 0x00, 0x00, 0x7e, 0x18, 0x18, 0x18, 0x18
0015e4   0000     nop                      
0015e6   0000     nop                      
0015e8   7e00     btg     0, 0x7, 0        
0015ea   1818     xorwf   0x18, 0, 0       
0015ec   1818     xorwf   0x18, 0, 0       
0015ee   1818     xorwf   0x18, 0, 0       	DB	0x18, 0x18, 0x18, 0x18, 0x00, 0x00, 0x00, 0x00, 0x00, 0x00, 0x00, 0x66
0015f0   1818     xorwf   0x18, 0, 0       
0015f2   0000     nop                      
0015f4   0000     nop                      
0015f6   0000     nop                      
0015f8   6600     tstfsz  0, 0             
0015fa   6666     tstfsz  0x66, 0          	DB	0x66, 0x66, 0x66, 0x66, 0x66, 0x66, 0x66, 0x3c, 0x00, 0x00, 0x00, 0x00
0015fc   6666     tstfsz  0x66, 0          
0015fe   6666     tstfsz  0x66, 0          
001600   3c66     incfsz  0x66, 0, 0       
001602   0000     nop                      
001604   0000     nop                      
001606   0000     nop                      	DB	0x00, 0x00, 0x00, 0x66, 0x66, 0x66, 0x66, 0x66, 0x66, 0x66, 0x3c, 0x18
001608   6600     tstfsz  0, 0             
00160a   6666     tstfsz  0x66, 0          
00160c   6666     tstfsz  0x66, 0          
00160e   6666     tstfsz  0x66, 0          
001610   183c     xorwf   0x3c, 0, 0       
001612   0000     nop                      	DB	0x00, 0x00, 0x00, 0x00, 0x00, 0x00, 0x00, 0x63, 0x63, 0x63, 0x6b, 0x6b
001614   0000     nop                      
001616   0000     nop                      
001618   6300     cpfseq  0, 0x1           
00161a   6363     cpfseq  0x63, 0x1        
00161c   6b6b     clrf    0x6b, 0x1        
00161e   366b     rlcf    0x6b, 0x1, 0     	DB	0x6b, 0x36, 0x36, 0x36, 0x00, 0x00, 0x00, 0x00, 0x00, 0x00, 0x00, 0x66
001620   3636     rlcf    0x36, 0x1, 0     
001622   0000     nop                      
001624   0000     nop                      
001626   0000     nop                      
001628   6600     tstfsz  0, 0             
00162a   3466     rlcf    0x66, 0, 0       	DB	0x66, 0x34, 0x18, 0x18, 0x2c, 0x66, 0x66, 0x66, 0x00, 0x00, 0x00, 0x00
00162c   1818     xorwf   0x18, 0, 0       
00162e   662c     tstfsz  0x2c, 0          
001630   6666     tstfsz  0x66, 0          
001632   0000     nop                      
001634   0000     nop                      
001636   0000     nop                      	DB	0x00, 0x00, 0x00, 0x66, 0x66, 0x66, 0x66, 0x3c, 0x18, 0x18, 0x18, 0x18
001638   6600     tstfsz  0, 0             
00163a   6666     tstfsz  0x66, 0          
00163c   3c66     incfsz  0x66, 0, 0       
00163e   1818     xorwf   0x18, 0, 0       
001640   1818     xorwf   0x18, 0, 0       
001642   0000     nop                      	DB	0x00, 0x00, 0x00, 0x00, 0x00, 0x00, 0x00, 0x7e, 0x06, 0x06, 0x0c, 0x18
001644   0000     nop                      
001646   0000     nop                      
001648   7e00     btg     0, 0x7, 0        
00164a   0606     decf    0x6, 0x1, 0      
00164c   180c     xorwf   0xc, 0, 0        
00164e   6030     cpfslt  0x30, 0          	DB	0x30, 0x60, 0x60, 0x7e, 0x00, 0x00, 0x00, 0x00, 0x00, 0x00, 0x00, 0x3c
001650   7e60     btg     0x60, 0x7, 0     
001652   0000     nop                      
001654   0000     nop                      
001656   0000     nop                      
001658   3c00     incfsz  0, 0, 0          
00165a   3030     rrcf    0x30, 0, 0       	DB	0x30, 0x30, 0x30, 0x30, 0x30, 0x30, 0x30, 0x30, 0x30, 0x30, 0x3c, 0x00
00165c   3030     rrcf    0x30, 0, 0       
00165e   3030     rrcf    0x30, 0, 0       
001660   3030     rrcf    0x30, 0, 0       
001662   3030     rrcf    0x30, 0, 0       
001664   003c     dw      0x3c             
001666   0000     nop                      	DB	0x00, 0x00, 0x00, 0x60, 0x60, 0x30, 0x30, 0x18, 0x18, 0x0c, 0x0c, 0x06
001668   6000     cpfslt  0, 0             
00166a   3060     rrcf    0x60, 0, 0       
00166c   1830     xorwf   0x30, 0, 0       
00166e   0c18     retlw   0x18             
001670   060c     decf    0xc, 0x1, 0      
001672   0006     pop                      	DB	0x06, 0x00, 0x00, 0x00, 0x00, 0x00, 0x00, 0x3c, 0x0c, 0x0c, 0x0c, 0x0c
001674   0000     nop                      
001676   0000     nop                      
001678   3c00     incfsz  0, 0, 0          
00167a   0c0c     retlw   0xc              
00167c   0c0c     retlw   0xc              
00167e   0c0c     retlw   0xc              	DB	0x0c, 0x0c, 0x0c, 0x0c, 0x0c, 0x0c, 0x3c, 0x00, 0x00, 0x18, 0x3c, 0x66
001680   0c0c     retlw   0xc              
001682   0c0c     retlw   0xc              
001684   003c     dw      0x3c             
001686   1800     xorwf   0, 0, 0          
001688   663c     tstfsz  0x3c, 0          
00168a   0000     nop                      	DB	0x00, 0x00, 0x00, 0x00, 0x00, 0x00, 0x00, 0x00, 0x00, 0x00, 0x00, 0x00
00168c   0000     nop                      
00168e   0000     nop                      
001690   0000     nop                      
001692   0000     nop                      
001694   0000     nop                      
001696   0000     nop                      	DB	0x00, 0x00, 0x00, 0x00, 0x00, 0x00, 0x00, 0x00, 0x00, 0x00, 0x00, 0x00
001698   0000     nop                      
00169a   0000     nop                      
00169c   0000     nop                      
00169e   0000     nop                      
0016a0   0000     nop                      
0016a2   0000     nop                      	DB	0x00, 0x00, 0xff, 0x00, 0x00, 0x38, 0x18, 0x0c, 0x00, 0x00, 0x00, 0x00
0016a4   00ff     reset                    
0016a6   3800     swapf   0, 0, 0          
0016a8   0c18     retlw   0x18             
0016aa   0000     nop                      
0016ac   0000     nop                      
0016ae   0000     nop                      	DB	0x00, 0x00, 0x00, 0x00, 0x00, 0x00, 0x00, 0x00, 0x00, 0x00, 0x00, 0x00
0016b0   0000     nop                      
0016b2   0000     nop                      
0016b4   0000     nop                      
0016b6   0000     nop                      
0016b8   0000     nop                      
0016ba   3c00     incfsz  0, 0, 0          	DB	0x00, 0x3c, 0x06, 0x06, 0x3e, 0x66, 0x66, 0x3e, 0x00, 0x00, 0x00, 0x00
0016bc   0606     decf    0x6, 0x1, 0      
0016be   663e     tstfsz  0x3e, 0          
0016c0   3e66     incfsz  0x66, 0x1, 0     
0016c2   0000     nop                      
0016c4   0000     nop                      
0016c6   0000     nop                      	DB	0x00, 0x00, 0x00, 0x60, 0x60, 0x7c, 0x66, 0x66, 0x66, 0x66, 0x66, 0x7c
0016c8   6000     cpfslt  0, 0             
0016ca   7c60     btg     0x60, 0x6, 0     
0016cc   6666     tstfsz  0x66, 0          
0016ce   6666     tstfsz  0x66, 0          
0016d0   7c66     btg     0x66, 0x6, 0     
0016d2   0000     nop                      	DB	0x00, 0x00, 0x00, 0x00, 0x00, 0x00, 0x00, 0x00, 0x00, 0x3c, 0x66, 0x60
0016d4   0000     nop                      
0016d6   0000     nop                      
0016d8   0000     nop                      
0016da   3c00     incfsz  0, 0, 0          
0016dc   6066     cpfslt  0x66, 0          
0016de   6060     cpfslt  0x60, 0          	DB	0x60, 0x60, 0x66, 0x3c, 0x00, 0x00, 0x00, 0x00, 0x00, 0x00, 0x00, 0x06
0016e0   3c66     incfsz  0x66, 0, 0       
0016e2   0000     nop                      
0016e4   0000     nop                      
0016e6   0000     nop                      
0016e8   0600     decf    0, 0x1, 0        
0016ea   3e06     incfsz  0x6, 0x1, 0      	DB	0x06, 0x3e, 0x66, 0x66, 0x66, 0x66, 0x66, 0x3e, 0x00, 0x00, 0x00, 0x00
0016ec   6666     tstfsz  0x66, 0          
0016ee   6666     tstfsz  0x66, 0          
0016f0   3e66     incfsz  0x66, 0x1, 0     
0016f2   0000     nop                      
0016f4   0000     nop                      
0016f6   0000     nop                      	DB	0x00, 0x00, 0x00, 0x00, 0x00, 0x3c, 0x66, 0x66, 0x7e, 0x60, 0x60, 0x3c
0016f8   0000     nop                      
0016fa   3c00     incfsz  0, 0, 0          
0016fc   6666     tstfsz  0x66, 0          
0016fe   607e     cpfslt  0x7e, 0          
001700   3c60     incfsz  0x60, 0, 0       
001702   0000     nop                      	DB	0x00, 0x00, 0x00, 0x00, 0x00, 0x00, 0x00, 0x1e, 0x30, 0x30, 0x30, 0x7e
001704   0000     nop                      
001706   0000     nop                      
001708   1e00     comf    0, 0x1, 0        
00170a   3030     rrcf    0x30, 0, 0       
00170c   7e30     btg     0x30, 0x7, 0     
00170e   3030     rrcf    0x30, 0, 0       	DB	0x30, 0x30, 0x30, 0x30, 0x00, 0x00, 0x00, 0x00, 0x00, 0x00, 0x00, 0x00
001710   3030     rrcf    0x30, 0, 0       
001712   0000     nop                      
001714   0000     nop                      
001716   0000     nop                      
001718   0000     nop                      
00171a   3e00     incfsz  0, 0x1, 0        	DB	0x00, 0x3e, 0x66, 0x66, 0x66, 0x66, 0x66, 0x3e, 0x06, 0x06, 0x7c, 0x00
00171c   6666     tstfsz  0x66, 0          
00171e   6666     tstfsz  0x66, 0          
001720   3e66     incfsz  0x66, 0x1, 0     
001722   0606     decf    0x6, 0x1, 0      
001724   007c     dw      0x7c             
001726   0000     nop                      	DB	0x00, 0x00, 0x00, 0x60, 0x60, 0x7c, 0x66, 0x66, 0x66, 0x66, 0x66, 0x66
001728   6000     cpfslt  0, 0             
00172a   7c60     btg     0x60, 0x6, 0     
00172c   6666     tstfsz  0x66, 0          
00172e   6666     tstfsz  0x66, 0          
001730   6666     tstfsz  0x66, 0          
001732   0000     nop                      	DB	0x00, 0x00, 0x00, 0x00, 0x00, 0x00, 0x18, 0x18, 0x00, 0x78, 0x18, 0x18
001734   0000     nop                      
001736   0000     nop                      
001738   1818     xorwf   0x18, 0, 0       
00173a   7800     btg     0, 0x4, 0        
00173c   1818     xorwf   0x18, 0, 0       
00173e   1818     xorwf   0x18, 0, 0       	DB	0x18, 0x18, 0x18, 0x7e, 0x00, 0x00, 0x00, 0x00, 0x00, 0x00, 0x0c, 0x0c
001740   7e18     btg     0x18, 0x7, 0     
001742   0000     nop                      
001744   0000     nop                      
001746   0000     nop                      
001748   0c0c     retlw   0xc              
00174a   3c00     incfsz  0, 0, 0          	DB	0x00, 0x3c, 0x0c, 0x0c, 0x0c, 0x0c, 0x0c, 0x0c, 0x0c, 0x0c, 0x78, 0x00
00174c   0c0c     retlw   0xc              
00174e   0c0c     retlw   0xc              
001750   0c0c     retlw   0xc              
001752   0c0c     retlw   0xc              
001754   0078     dw      0x78             
001756   0000     nop                      	DB	0x00, 0x00, 0x00, 0x60, 0x60, 0x66, 0x66, 0x6c, 0x78, 0x6c, 0x66, 0x66
001758   6000     cpfslt  0, 0             
00175a   6660     tstfsz  0x60, 0          
00175c   6c66     negf    0x66, 0          
00175e   6c78     negf    0x78, 0          
001760   6666     tstfsz  0x66, 0          
001762   0000     nop                      	DB	0x00, 0x00, 0x00, 0x00, 0x00, 0x00, 0x00, 0x78, 0x18, 0x18, 0x18, 0x18
001764   0000     nop                      
001766   0000     nop                      
001768   7800     btg     0, 0x4, 0        
00176a   1818     xorwf   0x18, 0, 0       
00176c   1818     xorwf   0x18, 0, 0       
00176e   1818     xorwf   0x18, 0, 0       	DB	0x18, 0x18, 0x18, 0x7e, 0x00, 0x00, 0x00, 0x00, 0x00, 0x00, 0x00, 0x00
001770   7e18     btg     0x18, 0x7, 0     
001772   0000     nop                      
001774   0000     nop                      
001776   0000     nop                      
001778   0000     nop                      
00177a   7e00     btg     0, 0x7, 0        	DB	0x00, 0x7e, 0x6b, 0x6b, 0x6b, 0x6b, 0x6b, 0x63, 0x00, 0x00, 0x00, 0x00
00177c   6b6b     clrf    0x6b, 0x1        
00177e   6b6b     clrf    0x6b, 0x1        
001780   636b     cpfseq  0x6b, 0x1        
001782   0000     nop                      
001784   0000     nop                      
001786   0000     nop                      	DB	0x00, 0x00, 0x00, 0x00, 0x00, 0x7c, 0x66, 0x66, 0x66, 0x66, 0x66, 0x66
001788   0000     nop                      
00178a   7c00     btg     0, 0x6, 0        
00178c   6666     tstfsz  0x66, 0          
00178e   6666     tstfsz  0x66, 0          
001790   6666     tstfsz  0x66, 0          
001792   0000     nop                      	DB	0x00, 0x00, 0x00, 0x00, 0x00, 0x00, 0x00, 0x00, 0x00, 0x3c, 0x66, 0x66
001794   0000     nop                      
001796   0000     nop                      
001798   0000     nop                      
00179a   3c00     incfsz  0, 0, 0          
00179c   6666     tstfsz  0x66, 0          
00179e   6666     tstfsz  0x66, 0          	DB	0x66, 0x66, 0x66, 0x3c, 0x00, 0x00, 0x00, 0x00, 0x00, 0x00, 0x00, 0x00
0017a0   3c66     incfsz  0x66, 0, 0       
0017a2   0000     nop                      
0017a4   0000     nop                      
0017a6   0000     nop                      
0017a8   0000     nop                      
0017aa   7c00     btg     0, 0x6, 0        	DB	0x00, 0x7c, 0x66, 0x66, 0x66, 0x66, 0x66, 0x7c, 0x60, 0x60, 0x60, 0x00
0017ac   6666     tstfsz  0x66, 0          
0017ae   6666     tstfsz  0x66, 0          
0017b0   7c66     btg     0x66, 0x6, 0     
0017b2   6060     cpfslt  0x60, 0          
0017b4   0060     dw      0x60             
0017b6   0000     nop                      	DB	0x00, 0x00, 0x00, 0x00, 0x00, 0x3e, 0x66, 0x66, 0x66, 0x66, 0x66, 0x3e
0017b8   0000     nop                      
0017ba   3e00     incfsz  0, 0x1, 0        
0017bc   6666     tstfsz  0x66, 0          
0017be   6666     tstfsz  0x66, 0          
0017c0   3e66     incfsz  0x66, 0x1, 0     
0017c2   0606     decf    0x6, 0x1, 0      	DB	0x06, 0x06, 0x06, 0x00, 0x00, 0x00, 0x00, 0x00, 0x00, 0x66, 0x6e, 0x70
0017c4   0006     pop                      
0017c6   0000     nop                      
0017c8   0000     nop                      
0017ca   6600     tstfsz  0, 0             
0017cc   706e     btg     0x6e, 0, 0       
0017ce   6060     cpfslt  0x60, 0          	DB	0x60, 0x60, 0x60, 0x60, 0x00, 0x00, 0x00, 0x00, 0x00, 0x00, 0x00, 0x00
0017d0   6060     cpfslt  0x60, 0          
0017d2   0000     nop                      
0017d4   0000     nop                      
0017d6   0000     nop                      
0017d8   0000     nop                      
0017da   3e00     incfsz  0, 0x1, 0        	DB	0x00, 0x3e, 0x60, 0x60, 0x3c, 0x06, 0x06, 0x7c, 0x00, 0x00, 0x00, 0x00
0017dc   6060     cpfslt  0x60, 0          
0017de   063c     decf    0x3c, 0x1, 0     
0017e0   7c06     btg     0x6, 0x6, 0      
0017e2   0000     nop                      
0017e4   0000     nop                      
0017e6   0000     nop                      	DB	0x00, 0x00, 0x00, 0x30, 0x30, 0x7e, 0x30, 0x30, 0x30, 0x30, 0x30, 0x1e
0017e8   3000     rrcf    0, 0, 0          
0017ea   7e30     btg     0x30, 0x7, 0     
0017ec   3030     rrcf    0x30, 0, 0       
0017ee   3030     rrcf    0x30, 0, 0       
0017f0   1e30     comf    0x30, 0x1, 0     
0017f2   0000     nop                      	DB	0x00, 0x00, 0x00, 0x00, 0x00, 0x00, 0x00, 0x00, 0x00, 0x66, 0x66, 0x66
0017f4   0000     nop                      
0017f6   0000     nop                      
0017f8   0000     nop                      
0017fa   6600     tstfsz  0, 0             
0017fc   6666     tstfsz  0x66, 0          
0017fe   6666     tstfsz  0x66, 0          	DB	0x66, 0x66, 0x66, 0x3e, 0x00, 0x00, 0x00, 0x00, 0x00, 0x00, 0x00, 0x00
001800   3e66     incfsz  0x66, 0x1, 0     
001802   0000     nop                      
001804   0000     nop                      
001806   0000     nop                      
001808   0000     nop                      
00180a   6600     tstfsz  0, 0             	DB	0x00, 0x66, 0x66, 0x66, 0x66, 0x66, 0x3c, 0x18, 0x00, 0x00, 0x00, 0x00
00180c   6666     tstfsz  0x66, 0          
00180e   6666     tstfsz  0x66, 0          
001810   183c     xorwf   0x3c, 0, 0       
001812   0000     nop                      
001814   0000     nop                      
001816   0000     nop                      	DB	0x00, 0x00, 0x00, 0x00, 0x00, 0x63, 0x6b, 0x6b, 0x6b, 0x6b, 0x36, 0x36
001818   0000     nop                      
00181a   6300     cpfseq  0, 0x1           
00181c   6b6b     clrf    0x6b, 0x1        
00181e   6b6b     clrf    0x6b, 0x1        
001820   3636     rlcf    0x36, 0x1, 0     
001822   0000     nop                      	DB	0x00, 0x00, 0x00, 0x00, 0x00, 0x00, 0x00, 0x00, 0x00, 0x66, 0x66, 0x3c
001824   0000     nop                      
001826   0000     nop                      
001828   0000     nop                      
00182a   6600     tstfsz  0, 0             
00182c   3c66     incfsz  0x66, 0, 0       
00182e   3c18     incfsz  0x18, 0, 0       	DB	0x18, 0x3c, 0x66, 0x66, 0x00, 0x00, 0x00, 0x00, 0x00, 0x00, 0x00, 0x00
001830   6666     tstfsz  0x66, 0          
001832   0000     nop                      
001834   0000     nop                      
001836   0000     nop                      
001838   0000     nop                      
00183a   6600     tstfsz  0, 0             	DB	0x00, 0x66, 0x66, 0x66, 0x66, 0x66, 0x66, 0x3c, 0x0c, 0x18, 0xf0, 0x00
00183c   6666     tstfsz  0x66, 0          
00183e   6666     tstfsz  0x66, 0          
001840   3c66     incfsz  0x66, 0, 0       
001842   180c     xorwf   0xc, 0, 0        
001844   00f0     dw      0xf0             
001846   0000     nop                      	DB	0x00, 0x00, 0x00, 0x00, 0x00, 0x7e, 0x06, 0x0c, 0x18, 0x30, 0x60, 0x7e
001848   0000     nop                      
00184a   7e00     btg     0, 0x7, 0        
00184c   0c06     retlw   0x6              
00184e   3018     rrcf    0x18, 0, 0       
001850   7e60     btg     0x60, 0x7, 0     
001852   0000     nop                      	DB	0x00, 0x00, 0x00, 0x00, 0x00, 0x00, 0x00, 0x0c, 0x18, 0x18, 0x18, 0x30
001854   0000     nop                      
001856   0000     nop                      
001858   0c00     retlw   0                
00185a   1818     xorwf   0x18, 0, 0       
00185c   3018     rrcf    0x18, 0, 0       
00185e   3060     rrcf    0x60, 0, 0       	DB	0x60, 0x30, 0x18, 0x18, 0x18, 0x0c, 0x00, 0x00, 0x00, 0x00, 0x00, 0x18
001860   1818     xorwf   0x18, 0, 0       
001862   0c18     retlw   0x18             
001864   0000     nop                      
001866   0000     nop                      
001868   1800     xorwf   0, 0, 0          
00186a   1818     xorwf   0x18, 0, 0       	DB	0x18, 0x18, 0x18, 0x18, 0x18, 0x18, 0x18, 0x18, 0x18, 0x18, 0x18, 0x00
00186c   1818     xorwf   0x18, 0, 0       
00186e   1818     xorwf   0x18, 0, 0       
001870   1818     xorwf   0x18, 0, 0       
001872   1818     xorwf   0x18, 0, 0       
001874   0018     dw      0x18             
001876   0000     nop                      	DB	0x00, 0x00, 0x00, 0x30, 0x18, 0x18, 0x18, 0x0c, 0x06, 0x0c, 0x18, 0x18
001878   3000     rrcf    0, 0, 0          
00187a   1818     xorwf   0x18, 0, 0       
00187c   0c18     retlw   0x18             
00187e   0c06     retlw   0x6              
001880   1818     xorwf   0x18, 0, 0       
001882   3018     rrcf    0x18, 0, 0       	DB	0x18, 0x30, 0x00, 0x00, 0x00, 0x00, 0x00, 0x71, 0xdb, 0x8e, 0x00, 0x00
001884   0000     nop                      
001886   0000     nop                      
001888   7100     btg     0, 0, 0x1        
00188a   8edb     bsf     0xdb, 0x7, 0     
00188c   0000     nop                      
00188e   0000     nop                      	DB	0x00, 0x00, 0x00, 0x00, 0x00, 0x00, 0x00, 0x00
001890   0000     nop                      
001892   0000     nop                      
001894   0000     nop                      
                                           ; ; Starting pCode block
                                           __str_0:
001896   6e28     movwf   0x28, 0          	DB	0x28, 0x6e, 0x75, 0x6c, 0x6c, 0x29, 0x00
001898   6c75     negf    0x75, 0          
00189a   296c     incf    0x6c, 0, 0x1     
00189c   0000     nop                      
                                           ; ; Starting pCode block
                                           __str_1:
00189e   3d69     incfsz  0x69, 0, 0x1     	DB	0x69, 0x3d, 0x25, 0x75, 0x20, 0x0d, 0x0a, 0x00
0018a0   7525     btg     0x25, 0x2, 0x1   
0018a2   0d20     mullw   0x20             
0018a4   000a     tblrd   *-               
                                           
                                           
                                           ; Statistics:
                                           ; code size:	14034 (0x36d2) bytes (10.71%)
                                           ;           	 7017 (0x1b69) words
                                           ; udata size:	   85 (0x0055) bytes ( 2.41%)
                                           ; access size:	   33 (0x0021) bytes
                                           
                                           
                                           	end
