gplink-1.0.0 #932 (Jan 21 2013)
Copyright (c) 1998-2012 gputils project
Listing File Generated: 3-16-2013  00:20:57
 
 
Address  Value    Disassembly              Source
-------  -----    -----------              ------
                                           ;--------------------------------------------------------
                                           ; File Created by SDCC : free open source ANSI-C Compiler
                                           ; Version 3.2.1 #8392 (Jan 21 2013) (Linux)
                                           ; This file was generated Sat Mar 16 00:20:56 2013
                                           ;--------------------------------------------------------
                                           ; PIC16 port for the Microchip 16-bit core micros
                                           ;--------------------------------------------------------
                                           	list	p=18f2550
                                           	radix	dec
                                           
                                           
                                           ;--------------------------------------------------------
                                           ; public variables in this module
                                           ;--------------------------------------------------------
                                           	global	_valor
                                           	global	_preloadL
                                           	global	_preloadH
                                           	global	_intCountLimit
                                           	global	_intCount
                                           	global	_hidRxLen
                                           	global	_hidProtocol
                                           	global	_hidIdleRate
                                           	global	_HIDPostProcess
                                           	global	_deviceAddress
                                           	global	_EnableUSBModule
                                           	global	_ProcessUSBTransactions
                                           	global	_ProcessCDCRequest
                                           	global	_CDCgets
                                           	global	_CDCInitEndpoint
                                           	global	_CONTROL_LINE
                                           	global	_deviceState
                                           	global	_remoteWakeup
                                           	global	_selfPowered
                                           	global	_currentConfiguration
                                           	global	_ctrlTransferStage
                                           	global	_requestHandled
                                           	global	_outPtr
                                           	global	_inPtr
                                           	global	_wCount
                                           	global	_ep_bdt
                                           	global	_SetupPacket
                                           	global	_controlTransferBuffer
                                           	global	_CDCControlBuffer
                                           	global	_CDCRxBuffer
                                           	global	_CDCTxBuffer
                                           	global	_line_config
                                           	global	_zlp
                                           	global	__cdc_buffer
                                           	global	__cpu_clock_
                                           	global	_intUsed
                                           	global	__pr2_plus1
                                           	global	__t2con
                                           	global	_lectura
                                           	global	_bloque
                                           	global	_par1
                                           	global	_cont
                                           	global	_i
                                           	global	_epap_in
                                           	global	_epap_out
                                           	global	_epapin_init
                                           	global	_epapout_init
                                           	global	_ProcessStandardRequest
                                           	global	_InDataStage
                                           	global	_OutDataStage
                                           	global	_SetupStage
                                           	global	_WaitForSetupStage
                                           	global	_ProcessControlTransfer
                                           	global	_UnSuspend
                                           	global	_StartOfFrame
                                           	global	_Stall
                                           	global	_Suspend
                                           	global	_BusReset
                                           	global	_CDCputs
                                           	global	_Delayms
                                           	global	_Delayus
                                           	global	_pprintf
                                           	global	_psprintf2
                                           	global	_psprintf
                                           	global	_CDC_init
                                           	global	_CDCwrite
                                           	global	_CDCprintf
                                           	global	_CDCprint
                                           	global	_CDCprintln
                                           	global	_CDCgetkey
                                           	global	_CDCgetstring
                                           	global	_CDC_interrupt
                                           	global	_analog_init
                                           	global	_analogReference
                                           	global	_analogread
                                           	global	_digitalwrite
                                           	global	_digitalread
                                           	global	_pinmode
                                           	global	_toggle
                                           	global	_EEPROM_read8
                                           	global	_EEPROM_read16
                                           	global	_EEPROM_write8
                                           	global	_EEPROM_write16
                                           	global	_SystemReadFlashMemory
                                           	global	_SystemClocksGetCpuFrequency
                                           	global	_SystemClocksGetPeripheralFrequency
                                           	global	_IntSetEnable
                                           	global	_IntDisable
                                           	global	_IntEnable
                                           	global	_IntClearFlag
                                           	global	_IntInit
                                           	global	_IntTimerStart
                                           	global	_IntTimerStop
                                           	global	_userhighinterrupt
                                           	global	_userlowinterrupt
                                           	global	_PWM_set_frequency
                                           	global	_PWM_set_dutycycle
                                           	global	_PWM_set_percent_dutycycle
                                           	global	_IOsetDigital
                                           	global	_IOsetRemap
                                           	global	_setup
                                           	global	_leer_cadena
                                           	global	_loop
                                           	global	_pinguino_main
                                           	global	_high_priority_isr
                                           	global	_low_priority_isr
                                           	global	_libdevice_descriptor
                                           	global	_libconfiguration_descriptor
                                           	global	_lang
                                           	global	_manu
                                           	global	_prod
                                           	global	_libstring_descriptor
                                           	global	_mask
                                           	global	_port
                                           
                                           ;--------------------------------------------------------
                                           ; extern variables in this module
                                           ;--------------------------------------------------------
                                           	extern	__gptrget1
                                           	extern	__gptrput1
                                           	extern	__gptrget3
                                           	extern	__gptrput3
                                           	extern	__gptrget4
                                           	extern	__gptrget2
                                           	extern	_UFRMLbits
                                           	extern	_UFRMHbits
                                           	extern	_UIRbits
                                           	extern	_UIEbits
                                           	extern	_UEIRbits
                                           	extern	_UEIEbits
                                           	extern	_USTATbits
                                           	extern	_UCONbits
                                           	extern	_UADDRbits
                                           	extern	_UCFGbits
                                           	extern	_UEP0bits
                                           	extern	_UEP1bits
                                           	extern	_UEP2bits
                                           	extern	_UEP3bits
                                           	extern	_UEP4bits
                                           	extern	_UEP5bits
                                           	extern	_UEP6bits
                                           	extern	_UEP7bits
                                           	extern	_UEP8bits
                                           	extern	_UEP9bits
                                           	extern	_UEP10bits
                                           	extern	_UEP11bits
                                           	extern	_UEP12bits
                                           	extern	_UEP13bits
                                           	extern	_UEP14bits
                                           	extern	_UEP15bits
                                           	extern	_PORTAbits
                                           	extern	_PORTBbits
                                           	extern	_PORTCbits
                                           	extern	_PORTEbits
                                           	extern	_LATAbits
                                           	extern	_LATBbits
                                           	extern	_LATCbits
                                           	extern	_DDRAbits
                                           	extern	_TRISAbits
                                           	extern	_DDRBbits
                                           	extern	_TRISBbits
                                           	extern	_DDRCbits
                                           	extern	_TRISCbits
                                           	extern	_OSCTUNEbits
                                           	extern	_PIE1bits
                                           	extern	_PIR1bits
                                           	extern	_IPR1bits
                                           	extern	_PIE2bits
                                           	extern	_PIR2bits
                                           	extern	_IPR2bits
                                           	extern	_EECON1bits
                                           	extern	_RCSTAbits
                                           	extern	_TXSTAbits
                                           	extern	_T3CONbits
                                           	extern	_CMCONbits
                                           	extern	_CVRCONbits
                                           	extern	_CCP1ASbits
                                           	extern	_ECCP1ASbits
                                           	extern	_CCP1DELbits
                                           	extern	_ECCP1DELbits
                                           	extern	_BAUDCONbits
                                           	extern	_BAUDCTLbits
                                           	extern	_CCP2CONbits
                                           	extern	_CCP1CONbits
                                           	extern	_ADCON2bits
                                           	extern	_ADCON1bits
                                           	extern	_ADCON0bits
                                           	extern	_SSPCON2bits
                                           	extern	_SSPCON1bits
                                           	extern	_SSPSTATbits
                                           	extern	_T2CONbits
                                           	extern	_T1CONbits
                                           	extern	_RCONbits
                                           	extern	_WDTCONbits
                                           	extern	_HLVDCONbits
                                           	extern	_LVDCONbits
                                           	extern	_OSCCONbits
                                           	extern	_T0CONbits
                                           	extern	_STATUSbits
                                           	extern	_INTCON3bits
                                           	extern	_INTCON2bits
                                           	extern	_INTCONbits
                                           	extern	_STKPTRbits
                                           	extern	_UFRM
                                           	extern	_UFRML
                                           	extern	_UFRMH
                                           	extern	_UIR
                                           	extern	_UIE
                                           	extern	_UEIR
                                           	extern	_UEIE
                                           	extern	_USTAT
                                           	extern	_UCON
                                           	extern	_UADDR
                                           	extern	_UCFG
                                           	extern	_UEP0
                                           	extern	_UEP1
                                           	extern	_UEP2
                                           	extern	_UEP3
                                           	extern	_UEP4
                                           	extern	_UEP5
                                           	extern	_UEP6
                                           	extern	_UEP7
                                           	extern	_UEP8
                                           	extern	_UEP9
                                           	extern	_UEP10
                                           	extern	_UEP11
                                           	extern	_UEP12
                                           	extern	_UEP13
                                           	extern	_UEP14
                                           	extern	_UEP15
                                           	extern	_PORTA
                                           	extern	_PORTB
                                           	extern	_PORTC
                                           	extern	_PORTE
                                           	extern	_LATA
                                           	extern	_LATB
                                           	extern	_LATC
                                           	extern	_DDRA
                                           	extern	_TRISA
                                           	extern	_DDRB
                                           	extern	_TRISB
                                           	extern	_DDRC
                                           	extern	_TRISC
                                           	extern	_OSCTUNE
                                           	extern	_PIE1
                                           	extern	_PIR1
                                           	extern	_IPR1
                                           	extern	_PIE2
                                           	extern	_PIR2
                                           	extern	_IPR2
                                           	extern	_EECON1
                                           	extern	_EECON2
                                           	extern	_EEDATA
                                           	extern	_EEADR
                                           	extern	_RCSTA
                                           	extern	_TXSTA
                                           	extern	_TXREG
                                           	extern	_RCREG
                                           	extern	_SPBRG
                                           	extern	_SPBRGH
                                           	extern	_T3CON
                                           	extern	_TMR3
                                           	extern	_TMR3L
                                           	extern	_TMR3H
                                           	extern	_CMCON
                                           	extern	_CVRCON
                                           	extern	_CCP1AS
                                           	extern	_ECCP1AS
                                           	extern	_CCP1DEL
                                           	extern	_ECCP1DEL
                                           	extern	_BAUDCON
                                           	extern	_BAUDCTL
                                           	extern	_CCP2CON
                                           	extern	_CCPR2
                                           	extern	_CCPR2L
                                           	extern	_CCPR2H
                                           	extern	_CCP1CON
                                           	extern	_CCPR1
                                           	extern	_CCPR1L
                                           	extern	_CCPR1H
                                           	extern	_ADCON2
                                           	extern	_ADCON1
                                           	extern	_ADCON0
                                           	extern	_ADRES
                                           	extern	_ADRESL
                                           	extern	_ADRESH
                                           	extern	_SSPCON2
                                           	extern	_SSPCON1
                                           	extern	_SSPSTAT
                                           	extern	_SSPADD
                                           	extern	_SSPBUF
                                           	extern	_T2CON
                                           	extern	_PR2
                                           	extern	_TMR2
                                           	extern	_T1CON
                                           	extern	_TMR1
                                           	extern	_TMR1L
                                           	extern	_TMR1H
                                           	extern	_RCON
                                           	extern	_WDTCON
                                           	extern	_HLVDCON
                                           	extern	_LVDCON
                                           	extern	_OSCCON
                                           	extern	_T0CON
                                           	extern	_TMR0
                                           	extern	_TMR0L
                                           	extern	_TMR0H
                                           	extern	_STATUS
                                           	extern	_FSR2L
                                           	extern	_FSR2H
                                           	extern	_PLUSW2
                                           	extern	_PREINC2
                                           	extern	_POSTDEC2
                                           	extern	_POSTINC2
                                           	extern	_INDF2
                                           	extern	_BSR
                                           	extern	_FSR1L
                                           	extern	_FSR1H
                                           	extern	_PLUSW1
                                           	extern	_PREINC1
                                           	extern	_POSTDEC1
                                           	extern	_POSTINC1
                                           	extern	_INDF1
                                           	extern	_WREG
                                           	extern	_FSR0L
                                           	extern	_FSR0H
                                           	extern	_PLUSW0
                                           	extern	_PREINC0
                                           	extern	_POSTDEC0
                                           	extern	_POSTINC0
                                           	extern	_INDF0
                                           	extern	_INTCON3
                                           	extern	_INTCON2
                                           	extern	_INTCON
                                           	extern	_PROD
                                           	extern	_PRODL
                                           	extern	_PRODH
                                           	extern	_TABLAT
                                           	extern	_TBLPTR
                                           	extern	_TBLPTRL
                                           	extern	_TBLPTRH
                                           	extern	_TBLPTRU
                                           	extern	_PC
                                           	extern	_PCL
                                           	extern	_PCLATH
                                           	extern	_PCLATU
                                           	extern	_STKPTR
                                           	extern	_TOS
                                           	extern	_TOSL
                                           	extern	_TOSH
                                           	extern	_TOSU
                                           	extern	_strcpy
                                           	extern	_strncmp
                                           	extern	_strtok
                                           	extern	_delay1ktcy
                                           	extern	_delay10ktcy
                                           	extern	__modulong
                                           	extern	__divulong
                                           	extern	__divslong
                                           	extern	__mulint
                                           	extern	__divuint
                                           	extern	_atoi
                                           
                                           ;--------------------------------------------------------
                                           ;	Equates to used internal registers
                                           ;--------------------------------------------------------
                                           STATUS	equ	0xfd8
                                           PCL	equ	0xff9
                                           PCLATH	equ	0xffa
                                           PCLATU	equ	0xffb
                                           INTCON	equ	0xff2
                                           WREG	equ	0xfe8
                                           BSR	equ	0xfe0
                                           TOSL	equ	0xffd
                                           TOSH	equ	0xffe
                                           TOSU	equ	0xfff
                                           TBLPTRL	equ	0xff6
                                           TBLPTRH	equ	0xff7
                                           TBLPTRU	equ	0xff8
                                           TABLAT	equ	0xff5
                                           FSR0L	equ	0xfe9
                                           FSR0H	equ	0xfea
                                           FSR1L	equ	0xfe1
                                           FSR2L	equ	0xfd9
                                           FSR2H	equ	0xfda
                                           INDF0	equ	0xfef
                                           POSTINC0	equ	0xfee
                                           POSTINC1	equ	0xfe6
                                           POSTDEC1	equ	0xfe5
                                           PREINC1	equ	0xfe4
                                           PLUSW2	equ	0xfdb
                                           PRODL	equ	0xff3
                                           PRODH	equ	0xff4
                                           
                                           
                                           	idata
                                           _CONTROL_LINE	db	0x00
                                           __cpu_clock_	db	0x00, 0x6c, 0xdc, 0x02
                                           __pr2_plus1	db	0x00, 0x01
                                           
                                           
                                           ; Internal registers
                                           .registers	udata_ovr	0x0000
                                           r0x00	res	1
                                           r0x01	res	1
                                           r0x02	res	1
                                           r0x03	res	1
                                           r0x04	res	1
                                           r0x05	res	1
                                           r0x06	res	1
                                           r0x07	res	1
                                           r0x08	res	1
                                           r0x09	res	1
                                           r0x0a	res	1
                                           r0x0b	res	1
                                           r0x0c	res	1
                                           r0x0d	res	1
                                           r0x0e	res	1
                                           r0x0f	res	1
                                           r0x10	res	1
                                           r0x11	res	1
                                           r0x12	res	1
                                           r0x13	res	1
                                           r0x14	res	1
                                           r0x15	res	1
                                           r0x16	res	1
                                           r0x17	res	1
                                           r0x18	res	1
                                           r0x19	res	1
                                           r0x1a	res	1
                                           r0x1b	res	1
                                           r0x1c	res	1
                                           r0x1d	res	1
                                           r0x1e	res	1
                                           r0x1f	res	1
                                           r0x20	res	1
                                           
                                           
                                           usbram5	udata
                                           _SetupPacket	res	64
                                           _controlTransferBuffer	res	64
                                           _CDCRxBuffer	res	64
                                           _CDCTxBuffer	res	64
                                           
                                           udata_main_0	udata
                                           _deviceAddress	res	1
                                           
                                           udata_main_1	udata
                                           _HIDPostProcess	res	1
                                           
                                           udata_main_2	udata
                                           _hidIdleRate	res	1
                                           
                                           udata_main_3	udata
                                           _hidProtocol	res	1
                                           
                                           udata_main_4	udata
                                           _hidRxLen	res	1
                                           
                                           udata_main_5	udata
                                           _pputchar	res	3
                                           
                                           udata_main_6	udata
                                           _intFunction	res	99
                                           
                                           udata_main_7	udata
                                           _intCount	res	8
                                           
                                           udata_main_8	udata
                                           _intCountLimit	res	8
                                           
                                           udata_main_9	udata
                                           _preloadH	res	4
                                           
                                           udata_main_10	udata
                                           _preloadL	res	4
                                           
                                           udata_main_11	udata
                                           _valor	res	2
                                           
                                           udata_main_12	udata
                                           _requestHandled	res	1
                                           
                                           udata_main_13	udata
                                           _outPtr	res	3
                                           
                                           udata_main_14	udata
                                           _wCount	res	2
                                           
                                           udata_main_15	udata
                                           _inPtr	res	3
                                           
                                           udata_main_16	udata
                                           _selfPowered	res	1
                                           
                                           udata_main_17	udata
                                           _remoteWakeup	res	1
                                           
                                           udata_main_18	udata
                                           _deviceState	res	1
                                           
                                           udata_main_19	udata
                                           _currentConfiguration	res	1
                                           
                                           udata_main_20	udata
                                           _ctrlTransferStage	res	1
                                           
                                           udata_main_21	udata
                                           _line_config	res	7
                                           
                                           udata_main_22	udata
                                           _zlp	res	8
                                           
                                           udata_main_23	udata
                                           _CDCControlBuffer	res	16
                                           
                                           udata_main_24	udata
                                           _pprinti_buffer_1_154	res	12
                                           
                                           udata_main_25	udata
                                           _pprintfl_buffer_1_164	res	12
                                           
                                           udata_main_26	udata
                                           _pprintfl_tmp_1_164	res	12
                                           
                                           udata_main_27	udata
                                           _pprintfl_helper_1_164	res	4
                                           
                                           udata_main_28	udata
                                           _pprint_scr_1_178	res	2
                                           
                                           udata_main_29	udata
                                           _psprintf2_out_1_199	res	3
                                           
                                           udata_main_30	udata
                                           __cdc_buffer	res	64
                                           
                                           udata_main_31	udata
                                           _intUsed	res	33
                                           
                                           udata_main_32	udata
                                           __t2con	res	1
                                           
                                           udata_main_33	udata
                                           _leer_cadena_valor_leido_1_305	res	21
                                           
                                           udata_main_34	udata
                                           _lectura	res	21
                                           
                                           udata_main_35	udata
                                           _cont	res	2
                                           
                                           udata_main_36	udata
                                           _bloque	res	3
                                           
                                           udata_main_37	udata
                                           _par1	res	2
                                           
                                           udata_main_38	udata
                                           _i	res	2
                                           
                                           
                                           ustat_main_00	udata	0X0400
                                           _ep_bdt        	res	128
                                           
                                           ;--------------------------------------------------------
                                           ; global & static initialisations
                                           ;--------------------------------------------------------
                                           ; ; Starting pCode block
                                           S_main__high_priority_isr	code	0X002020
                                           _high_priority_isr:
                                           ;	.line	167; /home/yeison/Documentos/python/apps/pinguinoIDE/x.4/source/main.c	void high_priority_isr(void) __interrupt 1
002020   cfd8     movff   0xfd8, 0xfe5     	MOVFF	STATUS, POSTDEC1
002022   ffe5
002024   cfe0     movff   0xfe0, 0xfe5     	MOVFF	BSR, POSTDEC1
002026   ffe5
002028   6ee5     movwf   0xe5, 0          	MOVWF	POSTDEC1
00202a   cff3     movff   0xff3, 0xfe5     	MOVFF	PRODL, POSTDEC1
00202c   ffe5
00202e   cff4     movff   0xff4, 0xfe5     	MOVFF	PRODH, POSTDEC1
002030   ffe5
002032   cfe9     movff   0xfe9, 0xfe5     	MOVFF	FSR0L, POSTDEC1
002034   ffe5
002036   cfea     movff   0xfea, 0xfe5     	MOVFF	FSR0H, POSTDEC1
002038   ffe5
00203a   cffa     movff   0xffa, 0xfe5     	MOVFF	PCLATH, POSTDEC1
00203c   ffe5
00203e   cffb     movff   0xffb, 0xfe5     	MOVFF	PCLATU, POSTDEC1
002040   ffe5
                                           ;	.line	178; /home/yeison/Documentos/python/apps/pinguinoIDE/x.4/source/main.c	CDC_interrupt();
002042   ec18     call    0x7a30, 0        	CALL	_CDC_interrupt
002044   f03d
002046   cfe4     movff   0xfe4, 0xffb     	MOVFF	PREINC1, PCLATU
002048   fffb
00204a   cfe4     movff   0xfe4, 0xffa     	MOVFF	PREINC1, PCLATH
00204c   fffa
00204e   cfe4     movff   0xfe4, 0xfea     	MOVFF	PREINC1, FSR0H
002050   ffea
002052   cfe4     movff   0xfe4, 0xfe9     	MOVFF	PREINC1, FSR0L
002054   ffe9
002056   cfe4     movff   0xfe4, 0xff4     	MOVFF	PREINC1, PRODH
002058   fff4
00205a   cfe4     movff   0xfe4, 0xff3     	MOVFF	PREINC1, PRODL
00205c   fff3
00205e   50e4     movf    0xe4, 0, 0       	MOVF	PREINC1, W
002060   cfe4     movff   0xfe4, 0xfe0     	MOVFF	PREINC1, BSR
002062   ffe0
002064   cfe4     movff   0xfe4, 0xfd8     	MOVFF	PREINC1, STATUS
002066   ffd8
002068   0010     retfie  0                	RETFIE	
                                           
                                           ; ; Starting pCode block for absolute section
                                           ; ;-----------------------------------------
                                           S_main_ivec_0x1_high_priority_isr	code	0X000008
                                           ivec_0x1_high_priority_isr:
000008   ef10     goto    0x2020           	GOTO	_high_priority_isr
00000a   f010
                                           
                                           ; ; Starting pCode block
                                           S_main__low_priority_isr	code	0X004000
                                           _low_priority_isr:
                                           ;	.line	229; /home/yeison/Documentos/python/apps/pinguinoIDE/x.4/source/main.c	void low_priority_isr(void) __interrupt 2
004000   cfd8     movff   0xfd8, 0xfe5     	MOVFF	STATUS, POSTDEC1
004002   ffe5
004004   cfe0     movff   0xfe0, 0xfe5     	MOVFF	BSR, POSTDEC1
004006   ffe5
004008   6ee5     movwf   0xe5, 0          	MOVWF	POSTDEC1
00400a   cff3     movff   0xff3, 0xfe5     	MOVFF	PRODL, POSTDEC1
00400c   ffe5
00400e   cff4     movff   0xff4, 0xfe5     	MOVFF	PRODH, POSTDEC1
004010   ffe5
004012   cfe9     movff   0xfe9, 0xfe5     	MOVFF	FSR0L, POSTDEC1
004014   ffe5
004016   cfea     movff   0xfea, 0xfe5     	MOVFF	FSR0H, POSTDEC1
004018   ffe5
00401a   cffa     movff   0xffa, 0xfe5     	MOVFF	PCLATH, POSTDEC1
00401c   ffe5
00401e   cffb     movff   0xffb, 0xfe5     	MOVFF	PCLATU, POSTDEC1
004020   ffe5
                                           ;	.line	245; /home/yeison/Documentos/python/apps/pinguinoIDE/x.4/source/main.c	userlowinterrupt();
004022   ec3e     call    0x7a7c, 0        	CALL	_userlowinterrupt
004024   f03d
004026   cfe4     movff   0xfe4, 0xffb     	MOVFF	PREINC1, PCLATU
004028   fffb
00402a   cfe4     movff   0xfe4, 0xffa     	MOVFF	PREINC1, PCLATH
00402c   fffa
00402e   cfe4     movff   0xfe4, 0xfea     	MOVFF	PREINC1, FSR0H
004030   ffea
004032   cfe4     movff   0xfe4, 0xfe9     	MOVFF	PREINC1, FSR0L
004034   ffe9
004036   cfe4     movff   0xfe4, 0xff4     	MOVFF	PREINC1, PRODH
004038   fff4
00403a   cfe4     movff   0xfe4, 0xff3     	MOVFF	PREINC1, PRODL
00403c   fff3
00403e   50e4     movf    0xe4, 0, 0       	MOVF	PREINC1, W
004040   cfe4     movff   0xfe4, 0xfe0     	MOVFF	PREINC1, BSR
004042   ffe0
004044   cfe4     movff   0xfe4, 0xfd8     	MOVFF	PREINC1, STATUS
004046   ffd8
004048   0010     retfie  0                	RETFIE	
                                           
                                           ; ; Starting pCode block for absolute section
                                           ; ;-----------------------------------------
                                           S_main_ivec_0x2_low_priority_isr	code	0X000018
                                           ivec_0x2_low_priority_isr:
000018   ef00     goto    0x4000           	GOTO	_low_priority_isr
00001a   f020
                                           
                                           ; I code from now on!
                                           ; ; Starting pCode block
                                           S_main__pinguino_main	code
                                           _pinguino_main:
                                           ;	.line	96; /home/yeison/Documentos/python/apps/pinguinoIDE/x.4/source/main.c	RCON   = 0x80;                // Enable priority levels on interrupts
007968   0e80     movlw   0x80             	MOVLW	0x80
00796a   6ed0     movwf   0xd0, 0          	MOVWF	_RCON
                                           ;	.line	108; /home/yeison/Documentos/python/apps/pinguinoIDE/x.4/source/main.c	IOsetDigital();
00796c   ec0d     call    0x7a1a, 0        	CALL	_IOsetDigital
00796e   f03d
                                           ;	.line	109; /home/yeison/Documentos/python/apps/pinguinoIDE/x.4/source/main.c	IOsetRemap();
007970   ec21     call    0x7a42, 0        	CALL	_IOsetRemap
007972   f03d
                                           ;	.line	112; /home/yeison/Documentos/python/apps/pinguinoIDE/x.4/source/main.c	IntInit();
007974   ec35     call    0x786a, 0        	CALL	_IntInit
007976   f03c
                                           ;	.line	120; /home/yeison/Documentos/python/apps/pinguinoIDE/x.4/source/main.c	CDC_init();
007978   eccb     call    0x7596, 0        	CALL	_CDC_init
00797a   f03a
                                           ;	.line	128; /home/yeison/Documentos/python/apps/pinguinoIDE/x.4/source/main.c	analog_init();
00797c   ec29     call    0x7a52, 0        	CALL	_analog_init
00797e   f03d
                                           ;	.line	144; /home/yeison/Documentos/python/apps/pinguinoIDE/x.4/source/main.c	setup();
007980   ec3d     call    0x7a7a, 0        	CALL	_setup
007982   f03d
                                           _02442_DS_:
                                           ;	.line	155; /home/yeison/Documentos/python/apps/pinguinoIDE/x.4/source/main.c	loop();
007984   ec35     call    0x206a, 0        	CALL	_loop
007986   f010
007988   d7fd     bra     0x7984           	BRA	_02442_DS_
00798a   0012     return  0                	RETURN	
                                           
                                           ; ; Starting pCode block
                                           S_main__loop	code
                                           _loop:
                                           ;	.line	29; /home/yeison/Documentos/python/apps/pinguinoIDE/x.4/source/user.c	void loop() {
00206a   cfd9     movff   0xfd9, 0xfe5     	MOVFF	FSR2L, POSTDEC1
00206c   ffe5
00206e   cfe1     movff   0xfe1, 0xfd9     	MOVFF	FSR1L, FSR2L
002070   ffd9
002072   c000     movff   0, 0xfe5         	MOVFF	r0x00, POSTDEC1
002074   ffe5
002076   c001     movff   0x1, 0xfe5       	MOVFF	r0x01, POSTDEC1
002078   ffe5
00207a   c002     movff   0x2, 0xfe5       	MOVFF	r0x02, POSTDEC1
00207c   ffe5
00207e   c003     movff   0x3, 0xfe5       	MOVFF	r0x03, POSTDEC1
002080   ffe5
002082   c004     movff   0x4, 0xfe5       	MOVFF	r0x04, POSTDEC1
002084   ffe5
002086   c005     movff   0x5, 0xfe5       	MOVFF	r0x05, POSTDEC1
002088   ffe5
                                           ;	.line	31; /home/yeison/Documentos/python/apps/pinguinoIDE/x.4/source/user.c	leer_cadena();
00208a   ecd3     call    0x73a6, 0        	CALL	_leer_cadena
00208c   f039
00208e   0103     movlb   0x3              	BANKSEL	_cont
                                           ;	.line	32; /home/yeison/Documentos/python/apps/pinguinoIDE/x.4/source/user.c	cont=0;
002090   6b6d     clrf    0x6d, 0x1        	CLRF	_cont, B
                                           ; removed redundant BANKSEL
002092   6b6e     clrf    0x6e, 0x1        	CLRF	(_cont + 1), B
                                           ;	.line	34; /home/yeison/Documentos/python/apps/pinguinoIDE/x.4/source/user.c	if (strncmp(lectura, "pinMode", 7)==0){
002094   0e02     movlw   0x2              	MOVLW	HIGH(_lectura)
002096   6e01     movwf   0x1, 0           	MOVWF	r0x01
002098   0ed9     movlw   0xd9             	MOVLW	LOW(_lectura)
00209a   6e00     movwf   0, 0             	MOVWF	r0x00
00209c   0e80     movlw   0x80             	MOVLW	0x80
00209e   6e02     movwf   0x2, 0           	MOVWF	r0x02
0020a0   0e00     movlw   0                	MOVLW	UPPER(__str_8)
0020a2   6e05     movwf   0x5, 0           	MOVWF	r0x05
0020a4   0e3f     movlw   0x3f             	MOVLW	HIGH(__str_8)
0020a6   6e04     movwf   0x4, 0           	MOVWF	r0x04
0020a8   0e38     movlw   0x38             	MOVLW	LOW(__str_8)
0020aa   6e03     movwf   0x3, 0           	MOVWF	r0x03
0020ac   0e00     movlw   0                	MOVLW	0x00
0020ae   6ee5     movwf   0xe5, 0          	MOVWF	POSTDEC1
0020b0   0e07     movlw   0x7              	MOVLW	0x07
0020b2   6ee5     movwf   0xe5, 0          	MOVWF	POSTDEC1
0020b4   5005     movf    0x5, 0, 0        	MOVF	r0x05, W
0020b6   6ee5     movwf   0xe5, 0          	MOVWF	POSTDEC1
0020b8   5004     movf    0x4, 0, 0        	MOVF	r0x04, W
0020ba   6ee5     movwf   0xe5, 0          	MOVWF	POSTDEC1
0020bc   5003     movf    0x3, 0, 0        	MOVF	r0x03, W
0020be   6ee5     movwf   0xe5, 0          	MOVWF	POSTDEC1
0020c0   5002     movf    0x2, 0, 0        	MOVF	r0x02, W
0020c2   6ee5     movwf   0xe5, 0          	MOVWF	POSTDEC1
0020c4   5001     movf    0x1, 0, 0        	MOVF	r0x01, W
0020c6   6ee5     movwf   0xe5, 0          	MOVWF	POSTDEC1
0020c8   5000     movf    0, 0, 0          	MOVF	r0x00, W
0020ca   6ee5     movwf   0xe5, 0          	MOVWF	POSTDEC1
0020cc   ec21     call    0x6042, 0        	CALL	_strncmp
0020ce   f030
0020d0   6e00     movwf   0, 0             	MOVWF	r0x00
0020d2   cff3     movff   0xff3, 0x1       	MOVFF	PRODL, r0x01
0020d4   f001
0020d6   0e08     movlw   0x8              	MOVLW	0x08
0020d8   26e1     addwf   0xe1, 0x1, 0     	ADDWF	FSR1L, F
0020da   5000     movf    0, 0, 0          	MOVF	r0x00, W
0020dc   1001     iorwf   0x1, 0, 0        	IORWF	r0x01, W
0020de   a4d8     btfss   0xd8, 0x2, 0     	BTFSS	STATUS, 2
0020e0   d0da     bra     0x2296           	BRA	_02162_DS_
                                           ;	.line	35; /home/yeison/Documentos/python/apps/pinguinoIDE/x.4/source/user.c	for (bloque = strtok(lectura,"("); bloque != NULL; bloque = strtok(NULL, ",") ){ 
0020e2   0e02     movlw   0x2              	MOVLW	HIGH(_lectura)
0020e4   6e01     movwf   0x1, 0           	MOVWF	r0x01
0020e6   0ed9     movlw   0xd9             	MOVLW	LOW(_lectura)
0020e8   6e00     movwf   0, 0             	MOVWF	r0x00
0020ea   0e80     movlw   0x80             	MOVLW	0x80
0020ec   6e02     movwf   0x2, 0           	MOVWF	r0x02
0020ee   0e00     movlw   0                	MOVLW	UPPER(__str_11)
0020f0   6e05     movwf   0x5, 0           	MOVWF	r0x05
0020f2   0e3f     movlw   0x3f             	MOVLW	HIGH(__str_11)
0020f4   6e04     movwf   0x4, 0           	MOVWF	r0x04
0020f6   0e4e     movlw   0x4e             	MOVLW	LOW(__str_11)
0020f8   6e03     movwf   0x3, 0           	MOVWF	r0x03
0020fa   5005     movf    0x5, 0, 0        	MOVF	r0x05, W
0020fc   6ee5     movwf   0xe5, 0          	MOVWF	POSTDEC1
0020fe   5004     movf    0x4, 0, 0        	MOVF	r0x04, W
002100   6ee5     movwf   0xe5, 0          	MOVWF	POSTDEC1
002102   5003     movf    0x3, 0, 0        	MOVF	r0x03, W
002104   6ee5     movwf   0xe5, 0          	MOVWF	POSTDEC1
002106   5002     movf    0x2, 0, 0        	MOVF	r0x02, W
002108   6ee5     movwf   0xe5, 0          	MOVWF	POSTDEC1
00210a   5001     movf    0x1, 0, 0        	MOVF	r0x01, W
00210c   6ee5     movwf   0xe5, 0          	MOVWF	POSTDEC1
00210e   5000     movf    0, 0, 0          	MOVF	r0x00, W
002110   6ee5     movwf   0xe5, 0          	MOVWF	POSTDEC1
002112   ec62     call    0x4ec4, 0        	CALL	_strtok
002114   f027
002116   0103     movlb   0x3              	BANKSEL	_bloque
002118   6f66     movwf   0x66, 0x1        	MOVWF	_bloque, B
00211a   cff3     movff   0xff3, 0x367     	MOVFF	PRODL, (_bloque + 1)
00211c   f367
00211e   cff4     movff   0xff4, 0x368     	MOVFF	PRODH, (_bloque + 2)
002120   f368
002122   0e06     movlw   0x6              	MOVLW	0x06
002124   26e1     addwf   0xe1, 0x1, 0     	ADDWF	FSR1L, F
                                           _02165_DS_:
002126   0103     movlb   0x3              	BANKSEL	_bloque
002128   5166     movf    0x66, 0, 0x1     	MOVF	_bloque, W, B
00212a   e106     bnz     0x2138           	BNZ	_02388_DS_
                                           ; removed redundant BANKSEL
00212c   5167     movf    0x67, 0, 0x1     	MOVF	(_bloque + 1), W, B
00212e   e104     bnz     0x2138           	BNZ	_02388_DS_
                                           ; removed redundant BANKSEL
002130   5168     movf    0x68, 0, 0x1     	MOVF	(_bloque + 2), W, B
002132   e102     bnz     0x2138           	BNZ	_02388_DS_
002134   ef6b     goto    0x30d6           	GOTO	_02199_DS_
002136   f018
                                           _02388_DS_:
                                           ;	.line	36; /home/yeison/Documentos/python/apps/pinguinoIDE/x.4/source/user.c	switch (cont){
002138   80d8     bsf     0xd8, 0, 0       	BSF	STATUS, 0
00213a   0103     movlb   0x3              	BANKSEL	(_cont + 1)
00213c   af6e     btfss   0x6e, 0x7, 0x1   	BTFSS	(_cont + 1), 7, B
00213e   90d8     bcf     0xd8, 0, 0       	BCF	STATUS, 0
002140   b0d8     btfsc   0xd8, 0, 0       	BTFSC	STATUS, 0
002142   d088     bra     0x2254           	BRA	_02077_DS_
                                           ; removed redundant BANKSEL
002144   516e     movf    0x6e, 0, 0x1     	MOVF	(_cont + 1), W, B
002146   0f80     addlw   0x80             	ADDLW	0x80
002148   0f80     addlw   0x80             	ADDLW	0x80
00214a   e102     bnz     0x2150           	BNZ	_02389_DS_
00214c   0e03     movlw   0x3              	MOVLW	0x03
                                           ; removed redundant BANKSEL
00214e   5d6d     subwf   0x6d, 0, 0x1     	SUBWF	_cont, W, B
                                           _02389_DS_:
002150   b0d8     btfsc   0xd8, 0, 0       	BTFSC	STATUS, 0
002152   d080     bra     0x2254           	BRA	_02077_DS_
002154   6afa     clrf    0xfa, 0          	CLRF	PCLATH
002156   6afb     clrf    0xfb, 0          	CLRF	PCLATU
002158   0103     movlb   0x3              	BANKSEL	_cont
00215a   356d     rlcf    0x6d, 0, 0x1     	RLCF	_cont, W, B
00215c   36fa     rlcf    0xfa, 0x1, 0     	RLCF	PCLATH, F
00215e   34e8     rlcf    0xe8, 0, 0       	RLCF	WREG, W
002160   36fa     rlcf    0xfa, 0x1, 0     	RLCF	PCLATH, F
002162   0bfc     andlw   0xfc             	ANDLW	0xfc
002164   0f74     addlw   0x74             	ADDLW	LOW(_02390_DS_)
002166   6ee5     movwf   0xe5, 0          	MOVWF	POSTDEC1
002168   0e21     movlw   0x21             	MOVLW	HIGH(_02390_DS_)
00216a   22fa     addwfc  0xfa, 0x1, 0     	ADDWFC	PCLATH, F
00216c   0e00     movlw   0                	MOVLW	UPPER(_02390_DS_)
00216e   22fb     addwfc  0xfb, 0x1, 0     	ADDWFC	PCLATU, F
002170   50e4     movf    0xe4, 0, 0       	MOVF	PREINC1, W
002172   6ef9     movwf   0xf9, 0          	MOVWF	PCL
                                           _02390_DS_:
002174   efc0     goto    0x2180           	GOTO	_02069_DS_
002176   f010
002178   efc1     goto    0x2182           	GOTO	_02070_DS_
00217a   f010
00217c   efd1     goto    0x21a2           	GOTO	_02071_DS_
00217e   f010
                                           _02069_DS_:
                                           ;	.line	37; /home/yeison/Documentos/python/apps/pinguinoIDE/x.4/source/user.c	case 0: break;
002180   d069     bra     0x2254           	BRA	_02077_DS_
                                           _02070_DS_:
002182   0103     movlb   0x3              	BANKSEL	(_bloque + 2)
                                           ;	.line	39; /home/yeison/Documentos/python/apps/pinguinoIDE/x.4/source/user.c	par1=atoi(bloque);
002184   5168     movf    0x68, 0, 0x1     	MOVF	(_bloque + 2), W, B
002186   6ee5     movwf   0xe5, 0          	MOVWF	POSTDEC1
                                           ; removed redundant BANKSEL
002188   5167     movf    0x67, 0, 0x1     	MOVF	(_bloque + 1), W, B
00218a   6ee5     movwf   0xe5, 0          	MOVWF	POSTDEC1
                                           ; removed redundant BANKSEL
00218c   5166     movf    0x66, 0, 0x1     	MOVF	_bloque, W, B
00218e   6ee5     movwf   0xe5, 0          	MOVWF	POSTDEC1
002190   ecd5     call    0x55aa, 0        	CALL	_atoi
002192   f02a
002194   0103     movlb   0x3              	BANKSEL	_par1
002196   6f6f     movwf   0x6f, 0x1        	MOVWF	_par1, B
002198   cff3     movff   0xff3, 0x370     	MOVFF	PRODL, (_par1 + 1)
00219a   f370
00219c   0e03     movlw   0x3              	MOVLW	0x03
00219e   26e1     addwf   0xe1, 0x1, 0     	ADDWF	FSR1L, F
                                           ;	.line	40; /home/yeison/Documentos/python/apps/pinguinoIDE/x.4/source/user.c	break;
0021a0   d059     bra     0x2254           	BRA	_02077_DS_
                                           _02071_DS_:
                                           ;	.line	42; /home/yeison/Documentos/python/apps/pinguinoIDE/x.4/source/user.c	if (strncmp(bloque, "INPUT", 5)==0) pinmode(par1,INPUT);
0021a2   0e00     movlw   0                	MOVLW	UPPER(__str_9)
0021a4   6e02     movwf   0x2, 0           	MOVWF	r0x02
0021a6   0e3f     movlw   0x3f             	MOVLW	HIGH(__str_9)
0021a8   6e01     movwf   0x1, 0           	MOVWF	r0x01
0021aa   0e40     movlw   0x40             	MOVLW	LOW(__str_9)
0021ac   6e00     movwf   0, 0             	MOVWF	r0x00
0021ae   0e00     movlw   0                	MOVLW	0x00
0021b0   6ee5     movwf   0xe5, 0          	MOVWF	POSTDEC1
0021b2   0e05     movlw   0x5              	MOVLW	0x05
0021b4   6ee5     movwf   0xe5, 0          	MOVWF	POSTDEC1
0021b6   5002     movf    0x2, 0, 0        	MOVF	r0x02, W
0021b8   6ee5     movwf   0xe5, 0          	MOVWF	POSTDEC1
0021ba   5001     movf    0x1, 0, 0        	MOVF	r0x01, W
0021bc   6ee5     movwf   0xe5, 0          	MOVWF	POSTDEC1
0021be   5000     movf    0, 0, 0          	MOVF	r0x00, W
0021c0   6ee5     movwf   0xe5, 0          	MOVWF	POSTDEC1
0021c2   0103     movlb   0x3              	BANKSEL	(_bloque + 2)
0021c4   5168     movf    0x68, 0, 0x1     	MOVF	(_bloque + 2), W, B
0021c6   6ee5     movwf   0xe5, 0          	MOVWF	POSTDEC1
                                           ; removed redundant BANKSEL
0021c8   5167     movf    0x67, 0, 0x1     	MOVF	(_bloque + 1), W, B
0021ca   6ee5     movwf   0xe5, 0          	MOVWF	POSTDEC1
                                           ; removed redundant BANKSEL
0021cc   5166     movf    0x66, 0, 0x1     	MOVF	_bloque, W, B
0021ce   6ee5     movwf   0xe5, 0          	MOVWF	POSTDEC1
0021d0   ec21     call    0x6042, 0        	CALL	_strncmp
0021d2   f030
0021d4   6e00     movwf   0, 0             	MOVWF	r0x00
0021d6   cff3     movff   0xff3, 0x1       	MOVFF	PRODL, r0x01
0021d8   f001
0021da   0e08     movlw   0x8              	MOVLW	0x08
0021dc   26e1     addwf   0xe1, 0x1, 0     	ADDWF	FSR1L, F
0021de   5000     movf    0, 0, 0          	MOVF	r0x00, W
0021e0   1001     iorwf   0x1, 0, 0        	IORWF	r0x01, W
0021e2   e10c     bnz     0x21fc           	BNZ	_02075_DS_
0021e4   0103     movlb   0x3              	BANKSEL	_par1
0021e6   516f     movf    0x6f, 0, 0x1     	MOVF	_par1, W, B
0021e8   6e00     movwf   0, 0             	MOVWF	r0x00
0021ea   0e01     movlw   0x1              	MOVLW	0x01
0021ec   6ee5     movwf   0xe5, 0          	MOVWF	POSTDEC1
0021ee   5000     movf    0, 0, 0          	MOVF	r0x00, W
0021f0   6ee5     movwf   0xe5, 0          	MOVWF	POSTDEC1
0021f2   ec64     call    0x66c8, 0        	CALL	_pinmode
0021f4   f033
0021f6   52e6     movf    0xe6, 0x1, 0     	MOVF	POSTINC1, F
0021f8   52e6     movf    0xe6, 0x1, 0     	MOVF	POSTINC1, F
0021fa   d02c     bra     0x2254           	BRA	_02077_DS_
                                           _02075_DS_:
                                           ;	.line	43; /home/yeison/Documentos/python/apps/pinguinoIDE/x.4/source/user.c	else if (strncmp(bloque, "OUTPUT", 6)==0) pinmode(par1,OUTPUT);
0021fc   0e00     movlw   0                	MOVLW	UPPER(__str_10)
0021fe   6e02     movwf   0x2, 0           	MOVWF	r0x02
002200   0e3f     movlw   0x3f             	MOVLW	HIGH(__str_10)
002202   6e01     movwf   0x1, 0           	MOVWF	r0x01
002204   0e46     movlw   0x46             	MOVLW	LOW(__str_10)
002206   6e00     movwf   0, 0             	MOVWF	r0x00
002208   0e00     movlw   0                	MOVLW	0x00
00220a   6ee5     movwf   0xe5, 0          	MOVWF	POSTDEC1
00220c   0e06     movlw   0x6              	MOVLW	0x06
00220e   6ee5     movwf   0xe5, 0          	MOVWF	POSTDEC1
002210   5002     movf    0x2, 0, 0        	MOVF	r0x02, W
002212   6ee5     movwf   0xe5, 0          	MOVWF	POSTDEC1
002214   5001     movf    0x1, 0, 0        	MOVF	r0x01, W
002216   6ee5     movwf   0xe5, 0          	MOVWF	POSTDEC1
002218   5000     movf    0, 0, 0          	MOVF	r0x00, W
00221a   6ee5     movwf   0xe5, 0          	MOVWF	POSTDEC1
00221c   0103     movlb   0x3              	BANKSEL	(_bloque + 2)
00221e   5168     movf    0x68, 0, 0x1     	MOVF	(_bloque + 2), W, B
002220   6ee5     movwf   0xe5, 0          	MOVWF	POSTDEC1
                                           ; removed redundant BANKSEL
002222   5167     movf    0x67, 0, 0x1     	MOVF	(_bloque + 1), W, B
002224   6ee5     movwf   0xe5, 0          	MOVWF	POSTDEC1
                                           ; removed redundant BANKSEL
002226   5166     movf    0x66, 0, 0x1     	MOVF	_bloque, W, B
002228   6ee5     movwf   0xe5, 0          	MOVWF	POSTDEC1
00222a   ec21     call    0x6042, 0        	CALL	_strncmp
00222c   f030
00222e   6e00     movwf   0, 0             	MOVWF	r0x00
002230   cff3     movff   0xff3, 0x1       	MOVFF	PRODL, r0x01
002232   f001
002234   0e08     movlw   0x8              	MOVLW	0x08
002236   26e1     addwf   0xe1, 0x1, 0     	ADDWF	FSR1L, F
002238   5000     movf    0, 0, 0          	MOVF	r0x00, W
00223a   1001     iorwf   0x1, 0, 0        	IORWF	r0x01, W
00223c   e10b     bnz     0x2254           	BNZ	_02077_DS_
00223e   0103     movlb   0x3              	BANKSEL	_par1
002240   516f     movf    0x6f, 0, 0x1     	MOVF	_par1, W, B
002242   6e00     movwf   0, 0             	MOVWF	r0x00
002244   0e00     movlw   0                	MOVLW	0x00
002246   6ee5     movwf   0xe5, 0          	MOVWF	POSTDEC1
002248   5000     movf    0, 0, 0          	MOVF	r0x00, W
00224a   6ee5     movwf   0xe5, 0          	MOVWF	POSTDEC1
00224c   ec64     call    0x66c8, 0        	CALL	_pinmode
00224e   f033
002250   52e6     movf    0xe6, 0x1, 0     	MOVF	POSTINC1, F
002252   52e6     movf    0xe6, 0x1, 0     	MOVF	POSTINC1, F
                                           _02077_DS_:
002254   0103     movlb   0x3              	BANKSEL	_cont
                                           ;	.line	46; /home/yeison/Documentos/python/apps/pinguinoIDE/x.4/source/user.c	cont+=1;
002256   3f6d     incfsz  0x6d, 0x1, 0x1   	INCFSZ	_cont, F, B
002258   d001     bra     0x225c           	BRA	_12454_DS_
                                           ; removed redundant BANKSEL
00225a   2b6e     incf    0x6e, 0x1, 0x1   	INCF	(_cont + 1), F, B
                                           _12454_DS_:
                                           ;	.line	35; /home/yeison/Documentos/python/apps/pinguinoIDE/x.4/source/user.c	for (bloque = strtok(lectura,"("); bloque != NULL; bloque = strtok(NULL, ",") ){ 
00225c   0e00     movlw   0                	MOVLW	UPPER(__str_12)
00225e   6e02     movwf   0x2, 0           	MOVWF	r0x02
002260   0e3f     movlw   0x3f             	MOVLW	HIGH(__str_12)
002262   6e01     movwf   0x1, 0           	MOVWF	r0x01
002264   0e50     movlw   0x50             	MOVLW	LOW(__str_12)
002266   6e00     movwf   0, 0             	MOVWF	r0x00
002268   5002     movf    0x2, 0, 0        	MOVF	r0x02, W
00226a   6ee5     movwf   0xe5, 0          	MOVWF	POSTDEC1
00226c   5001     movf    0x1, 0, 0        	MOVF	r0x01, W
00226e   6ee5     movwf   0xe5, 0          	MOVWF	POSTDEC1
002270   5000     movf    0, 0, 0          	MOVF	r0x00, W
002272   6ee5     movwf   0xe5, 0          	MOVWF	POSTDEC1
002274   0e00     movlw   0                	MOVLW	0x00
002276   6ee5     movwf   0xe5, 0          	MOVWF	POSTDEC1
002278   0e00     movlw   0                	MOVLW	0x00
00227a   6ee5     movwf   0xe5, 0          	MOVWF	POSTDEC1
00227c   0e00     movlw   0                	MOVLW	0x00
00227e   6ee5     movwf   0xe5, 0          	MOVWF	POSTDEC1
002280   ec62     call    0x4ec4, 0        	CALL	_strtok
002282   f027
002284   0103     movlb   0x3              	BANKSEL	_bloque
002286   6f66     movwf   0x66, 0x1        	MOVWF	_bloque, B
002288   cff3     movff   0xff3, 0x367     	MOVFF	PRODL, (_bloque + 1)
00228a   f367
00228c   cff4     movff   0xff4, 0x368     	MOVFF	PRODH, (_bloque + 2)
00228e   f368
002290   0e06     movlw   0x6              	MOVLW	0x06
002292   26e1     addwf   0xe1, 0x1, 0     	ADDWF	FSR1L, F
002294   d748     bra     0x2126           	BRA	_02165_DS_
                                           _02162_DS_:
                                           ;	.line	50; /home/yeison/Documentos/python/apps/pinguinoIDE/x.4/source/user.c	else if (strncmp(lectura, "digitalWrite", 12)==0){
002296   0e02     movlw   0x2              	MOVLW	HIGH(_lectura)
002298   6e01     movwf   0x1, 0           	MOVWF	r0x01
00229a   0ed9     movlw   0xd9             	MOVLW	LOW(_lectura)
00229c   6e00     movwf   0, 0             	MOVWF	r0x00
00229e   0e80     movlw   0x80             	MOVLW	0x80
0022a0   6e02     movwf   0x2, 0           	MOVWF	r0x02
0022a2   0e00     movlw   0                	MOVLW	UPPER(__str_13)
0022a4   6e05     movwf   0x5, 0           	MOVWF	r0x05
0022a6   0e3f     movlw   0x3f             	MOVLW	HIGH(__str_13)
0022a8   6e04     movwf   0x4, 0           	MOVWF	r0x04
0022aa   0e52     movlw   0x52             	MOVLW	LOW(__str_13)
0022ac   6e03     movwf   0x3, 0           	MOVWF	r0x03
0022ae   0e00     movlw   0                	MOVLW	0x00
0022b0   6ee5     movwf   0xe5, 0          	MOVWF	POSTDEC1
0022b2   0e0c     movlw   0xc              	MOVLW	0x0c
0022b4   6ee5     movwf   0xe5, 0          	MOVWF	POSTDEC1
0022b6   5005     movf    0x5, 0, 0        	MOVF	r0x05, W
0022b8   6ee5     movwf   0xe5, 0          	MOVWF	POSTDEC1
0022ba   5004     movf    0x4, 0, 0        	MOVF	r0x04, W
0022bc   6ee5     movwf   0xe5, 0          	MOVWF	POSTDEC1
0022be   5003     movf    0x3, 0, 0        	MOVF	r0x03, W
0022c0   6ee5     movwf   0xe5, 0          	MOVWF	POSTDEC1
0022c2   5002     movf    0x2, 0, 0        	MOVF	r0x02, W
0022c4   6ee5     movwf   0xe5, 0          	MOVWF	POSTDEC1
0022c6   5001     movf    0x1, 0, 0        	MOVF	r0x01, W
0022c8   6ee5     movwf   0xe5, 0          	MOVWF	POSTDEC1
0022ca   5000     movf    0, 0, 0          	MOVF	r0x00, W
0022cc   6ee5     movwf   0xe5, 0          	MOVWF	POSTDEC1
0022ce   ec21     call    0x6042, 0        	CALL	_strncmp
0022d0   f030
0022d2   6e00     movwf   0, 0             	MOVWF	r0x00
0022d4   cff3     movff   0xff3, 0x1       	MOVFF	PRODL, r0x01
0022d6   f001
0022d8   0e08     movlw   0x8              	MOVLW	0x08
0022da   26e1     addwf   0xe1, 0x1, 0     	ADDWF	FSR1L, F
0022dc   5000     movf    0, 0, 0          	MOVF	r0x00, W
0022de   1001     iorwf   0x1, 0, 0        	IORWF	r0x01, W
0022e0   a4d8     btfss   0xd8, 0x2, 0     	BTFSS	STATUS, 2
0022e2   d0da     bra     0x2498           	BRA	_02159_DS_
                                           ;	.line	51; /home/yeison/Documentos/python/apps/pinguinoIDE/x.4/source/user.c	for (bloque = strtok(lectura,"("); bloque != NULL; bloque = strtok(NULL, ",") ){
0022e4   0e02     movlw   0x2              	MOVLW	HIGH(_lectura)
0022e6   6e01     movwf   0x1, 0           	MOVWF	r0x01
0022e8   0ed9     movlw   0xd9             	MOVLW	LOW(_lectura)
0022ea   6e00     movwf   0, 0             	MOVWF	r0x00
0022ec   0e80     movlw   0x80             	MOVLW	0x80
0022ee   6e02     movwf   0x2, 0           	MOVWF	r0x02
0022f0   0e00     movlw   0                	MOVLW	UPPER(__str_11)
0022f2   6e05     movwf   0x5, 0           	MOVWF	r0x05
0022f4   0e3f     movlw   0x3f             	MOVLW	HIGH(__str_11)
0022f6   6e04     movwf   0x4, 0           	MOVWF	r0x04
0022f8   0e4e     movlw   0x4e             	MOVLW	LOW(__str_11)
0022fa   6e03     movwf   0x3, 0           	MOVWF	r0x03
0022fc   5005     movf    0x5, 0, 0        	MOVF	r0x05, W
0022fe   6ee5     movwf   0xe5, 0          	MOVWF	POSTDEC1
002300   5004     movf    0x4, 0, 0        	MOVF	r0x04, W
002302   6ee5     movwf   0xe5, 0          	MOVWF	POSTDEC1
002304   5003     movf    0x3, 0, 0        	MOVF	r0x03, W
002306   6ee5     movwf   0xe5, 0          	MOVWF	POSTDEC1
002308   5002     movf    0x2, 0, 0        	MOVF	r0x02, W
00230a   6ee5     movwf   0xe5, 0          	MOVWF	POSTDEC1
00230c   5001     movf    0x1, 0, 0        	MOVF	r0x01, W
00230e   6ee5     movwf   0xe5, 0          	MOVWF	POSTDEC1
002310   5000     movf    0, 0, 0          	MOVF	r0x00, W
002312   6ee5     movwf   0xe5, 0          	MOVWF	POSTDEC1
002314   ec62     call    0x4ec4, 0        	CALL	_strtok
002316   f027
002318   0103     movlb   0x3              	BANKSEL	_bloque
00231a   6f66     movwf   0x66, 0x1        	MOVWF	_bloque, B
00231c   cff3     movff   0xff3, 0x367     	MOVFF	PRODL, (_bloque + 1)
00231e   f367
002320   cff4     movff   0xff4, 0x368     	MOVFF	PRODH, (_bloque + 2)
002322   f368
002324   0e06     movlw   0x6              	MOVLW	0x06
002326   26e1     addwf   0xe1, 0x1, 0     	ADDWF	FSR1L, F
                                           _02168_DS_:
002328   0103     movlb   0x3              	BANKSEL	_bloque
00232a   5166     movf    0x66, 0, 0x1     	MOVF	_bloque, W, B
00232c   e106     bnz     0x233a           	BNZ	_02392_DS_
                                           ; removed redundant BANKSEL
00232e   5167     movf    0x67, 0, 0x1     	MOVF	(_bloque + 1), W, B
002330   e104     bnz     0x233a           	BNZ	_02392_DS_
                                           ; removed redundant BANKSEL
002332   5168     movf    0x68, 0, 0x1     	MOVF	(_bloque + 2), W, B
002334   e102     bnz     0x233a           	BNZ	_02392_DS_
002336   ef6b     goto    0x30d6           	GOTO	_02199_DS_
002338   f018
                                           _02392_DS_:
                                           ;	.line	52; /home/yeison/Documentos/python/apps/pinguinoIDE/x.4/source/user.c	switch (cont){
00233a   80d8     bsf     0xd8, 0, 0       	BSF	STATUS, 0
00233c   0103     movlb   0x3              	BANKSEL	(_cont + 1)
00233e   af6e     btfss   0x6e, 0x7, 0x1   	BTFSS	(_cont + 1), 7, B
002340   90d8     bcf     0xd8, 0, 0       	BCF	STATUS, 0
002342   b0d8     btfsc   0xd8, 0, 0       	BTFSC	STATUS, 0
002344   d088     bra     0x2456           	BRA	_02087_DS_
                                           ; removed redundant BANKSEL
002346   516e     movf    0x6e, 0, 0x1     	MOVF	(_cont + 1), W, B
002348   0f80     addlw   0x80             	ADDLW	0x80
00234a   0f80     addlw   0x80             	ADDLW	0x80
00234c   e102     bnz     0x2352           	BNZ	_02393_DS_
00234e   0e03     movlw   0x3              	MOVLW	0x03
                                           ; removed redundant BANKSEL
002350   5d6d     subwf   0x6d, 0, 0x1     	SUBWF	_cont, W, B
                                           _02393_DS_:
002352   b0d8     btfsc   0xd8, 0, 0       	BTFSC	STATUS, 0
002354   d080     bra     0x2456           	BRA	_02087_DS_
002356   6afa     clrf    0xfa, 0          	CLRF	PCLATH
002358   6afb     clrf    0xfb, 0          	CLRF	PCLATU
00235a   0103     movlb   0x3              	BANKSEL	_cont
00235c   356d     rlcf    0x6d, 0, 0x1     	RLCF	_cont, W, B
00235e   36fa     rlcf    0xfa, 0x1, 0     	RLCF	PCLATH, F
002360   34e8     rlcf    0xe8, 0, 0       	RLCF	WREG, W
002362   36fa     rlcf    0xfa, 0x1, 0     	RLCF	PCLATH, F
002364   0bfc     andlw   0xfc             	ANDLW	0xfc
002366   0f76     addlw   0x76             	ADDLW	LOW(_02394_DS_)
002368   6ee5     movwf   0xe5, 0          	MOVWF	POSTDEC1
00236a   0e23     movlw   0x23             	MOVLW	HIGH(_02394_DS_)
00236c   22fa     addwfc  0xfa, 0x1, 0     	ADDWFC	PCLATH, F
00236e   0e00     movlw   0                	MOVLW	UPPER(_02394_DS_)
002370   22fb     addwfc  0xfb, 0x1, 0     	ADDWFC	PCLATU, F
002372   50e4     movf    0xe4, 0, 0       	MOVF	PREINC1, W
002374   6ef9     movwf   0xf9, 0          	MOVWF	PCL
                                           _02394_DS_:
002376   efc1     goto    0x2382           	GOTO	_02079_DS_
002378   f011
00237a   efc2     goto    0x2384           	GOTO	_02080_DS_
00237c   f011
00237e   efd2     goto    0x23a4           	GOTO	_02081_DS_
002380   f011
                                           _02079_DS_:
                                           ;	.line	53; /home/yeison/Documentos/python/apps/pinguinoIDE/x.4/source/user.c	case 0: break;
002382   d069     bra     0x2456           	BRA	_02087_DS_
                                           _02080_DS_:
002384   0103     movlb   0x3              	BANKSEL	(_bloque + 2)
                                           ;	.line	55; /home/yeison/Documentos/python/apps/pinguinoIDE/x.4/source/user.c	par1=atoi(bloque);
002386   5168     movf    0x68, 0, 0x1     	MOVF	(_bloque + 2), W, B
002388   6ee5     movwf   0xe5, 0          	MOVWF	POSTDEC1
                                           ; removed redundant BANKSEL
00238a   5167     movf    0x67, 0, 0x1     	MOVF	(_bloque + 1), W, B
00238c   6ee5     movwf   0xe5, 0          	MOVWF	POSTDEC1
                                           ; removed redundant BANKSEL
00238e   5166     movf    0x66, 0, 0x1     	MOVF	_bloque, W, B
002390   6ee5     movwf   0xe5, 0          	MOVWF	POSTDEC1
002392   ecd5     call    0x55aa, 0        	CALL	_atoi
002394   f02a
002396   0103     movlb   0x3              	BANKSEL	_par1
002398   6f6f     movwf   0x6f, 0x1        	MOVWF	_par1, B
00239a   cff3     movff   0xff3, 0x370     	MOVFF	PRODL, (_par1 + 1)
00239c   f370
00239e   0e03     movlw   0x3              	MOVLW	0x03
0023a0   26e1     addwf   0xe1, 0x1, 0     	ADDWF	FSR1L, F
                                           ;	.line	56; /home/yeison/Documentos/python/apps/pinguinoIDE/x.4/source/user.c	break;
0023a2   d059     bra     0x2456           	BRA	_02087_DS_
                                           _02081_DS_:
                                           ;	.line	58; /home/yeison/Documentos/python/apps/pinguinoIDE/x.4/source/user.c	if (strncmp(bloque, "HIGH", 4)==0) digitalwrite(par1,HIGH);
0023a4   0e00     movlw   0                	MOVLW	UPPER(__str_14)
0023a6   6e02     movwf   0x2, 0           	MOVWF	r0x02
0023a8   0e3f     movlw   0x3f             	MOVLW	HIGH(__str_14)
0023aa   6e01     movwf   0x1, 0           	MOVWF	r0x01
0023ac   0e60     movlw   0x60             	MOVLW	LOW(__str_14)
0023ae   6e00     movwf   0, 0             	MOVWF	r0x00
0023b0   0e00     movlw   0                	MOVLW	0x00
0023b2   6ee5     movwf   0xe5, 0          	MOVWF	POSTDEC1
0023b4   0e04     movlw   0x4              	MOVLW	0x04
0023b6   6ee5     movwf   0xe5, 0          	MOVWF	POSTDEC1
0023b8   5002     movf    0x2, 0, 0        	MOVF	r0x02, W
0023ba   6ee5     movwf   0xe5, 0          	MOVWF	POSTDEC1
0023bc   5001     movf    0x1, 0, 0        	MOVF	r0x01, W
0023be   6ee5     movwf   0xe5, 0          	MOVWF	POSTDEC1
0023c0   5000     movf    0, 0, 0          	MOVF	r0x00, W
0023c2   6ee5     movwf   0xe5, 0          	MOVWF	POSTDEC1
0023c4   0103     movlb   0x3              	BANKSEL	(_bloque + 2)
0023c6   5168     movf    0x68, 0, 0x1     	MOVF	(_bloque + 2), W, B
0023c8   6ee5     movwf   0xe5, 0          	MOVWF	POSTDEC1
                                           ; removed redundant BANKSEL
0023ca   5167     movf    0x67, 0, 0x1     	MOVF	(_bloque + 1), W, B
0023cc   6ee5     movwf   0xe5, 0          	MOVWF	POSTDEC1
                                           ; removed redundant BANKSEL
0023ce   5166     movf    0x66, 0, 0x1     	MOVF	_bloque, W, B
0023d0   6ee5     movwf   0xe5, 0          	MOVWF	POSTDEC1
0023d2   ec21     call    0x6042, 0        	CALL	_strncmp
0023d4   f030
0023d6   6e00     movwf   0, 0             	MOVWF	r0x00
0023d8   cff3     movff   0xff3, 0x1       	MOVFF	PRODL, r0x01
0023da   f001
0023dc   0e08     movlw   0x8              	MOVLW	0x08
0023de   26e1     addwf   0xe1, 0x1, 0     	ADDWF	FSR1L, F
0023e0   5000     movf    0, 0, 0          	MOVF	r0x00, W
0023e2   1001     iorwf   0x1, 0, 0        	IORWF	r0x01, W
0023e4   e10c     bnz     0x23fe           	BNZ	_02085_DS_
0023e6   0103     movlb   0x3              	BANKSEL	_par1
0023e8   516f     movf    0x6f, 0, 0x1     	MOVF	_par1, W, B
0023ea   6e00     movwf   0, 0             	MOVWF	r0x00
0023ec   0e01     movlw   0x1              	MOVLW	0x01
0023ee   6ee5     movwf   0xe5, 0          	MOVWF	POSTDEC1
0023f0   5000     movf    0, 0, 0          	MOVF	r0x00, W
0023f2   6ee5     movwf   0xe5, 0          	MOVWF	POSTDEC1
0023f4   eccd     call    0x679a, 0        	CALL	_digitalwrite
0023f6   f033
0023f8   52e6     movf    0xe6, 0x1, 0     	MOVF	POSTINC1, F
0023fa   52e6     movf    0xe6, 0x1, 0     	MOVF	POSTINC1, F
0023fc   d02c     bra     0x2456           	BRA	_02087_DS_
                                           _02085_DS_:
                                           ;	.line	59; /home/yeison/Documentos/python/apps/pinguinoIDE/x.4/source/user.c	else if (strncmp(bloque, "LOW", 3)==0) digitalwrite(par1,LOW);
0023fe   0e00     movlw   0                	MOVLW	UPPER(__str_15)
002400   6e02     movwf   0x2, 0           	MOVWF	r0x02
002402   0e3f     movlw   0x3f             	MOVLW	HIGH(__str_15)
002404   6e01     movwf   0x1, 0           	MOVWF	r0x01
002406   0e66     movlw   0x66             	MOVLW	LOW(__str_15)
002408   6e00     movwf   0, 0             	MOVWF	r0x00
00240a   0e00     movlw   0                	MOVLW	0x00
00240c   6ee5     movwf   0xe5, 0          	MOVWF	POSTDEC1
00240e   0e03     movlw   0x3              	MOVLW	0x03
002410   6ee5     movwf   0xe5, 0          	MOVWF	POSTDEC1
002412   5002     movf    0x2, 0, 0        	MOVF	r0x02, W
002414   6ee5     movwf   0xe5, 0          	MOVWF	POSTDEC1
002416   5001     movf    0x1, 0, 0        	MOVF	r0x01, W
002418   6ee5     movwf   0xe5, 0          	MOVWF	POSTDEC1
00241a   5000     movf    0, 0, 0          	MOVF	r0x00, W
00241c   6ee5     movwf   0xe5, 0          	MOVWF	POSTDEC1
00241e   0103     movlb   0x3              	BANKSEL	(_bloque + 2)
002420   5168     movf    0x68, 0, 0x1     	MOVF	(_bloque + 2), W, B
002422   6ee5     movwf   0xe5, 0          	MOVWF	POSTDEC1
                                           ; removed redundant BANKSEL
002424   5167     movf    0x67, 0, 0x1     	MOVF	(_bloque + 1), W, B
002426   6ee5     movwf   0xe5, 0          	MOVWF	POSTDEC1
                                           ; removed redundant BANKSEL
002428   5166     movf    0x66, 0, 0x1     	MOVF	_bloque, W, B
00242a   6ee5     movwf   0xe5, 0          	MOVWF	POSTDEC1
00242c   ec21     call    0x6042, 0        	CALL	_strncmp
00242e   f030
002430   6e00     movwf   0, 0             	MOVWF	r0x00
002432   cff3     movff   0xff3, 0x1       	MOVFF	PRODL, r0x01
002434   f001
002436   0e08     movlw   0x8              	MOVLW	0x08
002438   26e1     addwf   0xe1, 0x1, 0     	ADDWF	FSR1L, F
00243a   5000     movf    0, 0, 0          	MOVF	r0x00, W
00243c   1001     iorwf   0x1, 0, 0        	IORWF	r0x01, W
00243e   e10b     bnz     0x2456           	BNZ	_02087_DS_
002440   0103     movlb   0x3              	BANKSEL	_par1
002442   516f     movf    0x6f, 0, 0x1     	MOVF	_par1, W, B
002444   6e00     movwf   0, 0             	MOVWF	r0x00
002446   0e00     movlw   0                	MOVLW	0x00
002448   6ee5     movwf   0xe5, 0          	MOVWF	POSTDEC1
00244a   5000     movf    0, 0, 0          	MOVF	r0x00, W
00244c   6ee5     movwf   0xe5, 0          	MOVWF	POSTDEC1
00244e   eccd     call    0x679a, 0        	CALL	_digitalwrite
002450   f033
002452   52e6     movf    0xe6, 0x1, 0     	MOVF	POSTINC1, F
002454   52e6     movf    0xe6, 0x1, 0     	MOVF	POSTINC1, F
                                           _02087_DS_:
002456   0103     movlb   0x3              	BANKSEL	_cont
                                           ;	.line	62; /home/yeison/Documentos/python/apps/pinguinoIDE/x.4/source/user.c	cont+=1;
002458   3f6d     incfsz  0x6d, 0x1, 0x1   	INCFSZ	_cont, F, B
00245a   d001     bra     0x245e           	BRA	_22455_DS_
                                           ; removed redundant BANKSEL
00245c   2b6e     incf    0x6e, 0x1, 0x1   	INCF	(_cont + 1), F, B
                                           _22455_DS_:
                                           ;	.line	51; /home/yeison/Documentos/python/apps/pinguinoIDE/x.4/source/user.c	for (bloque = strtok(lectura,"("); bloque != NULL; bloque = strtok(NULL, ",") ){
00245e   0e00     movlw   0                	MOVLW	UPPER(__str_12)
002460   6e02     movwf   0x2, 0           	MOVWF	r0x02
002462   0e3f     movlw   0x3f             	MOVLW	HIGH(__str_12)
002464   6e01     movwf   0x1, 0           	MOVWF	r0x01
002466   0e50     movlw   0x50             	MOVLW	LOW(__str_12)
002468   6e00     movwf   0, 0             	MOVWF	r0x00
00246a   5002     movf    0x2, 0, 0        	MOVF	r0x02, W
00246c   6ee5     movwf   0xe5, 0          	MOVWF	POSTDEC1
00246e   5001     movf    0x1, 0, 0        	MOVF	r0x01, W
002470   6ee5     movwf   0xe5, 0          	MOVWF	POSTDEC1
002472   5000     movf    0, 0, 0          	MOVF	r0x00, W
002474   6ee5     movwf   0xe5, 0          	MOVWF	POSTDEC1
002476   0e00     movlw   0                	MOVLW	0x00
002478   6ee5     movwf   0xe5, 0          	MOVWF	POSTDEC1
00247a   0e00     movlw   0                	MOVLW	0x00
00247c   6ee5     movwf   0xe5, 0          	MOVWF	POSTDEC1
00247e   0e00     movlw   0                	MOVLW	0x00
002480   6ee5     movwf   0xe5, 0          	MOVWF	POSTDEC1
002482   ec62     call    0x4ec4, 0        	CALL	_strtok
002484   f027
002486   0103     movlb   0x3              	BANKSEL	_bloque
002488   6f66     movwf   0x66, 0x1        	MOVWF	_bloque, B
00248a   cff3     movff   0xff3, 0x367     	MOVFF	PRODL, (_bloque + 1)
00248c   f367
00248e   cff4     movff   0xff4, 0x368     	MOVFF	PRODH, (_bloque + 2)
002490   f368
002492   0e06     movlw   0x6              	MOVLW	0x06
002494   26e1     addwf   0xe1, 0x1, 0     	ADDWF	FSR1L, F
002496   d748     bra     0x2328           	BRA	_02168_DS_
                                           _02159_DS_:
                                           ;	.line	66; /home/yeison/Documentos/python/apps/pinguinoIDE/x.4/source/user.c	else if (strncmp(lectura, "analogWrite", 11)==0){
002498   0e02     movlw   0x2              	MOVLW	HIGH(_lectura)
00249a   6e01     movwf   0x1, 0           	MOVWF	r0x01
00249c   0ed9     movlw   0xd9             	MOVLW	LOW(_lectura)
00249e   6e00     movwf   0, 0             	MOVWF	r0x00
0024a0   0e80     movlw   0x80             	MOVLW	0x80
0024a2   6e02     movwf   0x2, 0           	MOVWF	r0x02
0024a4   0e00     movlw   0                	MOVLW	UPPER(__str_16)
0024a6   6e05     movwf   0x5, 0           	MOVWF	r0x05
0024a8   0e3f     movlw   0x3f             	MOVLW	HIGH(__str_16)
0024aa   6e04     movwf   0x4, 0           	MOVWF	r0x04
0024ac   0e6a     movlw   0x6a             	MOVLW	LOW(__str_16)
0024ae   6e03     movwf   0x3, 0           	MOVWF	r0x03
0024b0   0e00     movlw   0                	MOVLW	0x00
0024b2   6ee5     movwf   0xe5, 0          	MOVWF	POSTDEC1
0024b4   0e0b     movlw   0xb              	MOVLW	0x0b
0024b6   6ee5     movwf   0xe5, 0          	MOVWF	POSTDEC1
0024b8   5005     movf    0x5, 0, 0        	MOVF	r0x05, W
0024ba   6ee5     movwf   0xe5, 0          	MOVWF	POSTDEC1
0024bc   5004     movf    0x4, 0, 0        	MOVF	r0x04, W
0024be   6ee5     movwf   0xe5, 0          	MOVWF	POSTDEC1
0024c0   5003     movf    0x3, 0, 0        	MOVF	r0x03, W
0024c2   6ee5     movwf   0xe5, 0          	MOVWF	POSTDEC1
0024c4   5002     movf    0x2, 0, 0        	MOVF	r0x02, W
0024c6   6ee5     movwf   0xe5, 0          	MOVWF	POSTDEC1
0024c8   5001     movf    0x1, 0, 0        	MOVF	r0x01, W
0024ca   6ee5     movwf   0xe5, 0          	MOVWF	POSTDEC1
0024cc   5000     movf    0, 0, 0          	MOVF	r0x00, W
0024ce   6ee5     movwf   0xe5, 0          	MOVWF	POSTDEC1
0024d0   ec21     call    0x6042, 0        	CALL	_strncmp
0024d2   f030
0024d4   6e00     movwf   0, 0             	MOVWF	r0x00
0024d6   cff3     movff   0xff3, 0x1       	MOVFF	PRODL, r0x01
0024d8   f001
0024da   0e08     movlw   0x8              	MOVLW	0x08
0024dc   26e1     addwf   0xe1, 0x1, 0     	ADDWF	FSR1L, F
0024de   5000     movf    0, 0, 0          	MOVF	r0x00, W
0024e0   1001     iorwf   0x1, 0, 0        	IORWF	r0x01, W
0024e2   a4d8     btfss   0xd8, 0x2, 0     	BTFSS	STATUS, 2
0024e4   d09c     bra     0x261e           	BRA	_02156_DS_
                                           ;	.line	67; /home/yeison/Documentos/python/apps/pinguinoIDE/x.4/source/user.c	for (bloque = strtok(lectura,"("); bloque != NULL; bloque = strtok(NULL, ",") ){
0024e6   0e02     movlw   0x2              	MOVLW	HIGH(_lectura)
0024e8   6e01     movwf   0x1, 0           	MOVWF	r0x01
0024ea   0ed9     movlw   0xd9             	MOVLW	LOW(_lectura)
0024ec   6e00     movwf   0, 0             	MOVWF	r0x00
0024ee   0e80     movlw   0x80             	MOVLW	0x80
0024f0   6e02     movwf   0x2, 0           	MOVWF	r0x02
0024f2   0e00     movlw   0                	MOVLW	UPPER(__str_11)
0024f4   6e05     movwf   0x5, 0           	MOVWF	r0x05
0024f6   0e3f     movlw   0x3f             	MOVLW	HIGH(__str_11)
0024f8   6e04     movwf   0x4, 0           	MOVWF	r0x04
0024fa   0e4e     movlw   0x4e             	MOVLW	LOW(__str_11)
0024fc   6e03     movwf   0x3, 0           	MOVWF	r0x03
0024fe   5005     movf    0x5, 0, 0        	MOVF	r0x05, W
002500   6ee5     movwf   0xe5, 0          	MOVWF	POSTDEC1
002502   5004     movf    0x4, 0, 0        	MOVF	r0x04, W
002504   6ee5     movwf   0xe5, 0          	MOVWF	POSTDEC1
002506   5003     movf    0x3, 0, 0        	MOVF	r0x03, W
002508   6ee5     movwf   0xe5, 0          	MOVWF	POSTDEC1
00250a   5002     movf    0x2, 0, 0        	MOVF	r0x02, W
00250c   6ee5     movwf   0xe5, 0          	MOVWF	POSTDEC1
00250e   5001     movf    0x1, 0, 0        	MOVF	r0x01, W
002510   6ee5     movwf   0xe5, 0          	MOVWF	POSTDEC1
002512   5000     movf    0, 0, 0          	MOVF	r0x00, W
002514   6ee5     movwf   0xe5, 0          	MOVWF	POSTDEC1
002516   ec62     call    0x4ec4, 0        	CALL	_strtok
002518   f027
00251a   0103     movlb   0x3              	BANKSEL	_bloque
00251c   6f66     movwf   0x66, 0x1        	MOVWF	_bloque, B
00251e   cff3     movff   0xff3, 0x367     	MOVFF	PRODL, (_bloque + 1)
002520   f367
002522   cff4     movff   0xff4, 0x368     	MOVFF	PRODH, (_bloque + 2)
002524   f368
002526   0e06     movlw   0x6              	MOVLW	0x06
002528   26e1     addwf   0xe1, 0x1, 0     	ADDWF	FSR1L, F
                                           _02171_DS_:
00252a   0103     movlb   0x3              	BANKSEL	_bloque
00252c   5166     movf    0x66, 0, 0x1     	MOVF	_bloque, W, B
00252e   e106     bnz     0x253c           	BNZ	_02396_DS_
                                           ; removed redundant BANKSEL
002530   5167     movf    0x67, 0, 0x1     	MOVF	(_bloque + 1), W, B
002532   e104     bnz     0x253c           	BNZ	_02396_DS_
                                           ; removed redundant BANKSEL
002534   5168     movf    0x68, 0, 0x1     	MOVF	(_bloque + 2), W, B
002536   e102     bnz     0x253c           	BNZ	_02396_DS_
002538   ef6b     goto    0x30d6           	GOTO	_02199_DS_
00253a   f018
                                           _02396_DS_:
                                           ;	.line	68; /home/yeison/Documentos/python/apps/pinguinoIDE/x.4/source/user.c	switch (cont){
00253c   80d8     bsf     0xd8, 0, 0       	BSF	STATUS, 0
00253e   0103     movlb   0x3              	BANKSEL	(_cont + 1)
002540   af6e     btfss   0x6e, 0x7, 0x1   	BTFSS	(_cont + 1), 7, B
002542   90d8     bcf     0xd8, 0, 0       	BCF	STATUS, 0
002544   b0d8     btfsc   0xd8, 0, 0       	BTFSC	STATUS, 0
002546   d04a     bra     0x25dc           	BRA	_02092_DS_
                                           ; removed redundant BANKSEL
002548   516e     movf    0x6e, 0, 0x1     	MOVF	(_cont + 1), W, B
00254a   0f80     addlw   0x80             	ADDLW	0x80
00254c   0f80     addlw   0x80             	ADDLW	0x80
00254e   e102     bnz     0x2554           	BNZ	_02397_DS_
002550   0e03     movlw   0x3              	MOVLW	0x03
                                           ; removed redundant BANKSEL
002552   5d6d     subwf   0x6d, 0, 0x1     	SUBWF	_cont, W, B
                                           _02397_DS_:
002554   b0d8     btfsc   0xd8, 0, 0       	BTFSC	STATUS, 0
002556   d042     bra     0x25dc           	BRA	_02092_DS_
002558   6afa     clrf    0xfa, 0          	CLRF	PCLATH
00255a   6afb     clrf    0xfb, 0          	CLRF	PCLATU
00255c   0103     movlb   0x3              	BANKSEL	_cont
00255e   356d     rlcf    0x6d, 0, 0x1     	RLCF	_cont, W, B
002560   36fa     rlcf    0xfa, 0x1, 0     	RLCF	PCLATH, F
002562   34e8     rlcf    0xe8, 0, 0       	RLCF	WREG, W
002564   36fa     rlcf    0xfa, 0x1, 0     	RLCF	PCLATH, F
002566   0bfc     andlw   0xfc             	ANDLW	0xfc
002568   0f78     addlw   0x78             	ADDLW	LOW(_02398_DS_)
00256a   6ee5     movwf   0xe5, 0          	MOVWF	POSTDEC1
00256c   0e25     movlw   0x25             	MOVLW	HIGH(_02398_DS_)
00256e   22fa     addwfc  0xfa, 0x1, 0     	ADDWFC	PCLATH, F
002570   0e00     movlw   0                	MOVLW	UPPER(_02398_DS_)
002572   22fb     addwfc  0xfb, 0x1, 0     	ADDWFC	PCLATU, F
002574   50e4     movf    0xe4, 0, 0       	MOVF	PREINC1, W
002576   6ef9     movwf   0xf9, 0          	MOVWF	PCL
                                           _02398_DS_:
002578   efc2     goto    0x2584           	GOTO	_02089_DS_
00257a   f012
00257c   efc3     goto    0x2586           	GOTO	_02090_DS_
00257e   f012
002580   efd3     goto    0x25a6           	GOTO	_02091_DS_
002582   f012
                                           _02089_DS_:
                                           ;	.line	69; /home/yeison/Documentos/python/apps/pinguinoIDE/x.4/source/user.c	case 0: break;
002584   d02b     bra     0x25dc           	BRA	_02092_DS_
                                           _02090_DS_:
002586   0103     movlb   0x3              	BANKSEL	(_bloque + 2)
                                           ;	.line	71; /home/yeison/Documentos/python/apps/pinguinoIDE/x.4/source/user.c	par1=atoi(bloque);
002588   5168     movf    0x68, 0, 0x1     	MOVF	(_bloque + 2), W, B
00258a   6ee5     movwf   0xe5, 0          	MOVWF	POSTDEC1
                                           ; removed redundant BANKSEL
00258c   5167     movf    0x67, 0, 0x1     	MOVF	(_bloque + 1), W, B
00258e   6ee5     movwf   0xe5, 0          	MOVWF	POSTDEC1
                                           ; removed redundant BANKSEL
002590   5166     movf    0x66, 0, 0x1     	MOVF	_bloque, W, B
002592   6ee5     movwf   0xe5, 0          	MOVWF	POSTDEC1
002594   ecd5     call    0x55aa, 0        	CALL	_atoi
002596   f02a
002598   0103     movlb   0x3              	BANKSEL	_par1
00259a   6f6f     movwf   0x6f, 0x1        	MOVWF	_par1, B
00259c   cff3     movff   0xff3, 0x370     	MOVFF	PRODL, (_par1 + 1)
00259e   f370
0025a0   0e03     movlw   0x3              	MOVLW	0x03
0025a2   26e1     addwf   0xe1, 0x1, 0     	ADDWF	FSR1L, F
                                           ;	.line	72; /home/yeison/Documentos/python/apps/pinguinoIDE/x.4/source/user.c	break;
0025a4   d01b     bra     0x25dc           	BRA	_02092_DS_
                                           _02091_DS_:
0025a6   0103     movlb   0x3              	BANKSEL	_par1
                                           ;	.line	74; /home/yeison/Documentos/python/apps/pinguinoIDE/x.4/source/user.c	PWM_set_dutycycle(par1,atoi(bloque));
0025a8   516f     movf    0x6f, 0, 0x1     	MOVF	_par1, W, B
0025aa   6e00     movwf   0, 0             	MOVWF	r0x00
0025ac   0103     movlb   0x3              	BANKSEL	(_bloque + 2)
0025ae   5168     movf    0x68, 0, 0x1     	MOVF	(_bloque + 2), W, B
0025b0   6ee5     movwf   0xe5, 0          	MOVWF	POSTDEC1
                                           ; removed redundant BANKSEL
0025b2   5167     movf    0x67, 0, 0x1     	MOVF	(_bloque + 1), W, B
0025b4   6ee5     movwf   0xe5, 0          	MOVWF	POSTDEC1
                                           ; removed redundant BANKSEL
0025b6   5166     movf    0x66, 0, 0x1     	MOVF	_bloque, W, B
0025b8   6ee5     movwf   0xe5, 0          	MOVWF	POSTDEC1
0025ba   ecd5     call    0x55aa, 0        	CALL	_atoi
0025bc   f02a
0025be   6e01     movwf   0x1, 0           	MOVWF	r0x01
0025c0   cff3     movff   0xff3, 0x2       	MOVFF	PRODL, r0x02
0025c2   f002
0025c4   0e03     movlw   0x3              	MOVLW	0x03
0025c6   26e1     addwf   0xe1, 0x1, 0     	ADDWF	FSR1L, F
0025c8   5002     movf    0x2, 0, 0        	MOVF	r0x02, W
0025ca   6ee5     movwf   0xe5, 0          	MOVWF	POSTDEC1
0025cc   5001     movf    0x1, 0, 0        	MOVF	r0x01, W
0025ce   6ee5     movwf   0xe5, 0          	MOVWF	POSTDEC1
0025d0   5000     movf    0, 0, 0          	MOVF	r0x00, W
0025d2   6ee5     movwf   0xe5, 0          	MOVWF	POSTDEC1
0025d4   eca6     call    0x634c, 0        	CALL	_PWM_set_dutycycle
0025d6   f031
0025d8   0e03     movlw   0x3              	MOVLW	0x03
0025da   26e1     addwf   0xe1, 0x1, 0     	ADDWF	FSR1L, F
                                           _02092_DS_:
0025dc   0103     movlb   0x3              	BANKSEL	_cont
                                           ;	.line	77; /home/yeison/Documentos/python/apps/pinguinoIDE/x.4/source/user.c	cont+=1;
0025de   3f6d     incfsz  0x6d, 0x1, 0x1   	INCFSZ	_cont, F, B
0025e0   d001     bra     0x25e4           	BRA	_32456_DS_
                                           ; removed redundant BANKSEL
0025e2   2b6e     incf    0x6e, 0x1, 0x1   	INCF	(_cont + 1), F, B
                                           _32456_DS_:
                                           ;	.line	67; /home/yeison/Documentos/python/apps/pinguinoIDE/x.4/source/user.c	for (bloque = strtok(lectura,"("); bloque != NULL; bloque = strtok(NULL, ",") ){
0025e4   0e00     movlw   0                	MOVLW	UPPER(__str_12)
0025e6   6e02     movwf   0x2, 0           	MOVWF	r0x02
0025e8   0e3f     movlw   0x3f             	MOVLW	HIGH(__str_12)
0025ea   6e01     movwf   0x1, 0           	MOVWF	r0x01
0025ec   0e50     movlw   0x50             	MOVLW	LOW(__str_12)
0025ee   6e00     movwf   0, 0             	MOVWF	r0x00
0025f0   5002     movf    0x2, 0, 0        	MOVF	r0x02, W
0025f2   6ee5     movwf   0xe5, 0          	MOVWF	POSTDEC1
0025f4   5001     movf    0x1, 0, 0        	MOVF	r0x01, W
0025f6   6ee5     movwf   0xe5, 0          	MOVWF	POSTDEC1
0025f8   5000     movf    0, 0, 0          	MOVF	r0x00, W
0025fa   6ee5     movwf   0xe5, 0          	MOVWF	POSTDEC1
0025fc   0e00     movlw   0                	MOVLW	0x00
0025fe   6ee5     movwf   0xe5, 0          	MOVWF	POSTDEC1
002600   0e00     movlw   0                	MOVLW	0x00
002602   6ee5     movwf   0xe5, 0          	MOVWF	POSTDEC1
002604   0e00     movlw   0                	MOVLW	0x00
002606   6ee5     movwf   0xe5, 0          	MOVWF	POSTDEC1
002608   ec62     call    0x4ec4, 0        	CALL	_strtok
00260a   f027
00260c   0103     movlb   0x3              	BANKSEL	_bloque
00260e   6f66     movwf   0x66, 0x1        	MOVWF	_bloque, B
002610   cff3     movff   0xff3, 0x367     	MOVFF	PRODL, (_bloque + 1)
002612   f367
002614   cff4     movff   0xff4, 0x368     	MOVFF	PRODH, (_bloque + 2)
002616   f368
002618   0e06     movlw   0x6              	MOVLW	0x06
00261a   26e1     addwf   0xe1, 0x1, 0     	ADDWF	FSR1L, F
00261c   d786     bra     0x252a           	BRA	_02171_DS_
                                           _02156_DS_:
                                           ;	.line	81; /home/yeison/Documentos/python/apps/pinguinoIDE/x.4/source/user.c	else if (strncmp(lectura, "digitalRead", 11)==0){
00261e   0e02     movlw   0x2              	MOVLW	HIGH(_lectura)
002620   6e01     movwf   0x1, 0           	MOVWF	r0x01
002622   0ed9     movlw   0xd9             	MOVLW	LOW(_lectura)
002624   6e00     movwf   0, 0             	MOVWF	r0x00
002626   0e80     movlw   0x80             	MOVLW	0x80
002628   6e02     movwf   0x2, 0           	MOVWF	r0x02
00262a   0e00     movlw   0                	MOVLW	UPPER(__str_17)
00262c   6e05     movwf   0x5, 0           	MOVWF	r0x05
00262e   0e3f     movlw   0x3f             	MOVLW	HIGH(__str_17)
002630   6e04     movwf   0x4, 0           	MOVWF	r0x04
002632   0e76     movlw   0x76             	MOVLW	LOW(__str_17)
002634   6e03     movwf   0x3, 0           	MOVWF	r0x03
002636   0e00     movlw   0                	MOVLW	0x00
002638   6ee5     movwf   0xe5, 0          	MOVWF	POSTDEC1
00263a   0e0b     movlw   0xb              	MOVLW	0x0b
00263c   6ee5     movwf   0xe5, 0          	MOVWF	POSTDEC1
00263e   5005     movf    0x5, 0, 0        	MOVF	r0x05, W
002640   6ee5     movwf   0xe5, 0          	MOVWF	POSTDEC1
002642   5004     movf    0x4, 0, 0        	MOVF	r0x04, W
002644   6ee5     movwf   0xe5, 0          	MOVWF	POSTDEC1
002646   5003     movf    0x3, 0, 0        	MOVF	r0x03, W
002648   6ee5     movwf   0xe5, 0          	MOVWF	POSTDEC1
00264a   5002     movf    0x2, 0, 0        	MOVF	r0x02, W
00264c   6ee5     movwf   0xe5, 0          	MOVWF	POSTDEC1
00264e   5001     movf    0x1, 0, 0        	MOVF	r0x01, W
002650   6ee5     movwf   0xe5, 0          	MOVWF	POSTDEC1
002652   5000     movf    0, 0, 0          	MOVF	r0x00, W
002654   6ee5     movwf   0xe5, 0          	MOVWF	POSTDEC1
002656   ec21     call    0x6042, 0        	CALL	_strncmp
002658   f030
00265a   6e00     movwf   0, 0             	MOVWF	r0x00
00265c   cff3     movff   0xff3, 0x1       	MOVFF	PRODL, r0x01
00265e   f001
002660   0e08     movlw   0x8              	MOVLW	0x08
002662   26e1     addwf   0xe1, 0x1, 0     	ADDWF	FSR1L, F
002664   5000     movf    0, 0, 0          	MOVF	r0x00, W
002666   1001     iorwf   0x1, 0, 0        	IORWF	r0x01, W
002668   a4d8     btfss   0xd8, 0x2, 0     	BTFSS	STATUS, 2
00266a   d081     bra     0x276e           	BRA	_02153_DS_
                                           ;	.line	82; /home/yeison/Documentos/python/apps/pinguinoIDE/x.4/source/user.c	for (bloque = strtok(lectura,"("); bloque != NULL; bloque = strtok(NULL, ")") ){
00266c   0e02     movlw   0x2              	MOVLW	HIGH(_lectura)
00266e   6e01     movwf   0x1, 0           	MOVWF	r0x01
002670   0ed9     movlw   0xd9             	MOVLW	LOW(_lectura)
002672   6e00     movwf   0, 0             	MOVWF	r0x00
002674   0e80     movlw   0x80             	MOVLW	0x80
002676   6e02     movwf   0x2, 0           	MOVWF	r0x02
002678   0e00     movlw   0                	MOVLW	UPPER(__str_11)
00267a   6e05     movwf   0x5, 0           	MOVWF	r0x05
00267c   0e3f     movlw   0x3f             	MOVLW	HIGH(__str_11)
00267e   6e04     movwf   0x4, 0           	MOVWF	r0x04
002680   0e4e     movlw   0x4e             	MOVLW	LOW(__str_11)
002682   6e03     movwf   0x3, 0           	MOVWF	r0x03
002684   5005     movf    0x5, 0, 0        	MOVF	r0x05, W
002686   6ee5     movwf   0xe5, 0          	MOVWF	POSTDEC1
002688   5004     movf    0x4, 0, 0        	MOVF	r0x04, W
00268a   6ee5     movwf   0xe5, 0          	MOVWF	POSTDEC1
00268c   5003     movf    0x3, 0, 0        	MOVF	r0x03, W
00268e   6ee5     movwf   0xe5, 0          	MOVWF	POSTDEC1
002690   5002     movf    0x2, 0, 0        	MOVF	r0x02, W
002692   6ee5     movwf   0xe5, 0          	MOVWF	POSTDEC1
002694   5001     movf    0x1, 0, 0        	MOVF	r0x01, W
002696   6ee5     movwf   0xe5, 0          	MOVWF	POSTDEC1
002698   5000     movf    0, 0, 0          	MOVF	r0x00, W
00269a   6ee5     movwf   0xe5, 0          	MOVWF	POSTDEC1
00269c   ec62     call    0x4ec4, 0        	CALL	_strtok
00269e   f027
0026a0   0103     movlb   0x3              	BANKSEL	_bloque
0026a2   6f66     movwf   0x66, 0x1        	MOVWF	_bloque, B
0026a4   cff3     movff   0xff3, 0x367     	MOVFF	PRODL, (_bloque + 1)
0026a6   f367
0026a8   cff4     movff   0xff4, 0x368     	MOVFF	PRODH, (_bloque + 2)
0026aa   f368
0026ac   0e06     movlw   0x6              	MOVLW	0x06
0026ae   26e1     addwf   0xe1, 0x1, 0     	ADDWF	FSR1L, F
                                           _02174_DS_:
0026b0   0103     movlb   0x3              	BANKSEL	_bloque
0026b2   5166     movf    0x66, 0, 0x1     	MOVF	_bloque, W, B
0026b4   e106     bnz     0x26c2           	BNZ	_02400_DS_
                                           ; removed redundant BANKSEL
0026b6   5167     movf    0x67, 0, 0x1     	MOVF	(_bloque + 1), W, B
0026b8   e104     bnz     0x26c2           	BNZ	_02400_DS_
                                           ; removed redundant BANKSEL
0026ba   5168     movf    0x68, 0, 0x1     	MOVF	(_bloque + 2), W, B
0026bc   e102     bnz     0x26c2           	BNZ	_02400_DS_
0026be   ef6b     goto    0x30d6           	GOTO	_02199_DS_
0026c0   f018
                                           _02400_DS_:
0026c2   0103     movlb   0x3              	BANKSEL	_cont
                                           ;	.line	83; /home/yeison/Documentos/python/apps/pinguinoIDE/x.4/source/user.c	switch (cont){
0026c4   516d     movf    0x6d, 0, 0x1     	MOVF	_cont, W, B
0026c6   e102     bnz     0x26cc           	BNZ	_02402_DS_
                                           ; removed redundant BANKSEL
0026c8   516e     movf    0x6e, 0, 0x1     	MOVF	(_cont + 1), W, B
0026ca   e030     bz      0x272c           	BZ	_02096_DS_
                                           _02402_DS_:
0026cc   0103     movlb   0x3              	BANKSEL	_cont
0026ce   516d     movf    0x6d, 0, 0x1     	MOVF	_cont, W, B
0026d0   0a01     xorlw   0x1              	XORLW	0x01
0026d2   e102     bnz     0x26d8           	BNZ	_02403_DS_
                                           ; removed redundant BANKSEL
0026d4   516e     movf    0x6e, 0, 0x1     	MOVF	(_cont + 1), W, B
0026d6   e001     bz      0x26da           	BZ	_02404_DS_
                                           _02403_DS_:
0026d8   d029     bra     0x272c           	BRA	_02096_DS_
                                           _02404_DS_:
0026da   0103     movlb   0x3              	BANKSEL	(_bloque + 2)
                                           ;	.line	86; /home/yeison/Documentos/python/apps/pinguinoIDE/x.4/source/user.c	CDCprintf("%d\n",digitalread(atoi(bloque)));
0026dc   5168     movf    0x68, 0, 0x1     	MOVF	(_bloque + 2), W, B
0026de   6ee5     movwf   0xe5, 0          	MOVWF	POSTDEC1
                                           ; removed redundant BANKSEL
0026e0   5167     movf    0x67, 0, 0x1     	MOVF	(_bloque + 1), W, B
0026e2   6ee5     movwf   0xe5, 0          	MOVWF	POSTDEC1
                                           ; removed redundant BANKSEL
0026e4   5166     movf    0x66, 0, 0x1     	MOVF	_bloque, W, B
0026e6   6ee5     movwf   0xe5, 0          	MOVWF	POSTDEC1
0026e8   ecd5     call    0x55aa, 0        	CALL	_atoi
0026ea   f02a
0026ec   6e00     movwf   0, 0             	MOVWF	r0x00
0026ee   cff3     movff   0xff3, 0x1       	MOVFF	PRODL, r0x01
0026f0   f001
0026f2   0e03     movlw   0x3              	MOVLW	0x03
0026f4   26e1     addwf   0xe1, 0x1, 0     	ADDWF	FSR1L, F
0026f6   5000     movf    0, 0, 0          	MOVF	r0x00, W
0026f8   6ee5     movwf   0xe5, 0          	MOVWF	POSTDEC1
0026fa   ecc2     call    0x6f84, 0        	CALL	_digitalread
0026fc   f037
0026fe   6e00     movwf   0, 0             	MOVWF	r0x00
002700   52e6     movf    0xe6, 0x1, 0     	MOVF	POSTINC1, F
002702   6a01     clrf    0x1, 0           	CLRF	r0x01
002704   0e00     movlw   0                	MOVLW	UPPER(__str_18)
002706   6e04     movwf   0x4, 0           	MOVWF	r0x04
002708   0e3f     movlw   0x3f             	MOVLW	HIGH(__str_18)
00270a   6e03     movwf   0x3, 0           	MOVWF	r0x03
00270c   0e82     movlw   0x82             	MOVLW	LOW(__str_18)
00270e   6e02     movwf   0x2, 0           	MOVWF	r0x02
002710   5001     movf    0x1, 0, 0        	MOVF	r0x01, W
002712   6ee5     movwf   0xe5, 0          	MOVWF	POSTDEC1
002714   5000     movf    0, 0, 0          	MOVF	r0x00, W
002716   6ee5     movwf   0xe5, 0          	MOVWF	POSTDEC1
002718   5004     movf    0x4, 0, 0        	MOVF	r0x04, W
00271a   6ee5     movwf   0xe5, 0          	MOVWF	POSTDEC1
00271c   5003     movf    0x3, 0, 0        	MOVF	r0x03, W
00271e   6ee5     movwf   0xe5, 0          	MOVWF	POSTDEC1
002720   5002     movf    0x2, 0, 0        	MOVF	r0x02, W
002722   6ee5     movwf   0xe5, 0          	MOVWF	POSTDEC1
002724   ec19     call    0x7432, 0        	CALL	_CDCprintf
002726   f03a
002728   0e05     movlw   0x5              	MOVLW	0x05
00272a   26e1     addwf   0xe1, 0x1, 0     	ADDWF	FSR1L, F
                                           _02096_DS_:
00272c   0103     movlb   0x3              	BANKSEL	_cont
                                           ;	.line	89; /home/yeison/Documentos/python/apps/pinguinoIDE/x.4/source/user.c	cont+=1;
00272e   3f6d     incfsz  0x6d, 0x1, 0x1   	INCFSZ	_cont, F, B
002730   d001     bra     0x2734           	BRA	_42457_DS_
                                           ; removed redundant BANKSEL
002732   2b6e     incf    0x6e, 0x1, 0x1   	INCF	(_cont + 1), F, B
                                           _42457_DS_:
                                           ;	.line	82; /home/yeison/Documentos/python/apps/pinguinoIDE/x.4/source/user.c	for (bloque = strtok(lectura,"("); bloque != NULL; bloque = strtok(NULL, ")") ){
002734   0e00     movlw   0                	MOVLW	UPPER(__str_19)
002736   6e02     movwf   0x2, 0           	MOVWF	r0x02
002738   0e3f     movlw   0x3f             	MOVLW	HIGH(__str_19)
00273a   6e01     movwf   0x1, 0           	MOVWF	r0x01
00273c   0e86     movlw   0x86             	MOVLW	LOW(__str_19)
00273e   6e00     movwf   0, 0             	MOVWF	r0x00
002740   5002     movf    0x2, 0, 0        	MOVF	r0x02, W
002742   6ee5     movwf   0xe5, 0          	MOVWF	POSTDEC1
002744   5001     movf    0x1, 0, 0        	MOVF	r0x01, W
002746   6ee5     movwf   0xe5, 0          	MOVWF	POSTDEC1
002748   5000     movf    0, 0, 0          	MOVF	r0x00, W
00274a   6ee5     movwf   0xe5, 0          	MOVWF	POSTDEC1
00274c   0e00     movlw   0                	MOVLW	0x00
00274e   6ee5     movwf   0xe5, 0          	MOVWF	POSTDEC1
002750   0e00     movlw   0                	MOVLW	0x00
002752   6ee5     movwf   0xe5, 0          	MOVWF	POSTDEC1
002754   0e00     movlw   0                	MOVLW	0x00
002756   6ee5     movwf   0xe5, 0          	MOVWF	POSTDEC1
002758   ec62     call    0x4ec4, 0        	CALL	_strtok
00275a   f027
00275c   0103     movlb   0x3              	BANKSEL	_bloque
00275e   6f66     movwf   0x66, 0x1        	MOVWF	_bloque, B
002760   cff3     movff   0xff3, 0x367     	MOVFF	PRODL, (_bloque + 1)
002762   f367
002764   cff4     movff   0xff4, 0x368     	MOVFF	PRODH, (_bloque + 2)
002766   f368
002768   0e06     movlw   0x6              	MOVLW	0x06
00276a   26e1     addwf   0xe1, 0x1, 0     	ADDWF	FSR1L, F
00276c   d7a1     bra     0x26b0           	BRA	_02174_DS_
                                           _02153_DS_:
                                           ;	.line	93; /home/yeison/Documentos/python/apps/pinguinoIDE/x.4/source/user.c	else if (strncmp(lectura, "analogRead", 10)==0){
00276e   0e02     movlw   0x2              	MOVLW	HIGH(_lectura)
002770   6e01     movwf   0x1, 0           	MOVWF	r0x01
002772   0ed9     movlw   0xd9             	MOVLW	LOW(_lectura)
002774   6e00     movwf   0, 0             	MOVWF	r0x00
002776   0e80     movlw   0x80             	MOVLW	0x80
002778   6e02     movwf   0x2, 0           	MOVWF	r0x02
00277a   0e00     movlw   0                	MOVLW	UPPER(__str_20)
00277c   6e05     movwf   0x5, 0           	MOVWF	r0x05
00277e   0e3f     movlw   0x3f             	MOVLW	HIGH(__str_20)
002780   6e04     movwf   0x4, 0           	MOVWF	r0x04
002782   0e88     movlw   0x88             	MOVLW	LOW(__str_20)
002784   6e03     movwf   0x3, 0           	MOVWF	r0x03
002786   0e00     movlw   0                	MOVLW	0x00
002788   6ee5     movwf   0xe5, 0          	MOVWF	POSTDEC1
00278a   0e0a     movlw   0xa              	MOVLW	0x0a
00278c   6ee5     movwf   0xe5, 0          	MOVWF	POSTDEC1
00278e   5005     movf    0x5, 0, 0        	MOVF	r0x05, W
002790   6ee5     movwf   0xe5, 0          	MOVWF	POSTDEC1
002792   5004     movf    0x4, 0, 0        	MOVF	r0x04, W
002794   6ee5     movwf   0xe5, 0          	MOVWF	POSTDEC1
002796   5003     movf    0x3, 0, 0        	MOVF	r0x03, W
002798   6ee5     movwf   0xe5, 0          	MOVWF	POSTDEC1
00279a   5002     movf    0x2, 0, 0        	MOVF	r0x02, W
00279c   6ee5     movwf   0xe5, 0          	MOVWF	POSTDEC1
00279e   5001     movf    0x1, 0, 0        	MOVF	r0x01, W
0027a0   6ee5     movwf   0xe5, 0          	MOVWF	POSTDEC1
0027a2   5000     movf    0, 0, 0          	MOVF	r0x00, W
0027a4   6ee5     movwf   0xe5, 0          	MOVWF	POSTDEC1
0027a6   ec21     call    0x6042, 0        	CALL	_strncmp
0027a8   f030
0027aa   6e00     movwf   0, 0             	MOVWF	r0x00
0027ac   cff3     movff   0xff3, 0x1       	MOVFF	PRODL, r0x01
0027ae   f001
0027b0   0e08     movlw   0x8              	MOVLW	0x08
0027b2   26e1     addwf   0xe1, 0x1, 0     	ADDWF	FSR1L, F
0027b4   5000     movf    0, 0, 0          	MOVF	r0x00, W
0027b6   1001     iorwf   0x1, 0, 0        	IORWF	r0x01, W
0027b8   a4d8     btfss   0xd8, 0x2, 0     	BTFSS	STATUS, 2
0027ba   d082     bra     0x28c0           	BRA	_02150_DS_
                                           ;	.line	94; /home/yeison/Documentos/python/apps/pinguinoIDE/x.4/source/user.c	for (bloque = strtok(lectura,"("); bloque != NULL; bloque = strtok(NULL, ")") ){
0027bc   0e02     movlw   0x2              	MOVLW	HIGH(_lectura)
0027be   6e01     movwf   0x1, 0           	MOVWF	r0x01
0027c0   0ed9     movlw   0xd9             	MOVLW	LOW(_lectura)
0027c2   6e00     movwf   0, 0             	MOVWF	r0x00
0027c4   0e80     movlw   0x80             	MOVLW	0x80
0027c6   6e02     movwf   0x2, 0           	MOVWF	r0x02
0027c8   0e00     movlw   0                	MOVLW	UPPER(__str_11)
0027ca   6e05     movwf   0x5, 0           	MOVWF	r0x05
0027cc   0e3f     movlw   0x3f             	MOVLW	HIGH(__str_11)
0027ce   6e04     movwf   0x4, 0           	MOVWF	r0x04
0027d0   0e4e     movlw   0x4e             	MOVLW	LOW(__str_11)
0027d2   6e03     movwf   0x3, 0           	MOVWF	r0x03
0027d4   5005     movf    0x5, 0, 0        	MOVF	r0x05, W
0027d6   6ee5     movwf   0xe5, 0          	MOVWF	POSTDEC1
0027d8   5004     movf    0x4, 0, 0        	MOVF	r0x04, W
0027da   6ee5     movwf   0xe5, 0          	MOVWF	POSTDEC1
0027dc   5003     movf    0x3, 0, 0        	MOVF	r0x03, W
0027de   6ee5     movwf   0xe5, 0          	MOVWF	POSTDEC1
0027e0   5002     movf    0x2, 0, 0        	MOVF	r0x02, W
0027e2   6ee5     movwf   0xe5, 0          	MOVWF	POSTDEC1
0027e4   5001     movf    0x1, 0, 0        	MOVF	r0x01, W
0027e6   6ee5     movwf   0xe5, 0          	MOVWF	POSTDEC1
0027e8   5000     movf    0, 0, 0          	MOVF	r0x00, W
0027ea   6ee5     movwf   0xe5, 0          	MOVWF	POSTDEC1
0027ec   ec62     call    0x4ec4, 0        	CALL	_strtok
0027ee   f027
0027f0   0103     movlb   0x3              	BANKSEL	_bloque
0027f2   6f66     movwf   0x66, 0x1        	MOVWF	_bloque, B
0027f4   cff3     movff   0xff3, 0x367     	MOVFF	PRODL, (_bloque + 1)
0027f6   f367
0027f8   cff4     movff   0xff4, 0x368     	MOVFF	PRODH, (_bloque + 2)
0027fa   f368
0027fc   0e06     movlw   0x6              	MOVLW	0x06
0027fe   26e1     addwf   0xe1, 0x1, 0     	ADDWF	FSR1L, F
                                           _02177_DS_:
002800   0103     movlb   0x3              	BANKSEL	_bloque
002802   5166     movf    0x66, 0, 0x1     	MOVF	_bloque, W, B
002804   e106     bnz     0x2812           	BNZ	_02406_DS_
                                           ; removed redundant BANKSEL
002806   5167     movf    0x67, 0, 0x1     	MOVF	(_bloque + 1), W, B
002808   e104     bnz     0x2812           	BNZ	_02406_DS_
                                           ; removed redundant BANKSEL
00280a   5168     movf    0x68, 0, 0x1     	MOVF	(_bloque + 2), W, B
00280c   e102     bnz     0x2812           	BNZ	_02406_DS_
00280e   ef6b     goto    0x30d6           	GOTO	_02199_DS_
002810   f018
                                           _02406_DS_:
002812   0103     movlb   0x3              	BANKSEL	_cont
                                           ;	.line	95; /home/yeison/Documentos/python/apps/pinguinoIDE/x.4/source/user.c	switch (cont){
002814   516d     movf    0x6d, 0, 0x1     	MOVF	_cont, W, B
002816   e102     bnz     0x281c           	BNZ	_02408_DS_
                                           ; removed redundant BANKSEL
002818   516e     movf    0x6e, 0, 0x1     	MOVF	(_cont + 1), W, B
00281a   e031     bz      0x287e           	BZ	_02100_DS_
                                           _02408_DS_:
00281c   0103     movlb   0x3              	BANKSEL	_cont
00281e   516d     movf    0x6d, 0, 0x1     	MOVF	_cont, W, B
002820   0a01     xorlw   0x1              	XORLW	0x01
002822   e102     bnz     0x2828           	BNZ	_02409_DS_
                                           ; removed redundant BANKSEL
002824   516e     movf    0x6e, 0, 0x1     	MOVF	(_cont + 1), W, B
002826   e001     bz      0x282a           	BZ	_02410_DS_
                                           _02409_DS_:
002828   d02a     bra     0x287e           	BRA	_02100_DS_
                                           _02410_DS_:
00282a   0103     movlb   0x3              	BANKSEL	(_bloque + 2)
                                           ;	.line	98; /home/yeison/Documentos/python/apps/pinguinoIDE/x.4/source/user.c	CDCprintf("%d\n",analogread(atoi(bloque)));
00282c   5168     movf    0x68, 0, 0x1     	MOVF	(_bloque + 2), W, B
00282e   6ee5     movwf   0xe5, 0          	MOVWF	POSTDEC1
                                           ; removed redundant BANKSEL
002830   5167     movf    0x67, 0, 0x1     	MOVF	(_bloque + 1), W, B
002832   6ee5     movwf   0xe5, 0          	MOVWF	POSTDEC1
                                           ; removed redundant BANKSEL
002834   5166     movf    0x66, 0, 0x1     	MOVF	_bloque, W, B
002836   6ee5     movwf   0xe5, 0          	MOVWF	POSTDEC1
002838   ecd5     call    0x55aa, 0        	CALL	_atoi
00283a   f02a
00283c   6e00     movwf   0, 0             	MOVWF	r0x00
00283e   cff3     movff   0xff3, 0x1       	MOVFF	PRODL, r0x01
002840   f001
002842   0e03     movlw   0x3              	MOVLW	0x03
002844   26e1     addwf   0xe1, 0x1, 0     	ADDWF	FSR1L, F
002846   5000     movf    0, 0, 0          	MOVF	r0x00, W
002848   6ee5     movwf   0xe5, 0          	MOVWF	POSTDEC1
00284a   ec5f     call    0x70be, 0        	CALL	_analogread
00284c   f038
00284e   6e00     movwf   0, 0             	MOVWF	r0x00
002850   cff3     movff   0xff3, 0x1       	MOVFF	PRODL, r0x01
002852   f001
002854   52e6     movf    0xe6, 0x1, 0     	MOVF	POSTINC1, F
002856   0e00     movlw   0                	MOVLW	UPPER(__str_18)
002858   6e04     movwf   0x4, 0           	MOVWF	r0x04
00285a   0e3f     movlw   0x3f             	MOVLW	HIGH(__str_18)
00285c   6e03     movwf   0x3, 0           	MOVWF	r0x03
00285e   0e82     movlw   0x82             	MOVLW	LOW(__str_18)
002860   6e02     movwf   0x2, 0           	MOVWF	r0x02
002862   5001     movf    0x1, 0, 0        	MOVF	r0x01, W
002864   6ee5     movwf   0xe5, 0          	MOVWF	POSTDEC1
002866   5000     movf    0, 0, 0          	MOVF	r0x00, W
002868   6ee5     movwf   0xe5, 0          	MOVWF	POSTDEC1
00286a   5004     movf    0x4, 0, 0        	MOVF	r0x04, W
00286c   6ee5     movwf   0xe5, 0          	MOVWF	POSTDEC1
00286e   5003     movf    0x3, 0, 0        	MOVF	r0x03, W
002870   6ee5     movwf   0xe5, 0          	MOVWF	POSTDEC1
002872   5002     movf    0x2, 0, 0        	MOVF	r0x02, W
002874   6ee5     movwf   0xe5, 0          	MOVWF	POSTDEC1
002876   ec19     call    0x7432, 0        	CALL	_CDCprintf
002878   f03a
00287a   0e05     movlw   0x5              	MOVLW	0x05
00287c   26e1     addwf   0xe1, 0x1, 0     	ADDWF	FSR1L, F
                                           _02100_DS_:
00287e   0103     movlb   0x3              	BANKSEL	_cont
                                           ;	.line	101; /home/yeison/Documentos/python/apps/pinguinoIDE/x.4/source/user.c	cont+=1;
002880   3f6d     incfsz  0x6d, 0x1, 0x1   	INCFSZ	_cont, F, B
002882   d001     bra     0x2886           	BRA	_52458_DS_
                                           ; removed redundant BANKSEL
002884   2b6e     incf    0x6e, 0x1, 0x1   	INCF	(_cont + 1), F, B
                                           _52458_DS_:
                                           ;	.line	94; /home/yeison/Documentos/python/apps/pinguinoIDE/x.4/source/user.c	for (bloque = strtok(lectura,"("); bloque != NULL; bloque = strtok(NULL, ")") ){
002886   0e00     movlw   0                	MOVLW	UPPER(__str_19)
002888   6e02     movwf   0x2, 0           	MOVWF	r0x02
00288a   0e3f     movlw   0x3f             	MOVLW	HIGH(__str_19)
00288c   6e01     movwf   0x1, 0           	MOVWF	r0x01
00288e   0e86     movlw   0x86             	MOVLW	LOW(__str_19)
002890   6e00     movwf   0, 0             	MOVWF	r0x00
002892   5002     movf    0x2, 0, 0        	MOVF	r0x02, W
002894   6ee5     movwf   0xe5, 0          	MOVWF	POSTDEC1
002896   5001     movf    0x1, 0, 0        	MOVF	r0x01, W
002898   6ee5     movwf   0xe5, 0          	MOVWF	POSTDEC1
00289a   5000     movf    0, 0, 0          	MOVF	r0x00, W
00289c   6ee5     movwf   0xe5, 0          	MOVWF	POSTDEC1
00289e   0e00     movlw   0                	MOVLW	0x00
0028a0   6ee5     movwf   0xe5, 0          	MOVWF	POSTDEC1
0028a2   0e00     movlw   0                	MOVLW	0x00
0028a4   6ee5     movwf   0xe5, 0          	MOVWF	POSTDEC1
0028a6   0e00     movlw   0                	MOVLW	0x00
0028a8   6ee5     movwf   0xe5, 0          	MOVWF	POSTDEC1
0028aa   ec62     call    0x4ec4, 0        	CALL	_strtok
0028ac   f027
0028ae   0103     movlb   0x3              	BANKSEL	_bloque
0028b0   6f66     movwf   0x66, 0x1        	MOVWF	_bloque, B
0028b2   cff3     movff   0xff3, 0x367     	MOVFF	PRODL, (_bloque + 1)
0028b4   f367
0028b6   cff4     movff   0xff4, 0x368     	MOVFF	PRODH, (_bloque + 2)
0028b8   f368
0028ba   0e06     movlw   0x6              	MOVLW	0x06
0028bc   26e1     addwf   0xe1, 0x1, 0     	ADDWF	FSR1L, F
0028be   d7a0     bra     0x2800           	BRA	_02177_DS_
                                           _02150_DS_:
                                           ;	.line	105; /home/yeison/Documentos/python/apps/pinguinoIDE/x.4/source/user.c	else if (strncmp(lectura, "eepromRead", 10)==0){
0028c0   0e02     movlw   0x2              	MOVLW	HIGH(_lectura)
0028c2   6e01     movwf   0x1, 0           	MOVWF	r0x01
0028c4   0ed9     movlw   0xd9             	MOVLW	LOW(_lectura)
0028c6   6e00     movwf   0, 0             	MOVWF	r0x00
0028c8   0e80     movlw   0x80             	MOVLW	0x80
0028ca   6e02     movwf   0x2, 0           	MOVWF	r0x02
0028cc   0e00     movlw   0                	MOVLW	UPPER(__str_21)
0028ce   6e05     movwf   0x5, 0           	MOVWF	r0x05
0028d0   0e3f     movlw   0x3f             	MOVLW	HIGH(__str_21)
0028d2   6e04     movwf   0x4, 0           	MOVWF	r0x04
0028d4   0e94     movlw   0x94             	MOVLW	LOW(__str_21)
0028d6   6e03     movwf   0x3, 0           	MOVWF	r0x03
0028d8   0e00     movlw   0                	MOVLW	0x00
0028da   6ee5     movwf   0xe5, 0          	MOVWF	POSTDEC1
0028dc   0e0a     movlw   0xa              	MOVLW	0x0a
0028de   6ee5     movwf   0xe5, 0          	MOVWF	POSTDEC1
0028e0   5005     movf    0x5, 0, 0        	MOVF	r0x05, W
0028e2   6ee5     movwf   0xe5, 0          	MOVWF	POSTDEC1
0028e4   5004     movf    0x4, 0, 0        	MOVF	r0x04, W
0028e6   6ee5     movwf   0xe5, 0          	MOVWF	POSTDEC1
0028e8   5003     movf    0x3, 0, 0        	MOVF	r0x03, W
0028ea   6ee5     movwf   0xe5, 0          	MOVWF	POSTDEC1
0028ec   5002     movf    0x2, 0, 0        	MOVF	r0x02, W
0028ee   6ee5     movwf   0xe5, 0          	MOVWF	POSTDEC1
0028f0   5001     movf    0x1, 0, 0        	MOVF	r0x01, W
0028f2   6ee5     movwf   0xe5, 0          	MOVWF	POSTDEC1
0028f4   5000     movf    0, 0, 0          	MOVF	r0x00, W
0028f6   6ee5     movwf   0xe5, 0          	MOVWF	POSTDEC1
0028f8   ec21     call    0x6042, 0        	CALL	_strncmp
0028fa   f030
0028fc   6e00     movwf   0, 0             	MOVWF	r0x00
0028fe   cff3     movff   0xff3, 0x1       	MOVFF	PRODL, r0x01
002900   f001
002902   0e08     movlw   0x8              	MOVLW	0x08
002904   26e1     addwf   0xe1, 0x1, 0     	ADDWF	FSR1L, F
002906   5000     movf    0, 0, 0          	MOVF	r0x00, W
002908   1001     iorwf   0x1, 0, 0        	IORWF	r0x01, W
00290a   a4d8     btfss   0xd8, 0x2, 0     	BTFSS	STATUS, 2
00290c   d081     bra     0x2a10           	BRA	_02147_DS_
                                           ;	.line	106; /home/yeison/Documentos/python/apps/pinguinoIDE/x.4/source/user.c	for (bloque = strtok(lectura,"("); bloque != NULL; bloque = strtok(NULL, ")") ){
00290e   0e02     movlw   0x2              	MOVLW	HIGH(_lectura)
002910   6e01     movwf   0x1, 0           	MOVWF	r0x01
002912   0ed9     movlw   0xd9             	MOVLW	LOW(_lectura)
002914   6e00     movwf   0, 0             	MOVWF	r0x00
002916   0e80     movlw   0x80             	MOVLW	0x80
002918   6e02     movwf   0x2, 0           	MOVWF	r0x02
00291a   0e00     movlw   0                	MOVLW	UPPER(__str_11)
00291c   6e05     movwf   0x5, 0           	MOVWF	r0x05
00291e   0e3f     movlw   0x3f             	MOVLW	HIGH(__str_11)
002920   6e04     movwf   0x4, 0           	MOVWF	r0x04
002922   0e4e     movlw   0x4e             	MOVLW	LOW(__str_11)
002924   6e03     movwf   0x3, 0           	MOVWF	r0x03
002926   5005     movf    0x5, 0, 0        	MOVF	r0x05, W
002928   6ee5     movwf   0xe5, 0          	MOVWF	POSTDEC1
00292a   5004     movf    0x4, 0, 0        	MOVF	r0x04, W
00292c   6ee5     movwf   0xe5, 0          	MOVWF	POSTDEC1
00292e   5003     movf    0x3, 0, 0        	MOVF	r0x03, W
002930   6ee5     movwf   0xe5, 0          	MOVWF	POSTDEC1
002932   5002     movf    0x2, 0, 0        	MOVF	r0x02, W
002934   6ee5     movwf   0xe5, 0          	MOVWF	POSTDEC1
002936   5001     movf    0x1, 0, 0        	MOVF	r0x01, W
002938   6ee5     movwf   0xe5, 0          	MOVWF	POSTDEC1
00293a   5000     movf    0, 0, 0          	MOVF	r0x00, W
00293c   6ee5     movwf   0xe5, 0          	MOVWF	POSTDEC1
00293e   ec62     call    0x4ec4, 0        	CALL	_strtok
002940   f027
002942   0103     movlb   0x3              	BANKSEL	_bloque
002944   6f66     movwf   0x66, 0x1        	MOVWF	_bloque, B
002946   cff3     movff   0xff3, 0x367     	MOVFF	PRODL, (_bloque + 1)
002948   f367
00294a   cff4     movff   0xff4, 0x368     	MOVFF	PRODH, (_bloque + 2)
00294c   f368
00294e   0e06     movlw   0x6              	MOVLW	0x06
002950   26e1     addwf   0xe1, 0x1, 0     	ADDWF	FSR1L, F
                                           _02180_DS_:
002952   0103     movlb   0x3              	BANKSEL	_bloque
002954   5166     movf    0x66, 0, 0x1     	MOVF	_bloque, W, B
002956   e106     bnz     0x2964           	BNZ	_02412_DS_
                                           ; removed redundant BANKSEL
002958   5167     movf    0x67, 0, 0x1     	MOVF	(_bloque + 1), W, B
00295a   e104     bnz     0x2964           	BNZ	_02412_DS_
                                           ; removed redundant BANKSEL
00295c   5168     movf    0x68, 0, 0x1     	MOVF	(_bloque + 2), W, B
00295e   e102     bnz     0x2964           	BNZ	_02412_DS_
002960   ef6b     goto    0x30d6           	GOTO	_02199_DS_
002962   f018
                                           _02412_DS_:
002964   0103     movlb   0x3              	BANKSEL	_cont
                                           ;	.line	107; /home/yeison/Documentos/python/apps/pinguinoIDE/x.4/source/user.c	switch (cont){
002966   516d     movf    0x6d, 0, 0x1     	MOVF	_cont, W, B
002968   e102     bnz     0x296e           	BNZ	_02414_DS_
                                           ; removed redundant BANKSEL
00296a   516e     movf    0x6e, 0, 0x1     	MOVF	(_cont + 1), W, B
00296c   e030     bz      0x29ce           	BZ	_02104_DS_
                                           _02414_DS_:
00296e   0103     movlb   0x3              	BANKSEL	_cont
002970   516d     movf    0x6d, 0, 0x1     	MOVF	_cont, W, B
002972   0a01     xorlw   0x1              	XORLW	0x01
002974   e102     bnz     0x297a           	BNZ	_02415_DS_
                                           ; removed redundant BANKSEL
002976   516e     movf    0x6e, 0, 0x1     	MOVF	(_cont + 1), W, B
002978   e001     bz      0x297c           	BZ	_02416_DS_
                                           _02415_DS_:
00297a   d029     bra     0x29ce           	BRA	_02104_DS_
                                           _02416_DS_:
00297c   0103     movlb   0x3              	BANKSEL	(_bloque + 2)
                                           ;	.line	110; /home/yeison/Documentos/python/apps/pinguinoIDE/x.4/source/user.c	CDCprintf("%d\n",EEPROM_read8(atoi(bloque)));
00297e   5168     movf    0x68, 0, 0x1     	MOVF	(_bloque + 2), W, B
002980   6ee5     movwf   0xe5, 0          	MOVWF	POSTDEC1
                                           ; removed redundant BANKSEL
002982   5167     movf    0x67, 0, 0x1     	MOVF	(_bloque + 1), W, B
002984   6ee5     movwf   0xe5, 0          	MOVWF	POSTDEC1
                                           ; removed redundant BANKSEL
002986   5166     movf    0x66, 0, 0x1     	MOVF	_bloque, W, B
002988   6ee5     movwf   0xe5, 0          	MOVWF	POSTDEC1
00298a   ecd5     call    0x55aa, 0        	CALL	_atoi
00298c   f02a
00298e   6e00     movwf   0, 0             	MOVWF	r0x00
002990   cff3     movff   0xff3, 0x1       	MOVFF	PRODL, r0x01
002992   f001
002994   0e03     movlw   0x3              	MOVLW	0x03
002996   26e1     addwf   0xe1, 0x1, 0     	ADDWF	FSR1L, F
002998   5000     movf    0, 0, 0          	MOVF	r0x00, W
00299a   6ee5     movwf   0xe5, 0          	MOVWF	POSTDEC1
00299c   ece6     call    0x79cc, 0        	CALL	_EEPROM_read8
00299e   f03c
0029a0   6e00     movwf   0, 0             	MOVWF	r0x00
0029a2   52e6     movf    0xe6, 0x1, 0     	MOVF	POSTINC1, F
0029a4   6a01     clrf    0x1, 0           	CLRF	r0x01
0029a6   0e00     movlw   0                	MOVLW	UPPER(__str_18)
0029a8   6e04     movwf   0x4, 0           	MOVWF	r0x04
0029aa   0e3f     movlw   0x3f             	MOVLW	HIGH(__str_18)
0029ac   6e03     movwf   0x3, 0           	MOVWF	r0x03
0029ae   0e82     movlw   0x82             	MOVLW	LOW(__str_18)
0029b0   6e02     movwf   0x2, 0           	MOVWF	r0x02
0029b2   5001     movf    0x1, 0, 0        	MOVF	r0x01, W
0029b4   6ee5     movwf   0xe5, 0          	MOVWF	POSTDEC1
0029b6   5000     movf    0, 0, 0          	MOVF	r0x00, W
0029b8   6ee5     movwf   0xe5, 0          	MOVWF	POSTDEC1
0029ba   5004     movf    0x4, 0, 0        	MOVF	r0x04, W
0029bc   6ee5     movwf   0xe5, 0          	MOVWF	POSTDEC1
0029be   5003     movf    0x3, 0, 0        	MOVF	r0x03, W
0029c0   6ee5     movwf   0xe5, 0          	MOVWF	POSTDEC1
0029c2   5002     movf    0x2, 0, 0        	MOVF	r0x02, W
0029c4   6ee5     movwf   0xe5, 0          	MOVWF	POSTDEC1
0029c6   ec19     call    0x7432, 0        	CALL	_CDCprintf
0029c8   f03a
0029ca   0e05     movlw   0x5              	MOVLW	0x05
0029cc   26e1     addwf   0xe1, 0x1, 0     	ADDWF	FSR1L, F
                                           _02104_DS_:
0029ce   0103     movlb   0x3              	BANKSEL	_cont
                                           ;	.line	113; /home/yeison/Documentos/python/apps/pinguinoIDE/x.4/source/user.c	cont+=1;
0029d0   3f6d     incfsz  0x6d, 0x1, 0x1   	INCFSZ	_cont, F, B
0029d2   d001     bra     0x29d6           	BRA	_62459_DS_
                                           ; removed redundant BANKSEL
0029d4   2b6e     incf    0x6e, 0x1, 0x1   	INCF	(_cont + 1), F, B
                                           _62459_DS_:
                                           ;	.line	106; /home/yeison/Documentos/python/apps/pinguinoIDE/x.4/source/user.c	for (bloque = strtok(lectura,"("); bloque != NULL; bloque = strtok(NULL, ")") ){
0029d6   0e00     movlw   0                	MOVLW	UPPER(__str_19)
0029d8   6e02     movwf   0x2, 0           	MOVWF	r0x02
0029da   0e3f     movlw   0x3f             	MOVLW	HIGH(__str_19)
0029dc   6e01     movwf   0x1, 0           	MOVWF	r0x01
0029de   0e86     movlw   0x86             	MOVLW	LOW(__str_19)
0029e0   6e00     movwf   0, 0             	MOVWF	r0x00
0029e2   5002     movf    0x2, 0, 0        	MOVF	r0x02, W
0029e4   6ee5     movwf   0xe5, 0          	MOVWF	POSTDEC1
0029e6   5001     movf    0x1, 0, 0        	MOVF	r0x01, W
0029e8   6ee5     movwf   0xe5, 0          	MOVWF	POSTDEC1
0029ea   5000     movf    0, 0, 0          	MOVF	r0x00, W
0029ec   6ee5     movwf   0xe5, 0          	MOVWF	POSTDEC1
0029ee   0e00     movlw   0                	MOVLW	0x00
0029f0   6ee5     movwf   0xe5, 0          	MOVWF	POSTDEC1
0029f2   0e00     movlw   0                	MOVLW	0x00
0029f4   6ee5     movwf   0xe5, 0          	MOVWF	POSTDEC1
0029f6   0e00     movlw   0                	MOVLW	0x00
0029f8   6ee5     movwf   0xe5, 0          	MOVWF	POSTDEC1
0029fa   ec62     call    0x4ec4, 0        	CALL	_strtok
0029fc   f027
0029fe   0103     movlb   0x3              	BANKSEL	_bloque
002a00   6f66     movwf   0x66, 0x1        	MOVWF	_bloque, B
002a02   cff3     movff   0xff3, 0x367     	MOVFF	PRODL, (_bloque + 1)
002a04   f367
002a06   cff4     movff   0xff4, 0x368     	MOVFF	PRODH, (_bloque + 2)
002a08   f368
002a0a   0e06     movlw   0x6              	MOVLW	0x06
002a0c   26e1     addwf   0xe1, 0x1, 0     	ADDWF	FSR1L, F
002a0e   d7a1     bra     0x2952           	BRA	_02180_DS_
                                           _02147_DS_:
                                           ;	.line	117; /home/yeison/Documentos/python/apps/pinguinoIDE/x.4/source/user.c	else if (strncmp(lectura, "eepromWrite", 11)==0){
002a10   0e02     movlw   0x2              	MOVLW	HIGH(_lectura)
002a12   6e01     movwf   0x1, 0           	MOVWF	r0x01
002a14   0ed9     movlw   0xd9             	MOVLW	LOW(_lectura)
002a16   6e00     movwf   0, 0             	MOVWF	r0x00
002a18   0e80     movlw   0x80             	MOVLW	0x80
002a1a   6e02     movwf   0x2, 0           	MOVWF	r0x02
002a1c   0e00     movlw   0                	MOVLW	UPPER(__str_22)
002a1e   6e05     movwf   0x5, 0           	MOVWF	r0x05
002a20   0e3f     movlw   0x3f             	MOVLW	HIGH(__str_22)
002a22   6e04     movwf   0x4, 0           	MOVWF	r0x04
002a24   0ea0     movlw   0xa0             	MOVLW	LOW(__str_22)
002a26   6e03     movwf   0x3, 0           	MOVWF	r0x03
002a28   0e00     movlw   0                	MOVLW	0x00
002a2a   6ee5     movwf   0xe5, 0          	MOVWF	POSTDEC1
002a2c   0e0b     movlw   0xb              	MOVLW	0x0b
002a2e   6ee5     movwf   0xe5, 0          	MOVWF	POSTDEC1
002a30   5005     movf    0x5, 0, 0        	MOVF	r0x05, W
002a32   6ee5     movwf   0xe5, 0          	MOVWF	POSTDEC1
002a34   5004     movf    0x4, 0, 0        	MOVF	r0x04, W
002a36   6ee5     movwf   0xe5, 0          	MOVWF	POSTDEC1
002a38   5003     movf    0x3, 0, 0        	MOVF	r0x03, W
002a3a   6ee5     movwf   0xe5, 0          	MOVWF	POSTDEC1
002a3c   5002     movf    0x2, 0, 0        	MOVF	r0x02, W
002a3e   6ee5     movwf   0xe5, 0          	MOVWF	POSTDEC1
002a40   5001     movf    0x1, 0, 0        	MOVF	r0x01, W
002a42   6ee5     movwf   0xe5, 0          	MOVWF	POSTDEC1
002a44   5000     movf    0, 0, 0          	MOVF	r0x00, W
002a46   6ee5     movwf   0xe5, 0          	MOVWF	POSTDEC1
002a48   ec21     call    0x6042, 0        	CALL	_strncmp
002a4a   f030
002a4c   6e00     movwf   0, 0             	MOVWF	r0x00
002a4e   cff3     movff   0xff3, 0x1       	MOVFF	PRODL, r0x01
002a50   f001
002a52   0e08     movlw   0x8              	MOVLW	0x08
002a54   26e1     addwf   0xe1, 0x1, 0     	ADDWF	FSR1L, F
002a56   5000     movf    0, 0, 0          	MOVF	r0x00, W
002a58   1001     iorwf   0x1, 0, 0        	IORWF	r0x01, W
002a5a   a4d8     btfss   0xd8, 0x2, 0     	BTFSS	STATUS, 2
002a5c   d0b7     bra     0x2bcc           	BRA	_02144_DS_
                                           ;	.line	118; /home/yeison/Documentos/python/apps/pinguinoIDE/x.4/source/user.c	for (bloque = strtok(lectura,"("); bloque != NULL; bloque = strtok(NULL, ",") ){
002a5e   0e02     movlw   0x2              	MOVLW	HIGH(_lectura)
002a60   6e01     movwf   0x1, 0           	MOVWF	r0x01
002a62   0ed9     movlw   0xd9             	MOVLW	LOW(_lectura)
002a64   6e00     movwf   0, 0             	MOVWF	r0x00
002a66   0e80     movlw   0x80             	MOVLW	0x80
002a68   6e02     movwf   0x2, 0           	MOVWF	r0x02
002a6a   0e00     movlw   0                	MOVLW	UPPER(__str_11)
002a6c   6e05     movwf   0x5, 0           	MOVWF	r0x05
002a6e   0e3f     movlw   0x3f             	MOVLW	HIGH(__str_11)
002a70   6e04     movwf   0x4, 0           	MOVWF	r0x04
002a72   0e4e     movlw   0x4e             	MOVLW	LOW(__str_11)
002a74   6e03     movwf   0x3, 0           	MOVWF	r0x03
002a76   5005     movf    0x5, 0, 0        	MOVF	r0x05, W
002a78   6ee5     movwf   0xe5, 0          	MOVWF	POSTDEC1
002a7a   5004     movf    0x4, 0, 0        	MOVF	r0x04, W
002a7c   6ee5     movwf   0xe5, 0          	MOVWF	POSTDEC1
002a7e   5003     movf    0x3, 0, 0        	MOVF	r0x03, W
002a80   6ee5     movwf   0xe5, 0          	MOVWF	POSTDEC1
002a82   5002     movf    0x2, 0, 0        	MOVF	r0x02, W
002a84   6ee5     movwf   0xe5, 0          	MOVWF	POSTDEC1
002a86   5001     movf    0x1, 0, 0        	MOVF	r0x01, W
002a88   6ee5     movwf   0xe5, 0          	MOVWF	POSTDEC1
002a8a   5000     movf    0, 0, 0          	MOVF	r0x00, W
002a8c   6ee5     movwf   0xe5, 0          	MOVWF	POSTDEC1
002a8e   ec62     call    0x4ec4, 0        	CALL	_strtok
002a90   f027
002a92   0103     movlb   0x3              	BANKSEL	_bloque
002a94   6f66     movwf   0x66, 0x1        	MOVWF	_bloque, B
002a96   cff3     movff   0xff3, 0x367     	MOVFF	PRODL, (_bloque + 1)
002a98   f367
002a9a   cff4     movff   0xff4, 0x368     	MOVFF	PRODH, (_bloque + 2)
002a9c   f368
002a9e   0e06     movlw   0x6              	MOVLW	0x06
002aa0   26e1     addwf   0xe1, 0x1, 0     	ADDWF	FSR1L, F
                                           _02183_DS_:
002aa2   0103     movlb   0x3              	BANKSEL	_bloque
002aa4   5166     movf    0x66, 0, 0x1     	MOVF	_bloque, W, B
002aa6   e106     bnz     0x2ab4           	BNZ	_02418_DS_
                                           ; removed redundant BANKSEL
002aa8   5167     movf    0x67, 0, 0x1     	MOVF	(_bloque + 1), W, B
002aaa   e104     bnz     0x2ab4           	BNZ	_02418_DS_
                                           ; removed redundant BANKSEL
002aac   5168     movf    0x68, 0, 0x1     	MOVF	(_bloque + 2), W, B
002aae   e102     bnz     0x2ab4           	BNZ	_02418_DS_
002ab0   ef6b     goto    0x30d6           	GOTO	_02199_DS_
002ab2   f018
                                           _02418_DS_:
                                           ;	.line	119; /home/yeison/Documentos/python/apps/pinguinoIDE/x.4/source/user.c	switch (cont){
002ab4   80d8     bsf     0xd8, 0, 0       	BSF	STATUS, 0
002ab6   0103     movlb   0x3              	BANKSEL	(_cont + 1)
002ab8   af6e     btfss   0x6e, 0x7, 0x1   	BTFSS	(_cont + 1), 7, B
002aba   90d8     bcf     0xd8, 0, 0       	BCF	STATUS, 0
002abc   b0d8     btfsc   0xd8, 0, 0       	BTFSC	STATUS, 0
002abe   d065     bra     0x2b8a           	BRA	_02109_DS_
                                           ; removed redundant BANKSEL
002ac0   516e     movf    0x6e, 0, 0x1     	MOVF	(_cont + 1), W, B
002ac2   0f80     addlw   0x80             	ADDLW	0x80
002ac4   0f80     addlw   0x80             	ADDLW	0x80
002ac6   e102     bnz     0x2acc           	BNZ	_02419_DS_
002ac8   0e03     movlw   0x3              	MOVLW	0x03
                                           ; removed redundant BANKSEL
002aca   5d6d     subwf   0x6d, 0, 0x1     	SUBWF	_cont, W, B
                                           _02419_DS_:
002acc   b0d8     btfsc   0xd8, 0, 0       	BTFSC	STATUS, 0
002ace   d05d     bra     0x2b8a           	BRA	_02109_DS_
002ad0   6afa     clrf    0xfa, 0          	CLRF	PCLATH
002ad2   6afb     clrf    0xfb, 0          	CLRF	PCLATU
002ad4   0103     movlb   0x3              	BANKSEL	_cont
002ad6   356d     rlcf    0x6d, 0, 0x1     	RLCF	_cont, W, B
002ad8   36fa     rlcf    0xfa, 0x1, 0     	RLCF	PCLATH, F
002ada   34e8     rlcf    0xe8, 0, 0       	RLCF	WREG, W
002adc   36fa     rlcf    0xfa, 0x1, 0     	RLCF	PCLATH, F
002ade   0bfc     andlw   0xfc             	ANDLW	0xfc
002ae0   0ff0     addlw   0xf0             	ADDLW	LOW(_02420_DS_)
002ae2   6ee5     movwf   0xe5, 0          	MOVWF	POSTDEC1
002ae4   0e2a     movlw   0x2a             	MOVLW	HIGH(_02420_DS_)
002ae6   22fa     addwfc  0xfa, 0x1, 0     	ADDWFC	PCLATH, F
002ae8   0e00     movlw   0                	MOVLW	UPPER(_02420_DS_)
002aea   22fb     addwfc  0xfb, 0x1, 0     	ADDWFC	PCLATU, F
002aec   50e4     movf    0xe4, 0, 0       	MOVF	PREINC1, W
002aee   6ef9     movwf   0xf9, 0          	MOVWF	PCL
                                           _02420_DS_:
002af0   ef7e     goto    0x2afc           	GOTO	_02106_DS_
002af2   f015
002af4   ef7f     goto    0x2afe           	GOTO	_02107_DS_
002af6   f015
002af8   ef8f     goto    0x2b1e           	GOTO	_02108_DS_
002afa   f015
                                           _02106_DS_:
                                           ;	.line	120; /home/yeison/Documentos/python/apps/pinguinoIDE/x.4/source/user.c	case 0: break;
002afc   d046     bra     0x2b8a           	BRA	_02109_DS_
                                           _02107_DS_:
002afe   0103     movlb   0x3              	BANKSEL	(_bloque + 2)
                                           ;	.line	122; /home/yeison/Documentos/python/apps/pinguinoIDE/x.4/source/user.c	par1=atoi(bloque);
002b00   5168     movf    0x68, 0, 0x1     	MOVF	(_bloque + 2), W, B
002b02   6ee5     movwf   0xe5, 0          	MOVWF	POSTDEC1
                                           ; removed redundant BANKSEL
002b04   5167     movf    0x67, 0, 0x1     	MOVF	(_bloque + 1), W, B
002b06   6ee5     movwf   0xe5, 0          	MOVWF	POSTDEC1
                                           ; removed redundant BANKSEL
002b08   5166     movf    0x66, 0, 0x1     	MOVF	_bloque, W, B
002b0a   6ee5     movwf   0xe5, 0          	MOVWF	POSTDEC1
002b0c   ecd5     call    0x55aa, 0        	CALL	_atoi
002b0e   f02a
002b10   0103     movlb   0x3              	BANKSEL	_par1
002b12   6f6f     movwf   0x6f, 0x1        	MOVWF	_par1, B
002b14   cff3     movff   0xff3, 0x370     	MOVFF	PRODL, (_par1 + 1)
002b16   f370
002b18   0e03     movlw   0x3              	MOVLW	0x03
002b1a   26e1     addwf   0xe1, 0x1, 0     	ADDWF	FSR1L, F
                                           ;	.line	123; /home/yeison/Documentos/python/apps/pinguinoIDE/x.4/source/user.c	break;
002b1c   d036     bra     0x2b8a           	BRA	_02109_DS_
                                           _02108_DS_:
                                           ;	.line	125; /home/yeison/Documentos/python/apps/pinguinoIDE/x.4/source/user.c	bloque = strtok(bloque,")");
002b1e   0e00     movlw   0                	MOVLW	UPPER(__str_19)
002b20   6e02     movwf   0x2, 0           	MOVWF	r0x02
002b22   0e3f     movlw   0x3f             	MOVLW	HIGH(__str_19)
002b24   6e01     movwf   0x1, 0           	MOVWF	r0x01
002b26   0e86     movlw   0x86             	MOVLW	LOW(__str_19)
002b28   6e00     movwf   0, 0             	MOVWF	r0x00
002b2a   5002     movf    0x2, 0, 0        	MOVF	r0x02, W
002b2c   6ee5     movwf   0xe5, 0          	MOVWF	POSTDEC1
002b2e   5001     movf    0x1, 0, 0        	MOVF	r0x01, W
002b30   6ee5     movwf   0xe5, 0          	MOVWF	POSTDEC1
002b32   5000     movf    0, 0, 0          	MOVF	r0x00, W
002b34   6ee5     movwf   0xe5, 0          	MOVWF	POSTDEC1
002b36   0103     movlb   0x3              	BANKSEL	(_bloque + 2)
002b38   5168     movf    0x68, 0, 0x1     	MOVF	(_bloque + 2), W, B
002b3a   6ee5     movwf   0xe5, 0          	MOVWF	POSTDEC1
                                           ; removed redundant BANKSEL
002b3c   5167     movf    0x67, 0, 0x1     	MOVF	(_bloque + 1), W, B
002b3e   6ee5     movwf   0xe5, 0          	MOVWF	POSTDEC1
                                           ; removed redundant BANKSEL
002b40   5166     movf    0x66, 0, 0x1     	MOVF	_bloque, W, B
002b42   6ee5     movwf   0xe5, 0          	MOVWF	POSTDEC1
002b44   ec62     call    0x4ec4, 0        	CALL	_strtok
002b46   f027
002b48   0103     movlb   0x3              	BANKSEL	_bloque
002b4a   6f66     movwf   0x66, 0x1        	MOVWF	_bloque, B
002b4c   cff3     movff   0xff3, 0x367     	MOVFF	PRODL, (_bloque + 1)
002b4e   f367
002b50   cff4     movff   0xff4, 0x368     	MOVFF	PRODH, (_bloque + 2)
002b52   f368
002b54   0e06     movlw   0x6              	MOVLW	0x06
002b56   26e1     addwf   0xe1, 0x1, 0     	ADDWF	FSR1L, F
002b58   0103     movlb   0x3              	BANKSEL	_par1
                                           ;	.line	126; /home/yeison/Documentos/python/apps/pinguinoIDE/x.4/source/user.c	EEPROM_write8(par1, atoi(bloque));
002b5a   516f     movf    0x6f, 0, 0x1     	MOVF	_par1, W, B
002b5c   6e00     movwf   0, 0             	MOVWF	r0x00
002b5e   0103     movlb   0x3              	BANKSEL	(_bloque + 2)
002b60   5168     movf    0x68, 0, 0x1     	MOVF	(_bloque + 2), W, B
002b62   6ee5     movwf   0xe5, 0          	MOVWF	POSTDEC1
                                           ; removed redundant BANKSEL
002b64   5167     movf    0x67, 0, 0x1     	MOVF	(_bloque + 1), W, B
002b66   6ee5     movwf   0xe5, 0          	MOVWF	POSTDEC1
                                           ; removed redundant BANKSEL
002b68   5166     movf    0x66, 0, 0x1     	MOVF	_bloque, W, B
002b6a   6ee5     movwf   0xe5, 0          	MOVWF	POSTDEC1
002b6c   ecd5     call    0x55aa, 0        	CALL	_atoi
002b6e   f02a
002b70   6e01     movwf   0x1, 0           	MOVWF	r0x01
002b72   cff3     movff   0xff3, 0x2       	MOVFF	PRODL, r0x02
002b74   f002
002b76   0e03     movlw   0x3              	MOVLW	0x03
002b78   26e1     addwf   0xe1, 0x1, 0     	ADDWF	FSR1L, F
002b7a   5001     movf    0x1, 0, 0        	MOVF	r0x01, W
002b7c   6ee5     movwf   0xe5, 0          	MOVWF	POSTDEC1
002b7e   5000     movf    0, 0, 0          	MOVF	r0x00, W
002b80   6ee5     movwf   0xe5, 0          	MOVWF	POSTDEC1
002b82   ecfd     call    0x77fa, 0        	CALL	_EEPROM_write8
002b84   f03b
002b86   52e6     movf    0xe6, 0x1, 0     	MOVF	POSTINC1, F
002b88   52e6     movf    0xe6, 0x1, 0     	MOVF	POSTINC1, F
                                           _02109_DS_:
002b8a   0103     movlb   0x3              	BANKSEL	_cont
                                           ;	.line	129; /home/yeison/Documentos/python/apps/pinguinoIDE/x.4/source/user.c	cont+=1;
002b8c   3f6d     incfsz  0x6d, 0x1, 0x1   	INCFSZ	_cont, F, B
002b8e   d001     bra     0x2b92           	BRA	_72460_DS_
                                           ; removed redundant BANKSEL
002b90   2b6e     incf    0x6e, 0x1, 0x1   	INCF	(_cont + 1), F, B
                                           _72460_DS_:
                                           ;	.line	118; /home/yeison/Documentos/python/apps/pinguinoIDE/x.4/source/user.c	for (bloque = strtok(lectura,"("); bloque != NULL; bloque = strtok(NULL, ",") ){
002b92   0e00     movlw   0                	MOVLW	UPPER(__str_12)
002b94   6e02     movwf   0x2, 0           	MOVWF	r0x02
002b96   0e3f     movlw   0x3f             	MOVLW	HIGH(__str_12)
002b98   6e01     movwf   0x1, 0           	MOVWF	r0x01
002b9a   0e50     movlw   0x50             	MOVLW	LOW(__str_12)
002b9c   6e00     movwf   0, 0             	MOVWF	r0x00
002b9e   5002     movf    0x2, 0, 0        	MOVF	r0x02, W
002ba0   6ee5     movwf   0xe5, 0          	MOVWF	POSTDEC1
002ba2   5001     movf    0x1, 0, 0        	MOVF	r0x01, W
002ba4   6ee5     movwf   0xe5, 0          	MOVWF	POSTDEC1
002ba6   5000     movf    0, 0, 0          	MOVF	r0x00, W
002ba8   6ee5     movwf   0xe5, 0          	MOVWF	POSTDEC1
002baa   0e00     movlw   0                	MOVLW	0x00
002bac   6ee5     movwf   0xe5, 0          	MOVWF	POSTDEC1
002bae   0e00     movlw   0                	MOVLW	0x00
002bb0   6ee5     movwf   0xe5, 0          	MOVWF	POSTDEC1
002bb2   0e00     movlw   0                	MOVLW	0x00
002bb4   6ee5     movwf   0xe5, 0          	MOVWF	POSTDEC1
002bb6   ec62     call    0x4ec4, 0        	CALL	_strtok
002bb8   f027
002bba   0103     movlb   0x3              	BANKSEL	_bloque
002bbc   6f66     movwf   0x66, 0x1        	MOVWF	_bloque, B
002bbe   cff3     movff   0xff3, 0x367     	MOVFF	PRODL, (_bloque + 1)
002bc0   f367
002bc2   cff4     movff   0xff4, 0x368     	MOVFF	PRODH, (_bloque + 2)
002bc4   f368
002bc6   0e06     movlw   0x6              	MOVLW	0x06
002bc8   26e1     addwf   0xe1, 0x1, 0     	ADDWF	FSR1L, F
002bca   d76b     bra     0x2aa2           	BRA	_02183_DS_
                                           _02144_DS_:
                                           ;	.line	133; /home/yeison/Documentos/python/apps/pinguinoIDE/x.4/source/user.c	else if (strncmp(lectura, "delay", 5)==0){
002bcc   0e02     movlw   0x2              	MOVLW	HIGH(_lectura)
002bce   6e01     movwf   0x1, 0           	MOVWF	r0x01
002bd0   0ed9     movlw   0xd9             	MOVLW	LOW(_lectura)
002bd2   6e00     movwf   0, 0             	MOVWF	r0x00
002bd4   0e80     movlw   0x80             	MOVLW	0x80
002bd6   6e02     movwf   0x2, 0           	MOVWF	r0x02
002bd8   0e00     movlw   0                	MOVLW	UPPER(__str_23)
002bda   6e05     movwf   0x5, 0           	MOVWF	r0x05
002bdc   0e3f     movlw   0x3f             	MOVLW	HIGH(__str_23)
002bde   6e04     movwf   0x4, 0           	MOVWF	r0x04
002be0   0eac     movlw   0xac             	MOVLW	LOW(__str_23)
002be2   6e03     movwf   0x3, 0           	MOVWF	r0x03
002be4   0e00     movlw   0                	MOVLW	0x00
002be6   6ee5     movwf   0xe5, 0          	MOVWF	POSTDEC1
002be8   0e05     movlw   0x5              	MOVLW	0x05
002bea   6ee5     movwf   0xe5, 0          	MOVWF	POSTDEC1
002bec   5005     movf    0x5, 0, 0        	MOVF	r0x05, W
002bee   6ee5     movwf   0xe5, 0          	MOVWF	POSTDEC1
002bf0   5004     movf    0x4, 0, 0        	MOVF	r0x04, W
002bf2   6ee5     movwf   0xe5, 0          	MOVWF	POSTDEC1
002bf4   5003     movf    0x3, 0, 0        	MOVF	r0x03, W
002bf6   6ee5     movwf   0xe5, 0          	MOVWF	POSTDEC1
002bf8   5002     movf    0x2, 0, 0        	MOVF	r0x02, W
002bfa   6ee5     movwf   0xe5, 0          	MOVWF	POSTDEC1
002bfc   5001     movf    0x1, 0, 0        	MOVF	r0x01, W
002bfe   6ee5     movwf   0xe5, 0          	MOVWF	POSTDEC1
002c00   5000     movf    0, 0, 0          	MOVF	r0x00, W
002c02   6ee5     movwf   0xe5, 0          	MOVWF	POSTDEC1
002c04   ec21     call    0x6042, 0        	CALL	_strncmp
002c06   f030
002c08   6e00     movwf   0, 0             	MOVWF	r0x00
002c0a   cff3     movff   0xff3, 0x1       	MOVFF	PRODL, r0x01
002c0c   f001
002c0e   0e08     movlw   0x8              	MOVLW	0x08
002c10   26e1     addwf   0xe1, 0x1, 0     	ADDWF	FSR1L, F
002c12   5000     movf    0, 0, 0          	MOVF	r0x00, W
002c14   1001     iorwf   0x1, 0, 0        	IORWF	r0x01, W
002c16   a4d8     btfss   0xd8, 0x2, 0     	BTFSS	STATUS, 2
002c18   d06e     bra     0x2cf6           	BRA	_02141_DS_
                                           ;	.line	134; /home/yeison/Documentos/python/apps/pinguinoIDE/x.4/source/user.c	for (bloque = strtok(lectura,"("); bloque != NULL; bloque = strtok(NULL, ")") ){
002c1a   0e02     movlw   0x2              	MOVLW	HIGH(_lectura)
002c1c   6e01     movwf   0x1, 0           	MOVWF	r0x01
002c1e   0ed9     movlw   0xd9             	MOVLW	LOW(_lectura)
002c20   6e00     movwf   0, 0             	MOVWF	r0x00
002c22   0e80     movlw   0x80             	MOVLW	0x80
002c24   6e02     movwf   0x2, 0           	MOVWF	r0x02
002c26   0e00     movlw   0                	MOVLW	UPPER(__str_11)
002c28   6e05     movwf   0x5, 0           	MOVWF	r0x05
002c2a   0e3f     movlw   0x3f             	MOVLW	HIGH(__str_11)
002c2c   6e04     movwf   0x4, 0           	MOVWF	r0x04
002c2e   0e4e     movlw   0x4e             	MOVLW	LOW(__str_11)
002c30   6e03     movwf   0x3, 0           	MOVWF	r0x03
002c32   5005     movf    0x5, 0, 0        	MOVF	r0x05, W
002c34   6ee5     movwf   0xe5, 0          	MOVWF	POSTDEC1
002c36   5004     movf    0x4, 0, 0        	MOVF	r0x04, W
002c38   6ee5     movwf   0xe5, 0          	MOVWF	POSTDEC1
002c3a   5003     movf    0x3, 0, 0        	MOVF	r0x03, W
002c3c   6ee5     movwf   0xe5, 0          	MOVWF	POSTDEC1
002c3e   5002     movf    0x2, 0, 0        	MOVF	r0x02, W
002c40   6ee5     movwf   0xe5, 0          	MOVWF	POSTDEC1
002c42   5001     movf    0x1, 0, 0        	MOVF	r0x01, W
002c44   6ee5     movwf   0xe5, 0          	MOVWF	POSTDEC1
002c46   5000     movf    0, 0, 0          	MOVF	r0x00, W
002c48   6ee5     movwf   0xe5, 0          	MOVWF	POSTDEC1
002c4a   ec62     call    0x4ec4, 0        	CALL	_strtok
002c4c   f027
002c4e   0103     movlb   0x3              	BANKSEL	_bloque
002c50   6f66     movwf   0x66, 0x1        	MOVWF	_bloque, B
002c52   cff3     movff   0xff3, 0x367     	MOVFF	PRODL, (_bloque + 1)
002c54   f367
002c56   cff4     movff   0xff4, 0x368     	MOVFF	PRODH, (_bloque + 2)
002c58   f368
002c5a   0e06     movlw   0x6              	MOVLW	0x06
002c5c   26e1     addwf   0xe1, 0x1, 0     	ADDWF	FSR1L, F
                                           _02186_DS_:
002c5e   0103     movlb   0x3              	BANKSEL	_bloque
002c60   5166     movf    0x66, 0, 0x1     	MOVF	_bloque, W, B
002c62   e106     bnz     0x2c70           	BNZ	_02422_DS_
                                           ; removed redundant BANKSEL
002c64   5167     movf    0x67, 0, 0x1     	MOVF	(_bloque + 1), W, B
002c66   e104     bnz     0x2c70           	BNZ	_02422_DS_
                                           ; removed redundant BANKSEL
002c68   5168     movf    0x68, 0, 0x1     	MOVF	(_bloque + 2), W, B
002c6a   e102     bnz     0x2c70           	BNZ	_02422_DS_
002c6c   ef6b     goto    0x30d6           	GOTO	_02199_DS_
002c6e   f018
                                           _02422_DS_:
002c70   0103     movlb   0x3              	BANKSEL	_cont
                                           ;	.line	135; /home/yeison/Documentos/python/apps/pinguinoIDE/x.4/source/user.c	switch (cont){
002c72   516d     movf    0x6d, 0, 0x1     	MOVF	_cont, W, B
002c74   e102     bnz     0x2c7a           	BNZ	_02424_DS_
                                           ; removed redundant BANKSEL
002c76   516e     movf    0x6e, 0, 0x1     	MOVF	(_cont + 1), W, B
002c78   e01d     bz      0x2cb4           	BZ	_02113_DS_
                                           _02424_DS_:
002c7a   0103     movlb   0x3              	BANKSEL	_cont
002c7c   516d     movf    0x6d, 0, 0x1     	MOVF	_cont, W, B
002c7e   0a01     xorlw   0x1              	XORLW	0x01
002c80   e102     bnz     0x2c86           	BNZ	_02425_DS_
                                           ; removed redundant BANKSEL
002c82   516e     movf    0x6e, 0, 0x1     	MOVF	(_cont + 1), W, B
002c84   e001     bz      0x2c88           	BZ	_02426_DS_
                                           _02425_DS_:
002c86   d016     bra     0x2cb4           	BRA	_02113_DS_
                                           _02426_DS_:
002c88   0103     movlb   0x3              	BANKSEL	(_bloque + 2)
                                           ;	.line	138; /home/yeison/Documentos/python/apps/pinguinoIDE/x.4/source/user.c	Delayms(atoi(bloque));
002c8a   5168     movf    0x68, 0, 0x1     	MOVF	(_bloque + 2), W, B
002c8c   6ee5     movwf   0xe5, 0          	MOVWF	POSTDEC1
                                           ; removed redundant BANKSEL
002c8e   5167     movf    0x67, 0, 0x1     	MOVF	(_bloque + 1), W, B
002c90   6ee5     movwf   0xe5, 0          	MOVWF	POSTDEC1
                                           ; removed redundant BANKSEL
002c92   5166     movf    0x66, 0, 0x1     	MOVF	_bloque, W, B
002c94   6ee5     movwf   0xe5, 0          	MOVWF	POSTDEC1
002c96   ecd5     call    0x55aa, 0        	CALL	_atoi
002c98   f02a
002c9a   6e00     movwf   0, 0             	MOVWF	r0x00
002c9c   cff3     movff   0xff3, 0x1       	MOVFF	PRODL, r0x01
002c9e   f001
002ca0   0e03     movlw   0x3              	MOVLW	0x03
002ca2   26e1     addwf   0xe1, 0x1, 0     	ADDWF	FSR1L, F
002ca4   5001     movf    0x1, 0, 0        	MOVF	r0x01, W
002ca6   6ee5     movwf   0xe5, 0          	MOVWF	POSTDEC1
002ca8   5000     movf    0, 0, 0          	MOVF	r0x00, W
002caa   6ee5     movwf   0xe5, 0          	MOVWF	POSTDEC1
002cac   ec2d     call    0x765a, 0        	CALL	_Delayms
002cae   f03b
002cb0   52e6     movf    0xe6, 0x1, 0     	MOVF	POSTINC1, F
002cb2   52e6     movf    0xe6, 0x1, 0     	MOVF	POSTINC1, F
                                           _02113_DS_:
002cb4   0103     movlb   0x3              	BANKSEL	_cont
                                           ;	.line	141; /home/yeison/Documentos/python/apps/pinguinoIDE/x.4/source/user.c	cont+=1;
002cb6   3f6d     incfsz  0x6d, 0x1, 0x1   	INCFSZ	_cont, F, B
002cb8   d001     bra     0x2cbc           	BRA	_82461_DS_
                                           ; removed redundant BANKSEL
002cba   2b6e     incf    0x6e, 0x1, 0x1   	INCF	(_cont + 1), F, B
                                           _82461_DS_:
                                           ;	.line	134; /home/yeison/Documentos/python/apps/pinguinoIDE/x.4/source/user.c	for (bloque = strtok(lectura,"("); bloque != NULL; bloque = strtok(NULL, ")") ){
002cbc   0e00     movlw   0                	MOVLW	UPPER(__str_19)
002cbe   6e02     movwf   0x2, 0           	MOVWF	r0x02
002cc0   0e3f     movlw   0x3f             	MOVLW	HIGH(__str_19)
002cc2   6e01     movwf   0x1, 0           	MOVWF	r0x01
002cc4   0e86     movlw   0x86             	MOVLW	LOW(__str_19)
002cc6   6e00     movwf   0, 0             	MOVWF	r0x00
002cc8   5002     movf    0x2, 0, 0        	MOVF	r0x02, W
002cca   6ee5     movwf   0xe5, 0          	MOVWF	POSTDEC1
002ccc   5001     movf    0x1, 0, 0        	MOVF	r0x01, W
002cce   6ee5     movwf   0xe5, 0          	MOVWF	POSTDEC1
002cd0   5000     movf    0, 0, 0          	MOVF	r0x00, W
002cd2   6ee5     movwf   0xe5, 0          	MOVWF	POSTDEC1
002cd4   0e00     movlw   0                	MOVLW	0x00
002cd6   6ee5     movwf   0xe5, 0          	MOVWF	POSTDEC1
002cd8   0e00     movlw   0                	MOVLW	0x00
002cda   6ee5     movwf   0xe5, 0          	MOVWF	POSTDEC1
002cdc   0e00     movlw   0                	MOVLW	0x00
002cde   6ee5     movwf   0xe5, 0          	MOVWF	POSTDEC1
002ce0   ec62     call    0x4ec4, 0        	CALL	_strtok
002ce2   f027
002ce4   0103     movlb   0x3              	BANKSEL	_bloque
002ce6   6f66     movwf   0x66, 0x1        	MOVWF	_bloque, B
002ce8   cff3     movff   0xff3, 0x367     	MOVFF	PRODL, (_bloque + 1)
002cea   f367
002cec   cff4     movff   0xff4, 0x368     	MOVFF	PRODH, (_bloque + 2)
002cee   f368
002cf0   0e06     movlw   0x6              	MOVLW	0x06
002cf2   26e1     addwf   0xe1, 0x1, 0     	ADDWF	FSR1L, F
002cf4   d7b4     bra     0x2c5e           	BRA	_02186_DS_
                                           _02141_DS_:
                                           ;	.line	145; /home/yeison/Documentos/python/apps/pinguinoIDE/x.4/source/user.c	else if (strncmp(lectura, "delayMicroseconds", 17)==0){
002cf6   0e02     movlw   0x2              	MOVLW	HIGH(_lectura)
002cf8   6e01     movwf   0x1, 0           	MOVWF	r0x01
002cfa   0ed9     movlw   0xd9             	MOVLW	LOW(_lectura)
002cfc   6e00     movwf   0, 0             	MOVWF	r0x00
002cfe   0e80     movlw   0x80             	MOVLW	0x80
002d00   6e02     movwf   0x2, 0           	MOVWF	r0x02
002d02   0e00     movlw   0                	MOVLW	UPPER(__str_24)
002d04   6e05     movwf   0x5, 0           	MOVWF	r0x05
002d06   0e3f     movlw   0x3f             	MOVLW	HIGH(__str_24)
002d08   6e04     movwf   0x4, 0           	MOVWF	r0x04
002d0a   0eb2     movlw   0xb2             	MOVLW	LOW(__str_24)
002d0c   6e03     movwf   0x3, 0           	MOVWF	r0x03
002d0e   0e00     movlw   0                	MOVLW	0x00
002d10   6ee5     movwf   0xe5, 0          	MOVWF	POSTDEC1
002d12   0e11     movlw   0x11             	MOVLW	0x11
002d14   6ee5     movwf   0xe5, 0          	MOVWF	POSTDEC1
002d16   5005     movf    0x5, 0, 0        	MOVF	r0x05, W
002d18   6ee5     movwf   0xe5, 0          	MOVWF	POSTDEC1
002d1a   5004     movf    0x4, 0, 0        	MOVF	r0x04, W
002d1c   6ee5     movwf   0xe5, 0          	MOVWF	POSTDEC1
002d1e   5003     movf    0x3, 0, 0        	MOVF	r0x03, W
002d20   6ee5     movwf   0xe5, 0          	MOVWF	POSTDEC1
002d22   5002     movf    0x2, 0, 0        	MOVF	r0x02, W
002d24   6ee5     movwf   0xe5, 0          	MOVWF	POSTDEC1
002d26   5001     movf    0x1, 0, 0        	MOVF	r0x01, W
002d28   6ee5     movwf   0xe5, 0          	MOVWF	POSTDEC1
002d2a   5000     movf    0, 0, 0          	MOVF	r0x00, W
002d2c   6ee5     movwf   0xe5, 0          	MOVWF	POSTDEC1
002d2e   ec21     call    0x6042, 0        	CALL	_strncmp
002d30   f030
002d32   6e00     movwf   0, 0             	MOVWF	r0x00
002d34   cff3     movff   0xff3, 0x1       	MOVFF	PRODL, r0x01
002d36   f001
002d38   0e08     movlw   0x8              	MOVLW	0x08
002d3a   26e1     addwf   0xe1, 0x1, 0     	ADDWF	FSR1L, F
002d3c   5000     movf    0, 0, 0          	MOVF	r0x00, W
002d3e   1001     iorwf   0x1, 0, 0        	IORWF	r0x01, W
002d40   a4d8     btfss   0xd8, 0x2, 0     	BTFSS	STATUS, 2
002d42   d07d     bra     0x2e3e           	BRA	_02138_DS_
                                           ;	.line	146; /home/yeison/Documentos/python/apps/pinguinoIDE/x.4/source/user.c	for (bloque = strtok(lectura,"("); bloque != NULL; bloque = strtok(NULL, ")") ){
002d44   0e02     movlw   0x2              	MOVLW	HIGH(_lectura)
002d46   6e01     movwf   0x1, 0           	MOVWF	r0x01
002d48   0ed9     movlw   0xd9             	MOVLW	LOW(_lectura)
002d4a   6e00     movwf   0, 0             	MOVWF	r0x00
002d4c   0e80     movlw   0x80             	MOVLW	0x80
002d4e   6e02     movwf   0x2, 0           	MOVWF	r0x02
002d50   0e00     movlw   0                	MOVLW	UPPER(__str_11)
002d52   6e05     movwf   0x5, 0           	MOVWF	r0x05
002d54   0e3f     movlw   0x3f             	MOVLW	HIGH(__str_11)
002d56   6e04     movwf   0x4, 0           	MOVWF	r0x04
002d58   0e4e     movlw   0x4e             	MOVLW	LOW(__str_11)
002d5a   6e03     movwf   0x3, 0           	MOVWF	r0x03
002d5c   5005     movf    0x5, 0, 0        	MOVF	r0x05, W
002d5e   6ee5     movwf   0xe5, 0          	MOVWF	POSTDEC1
002d60   5004     movf    0x4, 0, 0        	MOVF	r0x04, W
002d62   6ee5     movwf   0xe5, 0          	MOVWF	POSTDEC1
002d64   5003     movf    0x3, 0, 0        	MOVF	r0x03, W
002d66   6ee5     movwf   0xe5, 0          	MOVWF	POSTDEC1
002d68   5002     movf    0x2, 0, 0        	MOVF	r0x02, W
002d6a   6ee5     movwf   0xe5, 0          	MOVWF	POSTDEC1
002d6c   5001     movf    0x1, 0, 0        	MOVF	r0x01, W
002d6e   6ee5     movwf   0xe5, 0          	MOVWF	POSTDEC1
002d70   5000     movf    0, 0, 0          	MOVF	r0x00, W
002d72   6ee5     movwf   0xe5, 0          	MOVWF	POSTDEC1
002d74   ec62     call    0x4ec4, 0        	CALL	_strtok
002d76   f027
002d78   0103     movlb   0x3              	BANKSEL	_bloque
002d7a   6f66     movwf   0x66, 0x1        	MOVWF	_bloque, B
002d7c   cff3     movff   0xff3, 0x367     	MOVFF	PRODL, (_bloque + 1)
002d7e   f367
002d80   cff4     movff   0xff4, 0x368     	MOVFF	PRODH, (_bloque + 2)
002d82   f368
002d84   0e06     movlw   0x6              	MOVLW	0x06
002d86   26e1     addwf   0xe1, 0x1, 0     	ADDWF	FSR1L, F
                                           _02189_DS_:
002d88   0103     movlb   0x3              	BANKSEL	_bloque
002d8a   5166     movf    0x66, 0, 0x1     	MOVF	_bloque, W, B
002d8c   e105     bnz     0x2d98           	BNZ	_02428_DS_
                                           ; removed redundant BANKSEL
002d8e   5167     movf    0x67, 0, 0x1     	MOVF	(_bloque + 1), W, B
002d90   e103     bnz     0x2d98           	BNZ	_02428_DS_
                                           ; removed redundant BANKSEL
002d92   5168     movf    0x68, 0, 0x1     	MOVF	(_bloque + 2), W, B
002d94   e101     bnz     0x2d98           	BNZ	_02428_DS_
002d96   d19f     bra     0x30d6           	BRA	_02199_DS_
                                           _02428_DS_:
002d98   0103     movlb   0x3              	BANKSEL	_cont
                                           ;	.line	147; /home/yeison/Documentos/python/apps/pinguinoIDE/x.4/source/user.c	switch (cont){
002d9a   516d     movf    0x6d, 0, 0x1     	MOVF	_cont, W, B
002d9c   e102     bnz     0x2da2           	BNZ	_02430_DS_
                                           ; removed redundant BANKSEL
002d9e   516e     movf    0x6e, 0, 0x1     	MOVF	(_cont + 1), W, B
002da0   e02d     bz      0x2dfc           	BZ	_02117_DS_
                                           _02430_DS_:
002da2   0103     movlb   0x3              	BANKSEL	_cont
002da4   516d     movf    0x6d, 0, 0x1     	MOVF	_cont, W, B
002da6   0a01     xorlw   0x1              	XORLW	0x01
002da8   e102     bnz     0x2dae           	BNZ	_02431_DS_
                                           ; removed redundant BANKSEL
002daa   516e     movf    0x6e, 0, 0x1     	MOVF	(_cont + 1), W, B
002dac   e001     bz      0x2db0           	BZ	_02432_DS_
                                           _02431_DS_:
002dae   d026     bra     0x2dfc           	BRA	_02117_DS_
                                           _02432_DS_:
002db0   0103     movlb   0x3              	BANKSEL	(_bloque + 2)
                                           ;	.line	150; /home/yeison/Documentos/python/apps/pinguinoIDE/x.4/source/user.c	Delayus(atoi(bloque));
002db2   5168     movf    0x68, 0, 0x1     	MOVF	(_bloque + 2), W, B
002db4   6ee5     movwf   0xe5, 0          	MOVWF	POSTDEC1
                                           ; removed redundant BANKSEL
002db6   5167     movf    0x67, 0, 0x1     	MOVF	(_bloque + 1), W, B
002db8   6ee5     movwf   0xe5, 0          	MOVWF	POSTDEC1
                                           ; removed redundant BANKSEL
002dba   5166     movf    0x66, 0, 0x1     	MOVF	_bloque, W, B
002dbc   6ee5     movwf   0xe5, 0          	MOVWF	POSTDEC1
002dbe   ecd5     call    0x55aa, 0        	CALL	_atoi
002dc0   f02a
002dc2   6e00     movwf   0, 0             	MOVWF	r0x00
002dc4   cff3     movff   0xff3, 0x1       	MOVFF	PRODL, r0x01
002dc6   f001
002dc8   0e03     movlw   0x3              	MOVLW	0x03
002dca   26e1     addwf   0xe1, 0x1, 0     	ADDWF	FSR1L, F
002dcc   5001     movf    0x1, 0, 0        	MOVF	r0x01, W
002dce   6ee5     movwf   0xe5, 0          	MOVWF	POSTDEC1
002dd0   5000     movf    0, 0, 0          	MOVF	r0x00, W
002dd2   6ee5     movwf   0xe5, 0          	MOVWF	POSTDEC1
002dd4   ecb3     call    0x7766, 0        	CALL	_Delayus
002dd6   f03b
002dd8   52e6     movf    0xe6, 0x1, 0     	MOVF	POSTINC1, F
002dda   52e6     movf    0xe6, 0x1, 0     	MOVF	POSTINC1, F
                                           ;	.line	151; /home/yeison/Documentos/python/apps/pinguinoIDE/x.4/source/user.c	CDCprintf("Done\n");
002ddc   0e00     movlw   0                	MOVLW	UPPER(__str_25)
002dde   6e02     movwf   0x2, 0           	MOVWF	r0x02
002de0   0e3f     movlw   0x3f             	MOVLW	HIGH(__str_25)
002de2   6e01     movwf   0x1, 0           	MOVWF	r0x01
002de4   0ec4     movlw   0xc4             	MOVLW	LOW(__str_25)
002de6   6e00     movwf   0, 0             	MOVWF	r0x00
002de8   5002     movf    0x2, 0, 0        	MOVF	r0x02, W
002dea   6ee5     movwf   0xe5, 0          	MOVWF	POSTDEC1
002dec   5001     movf    0x1, 0, 0        	MOVF	r0x01, W
002dee   6ee5     movwf   0xe5, 0          	MOVWF	POSTDEC1
002df0   5000     movf    0, 0, 0          	MOVF	r0x00, W
002df2   6ee5     movwf   0xe5, 0          	MOVWF	POSTDEC1
002df4   ec19     call    0x7432, 0        	CALL	_CDCprintf
002df6   f03a
002df8   0e03     movlw   0x3              	MOVLW	0x03
002dfa   26e1     addwf   0xe1, 0x1, 0     	ADDWF	FSR1L, F
                                           _02117_DS_:
002dfc   0103     movlb   0x3              	BANKSEL	_cont
                                           ;	.line	154; /home/yeison/Documentos/python/apps/pinguinoIDE/x.4/source/user.c	cont+=1;
002dfe   3f6d     incfsz  0x6d, 0x1, 0x1   	INCFSZ	_cont, F, B
002e00   d001     bra     0x2e04           	BRA	_92462_DS_
                                           ; removed redundant BANKSEL
002e02   2b6e     incf    0x6e, 0x1, 0x1   	INCF	(_cont + 1), F, B
                                           _92462_DS_:
                                           ;	.line	146; /home/yeison/Documentos/python/apps/pinguinoIDE/x.4/source/user.c	for (bloque = strtok(lectura,"("); bloque != NULL; bloque = strtok(NULL, ")") ){
002e04   0e00     movlw   0                	MOVLW	UPPER(__str_19)
002e06   6e02     movwf   0x2, 0           	MOVWF	r0x02
002e08   0e3f     movlw   0x3f             	MOVLW	HIGH(__str_19)
002e0a   6e01     movwf   0x1, 0           	MOVWF	r0x01
002e0c   0e86     movlw   0x86             	MOVLW	LOW(__str_19)
002e0e   6e00     movwf   0, 0             	MOVWF	r0x00
002e10   5002     movf    0x2, 0, 0        	MOVF	r0x02, W
002e12   6ee5     movwf   0xe5, 0          	MOVWF	POSTDEC1
002e14   5001     movf    0x1, 0, 0        	MOVF	r0x01, W
002e16   6ee5     movwf   0xe5, 0          	MOVWF	POSTDEC1
002e18   5000     movf    0, 0, 0          	MOVF	r0x00, W
002e1a   6ee5     movwf   0xe5, 0          	MOVWF	POSTDEC1
002e1c   0e00     movlw   0                	MOVLW	0x00
002e1e   6ee5     movwf   0xe5, 0          	MOVWF	POSTDEC1
002e20   0e00     movlw   0                	MOVLW	0x00
002e22   6ee5     movwf   0xe5, 0          	MOVWF	POSTDEC1
002e24   0e00     movlw   0                	MOVLW	0x00
002e26   6ee5     movwf   0xe5, 0          	MOVWF	POSTDEC1
002e28   ec62     call    0x4ec4, 0        	CALL	_strtok
002e2a   f027
002e2c   0103     movlb   0x3              	BANKSEL	_bloque
002e2e   6f66     movwf   0x66, 0x1        	MOVWF	_bloque, B
002e30   cff3     movff   0xff3, 0x367     	MOVFF	PRODL, (_bloque + 1)
002e32   f367
002e34   cff4     movff   0xff4, 0x368     	MOVFF	PRODH, (_bloque + 2)
002e36   f368
002e38   0e06     movlw   0x6              	MOVLW	0x06
002e3a   26e1     addwf   0xe1, 0x1, 0     	ADDWF	FSR1L, F
002e3c   d7a5     bra     0x2d88           	BRA	_02189_DS_
                                           _02138_DS_:
                                           ;	.line	158; /home/yeison/Documentos/python/apps/pinguinoIDE/x.4/source/user.c	else if (strncmp(lectura, "allOutput", 9)==0){
002e3e   0e02     movlw   0x2              	MOVLW	HIGH(_lectura)
002e40   6e01     movwf   0x1, 0           	MOVWF	r0x01
002e42   0ed9     movlw   0xd9             	MOVLW	LOW(_lectura)
002e44   6e00     movwf   0, 0             	MOVWF	r0x00
002e46   0e80     movlw   0x80             	MOVLW	0x80
002e48   6e02     movwf   0x2, 0           	MOVWF	r0x02
002e4a   0e00     movlw   0                	MOVLW	UPPER(__str_26)
002e4c   6e05     movwf   0x5, 0           	MOVWF	r0x05
002e4e   0e3f     movlw   0x3f             	MOVLW	HIGH(__str_26)
002e50   6e04     movwf   0x4, 0           	MOVWF	r0x04
002e52   0eca     movlw   0xca             	MOVLW	LOW(__str_26)
002e54   6e03     movwf   0x3, 0           	MOVWF	r0x03
002e56   0e00     movlw   0                	MOVLW	0x00
002e58   6ee5     movwf   0xe5, 0          	MOVWF	POSTDEC1
002e5a   0e09     movlw   0x9              	MOVLW	0x09
002e5c   6ee5     movwf   0xe5, 0          	MOVWF	POSTDEC1
002e5e   5005     movf    0x5, 0, 0        	MOVF	r0x05, W
002e60   6ee5     movwf   0xe5, 0          	MOVWF	POSTDEC1
002e62   5004     movf    0x4, 0, 0        	MOVF	r0x04, W
002e64   6ee5     movwf   0xe5, 0          	MOVWF	POSTDEC1
002e66   5003     movf    0x3, 0, 0        	MOVF	r0x03, W
002e68   6ee5     movwf   0xe5, 0          	MOVWF	POSTDEC1
002e6a   5002     movf    0x2, 0, 0        	MOVF	r0x02, W
002e6c   6ee5     movwf   0xe5, 0          	MOVWF	POSTDEC1
002e6e   5001     movf    0x1, 0, 0        	MOVF	r0x01, W
002e70   6ee5     movwf   0xe5, 0          	MOVWF	POSTDEC1
002e72   5000     movf    0, 0, 0          	MOVF	r0x00, W
002e74   6ee5     movwf   0xe5, 0          	MOVWF	POSTDEC1
002e76   ec21     call    0x6042, 0        	CALL	_strncmp
002e78   f030
002e7a   6e00     movwf   0, 0             	MOVWF	r0x00
002e7c   cff3     movff   0xff3, 0x1       	MOVFF	PRODL, r0x01
002e7e   f001
002e80   0e08     movlw   0x8              	MOVLW	0x08
002e82   26e1     addwf   0xe1, 0x1, 0     	ADDWF	FSR1L, F
002e84   5000     movf    0, 0, 0          	MOVF	r0x00, W
002e86   1001     iorwf   0x1, 0, 0        	IORWF	r0x01, W
002e88   e126     bnz     0x2ed6           	BNZ	_02135_DS_
002e8a   0103     movlb   0x3              	BANKSEL	_i
                                           ;	.line	159; /home/yeison/Documentos/python/apps/pinguinoIDE/x.4/source/user.c	for (i=0;i<=TotalPines;i++){
002e8c   6b71     clrf    0x71, 0x1        	CLRF	_i, B
                                           ; removed redundant BANKSEL
002e8e   6b72     clrf    0x72, 0x1        	CLRF	(_i + 1), B
                                           _02191_DS_:
002e90   0103     movlb   0x3              	BANKSEL	_i
                                           ;	.line	160; /home/yeison/Documentos/python/apps/pinguinoIDE/x.4/source/user.c	pinmode(i,OUTPUT);
002e92   5171     movf    0x71, 0, 0x1     	MOVF	_i, W, B
002e94   6e00     movwf   0, 0             	MOVWF	r0x00
002e96   0e00     movlw   0                	MOVLW	0x00
002e98   6ee5     movwf   0xe5, 0          	MOVWF	POSTDEC1
002e9a   5000     movf    0, 0, 0          	MOVF	r0x00, W
002e9c   6ee5     movwf   0xe5, 0          	MOVWF	POSTDEC1
002e9e   ec64     call    0x66c8, 0        	CALL	_pinmode
002ea0   f033
002ea2   52e6     movf    0xe6, 0x1, 0     	MOVF	POSTINC1, F
002ea4   52e6     movf    0xe6, 0x1, 0     	MOVF	POSTINC1, F
002ea6   0103     movlb   0x3              	BANKSEL	_i
                                           ;	.line	161; /home/yeison/Documentos/python/apps/pinguinoIDE/x.4/source/user.c	digitalwrite(i,LOW);
002ea8   5171     movf    0x71, 0, 0x1     	MOVF	_i, W, B
002eaa   6e00     movwf   0, 0             	MOVWF	r0x00
002eac   0e00     movlw   0                	MOVLW	0x00
002eae   6ee5     movwf   0xe5, 0          	MOVWF	POSTDEC1
002eb0   5000     movf    0, 0, 0          	MOVF	r0x00, W
002eb2   6ee5     movwf   0xe5, 0          	MOVWF	POSTDEC1
002eb4   eccd     call    0x679a, 0        	CALL	_digitalwrite
002eb6   f033
002eb8   52e6     movf    0xe6, 0x1, 0     	MOVF	POSTINC1, F
002eba   52e6     movf    0xe6, 0x1, 0     	MOVF	POSTINC1, F
002ebc   0103     movlb   0x3              	BANKSEL	_i
                                           ;	.line	159; /home/yeison/Documentos/python/apps/pinguinoIDE/x.4/source/user.c	for (i=0;i<=TotalPines;i++){
002ebe   3f71     incfsz  0x71, 0x1, 0x1   	INCFSZ	_i, F, B
002ec0   d001     bra     0x2ec4           	BRA	_102463_DS_
                                           ; removed redundant BANKSEL
002ec2   2b72     incf    0x72, 0x1, 0x1   	INCF	(_i + 1), F, B
                                           _102463_DS_:
002ec4   0103     movlb   0x3              	BANKSEL	(_i + 1)
002ec6   5172     movf    0x72, 0, 0x1     	MOVF	(_i + 1), W, B
002ec8   0f80     addlw   0x80             	ADDLW	0x80
002eca   0f80     addlw   0x80             	ADDLW	0x80
002ecc   e102     bnz     0x2ed2           	BNZ	_02433_DS_
002ece   0e12     movlw   0x12             	MOVLW	0x12
                                           ; removed redundant BANKSEL
002ed0   5d71     subwf   0x71, 0, 0x1     	SUBWF	_i, W, B
                                           _02433_DS_:
002ed2   e3de     bnc     0x2e90           	BNC	_02191_DS_
002ed4   d100     bra     0x30d6           	BRA	_02199_DS_
                                           _02135_DS_:
                                           ;	.line	165; /home/yeison/Documentos/python/apps/pinguinoIDE/x.4/source/user.c	else if (strncmp(lectura, "allInput", 8)==0){
002ed6   0e02     movlw   0x2              	MOVLW	HIGH(_lectura)
002ed8   6e01     movwf   0x1, 0           	MOVWF	r0x01
002eda   0ed9     movlw   0xd9             	MOVLW	LOW(_lectura)
002edc   6e00     movwf   0, 0             	MOVWF	r0x00
002ede   0e80     movlw   0x80             	MOVLW	0x80
002ee0   6e02     movwf   0x2, 0           	MOVWF	r0x02
002ee2   0e00     movlw   0                	MOVLW	UPPER(__str_27)
002ee4   6e05     movwf   0x5, 0           	MOVWF	r0x05
002ee6   0e3f     movlw   0x3f             	MOVLW	HIGH(__str_27)
002ee8   6e04     movwf   0x4, 0           	MOVWF	r0x04
002eea   0ed4     movlw   0xd4             	MOVLW	LOW(__str_27)
002eec   6e03     movwf   0x3, 0           	MOVWF	r0x03
002eee   0e00     movlw   0                	MOVLW	0x00
002ef0   6ee5     movwf   0xe5, 0          	MOVWF	POSTDEC1
002ef2   0e08     movlw   0x8              	MOVLW	0x08
002ef4   6ee5     movwf   0xe5, 0          	MOVWF	POSTDEC1
002ef6   5005     movf    0x5, 0, 0        	MOVF	r0x05, W
002ef8   6ee5     movwf   0xe5, 0          	MOVWF	POSTDEC1
002efa   5004     movf    0x4, 0, 0        	MOVF	r0x04, W
002efc   6ee5     movwf   0xe5, 0          	MOVWF	POSTDEC1
002efe   5003     movf    0x3, 0, 0        	MOVF	r0x03, W
002f00   6ee5     movwf   0xe5, 0          	MOVWF	POSTDEC1
002f02   5002     movf    0x2, 0, 0        	MOVF	r0x02, W
002f04   6ee5     movwf   0xe5, 0          	MOVWF	POSTDEC1
002f06   5001     movf    0x1, 0, 0        	MOVF	r0x01, W
002f08   6ee5     movwf   0xe5, 0          	MOVWF	POSTDEC1
002f0a   5000     movf    0, 0, 0          	MOVF	r0x00, W
002f0c   6ee5     movwf   0xe5, 0          	MOVWF	POSTDEC1
002f0e   ec21     call    0x6042, 0        	CALL	_strncmp
002f10   f030
002f12   6e00     movwf   0, 0             	MOVWF	r0x00
002f14   cff3     movff   0xff3, 0x1       	MOVFF	PRODL, r0x01
002f16   f001
002f18   0e08     movlw   0x8              	MOVLW	0x08
002f1a   26e1     addwf   0xe1, 0x1, 0     	ADDWF	FSR1L, F
002f1c   5000     movf    0, 0, 0          	MOVF	r0x00, W
002f1e   1001     iorwf   0x1, 0, 0        	IORWF	r0x01, W
002f20   e11b     bnz     0x2f58           	BNZ	_02132_DS_
002f22   0103     movlb   0x3              	BANKSEL	_i
                                           ;	.line	166; /home/yeison/Documentos/python/apps/pinguinoIDE/x.4/source/user.c	for (i=0;i<=TotalPines;i++)
002f24   6b71     clrf    0x71, 0x1        	CLRF	_i, B
                                           ; removed redundant BANKSEL
002f26   6b72     clrf    0x72, 0x1        	CLRF	(_i + 1), B
                                           _02193_DS_:
002f28   0103     movlb   0x3              	BANKSEL	_i
                                           ;	.line	167; /home/yeison/Documentos/python/apps/pinguinoIDE/x.4/source/user.c	pinmode(i,INPUT);
002f2a   5171     movf    0x71, 0, 0x1     	MOVF	_i, W, B
002f2c   6e00     movwf   0, 0             	MOVWF	r0x00
002f2e   0e01     movlw   0x1              	MOVLW	0x01
002f30   6ee5     movwf   0xe5, 0          	MOVWF	POSTDEC1
002f32   5000     movf    0, 0, 0          	MOVF	r0x00, W
002f34   6ee5     movwf   0xe5, 0          	MOVWF	POSTDEC1
002f36   ec64     call    0x66c8, 0        	CALL	_pinmode
002f38   f033
002f3a   52e6     movf    0xe6, 0x1, 0     	MOVF	POSTINC1, F
002f3c   52e6     movf    0xe6, 0x1, 0     	MOVF	POSTINC1, F
002f3e   0103     movlb   0x3              	BANKSEL	_i
                                           ;	.line	166; /home/yeison/Documentos/python/apps/pinguinoIDE/x.4/source/user.c	for (i=0;i<=TotalPines;i++)
002f40   3f71     incfsz  0x71, 0x1, 0x1   	INCFSZ	_i, F, B
002f42   d001     bra     0x2f46           	BRA	_112464_DS_
                                           ; removed redundant BANKSEL
002f44   2b72     incf    0x72, 0x1, 0x1   	INCF	(_i + 1), F, B
                                           _112464_DS_:
002f46   0103     movlb   0x3              	BANKSEL	(_i + 1)
002f48   5172     movf    0x72, 0, 0x1     	MOVF	(_i + 1), W, B
002f4a   0f80     addlw   0x80             	ADDLW	0x80
002f4c   0f80     addlw   0x80             	ADDLW	0x80
002f4e   e102     bnz     0x2f54           	BNZ	_02434_DS_
002f50   0e12     movlw   0x12             	MOVLW	0x12
                                           ; removed redundant BANKSEL
002f52   5d71     subwf   0x71, 0, 0x1     	SUBWF	_i, W, B
                                           _02434_DS_:
002f54   e3e9     bnc     0x2f28           	BNC	_02193_DS_
002f56   d0bf     bra     0x30d6           	BRA	_02199_DS_
                                           _02132_DS_:
                                           ;	.line	170; /home/yeison/Documentos/python/apps/pinguinoIDE/x.4/source/user.c	else if (strncmp(lectura, "allHigh", 7)==0){
002f58   0e02     movlw   0x2              	MOVLW	HIGH(_lectura)
002f5a   6e01     movwf   0x1, 0           	MOVWF	r0x01
002f5c   0ed9     movlw   0xd9             	MOVLW	LOW(_lectura)
002f5e   6e00     movwf   0, 0             	MOVWF	r0x00
002f60   0e80     movlw   0x80             	MOVLW	0x80
002f62   6e02     movwf   0x2, 0           	MOVWF	r0x02
002f64   0e00     movlw   0                	MOVLW	UPPER(__str_28)
002f66   6e05     movwf   0x5, 0           	MOVWF	r0x05
002f68   0e3f     movlw   0x3f             	MOVLW	HIGH(__str_28)
002f6a   6e04     movwf   0x4, 0           	MOVWF	r0x04
002f6c   0ede     movlw   0xde             	MOVLW	LOW(__str_28)
002f6e   6e03     movwf   0x3, 0           	MOVWF	r0x03
002f70   0e00     movlw   0                	MOVLW	0x00
002f72   6ee5     movwf   0xe5, 0          	MOVWF	POSTDEC1
002f74   0e07     movlw   0x7              	MOVLW	0x07
002f76   6ee5     movwf   0xe5, 0          	MOVWF	POSTDEC1
002f78   5005     movf    0x5, 0, 0        	MOVF	r0x05, W
002f7a   6ee5     movwf   0xe5, 0          	MOVWF	POSTDEC1
002f7c   5004     movf    0x4, 0, 0        	MOVF	r0x04, W
002f7e   6ee5     movwf   0xe5, 0          	MOVWF	POSTDEC1
002f80   5003     movf    0x3, 0, 0        	MOVF	r0x03, W
002f82   6ee5     movwf   0xe5, 0          	MOVWF	POSTDEC1
002f84   5002     movf    0x2, 0, 0        	MOVF	r0x02, W
002f86   6ee5     movwf   0xe5, 0          	MOVWF	POSTDEC1
002f88   5001     movf    0x1, 0, 0        	MOVF	r0x01, W
002f8a   6ee5     movwf   0xe5, 0          	MOVWF	POSTDEC1
002f8c   5000     movf    0, 0, 0          	MOVF	r0x00, W
002f8e   6ee5     movwf   0xe5, 0          	MOVWF	POSTDEC1
002f90   ec21     call    0x6042, 0        	CALL	_strncmp
002f92   f030
002f94   6e00     movwf   0, 0             	MOVWF	r0x00
002f96   cff3     movff   0xff3, 0x1       	MOVFF	PRODL, r0x01
002f98   f001
002f9a   0e08     movlw   0x8              	MOVLW	0x08
002f9c   26e1     addwf   0xe1, 0x1, 0     	ADDWF	FSR1L, F
002f9e   5000     movf    0, 0, 0          	MOVF	r0x00, W
002fa0   1001     iorwf   0x1, 0, 0        	IORWF	r0x01, W
002fa2   e126     bnz     0x2ff0           	BNZ	_02129_DS_
002fa4   0103     movlb   0x3              	BANKSEL	_i
                                           ;	.line	171; /home/yeison/Documentos/python/apps/pinguinoIDE/x.4/source/user.c	for (i=0;i<=TotalPines;i++){
002fa6   6b71     clrf    0x71, 0x1        	CLRF	_i, B
                                           ; removed redundant BANKSEL
002fa8   6b72     clrf    0x72, 0x1        	CLRF	(_i + 1), B
                                           _02195_DS_:
002faa   0103     movlb   0x3              	BANKSEL	_i
                                           ;	.line	172; /home/yeison/Documentos/python/apps/pinguinoIDE/x.4/source/user.c	pinmode(i,OUTPUT);
002fac   5171     movf    0x71, 0, 0x1     	MOVF	_i, W, B
002fae   6e00     movwf   0, 0             	MOVWF	r0x00
002fb0   0e00     movlw   0                	MOVLW	0x00
002fb2   6ee5     movwf   0xe5, 0          	MOVWF	POSTDEC1
002fb4   5000     movf    0, 0, 0          	MOVF	r0x00, W
002fb6   6ee5     movwf   0xe5, 0          	MOVWF	POSTDEC1
002fb8   ec64     call    0x66c8, 0        	CALL	_pinmode
002fba   f033
002fbc   52e6     movf    0xe6, 0x1, 0     	MOVF	POSTINC1, F
002fbe   52e6     movf    0xe6, 0x1, 0     	MOVF	POSTINC1, F
002fc0   0103     movlb   0x3              	BANKSEL	_i
                                           ;	.line	173; /home/yeison/Documentos/python/apps/pinguinoIDE/x.4/source/user.c	digitalwrite(i,HIGH);
002fc2   5171     movf    0x71, 0, 0x1     	MOVF	_i, W, B
002fc4   6e00     movwf   0, 0             	MOVWF	r0x00
002fc6   0e01     movlw   0x1              	MOVLW	0x01
002fc8   6ee5     movwf   0xe5, 0          	MOVWF	POSTDEC1
002fca   5000     movf    0, 0, 0          	MOVF	r0x00, W
002fcc   6ee5     movwf   0xe5, 0          	MOVWF	POSTDEC1
002fce   eccd     call    0x679a, 0        	CALL	_digitalwrite
002fd0   f033
002fd2   52e6     movf    0xe6, 0x1, 0     	MOVF	POSTINC1, F
002fd4   52e6     movf    0xe6, 0x1, 0     	MOVF	POSTINC1, F
002fd6   0103     movlb   0x3              	BANKSEL	_i
                                           ;	.line	171; /home/yeison/Documentos/python/apps/pinguinoIDE/x.4/source/user.c	for (i=0;i<=TotalPines;i++){
002fd8   3f71     incfsz  0x71, 0x1, 0x1   	INCFSZ	_i, F, B
002fda   d001     bra     0x2fde           	BRA	_122465_DS_
                                           ; removed redundant BANKSEL
002fdc   2b72     incf    0x72, 0x1, 0x1   	INCF	(_i + 1), F, B
                                           _122465_DS_:
002fde   0103     movlb   0x3              	BANKSEL	(_i + 1)
002fe0   5172     movf    0x72, 0, 0x1     	MOVF	(_i + 1), W, B
002fe2   0f80     addlw   0x80             	ADDLW	0x80
002fe4   0f80     addlw   0x80             	ADDLW	0x80
002fe6   e102     bnz     0x2fec           	BNZ	_02435_DS_
002fe8   0e12     movlw   0x12             	MOVLW	0x12
                                           ; removed redundant BANKSEL
002fea   5d71     subwf   0x71, 0, 0x1     	SUBWF	_i, W, B
                                           _02435_DS_:
002fec   e3de     bnc     0x2faa           	BNC	_02195_DS_
002fee   d073     bra     0x30d6           	BRA	_02199_DS_
                                           _02129_DS_:
                                           ;	.line	177; /home/yeison/Documentos/python/apps/pinguinoIDE/x.4/source/user.c	else if (strncmp(lectura, "allLow", 6)==0){
002ff0   0e02     movlw   0x2              	MOVLW	HIGH(_lectura)
002ff2   6e01     movwf   0x1, 0           	MOVWF	r0x01
002ff4   0ed9     movlw   0xd9             	MOVLW	LOW(_lectura)
002ff6   6e00     movwf   0, 0             	MOVWF	r0x00
002ff8   0e80     movlw   0x80             	MOVLW	0x80
002ffa   6e02     movwf   0x2, 0           	MOVWF	r0x02
002ffc   0e00     movlw   0                	MOVLW	UPPER(__str_29)
002ffe   6e05     movwf   0x5, 0           	MOVWF	r0x05
003000   0e3f     movlw   0x3f             	MOVLW	HIGH(__str_29)
003002   6e04     movwf   0x4, 0           	MOVWF	r0x04
003004   0ee6     movlw   0xe6             	MOVLW	LOW(__str_29)
003006   6e03     movwf   0x3, 0           	MOVWF	r0x03
003008   0e00     movlw   0                	MOVLW	0x00
00300a   6ee5     movwf   0xe5, 0          	MOVWF	POSTDEC1
00300c   0e06     movlw   0x6              	MOVLW	0x06
00300e   6ee5     movwf   0xe5, 0          	MOVWF	POSTDEC1
003010   5005     movf    0x5, 0, 0        	MOVF	r0x05, W
003012   6ee5     movwf   0xe5, 0          	MOVWF	POSTDEC1
003014   5004     movf    0x4, 0, 0        	MOVF	r0x04, W
003016   6ee5     movwf   0xe5, 0          	MOVWF	POSTDEC1
003018   5003     movf    0x3, 0, 0        	MOVF	r0x03, W
00301a   6ee5     movwf   0xe5, 0          	MOVWF	POSTDEC1
00301c   5002     movf    0x2, 0, 0        	MOVF	r0x02, W
00301e   6ee5     movwf   0xe5, 0          	MOVWF	POSTDEC1
003020   5001     movf    0x1, 0, 0        	MOVF	r0x01, W
003022   6ee5     movwf   0xe5, 0          	MOVWF	POSTDEC1
003024   5000     movf    0, 0, 0          	MOVF	r0x00, W
003026   6ee5     movwf   0xe5, 0          	MOVWF	POSTDEC1
003028   ec21     call    0x6042, 0        	CALL	_strncmp
00302a   f030
00302c   6e00     movwf   0, 0             	MOVWF	r0x00
00302e   cff3     movff   0xff3, 0x1       	MOVFF	PRODL, r0x01
003030   f001
003032   0e08     movlw   0x8              	MOVLW	0x08
003034   26e1     addwf   0xe1, 0x1, 0     	ADDWF	FSR1L, F
003036   5000     movf    0, 0, 0          	MOVF	r0x00, W
003038   1001     iorwf   0x1, 0, 0        	IORWF	r0x01, W
00303a   e126     bnz     0x3088           	BNZ	_02126_DS_
00303c   0103     movlb   0x3              	BANKSEL	_i
                                           ;	.line	178; /home/yeison/Documentos/python/apps/pinguinoIDE/x.4/source/user.c	for (i=0;i<=TotalPines;i++){
00303e   6b71     clrf    0x71, 0x1        	CLRF	_i, B
                                           ; removed redundant BANKSEL
003040   6b72     clrf    0x72, 0x1        	CLRF	(_i + 1), B
                                           _02197_DS_:
003042   0103     movlb   0x3              	BANKSEL	_i
                                           ;	.line	179; /home/yeison/Documentos/python/apps/pinguinoIDE/x.4/source/user.c	pinmode(i,OUTPUT);
003044   5171     movf    0x71, 0, 0x1     	MOVF	_i, W, B
003046   6e00     movwf   0, 0             	MOVWF	r0x00
003048   0e00     movlw   0                	MOVLW	0x00
00304a   6ee5     movwf   0xe5, 0          	MOVWF	POSTDEC1
00304c   5000     movf    0, 0, 0          	MOVF	r0x00, W
00304e   6ee5     movwf   0xe5, 0          	MOVWF	POSTDEC1
003050   ec64     call    0x66c8, 0        	CALL	_pinmode
003052   f033
003054   52e6     movf    0xe6, 0x1, 0     	MOVF	POSTINC1, F
003056   52e6     movf    0xe6, 0x1, 0     	MOVF	POSTINC1, F
003058   0103     movlb   0x3              	BANKSEL	_i
                                           ;	.line	180; /home/yeison/Documentos/python/apps/pinguinoIDE/x.4/source/user.c	digitalwrite(i,LOW);
00305a   5171     movf    0x71, 0, 0x1     	MOVF	_i, W, B
00305c   6e00     movwf   0, 0             	MOVWF	r0x00
00305e   0e00     movlw   0                	MOVLW	0x00
003060   6ee5     movwf   0xe5, 0          	MOVWF	POSTDEC1
003062   5000     movf    0, 0, 0          	MOVF	r0x00, W
003064   6ee5     movwf   0xe5, 0          	MOVWF	POSTDEC1
003066   eccd     call    0x679a, 0        	CALL	_digitalwrite
003068   f033
00306a   52e6     movf    0xe6, 0x1, 0     	MOVF	POSTINC1, F
00306c   52e6     movf    0xe6, 0x1, 0     	MOVF	POSTINC1, F
00306e   0103     movlb   0x3              	BANKSEL	_i
                                           ;	.line	178; /home/yeison/Documentos/python/apps/pinguinoIDE/x.4/source/user.c	for (i=0;i<=TotalPines;i++){
003070   3f71     incfsz  0x71, 0x1, 0x1   	INCFSZ	_i, F, B
003072   d001     bra     0x3076           	BRA	_132466_DS_
                                           ; removed redundant BANKSEL
003074   2b72     incf    0x72, 0x1, 0x1   	INCF	(_i + 1), F, B
                                           _132466_DS_:
003076   0103     movlb   0x3              	BANKSEL	(_i + 1)
003078   5172     movf    0x72, 0, 0x1     	MOVF	(_i + 1), W, B
00307a   0f80     addlw   0x80             	ADDLW	0x80
00307c   0f80     addlw   0x80             	ADDLW	0x80
00307e   e102     bnz     0x3084           	BNZ	_02436_DS_
003080   0e12     movlw   0x12             	MOVLW	0x12
                                           ; removed redundant BANKSEL
003082   5d71     subwf   0x71, 0, 0x1     	SUBWF	_i, W, B
                                           _02436_DS_:
003084   e3de     bnc     0x3042           	BNC	_02197_DS_
003086   d027     bra     0x30d6           	BRA	_02199_DS_
                                           _02126_DS_:
                                           ;	.line	184; /home/yeison/Documentos/python/apps/pinguinoIDE/x.4/source/user.c	else if (strncmp(lectura, "reset", 5)==0)
003088   0e02     movlw   0x2              	MOVLW	HIGH(_lectura)
00308a   6e01     movwf   0x1, 0           	MOVWF	r0x01
00308c   0ed9     movlw   0xd9             	MOVLW	LOW(_lectura)
00308e   6e00     movwf   0, 0             	MOVWF	r0x00
003090   0e80     movlw   0x80             	MOVLW	0x80
003092   6e02     movwf   0x2, 0           	MOVWF	r0x02
003094   0e00     movlw   0                	MOVLW	UPPER(__str_30)
003096   6e05     movwf   0x5, 0           	MOVWF	r0x05
003098   0e3f     movlw   0x3f             	MOVLW	HIGH(__str_30)
00309a   6e04     movwf   0x4, 0           	MOVWF	r0x04
00309c   0eee     movlw   0xee             	MOVLW	LOW(__str_30)
00309e   6e03     movwf   0x3, 0           	MOVWF	r0x03
0030a0   0e00     movlw   0                	MOVLW	0x00
0030a2   6ee5     movwf   0xe5, 0          	MOVWF	POSTDEC1
0030a4   0e05     movlw   0x5              	MOVLW	0x05
0030a6   6ee5     movwf   0xe5, 0          	MOVWF	POSTDEC1
0030a8   5005     movf    0x5, 0, 0        	MOVF	r0x05, W
0030aa   6ee5     movwf   0xe5, 0          	MOVWF	POSTDEC1
0030ac   5004     movf    0x4, 0, 0        	MOVF	r0x04, W
0030ae   6ee5     movwf   0xe5, 0          	MOVWF	POSTDEC1
0030b0   5003     movf    0x3, 0, 0        	MOVF	r0x03, W
0030b2   6ee5     movwf   0xe5, 0          	MOVWF	POSTDEC1
0030b4   5002     movf    0x2, 0, 0        	MOVF	r0x02, W
0030b6   6ee5     movwf   0xe5, 0          	MOVWF	POSTDEC1
0030b8   5001     movf    0x1, 0, 0        	MOVF	r0x01, W
0030ba   6ee5     movwf   0xe5, 0          	MOVWF	POSTDEC1
0030bc   5000     movf    0, 0, 0          	MOVF	r0x00, W
0030be   6ee5     movwf   0xe5, 0          	MOVWF	POSTDEC1
0030c0   ec21     call    0x6042, 0        	CALL	_strncmp
0030c2   f030
0030c4   6e00     movwf   0, 0             	MOVWF	r0x00
0030c6   cff3     movff   0xff3, 0x1       	MOVFF	PRODL, r0x01
0030c8   f001
0030ca   0e08     movlw   0x8              	MOVLW	0x08
0030cc   26e1     addwf   0xe1, 0x1, 0     	ADDWF	FSR1L, F
0030ce   5000     movf    0, 0, 0          	MOVF	r0x00, W
0030d0   1001     iorwf   0x1, 0, 0        	IORWF	r0x01, W
0030d2   e101     bnz     0x30d6           	BNZ	_02199_DS_
0030d4   00ff     reset                    	reset 
                                           _02199_DS_:
0030d6   cfe4     movff   0xfe4, 0x5       	MOVFF	PREINC1, r0x05
0030d8   f005
0030da   cfe4     movff   0xfe4, 0x4       	MOVFF	PREINC1, r0x04
0030dc   f004
0030de   cfe4     movff   0xfe4, 0x3       	MOVFF	PREINC1, r0x03
0030e0   f003
0030e2   cfe4     movff   0xfe4, 0x2       	MOVFF	PREINC1, r0x02
0030e4   f002
0030e6   cfe4     movff   0xfe4, 0x1       	MOVFF	PREINC1, r0x01
0030e8   f001
0030ea   cfe4     movff   0xfe4, 0         	MOVFF	PREINC1, r0x00
0030ec   f000
0030ee   cfe4     movff   0xfe4, 0xfd9     	MOVFF	PREINC1, FSR2L
0030f0   ffd9
0030f2   0012     return  0                	RETURN	
                                           
                                           ; ; Starting pCode block
                                           S_main__leer_cadena	code
                                           _leer_cadena:
                                           ;	.line	19; /home/yeison/Documentos/python/apps/pinguinoIDE/x.4/source/user.c	void leer_cadena() {
0073a6   c000     movff   0, 0xfe5         	MOVFF	r0x00, POSTDEC1
0073a8   ffe5
0073aa   c001     movff   0x1, 0xfe5       	MOVFF	r0x01, POSTDEC1
0073ac   ffe5
0073ae   c002     movff   0x2, 0xfe5       	MOVFF	r0x02, POSTDEC1
0073b0   ffe5
0073b2   c003     movff   0x3, 0xfe5       	MOVFF	r0x03, POSTDEC1
0073b4   ffe5
0073b6   c004     movff   0x4, 0xfe5       	MOVFF	r0x04, POSTDEC1
0073b8   ffe5
                                           ;	.line	22; /home/yeison/Documentos/python/apps/pinguinoIDE/x.4/source/user.c	int cont=1;
0073ba   0e01     movlw   0x1              	MOVLW	0x01
0073bc   6e00     movwf   0, 0             	MOVWF	r0x00
0073be   6a01     clrf    0x1, 0           	CLRF	r0x01
                                           _02061_DS_:
                                           ;	.line	23; /home/yeison/Documentos/python/apps/pinguinoIDE/x.4/source/user.c	while (cont){    
0073c0   5000     movf    0, 0, 0          	MOVF	r0x00, W
0073c2   1001     iorwf   0x1, 0, 0        	IORWF	r0x01, W
0073c4   e01b     bz      0x73fc           	BZ	_02063_DS_
                                           ;	.line	24; /home/yeison/Documentos/python/apps/pinguinoIDE/x.4/source/user.c	receivedbyte=CDCgets(valor_leido);
0073c6   0e80     movlw   0x80             	MOVLW	0x80
                                           ; #	MOVWF	r0x04
                                           ; #	MOVF	r0x04, W
0073c8   6ee5     movwf   0xe5, 0          	MOVWF	POSTDEC1
0073ca   0e02     movlw   0x2              	MOVLW	HIGH(_leer_cadena_valor_leido_1_305)
0073cc   6ee5     movwf   0xe5, 0          	MOVWF	POSTDEC1
0073ce   0ec4     movlw   0xc4             	MOVLW	LOW(_leer_cadena_valor_leido_1_305)
0073d0   6ee5     movwf   0xe5, 0          	MOVWF	POSTDEC1
0073d2   ec63     call    0x5ac6, 0        	CALL	_CDCgets
0073d4   f02d
0073d6   6e02     movwf   0x2, 0           	MOVWF	r0x02
0073d8   0e03     movlw   0x3              	MOVLW	0x03
0073da   26e1     addwf   0xe1, 0x1, 0     	ADDWF	FSR1L, F
                                           ;	.line	25; /home/yeison/Documentos/python/apps/pinguinoIDE/x.4/source/user.c	valor_leido[receivedbyte]=0;
0073dc   0ec4     movlw   0xc4             	MOVLW	LOW(_leer_cadena_valor_leido_1_305)
0073de   2402     addwf   0x2, 0, 0        	ADDWF	r0x02, W
0073e0   6e03     movwf   0x3, 0           	MOVWF	r0x03
0073e2   6a04     clrf    0x4, 0           	CLRF	r0x04
0073e4   0e02     movlw   0x2              	MOVLW	HIGH(_leer_cadena_valor_leido_1_305)
0073e6   2204     addwfc  0x4, 0x1, 0      	ADDWFC	r0x04, F
0073e8   c003     movff   0x3, 0xfe9       	MOVFF	r0x03, FSR0L
0073ea   ffe9
0073ec   c004     movff   0x4, 0xfea       	MOVFF	r0x04, FSR0H
0073ee   ffea
0073f0   6aef     clrf    0xef, 0          	CLRF	INDF0
                                           ;	.line	26; /home/yeison/Documentos/python/apps/pinguinoIDE/x.4/source/user.c	if (receivedbyte>0) cont=0;}
0073f2   5002     movf    0x2, 0, 0        	MOVF	r0x02, W
0073f4   e0e5     bz      0x73c0           	BZ	_02061_DS_
0073f6   6a00     clrf    0, 0             	CLRF	r0x00
0073f8   6a01     clrf    0x1, 0           	CLRF	r0x01
0073fa   d7e2     bra     0x73c0           	BRA	_02061_DS_
                                           _02063_DS_:
                                           ;	.line	27; /home/yeison/Documentos/python/apps/pinguinoIDE/x.4/source/user.c	strcpy(lectura,valor_leido);}
0073fc   0e80     movlw   0x80             	MOVLW	0x80
                                           ; #	MOVWF	r0x05
                                           ; #	MOVF	r0x05, W
0073fe   6ee5     movwf   0xe5, 0          	MOVWF	POSTDEC1
007400   0e02     movlw   0x2              	MOVLW	HIGH(_leer_cadena_valor_leido_1_305)
007402   6ee5     movwf   0xe5, 0          	MOVWF	POSTDEC1
007404   0ec4     movlw   0xc4             	MOVLW	LOW(_leer_cadena_valor_leido_1_305)
007406   6ee5     movwf   0xe5, 0          	MOVWF	POSTDEC1
007408   0e80     movlw   0x80             	MOVLW	0x80
00740a   6ee5     movwf   0xe5, 0          	MOVWF	POSTDEC1
00740c   0e02     movlw   0x2              	MOVLW	HIGH(_lectura)
00740e   6ee5     movwf   0xe5, 0          	MOVWF	POSTDEC1
007410   0ed9     movlw   0xd9             	MOVLW	LOW(_lectura)
007412   6ee5     movwf   0xe5, 0          	MOVWF	POSTDEC1
007414   ec9f     call    0x693e, 0        	CALL	_strcpy
007416   f034
007418   0e06     movlw   0x6              	MOVLW	0x06
00741a   26e1     addwf   0xe1, 0x1, 0     	ADDWF	FSR1L, F
00741c   cfe4     movff   0xfe4, 0x4       	MOVFF	PREINC1, r0x04
00741e   f004
007420   cfe4     movff   0xfe4, 0x3       	MOVFF	PREINC1, r0x03
007422   f003
007424   cfe4     movff   0xfe4, 0x2       	MOVFF	PREINC1, r0x02
007426   f002
007428   cfe4     movff   0xfe4, 0x1       	MOVFF	PREINC1, r0x01
00742a   f001
00742c   cfe4     movff   0xfe4, 0         	MOVFF	PREINC1, r0x00
00742e   f000
007430   0012     return  0                	RETURN	
                                           
                                           ; ; Starting pCode block
                                           S_main__setup	code
                                           _setup:
                                           ;	.line	17; /home/yeison/Documentos/python/apps/pinguinoIDE/x.4/source/user.c	}
007a7a   0012     return  0                	RETURN	
                                           
                                           ; ; Starting pCode block
                                           S_main__IOsetRemap	code
                                           _IOsetRemap:
                                           ;	.line	157; /home/yeison/Documentos/python/apps/pinguinoIDE/x.4/p8/pinguino/core/io.c	void IOsetRemap(void)
007a42   cfd9     movff   0xfd9, 0xfe5     	MOVFF	FSR2L, POSTDEC1
007a44   ffe5
007a46   cfe1     movff   0xfe1, 0xfd9     	MOVFF	FSR1L, FSR2L
007a48   ffd9
007a4a   0000     nop                      	nop 
007a4c   cfe4     movff   0xfe4, 0xfd9     	MOVFF	PREINC1, FSR2L
007a4e   ffd9
007a50   0012     return  0                	RETURN	
                                           
                                           ; ; Starting pCode block
                                           S_main__IOsetDigital	code
                                           _IOsetDigital:
                                           ;	.line	46; /home/yeison/Documentos/python/apps/pinguinoIDE/x.4/p8/pinguino/core/io.c	ADCON1 = 0x0F;				// AN0 to AN12 Digital I/O
007a1a   0e0f     movlw   0xf              	MOVLW	0x0f
007a1c   6ec1     movwf   0xc1, 0          	MOVWF	_ADCON1
                                           ;	.line	47; /home/yeison/Documentos/python/apps/pinguinoIDE/x.4/p8/pinguino/core/io.c	CMCON = 0x07;               // Comparators as Digital I/O
007a1e   0e07     movlw   0x7              	MOVLW	0x07
007a20   6eb4     movwf   0xb4, 0          	MOVWF	_CMCON
                                           ;	.line	50; /home/yeison/Documentos/python/apps/pinguinoIDE/x.4/p8/pinguino/core/io.c	TRISA = 0x00;
007a22   6a92     clrf    0x92, 0          	CLRF	_TRISA
                                           ;	.line	51; /home/yeison/Documentos/python/apps/pinguinoIDE/x.4/p8/pinguino/core/io.c	TRISB = 0x00;
007a24   6a93     clrf    0x93, 0          	CLRF	_TRISB
                                           ;	.line	52; /home/yeison/Documentos/python/apps/pinguinoIDE/x.4/p8/pinguino/core/io.c	TRISC = 0x00;
007a26   6a94     clrf    0x94, 0          	CLRF	_TRISC
                                           ;	.line	59; /home/yeison/Documentos/python/apps/pinguinoIDE/x.4/p8/pinguino/core/io.c	LATA  = 0x00;
007a28   6a89     clrf    0x89, 0          	CLRF	_LATA
                                           ;	.line	60; /home/yeison/Documentos/python/apps/pinguinoIDE/x.4/p8/pinguino/core/io.c	LATB  = 0x00;
007a2a   6a8a     clrf    0x8a, 0          	CLRF	_LATB
                                           ;	.line	61; /home/yeison/Documentos/python/apps/pinguinoIDE/x.4/p8/pinguino/core/io.c	LATC  = 0x00;
007a2c   6a8b     clrf    0x8b, 0          	CLRF	_LATC
007a2e   0012     return  0                	RETURN	
                                           
                                           ; ; Starting pCode block
                                           S_main__PWM_set_percent_dutycycle	code
                                           _PWM_set_percent_dutycycle:
                                           ;	.line	173; /home/yeison/Documentos/python/apps/pinguinoIDE/x.4/p8/pinguino/core/pwm.c	void PWM_set_percent_dutycycle(u8 pin, u8 percent)
0065f0   cfd9     movff   0xfd9, 0xfe5     	MOVFF	FSR2L, POSTDEC1
0065f2   ffe5
0065f4   cfe1     movff   0xfe1, 0xfd9     	MOVFF	FSR1L, FSR2L
0065f6   ffd9
0065f8   c000     movff   0, 0xfe5         	MOVFF	r0x00, POSTDEC1
0065fa   ffe5
0065fc   c001     movff   0x1, 0xfe5       	MOVFF	r0x01, POSTDEC1
0065fe   ffe5
006600   c002     movff   0x2, 0xfe5       	MOVFF	r0x02, POSTDEC1
006602   ffe5
006604   c003     movff   0x3, 0xfe5       	MOVFF	r0x03, POSTDEC1
006606   ffe5
006608   c004     movff   0x4, 0xfe5       	MOVFF	r0x04, POSTDEC1
00660a   ffe5
00660c   c005     movff   0x5, 0xfe5       	MOVFF	r0x05, POSTDEC1
00660e   ffe5
006610   0e02     movlw   0x2              	MOVLW	0x02
006612   cfdb     movff   0xfdb, 0         	MOVFF	PLUSW2, r0x00
006614   f000
006616   0e03     movlw   0x3              	MOVLW	0x03
006618   cfdb     movff   0xfdb, 0x1       	MOVFF	PLUSW2, r0x01
00661a   f001
                                           ;	.line	176; /home/yeison/Documentos/python/apps/pinguinoIDE/x.4/p8/pinguino/core/pwm.c	if (percent == 0)
00661c   5001     movf    0x1, 0, 0        	MOVF	r0x01, W
00661e   e103     bnz     0x6626           	BNZ	_02029_DS_
                                           ;	.line	178; /home/yeison/Documentos/python/apps/pinguinoIDE/x.4/p8/pinguino/core/pwm.c	duty = 0;
006620   6a02     clrf    0x2, 0           	CLRF	r0x02
006622   6a03     clrf    0x3, 0           	CLRF	r0x03
006624   d030     bra     0x6686           	BRA	_02030_DS_
                                           _02029_DS_:
                                           ;	.line	180; /home/yeison/Documentos/python/apps/pinguinoIDE/x.4/p8/pinguino/core/pwm.c	else if (percent >= 100)
006626   0e64     movlw   0x64             	MOVLW	0x64
006628   5c01     subwf   0x1, 0, 0        	SUBWF	r0x01, W
00662a   e308     bnc     0x663c           	BNC	_02026_DS_
00662c   0103     movlb   0x3              	BANKSEL	__pr2_plus1
                                           ;	.line	182; /home/yeison/Documentos/python/apps/pinguinoIDE/x.4/p8/pinguino/core/pwm.c	duty = _pr2_plus1 - 1;
00662e   512a     movf    0x2a, 0, 0x1     	MOVF	__pr2_plus1, W, B
006630   0fff     addlw   0xff             	ADDLW	0xff
006632   6e02     movwf   0x2, 0           	MOVWF	r0x02
006634   0eff     movlw   0xff             	MOVLW	0xff
                                           ; removed redundant BANKSEL
006636   212b     addwfc  0x2b, 0, 0x1     	ADDWFC	(__pr2_plus1 + 1), W, B
006638   6e03     movwf   0x3, 0           	MOVWF	r0x03
00663a   d025     bra     0x6686           	BRA	_02030_DS_
                                           _02026_DS_:
                                           ;	.line	186; /home/yeison/Documentos/python/apps/pinguinoIDE/x.4/p8/pinguino/core/pwm.c	duty = percent * (_pr2_plus1 / 4) / 25;	// (factor PR2/100)
00663c   90d8     bcf     0xd8, 0, 0       	BCF	STATUS, 0
00663e   0103     movlb   0x3              	BANKSEL	(__pr2_plus1 + 1)
006640   312b     rrcf    0x2b, 0, 0x1     	RRCF	(__pr2_plus1 + 1), W, B
006642   6e05     movwf   0x5, 0           	MOVWF	r0x05
                                           ; removed redundant BANKSEL
006644   312a     rrcf    0x2a, 0, 0x1     	RRCF	__pr2_plus1, W, B
006646   6e04     movwf   0x4, 0           	MOVWF	r0x04
006648   90d8     bcf     0xd8, 0, 0       	BCF	STATUS, 0
00664a   3205     rrcf    0x5, 0x1, 0      	RRCF	r0x05, F
00664c   3204     rrcf    0x4, 0x1, 0      	RRCF	r0x04, F
00664e   5005     movf    0x5, 0, 0        	MOVF	r0x05, W
006650   6ee5     movwf   0xe5, 0          	MOVWF	POSTDEC1
006652   5004     movf    0x4, 0, 0        	MOVF	r0x04, W
006654   6ee5     movwf   0xe5, 0          	MOVWF	POSTDEC1
006656   6ae5     clrf    0xe5, 0          	CLRF	POSTDEC1
006658   5001     movf    0x1, 0, 0        	MOVF	r0x01, W
00665a   6ee5     movwf   0xe5, 0          	MOVWF	POSTDEC1
00665c   ec27     call    0x4e, 0          	CALL	__mulint
00665e   f000
006660   6e01     movwf   0x1, 0           	MOVWF	r0x01
006662   cff3     movff   0xff3, 0x4       	MOVFF	PRODL, r0x04
006664   f004
006666   0e04     movlw   0x4              	MOVLW	0x04
006668   26e1     addwf   0xe1, 0x1, 0     	ADDWF	FSR1L, F
00666a   6ae5     clrf    0xe5, 0          	CLRF	POSTDEC1
00666c   0e19     movlw   0x19             	MOVLW	0x19
00666e   6ee5     movwf   0xe5, 0          	MOVWF	POSTDEC1
006670   5004     movf    0x4, 0, 0        	MOVF	r0x04, W
006672   6ee5     movwf   0xe5, 0          	MOVWF	POSTDEC1
006674   5001     movf    0x1, 0, 0        	MOVF	r0x01, W
006676   6ee5     movwf   0xe5, 0          	MOVWF	POSTDEC1
006678   ec7b     call    0x6cf6, 0        	CALL	__divuint
00667a   f036
00667c   6e02     movwf   0x2, 0           	MOVWF	r0x02
00667e   cff3     movff   0xff3, 0x3       	MOVFF	PRODL, r0x03
006680   f003
006682   0e04     movlw   0x4              	MOVLW	0x04
006684   26e1     addwf   0xe1, 0x1, 0     	ADDWF	FSR1L, F
                                           _02030_DS_:
                                           ;	.line	188; /home/yeison/Documentos/python/apps/pinguinoIDE/x.4/p8/pinguino/core/pwm.c	PWM_set_dutycycle(pin, duty << 2);
006686   5002     movf    0x2, 0, 0        	MOVF	r0x02, W
006688   6e01     movwf   0x1, 0           	MOVWF	r0x01
00668a   2601     addwf   0x1, 0x1, 0      	ADDWF	r0x01, F
00668c   3403     rlcf    0x3, 0, 0        	RLCF	r0x03, W
00668e   6e04     movwf   0x4, 0           	MOVWF	r0x04
006690   90d8     bcf     0xd8, 0, 0       	BCF	STATUS, 0
006692   3601     rlcf    0x1, 0x1, 0      	RLCF	r0x01, F
006694   3604     rlcf    0x4, 0x1, 0      	RLCF	r0x04, F
006696   5004     movf    0x4, 0, 0        	MOVF	r0x04, W
006698   6ee5     movwf   0xe5, 0          	MOVWF	POSTDEC1
00669a   5001     movf    0x1, 0, 0        	MOVF	r0x01, W
00669c   6ee5     movwf   0xe5, 0          	MOVWF	POSTDEC1
00669e   5000     movf    0, 0, 0          	MOVF	r0x00, W
0066a0   6ee5     movwf   0xe5, 0          	MOVWF	POSTDEC1
0066a2   eca6     call    0x634c, 0        	CALL	_PWM_set_dutycycle
0066a4   f031
0066a6   0e03     movlw   0x3              	MOVLW	0x03
0066a8   26e1     addwf   0xe1, 0x1, 0     	ADDWF	FSR1L, F
0066aa   cfe4     movff   0xfe4, 0x5       	MOVFF	PREINC1, r0x05
0066ac   f005
0066ae   cfe4     movff   0xfe4, 0x4       	MOVFF	PREINC1, r0x04
0066b0   f004
0066b2   cfe4     movff   0xfe4, 0x3       	MOVFF	PREINC1, r0x03
0066b4   f003
0066b6   cfe4     movff   0xfe4, 0x2       	MOVFF	PREINC1, r0x02
0066b8   f002
0066ba   cfe4     movff   0xfe4, 0x1       	MOVFF	PREINC1, r0x01
0066bc   f001
0066be   cfe4     movff   0xfe4, 0         	MOVFF	PREINC1, r0x00
0066c0   f000
0066c2   cfe4     movff   0xfe4, 0xfd9     	MOVFF	PREINC1, FSR2L
0066c4   ffd9
0066c6   0012     return  0                	RETURN	
                                           
                                           ; ; Starting pCode block
                                           S_main__PWM_set_dutycycle	code
                                           _PWM_set_dutycycle:
                                           ;	.line	115; /home/yeison/Documentos/python/apps/pinguinoIDE/x.4/p8/pinguino/core/pwm.c	void PWM_set_dutycycle(u8 pin, u16 duty)
00634c   cfd9     movff   0xfd9, 0xfe5     	MOVFF	FSR2L, POSTDEC1
00634e   ffe5
006350   cfe1     movff   0xfe1, 0xfd9     	MOVFF	FSR1L, FSR2L
006352   ffd9
006354   c000     movff   0, 0xfe5         	MOVFF	r0x00, POSTDEC1
006356   ffe5
006358   c001     movff   0x1, 0xfe5       	MOVFF	r0x01, POSTDEC1
00635a   ffe5
00635c   c002     movff   0x2, 0xfe5       	MOVFF	r0x02, POSTDEC1
00635e   ffe5
006360   c003     movff   0x3, 0xfe5       	MOVFF	r0x03, POSTDEC1
006362   ffe5
006364   c004     movff   0x4, 0xfe5       	MOVFF	r0x04, POSTDEC1
006366   ffe5
006368   c005     movff   0x5, 0xfe5       	MOVFF	r0x05, POSTDEC1
00636a   ffe5
00636c   0e02     movlw   0x2              	MOVLW	0x02
00636e   cfdb     movff   0xfdb, 0         	MOVFF	PLUSW2, r0x00
006370   f000
006372   0e03     movlw   0x3              	MOVLW	0x03
006374   cfdb     movff   0xfdb, 0x1       	MOVFF	PLUSW2, r0x01
006376   f001
006378   0e04     movlw   0x4              	MOVLW	0x04
00637a   cfdb     movff   0xfdb, 0x2       	MOVFF	PLUSW2, r0x02
00637c   f002
                                           ;	.line	119; /home/yeison/Documentos/python/apps/pinguinoIDE/x.4/p8/pinguino/core/pwm.c	if (duty > 1023) duty = 1023;		// upper limit (10-bit)
00637e   5002     movf    0x2, 0, 0        	MOVF	r0x02, W
006380   0bfc     andlw   0xfc             	ANDLW	0xfc
006382   e003     bz      0x638a           	BZ	_01991_DS_
006384   6801     setf    0x1, 0           	SETF	r0x01
006386   0e03     movlw   0x3              	MOVLW	0x03
006388   6e02     movwf   0x2, 0           	MOVWF	r0x02
                                           _01991_DS_:
                                           ;	.line	122; /home/yeison/Documentos/python/apps/pinguinoIDE/x.4/p8/pinguino/core/pwm.c	pinmode(pin, INPUT);				// PWM pin as INPUT
00638a   0e01     movlw   0x1              	MOVLW	0x01
00638c   6ee5     movwf   0xe5, 0          	MOVWF	POSTDEC1
00638e   5000     movf    0, 0, 0          	MOVF	r0x00, W
006390   6ee5     movwf   0xe5, 0          	MOVWF	POSTDEC1
006392   ec64     call    0x66c8, 0        	CALL	_pinmode
006394   f033
006396   52e6     movf    0xe6, 0x1, 0     	MOVF	POSTINC1, F
006398   52e6     movf    0xe6, 0x1, 0     	MOVF	POSTINC1, F
00639a   0103     movlb   0x3              	BANKSEL	__pr2_plus1
                                           ;	.line	124; /home/yeison/Documentos/python/apps/pinguinoIDE/x.4/p8/pinguino/core/pwm.c	PR2 = _pr2_plus1 - 1;				// set PR2
00639c   512a     movf    0x2a, 0, 0x1     	MOVF	__pr2_plus1, W, B
00639e   6e03     movwf   0x3, 0           	MOVWF	r0x03
0063a0   0403     decf    0x3, 0, 0        	DECF	r0x03, W
0063a2   6ecb     movwf   0xcb, 0          	MOVWF	_PR2
                                           ;	.line	126; /home/yeison/Documentos/python/apps/pinguinoIDE/x.4/p8/pinguino/core/pwm.c	switch (pin)
0063a4   5000     movf    0, 0, 0          	MOVF	r0x00, W
0063a6   0a0b     xorlw   0xb              	XORLW	0x0b
0063a8   e017     bz      0x63d8           	BZ	_01993_DS_
0063aa   5000     movf    0, 0, 0          	MOVF	r0x00, W
0063ac   0a0c     xorlw   0xc              	XORLW	0x0c
0063ae   e127     bnz     0x63fe           	BNZ	_01995_DS_
                                           ;	.line	130; /home/yeison/Documentos/python/apps/pinguinoIDE/x.4/p8/pinguino/core/pwm.c	CCP1CON = 0b00001111;
0063b0   0e0f     movlw   0xf              	MOVLW	0x0f
0063b2   6ebd     movwf   0xbd, 0          	MOVWF	_CCP1CON
                                           ;	.line	132; /home/yeison/Documentos/python/apps/pinguinoIDE/x.4/p8/pinguino/core/pwm.c	temp = duty & 0b00000011;		// extract 2 LSbits of the duty
0063b4   0e03     movlw   0x3              	MOVLW	0x03
0063b6   1401     andwf   0x1, 0, 0        	ANDWF	r0x01, W
0063b8   6e03     movwf   0x3, 0           	MOVWF	r0x03
0063ba   6a04     clrf    0x4, 0           	CLRF	r0x04
                                           ;	.line	133; /home/yeison/Documentos/python/apps/pinguinoIDE/x.4/p8/pinguino/core/pwm.c	temp <<= 4;						// shift left 4 bits
0063bc   3803     swapf   0x3, 0, 0        	SWAPF	r0x03, W
0063be   0bf0     andlw   0xf0             	ANDLW	0xf0
                                           ; #	MOVWF	r0x03
                                           ; #	MOVF	r0x03, W
                                           ;	.line	134; /home/yeison/Documentos/python/apps/pinguinoIDE/x.4/p8/pinguino/core/pwm.c	CCP1CON |= temp;				// put in CCP2CON 4:5
0063c0   12bd     iorwf   0xbd, 0x1, 0     	IORWF	_CCP1CON, F
                                           ;	.line	135; /home/yeison/Documentos/python/apps/pinguinoIDE/x.4/p8/pinguino/core/pwm.c	CCPR1L = duty >> 2;				// 8 MSbits of the duty
0063c2   90d8     bcf     0xd8, 0, 0       	BCF	STATUS, 0
0063c4   3002     rrcf    0x2, 0, 0        	RRCF	r0x02, W
0063c6   6e05     movwf   0x5, 0           	MOVWF	r0x05
0063c8   3001     rrcf    0x1, 0, 0        	RRCF	r0x01, W
0063ca   6e04     movwf   0x4, 0           	MOVWF	r0x04
0063cc   90d8     bcf     0xd8, 0, 0       	BCF	STATUS, 0
0063ce   3205     rrcf    0x5, 0x1, 0      	RRCF	r0x05, F
0063d0   3204     rrcf    0x4, 0x1, 0      	RRCF	r0x04, F
0063d2   5004     movf    0x4, 0, 0        	MOVF	r0x04, W
0063d4   6ebe     movwf   0xbe, 0          	MOVWF	_CCPR1L
                                           ;	.line	136; /home/yeison/Documentos/python/apps/pinguinoIDE/x.4/p8/pinguino/core/pwm.c	break;
0063d6   d013     bra     0x63fe           	BRA	_01995_DS_
                                           _01993_DS_:
                                           ;	.line	139; /home/yeison/Documentos/python/apps/pinguinoIDE/x.4/p8/pinguino/core/pwm.c	CCP2CON = 0b00001111;			// reset also 2 LSbits of duty cycle
0063d8   0e0f     movlw   0xf              	MOVLW	0x0f
0063da   6eba     movwf   0xba, 0          	MOVWF	_CCP2CON
                                           ;	.line	141; /home/yeison/Documentos/python/apps/pinguinoIDE/x.4/p8/pinguino/core/pwm.c	temp = duty & 0b00000011;		// extract 2 LSbits of duty
0063dc   0e03     movlw   0x3              	MOVLW	0x03
0063de   1401     andwf   0x1, 0, 0        	ANDWF	r0x01, W
0063e0   6e04     movwf   0x4, 0           	MOVWF	r0x04
0063e2   6a05     clrf    0x5, 0           	CLRF	r0x05
0063e4   5004     movf    0x4, 0, 0        	MOVF	r0x04, W
0063e6   6e03     movwf   0x3, 0           	MOVWF	r0x03
                                           ;	.line	142; /home/yeison/Documentos/python/apps/pinguinoIDE/x.4/p8/pinguino/core/pwm.c	temp <<= 4;						// shift left 4 bits
0063e8   3803     swapf   0x3, 0, 0        	SWAPF	r0x03, W
0063ea   0bf0     andlw   0xf0             	ANDLW	0xf0
                                           ; #	MOVWF	r0x03
                                           ; #	MOVF	r0x03, W
                                           ;	.line	143; /home/yeison/Documentos/python/apps/pinguinoIDE/x.4/p8/pinguino/core/pwm.c	CCP2CON |= temp;				// put in CCP2CON 4:5  (DCBx1 and DCBx0)
0063ec   12ba     iorwf   0xba, 0x1, 0     	IORWF	_CCP2CON, F
                                           ;	.line	144; /home/yeison/Documentos/python/apps/pinguinoIDE/x.4/p8/pinguino/core/pwm.c	CCPR2L = duty >> 2;				// 8 MSbits of duty
0063ee   90d8     bcf     0xd8, 0, 0       	BCF	STATUS, 0
0063f0   3202     rrcf    0x2, 0x1, 0      	RRCF	r0x02, F
0063f2   3201     rrcf    0x1, 0x1, 0      	RRCF	r0x01, F
0063f4   90d8     bcf     0xd8, 0, 0       	BCF	STATUS, 0
0063f6   3202     rrcf    0x2, 0x1, 0      	RRCF	r0x02, F
0063f8   3201     rrcf    0x1, 0x1, 0      	RRCF	r0x01, F
0063fa   5001     movf    0x1, 0, 0        	MOVF	r0x01, W
0063fc   6ebb     movwf   0xbb, 0          	MOVWF	_CCPR2L
                                           _01995_DS_:
                                           ;	.line	153; /home/yeison/Documentos/python/apps/pinguinoIDE/x.4/p8/pinguino/core/pwm.c	intUsed[INT_TMR2] = INT_USED;		// tell interrupt.c we use TMR2
0063fe   0e01     movlw   0x1              	MOVLW	0x01
006400   0102     movlb   0x2              	BANKSEL	(_intUsed + 2)
006402   6fa5     movwf   0xa5, 0x1        	MOVWF	(_intUsed + 2), B
                                           ;	.line	155; /home/yeison/Documentos/python/apps/pinguinoIDE/x.4/p8/pinguino/core/pwm.c	T2CON = _t2con;						// Timer2 prescaler
006404   c37e     movff   0x37e, 0xfca     	MOVFF	__t2con, _T2CON
006406   ffca
                                           ;	.line	156; /home/yeison/Documentos/python/apps/pinguinoIDE/x.4/p8/pinguino/core/pwm.c	T2CONbits.TMR2ON = ON;				// enable Timer2
006408   84ca     bsf     0xca, 0x2, 0     	BSF	_T2CONbits, 2
                                           _01996_DS_:
                                           ;	.line	158; /home/yeison/Documentos/python/apps/pinguinoIDE/x.4/p8/pinguino/core/pwm.c	while (PIR1bits.TMR2IF == 0);		// Wait until TMR2 overflows
00640a   a29e     btfss   0x9e, 0x1, 0     	BTFSS	_PIR1bits, 1
00640c   d7fe     bra     0x640a           	BRA	_01996_DS_
                                           ;	.line	159; /home/yeison/Documentos/python/apps/pinguinoIDE/x.4/p8/pinguino/core/pwm.c	pinmode(pin, OUTPUT);				// PWM pin as OUTPUT
00640e   6ae5     clrf    0xe5, 0          	CLRF	POSTDEC1
006410   5000     movf    0, 0, 0          	MOVF	r0x00, W
006412   6ee5     movwf   0xe5, 0          	MOVWF	POSTDEC1
006414   ec64     call    0x66c8, 0        	CALL	_pinmode
006416   f033
006418   52e6     movf    0xe6, 0x1, 0     	MOVF	POSTINC1, F
00641a   52e6     movf    0xe6, 0x1, 0     	MOVF	POSTINC1, F
00641c   cfe4     movff   0xfe4, 0x5       	MOVFF	PREINC1, r0x05
00641e   f005
006420   cfe4     movff   0xfe4, 0x4       	MOVFF	PREINC1, r0x04
006422   f004
006424   cfe4     movff   0xfe4, 0x3       	MOVFF	PREINC1, r0x03
006426   f003
006428   cfe4     movff   0xfe4, 0x2       	MOVFF	PREINC1, r0x02
00642a   f002
00642c   cfe4     movff   0xfe4, 0x1       	MOVFF	PREINC1, r0x01
00642e   f001
006430   cfe4     movff   0xfe4, 0         	MOVFF	PREINC1, r0x00
006432   f000
006434   cfe4     movff   0xfe4, 0xfd9     	MOVFF	PREINC1, FSR2L
006436   ffd9
006438   0012     return  0                	RETURN	
                                           
                                           ; ; Starting pCode block
                                           S_main__PWM_set_frequency	code
                                           _PWM_set_frequency:
                                           ;	.line	72; /home/yeison/Documentos/python/apps/pinguinoIDE/x.4/p8/pinguino/core/pwm.c	void PWM_set_frequency(u32 freq)
005e18   cfd9     movff   0xfd9, 0xfe5     	MOVFF	FSR2L, POSTDEC1
005e1a   ffe5
005e1c   cfe1     movff   0xfe1, 0xfd9     	MOVFF	FSR1L, FSR2L
005e1e   ffd9
005e20   c000     movff   0, 0xfe5         	MOVFF	r0x00, POSTDEC1
005e22   ffe5
005e24   c001     movff   0x1, 0xfe5       	MOVFF	r0x01, POSTDEC1
005e26   ffe5
005e28   c002     movff   0x2, 0xfe5       	MOVFF	r0x02, POSTDEC1
005e2a   ffe5
005e2c   c003     movff   0x3, 0xfe5       	MOVFF	r0x03, POSTDEC1
005e2e   ffe5
005e30   c004     movff   0x4, 0xfe5       	MOVFF	r0x04, POSTDEC1
005e32   ffe5
005e34   c005     movff   0x5, 0xfe5       	MOVFF	r0x05, POSTDEC1
005e36   ffe5
005e38   c006     movff   0x6, 0xfe5       	MOVFF	r0x06, POSTDEC1
005e3a   ffe5
005e3c   c007     movff   0x7, 0xfe5       	MOVFF	r0x07, POSTDEC1
005e3e   ffe5
005e40   0e02     movlw   0x2              	MOVLW	0x02
005e42   cfdb     movff   0xfdb, 0         	MOVFF	PLUSW2, r0x00
005e44   f000
005e46   0e03     movlw   0x3              	MOVLW	0x03
005e48   cfdb     movff   0xfdb, 0x1       	MOVFF	PLUSW2, r0x01
005e4a   f001
005e4c   0e04     movlw   0x4              	MOVLW	0x04
005e4e   cfdb     movff   0xfdb, 0x2       	MOVFF	PLUSW2, r0x02
005e50   f002
005e52   0e05     movlw   0x5              	MOVLW	0x05
005e54   cfdb     movff   0xfdb, 0x3       	MOVFF	PLUSW2, r0x03
005e56   f003
                                           ;	.line	75; /home/yeison/Documentos/python/apps/pinguinoIDE/x.4/p8/pinguino/core/pwm.c	_pr2_plus1 = SystemGetClock() / 4 / freq;	// FOSC / (4 * PWM Frequency)
005e58   90d8     bcf     0xd8, 0, 0       	BCF	STATUS, 0
005e5a   0103     movlb   0x3              	BANKSEL	(__cpu_clock_ + 3)
005e5c   3129     rrcf    0x29, 0, 0x1     	RRCF	(__cpu_clock_ + 3), W, B
005e5e   6e07     movwf   0x7, 0           	MOVWF	r0x07
                                           ; removed redundant BANKSEL
005e60   3128     rrcf    0x28, 0, 0x1     	RRCF	(__cpu_clock_ + 2), W, B
005e62   6e06     movwf   0x6, 0           	MOVWF	r0x06
                                           ; removed redundant BANKSEL
005e64   3127     rrcf    0x27, 0, 0x1     	RRCF	(__cpu_clock_ + 1), W, B
005e66   6e05     movwf   0x5, 0           	MOVWF	r0x05
                                           ; removed redundant BANKSEL
005e68   3126     rrcf    0x26, 0, 0x1     	RRCF	__cpu_clock_, W, B
005e6a   6e04     movwf   0x4, 0           	MOVWF	r0x04
005e6c   90d8     bcf     0xd8, 0, 0       	BCF	STATUS, 0
005e6e   3207     rrcf    0x7, 0x1, 0      	RRCF	r0x07, F
005e70   3206     rrcf    0x6, 0x1, 0      	RRCF	r0x06, F
005e72   3205     rrcf    0x5, 0x1, 0      	RRCF	r0x05, F
005e74   3204     rrcf    0x4, 0x1, 0      	RRCF	r0x04, F
005e76   5003     movf    0x3, 0, 0        	MOVF	r0x03, W
005e78   6ee5     movwf   0xe5, 0          	MOVWF	POSTDEC1
005e7a   5002     movf    0x2, 0, 0        	MOVF	r0x02, W
005e7c   6ee5     movwf   0xe5, 0          	MOVWF	POSTDEC1
005e7e   5001     movf    0x1, 0, 0        	MOVF	r0x01, W
005e80   6ee5     movwf   0xe5, 0          	MOVWF	POSTDEC1
005e82   5000     movf    0, 0, 0          	MOVF	r0x00, W
005e84   6ee5     movwf   0xe5, 0          	MOVWF	POSTDEC1
005e86   5007     movf    0x7, 0, 0        	MOVF	r0x07, W
005e88   6ee5     movwf   0xe5, 0          	MOVWF	POSTDEC1
005e8a   5006     movf    0x6, 0, 0        	MOVF	r0x06, W
005e8c   6ee5     movwf   0xe5, 0          	MOVWF	POSTDEC1
005e8e   5005     movf    0x5, 0, 0        	MOVF	r0x05, W
005e90   6ee5     movwf   0xe5, 0          	MOVWF	POSTDEC1
005e92   5004     movf    0x4, 0, 0        	MOVF	r0x04, W
005e94   6ee5     movwf   0xe5, 0          	MOVWF	POSTDEC1
005e96   ec80     call    0x5d00, 0        	CALL	__divulong
005e98   f02e
005e9a   6e00     movwf   0, 0             	MOVWF	r0x00
005e9c   cff3     movff   0xff3, 0x1       	MOVFF	PRODL, r0x01
005e9e   f001
005ea0   0e08     movlw   0x8              	MOVLW	0x08
005ea2   26e1     addwf   0xe1, 0x1, 0     	ADDWF	FSR1L, F
005ea4   5000     movf    0, 0, 0          	MOVF	r0x00, W
005ea6   0103     movlb   0x3              	BANKSEL	__pr2_plus1
005ea8   6f2a     movwf   0x2a, 0x1        	MOVWF	__pr2_plus1, B
005eaa   5001     movf    0x1, 0, 0        	MOVF	r0x01, W
                                           ; removed redundant BANKSEL
005eac   6f2b     movwf   0x2b, 0x1        	MOVWF	(__pr2_plus1 + 1), B
                                           ;	.line	81; /home/yeison/Documentos/python/apps/pinguinoIDE/x.4/p8/pinguino/core/pwm.c	if (_pr2_plus1 <= 4096)					// check if it's not too high
005eae   0e10     movlw   0x10             	MOVLW	0x10
                                           ; removed redundant BANKSEL
005eb0   5d2b     subwf   0x2b, 0, 0x1     	SUBWF	(__pr2_plus1 + 1), W, B
005eb2   e102     bnz     0x5eb8           	BNZ	_01983_DS_
005eb4   0e01     movlw   0x1              	MOVLW	0x01
                                           ; removed redundant BANKSEL
005eb6   5d2a     subwf   0x2a, 0, 0x1     	SUBWF	__pr2_plus1, W, B
                                           _01983_DS_:
005eb8   e227     bc      0x5f08           	BC	_01972_DS_
                                           ;	.line	83; /home/yeison/Documentos/python/apps/pinguinoIDE/x.4/p8/pinguino/core/pwm.c	if (_pr2_plus1 <= 256)				// no needs of any prescaler
005eba   0e01     movlw   0x1              	MOVLW	0x01
005ebc   0103     movlb   0x3              	BANKSEL	(__pr2_plus1 + 1)
005ebe   5d2b     subwf   0x2b, 0, 0x1     	SUBWF	(__pr2_plus1 + 1), W, B
005ec0   e102     bnz     0x5ec6           	BNZ	_01984_DS_
005ec2   0e01     movlw   0x1              	MOVLW	0x01
                                           ; removed redundant BANKSEL
005ec4   5d2a     subwf   0x2a, 0, 0x1     	SUBWF	__pr2_plus1, W, B
                                           _01984_DS_:
005ec6   e203     bc      0x5ece           	BC	_01968_DS_
005ec8   0103     movlb   0x3              	BANKSEL	__t2con
                                           ;	.line	85; /home/yeison/Documentos/python/apps/pinguinoIDE/x.4/p8/pinguino/core/pwm.c	_t2con = 0b00;					// prescaler is 1
005eca   6b7e     clrf    0x7e, 0x1        	CLRF	__t2con, B
005ecc   d01d     bra     0x5f08           	BRA	_01972_DS_
                                           _01968_DS_:
                                           ;	.line	87; /home/yeison/Documentos/python/apps/pinguinoIDE/x.4/p8/pinguino/core/pwm.c	else if (_pr2_plus1 <= 1024)		// needs prescaler 1:4
005ece   0e04     movlw   0x4              	MOVLW	0x04
005ed0   0103     movlb   0x3              	BANKSEL	(__pr2_plus1 + 1)
005ed2   5d2b     subwf   0x2b, 0, 0x1     	SUBWF	(__pr2_plus1 + 1), W, B
005ed4   e102     bnz     0x5eda           	BNZ	_01985_DS_
005ed6   0e01     movlw   0x1              	MOVLW	0x01
                                           ; removed redundant BANKSEL
005ed8   5d2a     subwf   0x2a, 0, 0x1     	SUBWF	__pr2_plus1, W, B
                                           _01985_DS_:
005eda   e20b     bc      0x5ef2           	BC	_01965_DS_
                                           ;	.line	89; /home/yeison/Documentos/python/apps/pinguinoIDE/x.4/p8/pinguino/core/pwm.c	_pr2_plus1 = _pr2_plus1 >> 2;	// divided by 4
005edc   90d8     bcf     0xd8, 0, 0       	BCF	STATUS, 0
005ede   0103     movlb   0x3              	BANKSEL	(__pr2_plus1 + 1)
005ee0   332b     rrcf    0x2b, 0x1, 0x1   	RRCF	(__pr2_plus1 + 1), F, B
                                           ; removed redundant BANKSEL
005ee2   332a     rrcf    0x2a, 0x1, 0x1   	RRCF	__pr2_plus1, F, B
005ee4   90d8     bcf     0xd8, 0, 0       	BCF	STATUS, 0
                                           ; removed redundant BANKSEL
005ee6   332b     rrcf    0x2b, 0x1, 0x1   	RRCF	(__pr2_plus1 + 1), F, B
                                           ; removed redundant BANKSEL
005ee8   332a     rrcf    0x2a, 0x1, 0x1   	RRCF	__pr2_plus1, F, B
                                           ;	.line	90; /home/yeison/Documentos/python/apps/pinguinoIDE/x.4/p8/pinguino/core/pwm.c	_t2con = 0b01;					// prescaler is 4
005eea   0e01     movlw   0x1              	MOVLW	0x01
005eec   0103     movlb   0x3              	BANKSEL	__t2con
005eee   6f7e     movwf   0x7e, 0x1        	MOVWF	__t2con, B
005ef0   d00b     bra     0x5f08           	BRA	_01972_DS_
                                           _01965_DS_:
                                           ;	.line	94; /home/yeison/Documentos/python/apps/pinguinoIDE/x.4/p8/pinguino/core/pwm.c	_pr2_plus1 = _pr2_plus1 >> 4;	// divided by 16
005ef2   0ef0     movlw   0xf0             	MOVLW	0xf0
005ef4   0103     movlb   0x3              	BANKSEL	__pr2_plus1
005ef6   172a     andwf   0x2a, 0x1, 0x1   	ANDWF	__pr2_plus1, F, B
005ef8   3b2a     swapf   0x2a, 0x1, 0x1   	SWAPF	__pr2_plus1, F, B
                                           ; removed redundant BANKSEL
005efa   3b2b     swapf   0x2b, 0x1, 0x1   	SWAPF	(__pr2_plus1 + 1), F, B
005efc   152b     andwf   0x2b, 0, 0x1     	ANDWF	(__pr2_plus1 + 1), W, B
005efe   1b2b     xorwf   0x2b, 0x1, 0x1   	XORWF	(__pr2_plus1 + 1), F, B
                                           ; removed redundant BANKSEL
005f00   272a     addwf   0x2a, 0x1, 0x1   	ADDWF	__pr2_plus1, F, B
                                           ;	.line	95; /home/yeison/Documentos/python/apps/pinguinoIDE/x.4/p8/pinguino/core/pwm.c	_t2con = 0b10;					// prescaler is 16
005f02   0e02     movlw   0x2              	MOVLW	0x02
005f04   0103     movlb   0x3              	BANKSEL	__t2con
005f06   6f7e     movwf   0x7e, 0x1        	MOVWF	__t2con, B
                                           _01972_DS_:
005f08   cfe4     movff   0xfe4, 0x7       	MOVFF	PREINC1, r0x07
005f0a   f007
005f0c   cfe4     movff   0xfe4, 0x6       	MOVFF	PREINC1, r0x06
005f0e   f006
005f10   cfe4     movff   0xfe4, 0x5       	MOVFF	PREINC1, r0x05
005f12   f005
005f14   cfe4     movff   0xfe4, 0x4       	MOVFF	PREINC1, r0x04
005f16   f004
005f18   cfe4     movff   0xfe4, 0x3       	MOVFF	PREINC1, r0x03
005f1a   f003
005f1c   cfe4     movff   0xfe4, 0x2       	MOVFF	PREINC1, r0x02
005f1e   f002
005f20   cfe4     movff   0xfe4, 0x1       	MOVFF	PREINC1, r0x01
005f22   f001
005f24   cfe4     movff   0xfe4, 0         	MOVFF	PREINC1, r0x00
005f26   f000
005f28   cfe4     movff   0xfe4, 0xfd9     	MOVFF	PREINC1, FSR2L
005f2a   ffd9
005f2c   0012     return  0                	RETURN	
                                           
                                           ; ; Starting pCode block
                                           S_main__userlowinterrupt	code
                                           _userlowinterrupt:
                                           ;	.line	1360; /home/yeison/Documentos/python/apps/pinguinoIDE/x.4/p8/pinguino/core/interrupt.c	}
007a7c   0012     return  0                	RETURN	
                                           
                                           ; ; Starting pCode block
                                           S_main__userhighinterrupt	code
                                           _userhighinterrupt:
                                           ;	.line	1173; /home/yeison/Documentos/python/apps/pinguinoIDE/x.4/p8/pinguino/core/interrupt.c	}
007a7e   0012     return  0                	RETURN	
                                           
                                           ; ; Starting pCode block
                                           S_main__IntTimerStop	code
                                           _IntTimerStop:
                                           ;	.line	413; /home/yeison/Documentos/python/apps/pinguinoIDE/x.4/p8/pinguino/core/interrupt.c	}
007a80   0012     return  0                	RETURN	
                                           
                                           ; ; Starting pCode block
                                           S_main__IntTimerStart	code
                                           _IntTimerStart:
                                           ;	.line	381; /home/yeison/Documentos/python/apps/pinguinoIDE/x.4/p8/pinguino/core/interrupt.c	}
007a82   0012     return  0                	RETURN	
                                           
                                           ; ; Starting pCode block
                                           S_main__IntInit	code
                                           _IntInit:
                                           ;	.line	335; /home/yeison/Documentos/python/apps/pinguinoIDE/x.4/p8/pinguino/core/interrupt.c	void IntInit()
00786a   c000     movff   0, 0xfe5         	MOVFF	r0x00, POSTDEC1
00786c   ffe5
                                           ;	.line	339; /home/yeison/Documentos/python/apps/pinguinoIDE/x.4/p8/pinguino/core/interrupt.c	RCONbits.IPEN = 1;					// Enable HP/LP interrupts
00786e   8ed0     bsf     0xd0, 0x7, 0     	BSF	_RCONbits, 7
                                           ;	.line	341; /home/yeison/Documentos/python/apps/pinguinoIDE/x.4/p8/pinguino/core/interrupt.c	INTCONbits.GIEH = 0;                // Disable global HP interrupts
007870   9ef2     bcf     0xf2, 0x7, 0     	BCF	_INTCONbits, 7
                                           ;	.line	342; /home/yeison/Documentos/python/apps/pinguinoIDE/x.4/p8/pinguino/core/interrupt.c	INTCONbits.GIEL = 0;                // Disable global LP interrupts
007872   9cf2     bcf     0xf2, 0x6, 0     	BCF	_INTCONbits, 6
                                           ;	.line	344; /home/yeison/Documentos/python/apps/pinguinoIDE/x.4/p8/pinguino/core/interrupt.c	for (i = 0; i < INT_NUM; i++)		// Disable all interrupts
007874   6a00     clrf    0, 0             	CLRF	r0x00
                                           _01928_DS_:
                                           ;	.line	345; /home/yeison/Documentos/python/apps/pinguinoIDE/x.4/p8/pinguino/core/interrupt.c	IntSetEnable(i, INT_DISABLE);
007876   6ae5     clrf    0xe5, 0          	CLRF	POSTDEC1
007878   5000     movf    0, 0, 0          	MOVF	r0x00, W
00787a   6ee5     movwf   0xe5, 0          	MOVWF	POSTDEC1
00787c   ec2e     call    0x4c5c, 0        	CALL	_IntSetEnable
00787e   f026
007880   52e6     movf    0xe6, 0x1, 0     	MOVF	POSTINC1, F
007882   52e6     movf    0xe6, 0x1, 0     	MOVF	POSTINC1, F
                                           ;	.line	344; /home/yeison/Documentos/python/apps/pinguinoIDE/x.4/p8/pinguino/core/interrupt.c	for (i = 0; i < INT_NUM; i++)		// Disable all interrupts
007884   2a00     incf    0, 0x1, 0        	INCF	r0x00, F
007886   0e21     movlw   0x21             	MOVLW	0x21
007888   5c00     subwf   0, 0, 0          	SUBWF	r0x00, W
00788a   e3f5     bnc     0x7876           	BNC	_01928_DS_
                                           ;	.line	347; /home/yeison/Documentos/python/apps/pinguinoIDE/x.4/p8/pinguino/core/interrupt.c	INTCONbits.GIEH = 1;				// Enable HP interrupts
00788c   8ef2     bsf     0xf2, 0x7, 0     	BSF	_INTCONbits, 7
                                           ;	.line	348; /home/yeison/Documentos/python/apps/pinguinoIDE/x.4/p8/pinguino/core/interrupt.c	INTCONbits.GIEL = 1;				// Enable LP interrupts
00788e   8cf2     bsf     0xf2, 0x6, 0     	BSF	_INTCONbits, 6
007890   cfe4     movff   0xfe4, 0         	MOVFF	PREINC1, r0x00
007892   f000
007894   0012     return  0                	RETURN	
                                           
                                           ; ; Starting pCode block
                                           S_main__IntClearFlag	code
                                           _IntClearFlag:
                                           ;	.line	218; /home/yeison/Documentos/python/apps/pinguinoIDE/x.4/p8/pinguino/core/interrupt.c	void IntClearFlag(u8 inter)
00643a   cfd9     movff   0xfd9, 0xfe5     	MOVFF	FSR2L, POSTDEC1
00643c   ffe5
00643e   cfe1     movff   0xfe1, 0xfd9     	MOVFF	FSR1L, FSR2L
006440   ffd9
006442   c000     movff   0, 0xfe5         	MOVFF	r0x00, POSTDEC1
006444   ffe5
006446   0e02     movlw   0x2              	MOVLW	0x02
006448   cfdb     movff   0xfdb, 0         	MOVFF	PLUSW2, r0x00
00644a   f000
                                           ;	.line	220; /home/yeison/Documentos/python/apps/pinguinoIDE/x.4/p8/pinguino/core/interrupt.c	switch(inter)
00644c   5000     movf    0, 0, 0          	MOVF	r0x00, W
00644e   e101     bnz     0x6452           	BNZ	_01886_DS_
006450   d03e     bra     0x64ce           	BRA	_01809_DS_
                                           _01886_DS_:
006452   5000     movf    0, 0, 0          	MOVF	r0x00, W
006454   0a01     xorlw   0x1              	XORLW	0x01
006456   e101     bnz     0x645a           	BNZ	_01888_DS_
006458   d03c     bra     0x64d2           	BRA	_01810_DS_
                                           _01888_DS_:
00645a   5000     movf    0, 0, 0          	MOVF	r0x00, W
00645c   0a02     xorlw   0x2              	XORLW	0x02
00645e   e03b     bz      0x64d6           	BZ	_01811_DS_
006460   5000     movf    0, 0, 0          	MOVF	r0x00, W
006462   0a03     xorlw   0x3              	XORLW	0x03
006464   e03a     bz      0x64da           	BZ	_01812_DS_
006466   5000     movf    0, 0, 0          	MOVF	r0x00, W
006468   0a09     xorlw   0x9              	XORLW	0x09
00646a   e02b     bz      0x64c2           	BZ	_01806_DS_
00646c   5000     movf    0, 0, 0          	MOVF	r0x00, W
00646e   0a0a     xorlw   0xa              	XORLW	0x0a
006470   e02a     bz      0x64c6           	BZ	_01807_DS_
006472   5000     movf    0, 0, 0          	MOVF	r0x00, W
006474   0a0b     xorlw   0xb              	XORLW	0x0b
006476   e029     bz      0x64ca           	BZ	_01808_DS_
006478   5000     movf    0, 0, 0          	MOVF	r0x00, W
00647a   0a0d     xorlw   0xd              	XORLW	0x0d
00647c   e030     bz      0x64de           	BZ	_01813_DS_
00647e   5000     movf    0, 0, 0          	MOVF	r0x00, W
006480   0a0e     xorlw   0xe              	XORLW	0x0e
006482   e037     bz      0x64f2           	BZ	_01818_DS_
006484   5000     movf    0, 0, 0          	MOVF	r0x00, W
006486   0a0f     xorlw   0xf              	XORLW	0x0f
006488   e036     bz      0x64f6           	BZ	_01819_DS_
00648a   5000     movf    0, 0, 0          	MOVF	r0x00, W
00648c   0a10     xorlw   0x10             	XORLW	0x10
00648e   e037     bz      0x64fe           	BZ	_01821_DS_
006490   5000     movf    0, 0, 0          	MOVF	r0x00, W
006492   0a12     xorlw   0x12             	XORLW	0x12
006494   e02a     bz      0x64ea           	BZ	_01816_DS_
006496   5000     movf    0, 0, 0          	MOVF	r0x00, W
006498   0a13     xorlw   0x13             	XORLW	0x13
00649a   e029     bz      0x64ee           	BZ	_01817_DS_
00649c   5000     movf    0, 0, 0          	MOVF	r0x00, W
00649e   0a16     xorlw   0x16             	XORLW	0x16
0064a0   e022     bz      0x64e6           	BZ	_01815_DS_
0064a2   5000     movf    0, 0, 0          	MOVF	r0x00, W
0064a4   0a17     xorlw   0x17             	XORLW	0x17
0064a6   e029     bz      0x64fa           	BZ	_01820_DS_
0064a8   5000     movf    0, 0, 0          	MOVF	r0x00, W
0064aa   0a18     xorlw   0x18             	XORLW	0x18
0064ac   e02a     bz      0x6502           	BZ	_01822_DS_
0064ae   5000     movf    0, 0, 0          	MOVF	r0x00, W
0064b0   0a19     xorlw   0x19             	XORLW	0x19
0064b2   e02b     bz      0x650a           	BZ	_01824_DS_
0064b4   5000     movf    0, 0, 0          	MOVF	r0x00, W
0064b6   0a1a     xorlw   0x1a             	XORLW	0x1a
0064b8   e026     bz      0x6506           	BZ	_01823_DS_
0064ba   5000     movf    0, 0, 0          	MOVF	r0x00, W
0064bc   0a1c     xorlw   0x1c             	XORLW	0x1c
0064be   e011     bz      0x64e2           	BZ	_01814_DS_
0064c0   d025     bra     0x650c           	BRA	_01826_DS_
                                           _01806_DS_:
                                           ;	.line	223; /home/yeison/Documentos/python/apps/pinguinoIDE/x.4/p8/pinguino/core/interrupt.c	INTCONbits.INT0IF = 0;
0064c2   92f2     bcf     0xf2, 0x1, 0     	BCF	_INTCONbits, 1
                                           ;	.line	224; /home/yeison/Documentos/python/apps/pinguinoIDE/x.4/p8/pinguino/core/interrupt.c	break;
0064c4   d023     bra     0x650c           	BRA	_01826_DS_
                                           _01807_DS_:
                                           ;	.line	226; /home/yeison/Documentos/python/apps/pinguinoIDE/x.4/p8/pinguino/core/interrupt.c	INTCON3bits.INT1IF = 0;
0064c6   90f0     bcf     0xf0, 0, 0       	BCF	_INTCON3bits, 0
                                           ;	.line	227; /home/yeison/Documentos/python/apps/pinguinoIDE/x.4/p8/pinguino/core/interrupt.c	break;
0064c8   d021     bra     0x650c           	BRA	_01826_DS_
                                           _01808_DS_:
                                           ;	.line	229; /home/yeison/Documentos/python/apps/pinguinoIDE/x.4/p8/pinguino/core/interrupt.c	INTCON3bits.INT2IF = 0;
0064ca   92f0     bcf     0xf0, 0x1, 0     	BCF	_INTCON3bits, 1
                                           ;	.line	230; /home/yeison/Documentos/python/apps/pinguinoIDE/x.4/p8/pinguino/core/interrupt.c	break;
0064cc   d01f     bra     0x650c           	BRA	_01826_DS_
                                           _01809_DS_:
                                           ;	.line	232; /home/yeison/Documentos/python/apps/pinguinoIDE/x.4/p8/pinguino/core/interrupt.c	INTCONbits.TMR0IF = 0;
0064ce   94f2     bcf     0xf2, 0x2, 0     	BCF	_INTCONbits, 2
                                           ;	.line	233; /home/yeison/Documentos/python/apps/pinguinoIDE/x.4/p8/pinguino/core/interrupt.c	break;
0064d0   d01d     bra     0x650c           	BRA	_01826_DS_
                                           _01810_DS_:
                                           ;	.line	235; /home/yeison/Documentos/python/apps/pinguinoIDE/x.4/p8/pinguino/core/interrupt.c	PIR1bits.TMR1IF = 0;
0064d2   909e     bcf     0x9e, 0, 0       	BCF	_PIR1bits, 0
                                           ;	.line	236; /home/yeison/Documentos/python/apps/pinguinoIDE/x.4/p8/pinguino/core/interrupt.c	break;
0064d4   d01b     bra     0x650c           	BRA	_01826_DS_
                                           _01811_DS_:
                                           ;	.line	238; /home/yeison/Documentos/python/apps/pinguinoIDE/x.4/p8/pinguino/core/interrupt.c	PIR1bits.TMR2IF = 0;
0064d6   929e     bcf     0x9e, 0x1, 0     	BCF	_PIR1bits, 1
                                           ;	.line	239; /home/yeison/Documentos/python/apps/pinguinoIDE/x.4/p8/pinguino/core/interrupt.c	break;
0064d8   d019     bra     0x650c           	BRA	_01826_DS_
                                           _01812_DS_:
                                           ;	.line	241; /home/yeison/Documentos/python/apps/pinguinoIDE/x.4/p8/pinguino/core/interrupt.c	PIR2bits.TMR3IF = 0;
0064da   92a1     bcf     0xa1, 0x1, 0     	BCF	_PIR2bits, 1
                                           ;	.line	242; /home/yeison/Documentos/python/apps/pinguinoIDE/x.4/p8/pinguino/core/interrupt.c	break;
0064dc   d017     bra     0x650c           	BRA	_01826_DS_
                                           _01813_DS_:
                                           ;	.line	252; /home/yeison/Documentos/python/apps/pinguinoIDE/x.4/p8/pinguino/core/interrupt.c	INTCONbits.RBIF = 0;
0064de   90f2     bcf     0xf2, 0, 0       	BCF	_INTCONbits, 0
                                           ;	.line	254; /home/yeison/Documentos/python/apps/pinguinoIDE/x.4/p8/pinguino/core/interrupt.c	break;
0064e0   d015     bra     0x650c           	BRA	_01826_DS_
                                           _01814_DS_:
                                           ;	.line	261; /home/yeison/Documentos/python/apps/pinguinoIDE/x.4/p8/pinguino/core/interrupt.c	PIR2bits.USBIF = 0;
0064e2   9aa1     bcf     0xa1, 0x5, 0     	BCF	_PIR2bits, 5
                                           ;	.line	263; /home/yeison/Documentos/python/apps/pinguinoIDE/x.4/p8/pinguino/core/interrupt.c	break;
0064e4   d013     bra     0x650c           	BRA	_01826_DS_
                                           _01815_DS_:
                                           ;	.line	266; /home/yeison/Documentos/python/apps/pinguinoIDE/x.4/p8/pinguino/core/interrupt.c	PIR1bits.ADIF = 0;
0064e6   9c9e     bcf     0x9e, 0x6, 0     	BCF	_PIR1bits, 6
                                           ;	.line	267; /home/yeison/Documentos/python/apps/pinguinoIDE/x.4/p8/pinguino/core/interrupt.c	break;
0064e8   d011     bra     0x650c           	BRA	_01826_DS_
                                           _01816_DS_:
                                           ;	.line	269; /home/yeison/Documentos/python/apps/pinguinoIDE/x.4/p8/pinguino/core/interrupt.c	PIR1bits.RCIF = 0;
0064ea   9a9e     bcf     0x9e, 0x5, 0     	BCF	_PIR1bits, 5
                                           ;	.line	270; /home/yeison/Documentos/python/apps/pinguinoIDE/x.4/p8/pinguino/core/interrupt.c	break;
0064ec   d00f     bra     0x650c           	BRA	_01826_DS_
                                           _01817_DS_:
                                           ;	.line	272; /home/yeison/Documentos/python/apps/pinguinoIDE/x.4/p8/pinguino/core/interrupt.c	PIR1bits.TXIF = 0;
0064ee   989e     bcf     0x9e, 0x4, 0     	BCF	_PIR1bits, 4
                                           ;	.line	273; /home/yeison/Documentos/python/apps/pinguinoIDE/x.4/p8/pinguino/core/interrupt.c	break;
0064f0   d00d     bra     0x650c           	BRA	_01826_DS_
                                           _01818_DS_:
                                           ;	.line	275; /home/yeison/Documentos/python/apps/pinguinoIDE/x.4/p8/pinguino/core/interrupt.c	PIR1bits.CCP1IF = 0;
0064f2   949e     bcf     0x9e, 0x2, 0     	BCF	_PIR1bits, 2
                                           ;	.line	276; /home/yeison/Documentos/python/apps/pinguinoIDE/x.4/p8/pinguino/core/interrupt.c	break;
0064f4   d00b     bra     0x650c           	BRA	_01826_DS_
                                           _01819_DS_:
                                           ;	.line	280; /home/yeison/Documentos/python/apps/pinguinoIDE/x.4/p8/pinguino/core/interrupt.c	PIR2bits.CCP2IF = 0;
0064f6   90a1     bcf     0xa1, 0, 0       	BCF	_PIR2bits, 0
                                           ;	.line	281; /home/yeison/Documentos/python/apps/pinguinoIDE/x.4/p8/pinguino/core/interrupt.c	break;
0064f8   d009     bra     0x650c           	BRA	_01826_DS_
                                           _01820_DS_:
                                           ;	.line	284; /home/yeison/Documentos/python/apps/pinguinoIDE/x.4/p8/pinguino/core/interrupt.c	PIR2bits.OSCFIF = 0;
0064fa   9ea1     bcf     0xa1, 0x7, 0     	BCF	_PIR2bits, 7
                                           ;	.line	285; /home/yeison/Documentos/python/apps/pinguinoIDE/x.4/p8/pinguino/core/interrupt.c	break;
0064fc   d007     bra     0x650c           	BRA	_01826_DS_
                                           _01821_DS_:
                                           ;	.line	288; /home/yeison/Documentos/python/apps/pinguinoIDE/x.4/p8/pinguino/core/interrupt.c	PIR2bits.CMIF = 0;
0064fe   9ca1     bcf     0xa1, 0x6, 0     	BCF	_PIR2bits, 6
                                           ;	.line	293; /home/yeison/Documentos/python/apps/pinguinoIDE/x.4/p8/pinguino/core/interrupt.c	break;
006500   d005     bra     0x650c           	BRA	_01826_DS_
                                           _01822_DS_:
                                           ;	.line	296; /home/yeison/Documentos/python/apps/pinguinoIDE/x.4/p8/pinguino/core/interrupt.c	PIR2bits.EEIF = 0;
006502   98a1     bcf     0xa1, 0x4, 0     	BCF	_PIR2bits, 4
                                           ;	.line	297; /home/yeison/Documentos/python/apps/pinguinoIDE/x.4/p8/pinguino/core/interrupt.c	break;
006504   d003     bra     0x650c           	BRA	_01826_DS_
                                           _01823_DS_:
                                           ;	.line	301; /home/yeison/Documentos/python/apps/pinguinoIDE/x.4/p8/pinguino/core/interrupt.c	PIR2bits.BCLIF = 0;
006506   96a1     bcf     0xa1, 0x3, 0     	BCF	_PIR2bits, 3
                                           ;	.line	306; /home/yeison/Documentos/python/apps/pinguinoIDE/x.4/p8/pinguino/core/interrupt.c	break;
006508   d001     bra     0x650c           	BRA	_01826_DS_
                                           _01824_DS_:
                                           ;	.line	309; /home/yeison/Documentos/python/apps/pinguinoIDE/x.4/p8/pinguino/core/interrupt.c	PIR2bits.HLVDIF = 0;
00650a   94a1     bcf     0xa1, 0x2, 0     	BCF	_PIR2bits, 2
                                           _01826_DS_:
                                           ;	.line	325; /home/yeison/Documentos/python/apps/pinguinoIDE/x.4/p8/pinguino/core/interrupt.c	}
00650c   cfe4     movff   0xfe4, 0         	MOVFF	PREINC1, r0x00
00650e   f000
006510   cfe4     movff   0xfe4, 0xfd9     	MOVFF	PREINC1, FSR2L
006512   ffd9
006514   0012     return  0                	RETURN	
                                           
                                           ; ; Starting pCode block
                                           S_main__IntEnable	code
                                           _IntEnable:
                                           ;	.line	205; /home/yeison/Documentos/python/apps/pinguinoIDE/x.4/p8/pinguino/core/interrupt.c	void IntEnable(u8 inter)
007896   cfd9     movff   0xfd9, 0xfe5     	MOVFF	FSR2L, POSTDEC1
007898   ffe5
00789a   cfe1     movff   0xfe1, 0xfd9     	MOVFF	FSR1L, FSR2L
00789c   ffd9
00789e   c000     movff   0, 0xfe5         	MOVFF	r0x00, POSTDEC1
0078a0   ffe5
0078a2   0e02     movlw   0x2              	MOVLW	0x02
0078a4   cfdb     movff   0xfdb, 0         	MOVFF	PLUSW2, r0x00
0078a6   f000
                                           ;	.line	207; /home/yeison/Documentos/python/apps/pinguinoIDE/x.4/p8/pinguino/core/interrupt.c	IntSetEnable(inter, INT_ENABLE);
0078a8   0e01     movlw   0x1              	MOVLW	0x01
0078aa   6ee5     movwf   0xe5, 0          	MOVWF	POSTDEC1
0078ac   5000     movf    0, 0, 0          	MOVF	r0x00, W
0078ae   6ee5     movwf   0xe5, 0          	MOVWF	POSTDEC1
0078b0   ec2e     call    0x4c5c, 0        	CALL	_IntSetEnable
0078b2   f026
0078b4   52e6     movf    0xe6, 0x1, 0     	MOVF	POSTINC1, F
0078b6   52e6     movf    0xe6, 0x1, 0     	MOVF	POSTINC1, F
0078b8   cfe4     movff   0xfe4, 0         	MOVFF	PREINC1, r0x00
0078ba   f000
0078bc   cfe4     movff   0xfe4, 0xfd9     	MOVFF	PREINC1, FSR2L
0078be   ffd9
0078c0   0012     return  0                	RETURN	
                                           
                                           ; ; Starting pCode block
                                           S_main__IntDisable	code
                                           _IntDisable:
                                           ;	.line	200; /home/yeison/Documentos/python/apps/pinguinoIDE/x.4/p8/pinguino/core/interrupt.c	void IntDisable(u8 inter)
0078ee   cfd9     movff   0xfd9, 0xfe5     	MOVFF	FSR2L, POSTDEC1
0078f0   ffe5
0078f2   cfe1     movff   0xfe1, 0xfd9     	MOVFF	FSR1L, FSR2L
0078f4   ffd9
0078f6   c000     movff   0, 0xfe5         	MOVFF	r0x00, POSTDEC1
0078f8   ffe5
0078fa   0e02     movlw   0x2              	MOVLW	0x02
0078fc   cfdb     movff   0xfdb, 0         	MOVFF	PLUSW2, r0x00
0078fe   f000
                                           ;	.line	202; /home/yeison/Documentos/python/apps/pinguinoIDE/x.4/p8/pinguino/core/interrupt.c	IntSetEnable(inter, INT_DISABLE);
007900   6ae5     clrf    0xe5, 0          	CLRF	POSTDEC1
007902   5000     movf    0, 0, 0          	MOVF	r0x00, W
007904   6ee5     movwf   0xe5, 0          	MOVWF	POSTDEC1
007906   ec2e     call    0x4c5c, 0        	CALL	_IntSetEnable
007908   f026
00790a   52e6     movf    0xe6, 0x1, 0     	MOVF	POSTINC1, F
00790c   52e6     movf    0xe6, 0x1, 0     	MOVF	POSTINC1, F
00790e   cfe4     movff   0xfe4, 0         	MOVFF	PREINC1, r0x00
007910   f000
007912   cfe4     movff   0xfe4, 0xfd9     	MOVFF	PREINC1, FSR2L
007914   ffd9
007916   0012     return  0                	RETURN	
                                           
                                           ; ; Starting pCode block
                                           S_main__IntSetEnable	code
                                           _IntSetEnable:
                                           ;	.line	85; /home/yeison/Documentos/python/apps/pinguinoIDE/x.4/p8/pinguino/core/interrupt.c	void IntSetEnable(u8 inter, u8 enable)
004c5c   cfd9     movff   0xfd9, 0xfe5     	MOVFF	FSR2L, POSTDEC1
004c5e   ffe5
004c60   cfe1     movff   0xfe1, 0xfd9     	MOVFF	FSR1L, FSR2L
004c62   ffd9
004c64   c000     movff   0, 0xfe5         	MOVFF	r0x00, POSTDEC1
004c66   ffe5
004c68   c001     movff   0x1, 0xfe5       	MOVFF	r0x01, POSTDEC1
004c6a   ffe5
004c6c   c002     movff   0x2, 0xfe5       	MOVFF	r0x02, POSTDEC1
004c6e   ffe5
004c70   c003     movff   0x3, 0xfe5       	MOVFF	r0x03, POSTDEC1
004c72   ffe5
004c74   0e02     movlw   0x2              	MOVLW	0x02
004c76   cfdb     movff   0xfdb, 0         	MOVFF	PLUSW2, r0x00
004c78   f000
004c7a   0e03     movlw   0x3              	MOVLW	0x03
004c7c   cfdb     movff   0xfdb, 0x1       	MOVFF	PLUSW2, r0x01
004c7e   f001
                                           ;	.line	87; /home/yeison/Documentos/python/apps/pinguinoIDE/x.4/p8/pinguino/core/interrupt.c	if (enable == INT_DISABLE)
004c80   5001     movf    0x1, 0, 0        	MOVF	r0x01, W
004c82   e10c     bnz     0x4c9c           	BNZ	_01670_DS_
                                           ;	.line	88; /home/yeison/Documentos/python/apps/pinguinoIDE/x.4/p8/pinguino/core/interrupt.c	intUsed[inter] = INT_NOT_USED;	// This interrupt is no longer used
004c84   0ea3     movlw   0xa3             	MOVLW	LOW(_intUsed)
004c86   2400     addwf   0, 0, 0          	ADDWF	r0x00, W
004c88   6e02     movwf   0x2, 0           	MOVWF	r0x02
004c8a   6a03     clrf    0x3, 0           	CLRF	r0x03
004c8c   0e02     movlw   0x2              	MOVLW	HIGH(_intUsed)
004c8e   2203     addwfc  0x3, 0x1, 0      	ADDWFC	r0x03, F
004c90   c002     movff   0x2, 0xfe9       	MOVFF	r0x02, FSR0L
004c92   ffe9
004c94   c003     movff   0x3, 0xfea       	MOVFF	r0x03, FSR0H
004c96   ffea
004c98   6aef     clrf    0xef, 0          	CLRF	INDF0
004c9a   d00c     bra     0x4cb4           	BRA	_01671_DS_
                                           _01670_DS_:
                                           ;	.line	90; /home/yeison/Documentos/python/apps/pinguinoIDE/x.4/p8/pinguino/core/interrupt.c	intUsed[inter] = INT_USED;	    // This interrupt is used
004c9c   0ea3     movlw   0xa3             	MOVLW	LOW(_intUsed)
004c9e   2400     addwf   0, 0, 0          	ADDWF	r0x00, W
004ca0   6e02     movwf   0x2, 0           	MOVWF	r0x02
004ca2   6a03     clrf    0x3, 0           	CLRF	r0x03
004ca4   0e02     movlw   0x2              	MOVLW	HIGH(_intUsed)
004ca6   2203     addwfc  0x3, 0x1, 0      	ADDWFC	r0x03, F
004ca8   c002     movff   0x2, 0xfe9       	MOVFF	r0x02, FSR0L
004caa   ffe9
004cac   c003     movff   0x3, 0xfea       	MOVFF	r0x03, FSR0H
004cae   ffea
004cb0   0e01     movlw   0x1              	MOVLW	0x01
004cb2   6eef     movwf   0xef, 0          	MOVWF	INDF0
                                           _01671_DS_:
                                           ;	.line	92; /home/yeison/Documentos/python/apps/pinguinoIDE/x.4/p8/pinguino/core/interrupt.c	switch(inter)
004cb4   5000     movf    0, 0, 0          	MOVF	r0x00, W
004cb6   e101     bnz     0x4cba           	BNZ	_01755_DS_
004cb8   d064     bra     0x4d82           	BRA	_01675_DS_
                                           _01755_DS_:
004cba   5000     movf    0, 0, 0          	MOVF	r0x00, W
004cbc   0a01     xorlw   0x1              	XORLW	0x01
004cbe   e101     bnz     0x4cc2           	BNZ	_01757_DS_
004cc0   d06a     bra     0x4d96           	BRA	_01676_DS_
                                           _01757_DS_:
004cc2   5000     movf    0, 0, 0          	MOVF	r0x00, W
004cc4   0a02     xorlw   0x2              	XORLW	0x02
004cc6   e101     bnz     0x4cca           	BNZ	_01759_DS_
004cc8   d06e     bra     0x4da6           	BRA	_01677_DS_
                                           _01759_DS_:
004cca   5000     movf    0, 0, 0          	MOVF	r0x00, W
004ccc   0a03     xorlw   0x3              	XORLW	0x03
004cce   e101     bnz     0x4cd2           	BNZ	_01761_DS_
004cd0   d073     bra     0x4db8           	BRA	_01678_DS_
                                           _01761_DS_:
004cd2   5000     movf    0, 0, 0          	MOVF	r0x00, W
004cd4   0a09     xorlw   0x9              	XORLW	0x09
004cd6   e039     bz      0x4d4a           	BZ	_01672_DS_
004cd8   5000     movf    0, 0, 0          	MOVF	r0x00, W
004cda   0a0a     xorlw   0xa              	XORLW	0x0a
004cdc   e101     bnz     0x4ce0           	BNZ	_01765_DS_
004cde   d03e     bra     0x4d5c           	BRA	_01673_DS_
                                           _01765_DS_:
004ce0   5000     movf    0, 0, 0          	MOVF	r0x00, W
004ce2   0a0b     xorlw   0xb              	XORLW	0x0b
004ce4   e101     bnz     0x4ce8           	BNZ	_01767_DS_
004ce6   d044     bra     0x4d70           	BRA	_01674_DS_
                                           _01767_DS_:
004ce8   5000     movf    0, 0, 0          	MOVF	r0x00, W
004cea   0a0d     xorlw   0xd              	XORLW	0x0d
004cec   e101     bnz     0x4cf0           	BNZ	_01769_DS_
004cee   d06d     bra     0x4dca           	BRA	_01679_DS_
                                           _01769_DS_:
004cf0   5000     movf    0, 0, 0          	MOVF	r0x00, W
004cf2   0a0e     xorlw   0xe              	XORLW	0x0e
004cf4   e101     bnz     0x4cf8           	BNZ	_01771_DS_
004cf6   d09a     bra     0x4e2c           	BRA	_01684_DS_
                                           _01771_DS_:
004cf8   5000     movf    0, 0, 0          	MOVF	r0x00, W
004cfa   0a0f     xorlw   0xf              	XORLW	0x0f
004cfc   e101     bnz     0x4d00           	BNZ	_01773_DS_
004cfe   d0a0     bra     0x4e40           	BRA	_01685_DS_
                                           _01773_DS_:
004d00   5000     movf    0, 0, 0          	MOVF	r0x00, W
004d02   0a10     xorlw   0x10             	XORLW	0x10
004d04   e101     bnz     0x4d08           	BNZ	_01775_DS_
004d06   d0ad     bra     0x4e62           	BRA	_01687_DS_
                                           _01775_DS_:
004d08   5000     movf    0, 0, 0          	MOVF	r0x00, W
004d0a   0a12     xorlw   0x12             	XORLW	0x12
004d0c   e101     bnz     0x4d10           	BNZ	_01777_DS_
004d0e   d07b     bra     0x4e06           	BRA	_01682_DS_
                                           _01777_DS_:
004d10   5000     movf    0, 0, 0          	MOVF	r0x00, W
004d12   0a13     xorlw   0x13             	XORLW	0x13
004d14   e101     bnz     0x4d18           	BNZ	_01779_DS_
004d16   d081     bra     0x4e1a           	BRA	_01683_DS_
                                           _01779_DS_:
004d18   5000     movf    0, 0, 0          	MOVF	r0x00, W
004d1a   0a16     xorlw   0x16             	XORLW	0x16
004d1c   e101     bnz     0x4d20           	BNZ	_01781_DS_
004d1e   d069     bra     0x4df2           	BRA	_01681_DS_
                                           _01781_DS_:
004d20   5000     movf    0, 0, 0          	MOVF	r0x00, W
004d22   0a17     xorlw   0x17             	XORLW	0x17
004d24   e101     bnz     0x4d28           	BNZ	_01783_DS_
004d26   d094     bra     0x4e50           	BRA	_01686_DS_
                                           _01783_DS_:
004d28   5000     movf    0, 0, 0          	MOVF	r0x00, W
004d2a   0a18     xorlw   0x18             	XORLW	0x18
004d2c   e101     bnz     0x4d30           	BNZ	_01785_DS_
004d2e   d0a3     bra     0x4e76           	BRA	_01688_DS_
                                           _01785_DS_:
004d30   5000     movf    0, 0, 0          	MOVF	r0x00, W
004d32   0a19     xorlw   0x19             	XORLW	0x19
004d34   e101     bnz     0x4d38           	BNZ	_01787_DS_
004d36   d0b2     bra     0x4e9c           	BRA	_01690_DS_
                                           _01787_DS_:
004d38   5000     movf    0, 0, 0          	MOVF	r0x00, W
004d3a   0a1a     xorlw   0x1a             	XORLW	0x1a
004d3c   e101     bnz     0x4d40           	BNZ	_01789_DS_
004d3e   d0a4     bra     0x4e88           	BRA	_01689_DS_
                                           _01789_DS_:
004d40   5000     movf    0, 0, 0          	MOVF	r0x00, W
004d42   0a1c     xorlw   0x1c             	XORLW	0x1c
004d44   e101     bnz     0x4d48           	BNZ	_01791_DS_
004d46   d04b     bra     0x4dde           	BRA	_01680_DS_
                                           _01791_DS_:
004d48   d0b2     bra     0x4eae           	BRA	_01692_DS_
                                           _01672_DS_:
                                           ;	.line	95; /home/yeison/Documentos/python/apps/pinguinoIDE/x.4/p8/pinguino/core/interrupt.c	INTCONbits.INT0IE = enable;
004d4a   5001     movf    0x1, 0, 0        	MOVF	r0x01, W
004d4c   0b01     andlw   0x1              	ANDLW	0x01
004d4e   38e8     swapf   0xe8, 0, 0       	SWAPF	WREG, W
004d50   6ef4     movwf   0xf4, 0          	MOVWF	PRODH
004d52   50f2     movf    0xf2, 0, 0       	MOVF	_INTCONbits, W
004d54   0bef     andlw   0xef             	ANDLW	0xef
004d56   10f4     iorwf   0xf4, 0, 0       	IORWF	PRODH, W
004d58   6ef2     movwf   0xf2, 0          	MOVWF	_INTCONbits
                                           ;	.line	96; /home/yeison/Documentos/python/apps/pinguinoIDE/x.4/p8/pinguino/core/interrupt.c	break;
004d5a   d0a9     bra     0x4eae           	BRA	_01692_DS_
                                           _01673_DS_:
                                           ;	.line	98; /home/yeison/Documentos/python/apps/pinguinoIDE/x.4/p8/pinguino/core/interrupt.c	INTCON3bits.INT1IE = enable;
004d5c   5001     movf    0x1, 0, 0        	MOVF	r0x01, W
004d5e   0b01     andlw   0x1              	ANDLW	0x01
004d60   38e8     swapf   0xe8, 0, 0       	SWAPF	WREG, W
004d62   40e8     rrncf   0xe8, 0, 0       	RRNCF	WREG, W
004d64   6ef4     movwf   0xf4, 0          	MOVWF	PRODH
004d66   50f0     movf    0xf0, 0, 0       	MOVF	_INTCON3bits, W
004d68   0bf7     andlw   0xf7             	ANDLW	0xf7
004d6a   10f4     iorwf   0xf4, 0, 0       	IORWF	PRODH, W
004d6c   6ef0     movwf   0xf0, 0          	MOVWF	_INTCON3bits
                                           ;	.line	99; /home/yeison/Documentos/python/apps/pinguinoIDE/x.4/p8/pinguino/core/interrupt.c	break;
004d6e   d09f     bra     0x4eae           	BRA	_01692_DS_
                                           _01674_DS_:
                                           ;	.line	101; /home/yeison/Documentos/python/apps/pinguinoIDE/x.4/p8/pinguino/core/interrupt.c	INTCON3bits.INT2IE = enable;
004d70   5001     movf    0x1, 0, 0        	MOVF	r0x01, W
004d72   0b01     andlw   0x1              	ANDLW	0x01
004d74   38e8     swapf   0xe8, 0, 0       	SWAPF	WREG, W
004d76   6ef4     movwf   0xf4, 0          	MOVWF	PRODH
004d78   50f0     movf    0xf0, 0, 0       	MOVF	_INTCON3bits, W
004d7a   0bef     andlw   0xef             	ANDLW	0xef
004d7c   10f4     iorwf   0xf4, 0, 0       	IORWF	PRODH, W
004d7e   6ef0     movwf   0xf0, 0          	MOVWF	_INTCON3bits
                                           ;	.line	102; /home/yeison/Documentos/python/apps/pinguinoIDE/x.4/p8/pinguino/core/interrupt.c	break;
004d80   d096     bra     0x4eae           	BRA	_01692_DS_
                                           _01675_DS_:
                                           ;	.line	104; /home/yeison/Documentos/python/apps/pinguinoIDE/x.4/p8/pinguino/core/interrupt.c	INTCONbits.TMR0IE = enable;
004d82   5001     movf    0x1, 0, 0        	MOVF	r0x01, W
004d84   0b01     andlw   0x1              	ANDLW	0x01
004d86   38e8     swapf   0xe8, 0, 0       	SWAPF	WREG, W
004d88   44e8     rlncf   0xe8, 0, 0       	RLNCF	WREG, W
004d8a   6ef4     movwf   0xf4, 0          	MOVWF	PRODH
004d8c   50f2     movf    0xf2, 0, 0       	MOVF	_INTCONbits, W
004d8e   0bdf     andlw   0xdf             	ANDLW	0xdf
004d90   10f4     iorwf   0xf4, 0, 0       	IORWF	PRODH, W
004d92   6ef2     movwf   0xf2, 0          	MOVWF	_INTCONbits
                                           ;	.line	105; /home/yeison/Documentos/python/apps/pinguinoIDE/x.4/p8/pinguino/core/interrupt.c	break;
004d94   d08c     bra     0x4eae           	BRA	_01692_DS_
                                           _01676_DS_:
                                           ;	.line	107; /home/yeison/Documentos/python/apps/pinguinoIDE/x.4/p8/pinguino/core/interrupt.c	PIE1bits.TMR1IE = enable;
004d96   5001     movf    0x1, 0, 0        	MOVF	r0x01, W
004d98   0b01     andlw   0x1              	ANDLW	0x01
004d9a   6ef4     movwf   0xf4, 0          	MOVWF	PRODH
004d9c   509d     movf    0x9d, 0, 0       	MOVF	_PIE1bits, W
004d9e   0bfe     andlw   0xfe             	ANDLW	0xfe
004da0   10f4     iorwf   0xf4, 0, 0       	IORWF	PRODH, W
004da2   6e9d     movwf   0x9d, 0          	MOVWF	_PIE1bits
                                           ;	.line	108; /home/yeison/Documentos/python/apps/pinguinoIDE/x.4/p8/pinguino/core/interrupt.c	break;
004da4   d084     bra     0x4eae           	BRA	_01692_DS_
                                           _01677_DS_:
                                           ;	.line	110; /home/yeison/Documentos/python/apps/pinguinoIDE/x.4/p8/pinguino/core/interrupt.c	PIE1bits.TMR2IE = enable;
004da6   5001     movf    0x1, 0, 0        	MOVF	r0x01, W
004da8   0b01     andlw   0x1              	ANDLW	0x01
004daa   44e8     rlncf   0xe8, 0, 0       	RLNCF	WREG, W
004dac   6ef4     movwf   0xf4, 0          	MOVWF	PRODH
004dae   509d     movf    0x9d, 0, 0       	MOVF	_PIE1bits, W
004db0   0bfd     andlw   0xfd             	ANDLW	0xfd
004db2   10f4     iorwf   0xf4, 0, 0       	IORWF	PRODH, W
004db4   6e9d     movwf   0x9d, 0          	MOVWF	_PIE1bits
                                           ;	.line	111; /home/yeison/Documentos/python/apps/pinguinoIDE/x.4/p8/pinguino/core/interrupt.c	break;
004db6   d07b     bra     0x4eae           	BRA	_01692_DS_
                                           _01678_DS_:
                                           ;	.line	113; /home/yeison/Documentos/python/apps/pinguinoIDE/x.4/p8/pinguino/core/interrupt.c	PIE2bits.TMR3IE = enable;
004db8   5001     movf    0x1, 0, 0        	MOVF	r0x01, W
004dba   0b01     andlw   0x1              	ANDLW	0x01
004dbc   44e8     rlncf   0xe8, 0, 0       	RLNCF	WREG, W
004dbe   6ef4     movwf   0xf4, 0          	MOVWF	PRODH
004dc0   50a0     movf    0xa0, 0, 0       	MOVF	_PIE2bits, W
004dc2   0bfd     andlw   0xfd             	ANDLW	0xfd
004dc4   10f4     iorwf   0xf4, 0, 0       	IORWF	PRODH, W
004dc6   6ea0     movwf   0xa0, 0          	MOVWF	_PIE2bits
                                           ;	.line	114; /home/yeison/Documentos/python/apps/pinguinoIDE/x.4/p8/pinguino/core/interrupt.c	break;
004dc8   d072     bra     0x4eae           	BRA	_01692_DS_
                                           _01679_DS_:
                                           ;	.line	124; /home/yeison/Documentos/python/apps/pinguinoIDE/x.4/p8/pinguino/core/interrupt.c	INTCONbits.RBIE = enable;
004dca   5001     movf    0x1, 0, 0        	MOVF	r0x01, W
004dcc   0b01     andlw   0x1              	ANDLW	0x01
004dce   38e8     swapf   0xe8, 0, 0       	SWAPF	WREG, W
004dd0   40e8     rrncf   0xe8, 0, 0       	RRNCF	WREG, W
004dd2   6ef4     movwf   0xf4, 0          	MOVWF	PRODH
004dd4   50f2     movf    0xf2, 0, 0       	MOVF	_INTCONbits, W
004dd6   0bf7     andlw   0xf7             	ANDLW	0xf7
004dd8   10f4     iorwf   0xf4, 0, 0       	IORWF	PRODH, W
004dda   6ef2     movwf   0xf2, 0          	MOVWF	_INTCONbits
                                           ;	.line	126; /home/yeison/Documentos/python/apps/pinguinoIDE/x.4/p8/pinguino/core/interrupt.c	break;
004ddc   d068     bra     0x4eae           	BRA	_01692_DS_
                                           _01680_DS_:
                                           ;	.line	133; /home/yeison/Documentos/python/apps/pinguinoIDE/x.4/p8/pinguino/core/interrupt.c	PIE2bits.USBIE = enable;
004dde   5001     movf    0x1, 0, 0        	MOVF	r0x01, W
004de0   0b01     andlw   0x1              	ANDLW	0x01
004de2   38e8     swapf   0xe8, 0, 0       	SWAPF	WREG, W
004de4   44e8     rlncf   0xe8, 0, 0       	RLNCF	WREG, W
004de6   6ef4     movwf   0xf4, 0          	MOVWF	PRODH
004de8   50a0     movf    0xa0, 0, 0       	MOVF	_PIE2bits, W
004dea   0bdf     andlw   0xdf             	ANDLW	0xdf
004dec   10f4     iorwf   0xf4, 0, 0       	IORWF	PRODH, W
004dee   6ea0     movwf   0xa0, 0          	MOVWF	_PIE2bits
                                           ;	.line	135; /home/yeison/Documentos/python/apps/pinguinoIDE/x.4/p8/pinguino/core/interrupt.c	break;
004df0   d05e     bra     0x4eae           	BRA	_01692_DS_
                                           _01681_DS_:
                                           ;	.line	138; /home/yeison/Documentos/python/apps/pinguinoIDE/x.4/p8/pinguino/core/interrupt.c	PIE1bits.ADIE = enable;
004df2   5001     movf    0x1, 0, 0        	MOVF	r0x01, W
004df4   0b01     andlw   0x1              	ANDLW	0x01
004df6   40e8     rrncf   0xe8, 0, 0       	RRNCF	WREG, W
004df8   40e8     rrncf   0xe8, 0, 0       	RRNCF	WREG, W
004dfa   6ef4     movwf   0xf4, 0          	MOVWF	PRODH
004dfc   509d     movf    0x9d, 0, 0       	MOVF	_PIE1bits, W
004dfe   0bbf     andlw   0xbf             	ANDLW	0xbf
004e00   10f4     iorwf   0xf4, 0, 0       	IORWF	PRODH, W
004e02   6e9d     movwf   0x9d, 0          	MOVWF	_PIE1bits
                                           ;	.line	139; /home/yeison/Documentos/python/apps/pinguinoIDE/x.4/p8/pinguino/core/interrupt.c	break;
004e04   d054     bra     0x4eae           	BRA	_01692_DS_
                                           _01682_DS_:
                                           ;	.line	141; /home/yeison/Documentos/python/apps/pinguinoIDE/x.4/p8/pinguino/core/interrupt.c	PIE1bits.RCIE = enable;
004e06   5001     movf    0x1, 0, 0        	MOVF	r0x01, W
004e08   0b01     andlw   0x1              	ANDLW	0x01
004e0a   38e8     swapf   0xe8, 0, 0       	SWAPF	WREG, W
004e0c   44e8     rlncf   0xe8, 0, 0       	RLNCF	WREG, W
004e0e   6ef4     movwf   0xf4, 0          	MOVWF	PRODH
004e10   509d     movf    0x9d, 0, 0       	MOVF	_PIE1bits, W
004e12   0bdf     andlw   0xdf             	ANDLW	0xdf
004e14   10f4     iorwf   0xf4, 0, 0       	IORWF	PRODH, W
004e16   6e9d     movwf   0x9d, 0          	MOVWF	_PIE1bits
                                           ;	.line	142; /home/yeison/Documentos/python/apps/pinguinoIDE/x.4/p8/pinguino/core/interrupt.c	break;
004e18   d04a     bra     0x4eae           	BRA	_01692_DS_
                                           _01683_DS_:
                                           ;	.line	144; /home/yeison/Documentos/python/apps/pinguinoIDE/x.4/p8/pinguino/core/interrupt.c	PIE1bits.TXIE = enable;
004e1a   5001     movf    0x1, 0, 0        	MOVF	r0x01, W
004e1c   0b01     andlw   0x1              	ANDLW	0x01
004e1e   38e8     swapf   0xe8, 0, 0       	SWAPF	WREG, W
004e20   6ef4     movwf   0xf4, 0          	MOVWF	PRODH
004e22   509d     movf    0x9d, 0, 0       	MOVF	_PIE1bits, W
004e24   0bef     andlw   0xef             	ANDLW	0xef
004e26   10f4     iorwf   0xf4, 0, 0       	IORWF	PRODH, W
004e28   6e9d     movwf   0x9d, 0          	MOVWF	_PIE1bits
                                           ;	.line	145; /home/yeison/Documentos/python/apps/pinguinoIDE/x.4/p8/pinguino/core/interrupt.c	break;
004e2a   d041     bra     0x4eae           	BRA	_01692_DS_
                                           _01684_DS_:
                                           ;	.line	147; /home/yeison/Documentos/python/apps/pinguinoIDE/x.4/p8/pinguino/core/interrupt.c	PIE1bits.CCP1IE = enable;
004e2c   5001     movf    0x1, 0, 0        	MOVF	r0x01, W
004e2e   0b01     andlw   0x1              	ANDLW	0x01
004e30   44e8     rlncf   0xe8, 0, 0       	RLNCF	WREG, W
004e32   44e8     rlncf   0xe8, 0, 0       	RLNCF	WREG, W
004e34   6ef4     movwf   0xf4, 0          	MOVWF	PRODH
004e36   509d     movf    0x9d, 0, 0       	MOVF	_PIE1bits, W
004e38   0bfb     andlw   0xfb             	ANDLW	0xfb
004e3a   10f4     iorwf   0xf4, 0, 0       	IORWF	PRODH, W
004e3c   6e9d     movwf   0x9d, 0          	MOVWF	_PIE1bits
                                           ;	.line	148; /home/yeison/Documentos/python/apps/pinguinoIDE/x.4/p8/pinguino/core/interrupt.c	break;
004e3e   d037     bra     0x4eae           	BRA	_01692_DS_
                                           _01685_DS_:
                                           ;	.line	152; /home/yeison/Documentos/python/apps/pinguinoIDE/x.4/p8/pinguino/core/interrupt.c	PIE2bits.CCP2IE = enable;
004e40   5001     movf    0x1, 0, 0        	MOVF	r0x01, W
004e42   0b01     andlw   0x1              	ANDLW	0x01
004e44   6ef4     movwf   0xf4, 0          	MOVWF	PRODH
004e46   50a0     movf    0xa0, 0, 0       	MOVF	_PIE2bits, W
004e48   0bfe     andlw   0xfe             	ANDLW	0xfe
004e4a   10f4     iorwf   0xf4, 0, 0       	IORWF	PRODH, W
004e4c   6ea0     movwf   0xa0, 0          	MOVWF	_PIE2bits
                                           ;	.line	153; /home/yeison/Documentos/python/apps/pinguinoIDE/x.4/p8/pinguino/core/interrupt.c	break;
004e4e   d02f     bra     0x4eae           	BRA	_01692_DS_
                                           _01686_DS_:
                                           ;	.line	156; /home/yeison/Documentos/python/apps/pinguinoIDE/x.4/p8/pinguino/core/interrupt.c	PIE2bits.OSCFIE = enable;
004e50   5001     movf    0x1, 0, 0        	MOVF	r0x01, W
004e52   0b01     andlw   0x1              	ANDLW	0x01
004e54   40e8     rrncf   0xe8, 0, 0       	RRNCF	WREG, W
004e56   6ef4     movwf   0xf4, 0          	MOVWF	PRODH
004e58   50a0     movf    0xa0, 0, 0       	MOVF	_PIE2bits, W
004e5a   0b7f     andlw   0x7f             	ANDLW	0x7f
004e5c   10f4     iorwf   0xf4, 0, 0       	IORWF	PRODH, W
004e5e   6ea0     movwf   0xa0, 0          	MOVWF	_PIE2bits
                                           ;	.line	157; /home/yeison/Documentos/python/apps/pinguinoIDE/x.4/p8/pinguino/core/interrupt.c	break;
004e60   d026     bra     0x4eae           	BRA	_01692_DS_
                                           _01687_DS_:
                                           ;	.line	160; /home/yeison/Documentos/python/apps/pinguinoIDE/x.4/p8/pinguino/core/interrupt.c	PIE2bits.CMIE = enable;
004e62   5001     movf    0x1, 0, 0        	MOVF	r0x01, W
004e64   0b01     andlw   0x1              	ANDLW	0x01
004e66   40e8     rrncf   0xe8, 0, 0       	RRNCF	WREG, W
004e68   40e8     rrncf   0xe8, 0, 0       	RRNCF	WREG, W
004e6a   6ef4     movwf   0xf4, 0          	MOVWF	PRODH
004e6c   50a0     movf    0xa0, 0, 0       	MOVF	_PIE2bits, W
004e6e   0bbf     andlw   0xbf             	ANDLW	0xbf
004e70   10f4     iorwf   0xf4, 0, 0       	IORWF	PRODH, W
004e72   6ea0     movwf   0xa0, 0          	MOVWF	_PIE2bits
                                           ;	.line	165; /home/yeison/Documentos/python/apps/pinguinoIDE/x.4/p8/pinguino/core/interrupt.c	break;
004e74   d01c     bra     0x4eae           	BRA	_01692_DS_
                                           _01688_DS_:
                                           ;	.line	168; /home/yeison/Documentos/python/apps/pinguinoIDE/x.4/p8/pinguino/core/interrupt.c	PIE2bits.EEIE = enable;
004e76   5001     movf    0x1, 0, 0        	MOVF	r0x01, W
004e78   0b01     andlw   0x1              	ANDLW	0x01
004e7a   38e8     swapf   0xe8, 0, 0       	SWAPF	WREG, W
004e7c   6ef4     movwf   0xf4, 0          	MOVWF	PRODH
004e7e   50a0     movf    0xa0, 0, 0       	MOVF	_PIE2bits, W
004e80   0bef     andlw   0xef             	ANDLW	0xef
004e82   10f4     iorwf   0xf4, 0, 0       	IORWF	PRODH, W
004e84   6ea0     movwf   0xa0, 0          	MOVWF	_PIE2bits
                                           ;	.line	169; /home/yeison/Documentos/python/apps/pinguinoIDE/x.4/p8/pinguino/core/interrupt.c	break;
004e86   d013     bra     0x4eae           	BRA	_01692_DS_
                                           _01689_DS_:
                                           ;	.line	173; /home/yeison/Documentos/python/apps/pinguinoIDE/x.4/p8/pinguino/core/interrupt.c	PIE2bits.BCLIE = enable;
004e88   5001     movf    0x1, 0, 0        	MOVF	r0x01, W
004e8a   0b01     andlw   0x1              	ANDLW	0x01
004e8c   38e8     swapf   0xe8, 0, 0       	SWAPF	WREG, W
004e8e   40e8     rrncf   0xe8, 0, 0       	RRNCF	WREG, W
004e90   6ef4     movwf   0xf4, 0          	MOVWF	PRODH
004e92   50a0     movf    0xa0, 0, 0       	MOVF	_PIE2bits, W
004e94   0bf7     andlw   0xf7             	ANDLW	0xf7
004e96   10f4     iorwf   0xf4, 0, 0       	IORWF	PRODH, W
004e98   6ea0     movwf   0xa0, 0          	MOVWF	_PIE2bits
                                           ;	.line	178; /home/yeison/Documentos/python/apps/pinguinoIDE/x.4/p8/pinguino/core/interrupt.c	break;
004e9a   d009     bra     0x4eae           	BRA	_01692_DS_
                                           _01690_DS_:
                                           ;	.line	181; /home/yeison/Documentos/python/apps/pinguinoIDE/x.4/p8/pinguino/core/interrupt.c	PIE2bits.HLVDIE = enable;
004e9c   5001     movf    0x1, 0, 0        	MOVF	r0x01, W
004e9e   0b01     andlw   0x1              	ANDLW	0x01
004ea0   44e8     rlncf   0xe8, 0, 0       	RLNCF	WREG, W
004ea2   44e8     rlncf   0xe8, 0, 0       	RLNCF	WREG, W
004ea4   6ef4     movwf   0xf4, 0          	MOVWF	PRODH
004ea6   50a0     movf    0xa0, 0, 0       	MOVF	_PIE2bits, W
004ea8   0bfb     andlw   0xfb             	ANDLW	0xfb
004eaa   10f4     iorwf   0xf4, 0, 0       	IORWF	PRODH, W
004eac   6ea0     movwf   0xa0, 0          	MOVWF	_PIE2bits
                                           _01692_DS_:
                                           ;	.line	197; /home/yeison/Documentos/python/apps/pinguinoIDE/x.4/p8/pinguino/core/interrupt.c	}
004eae   cfe4     movff   0xfe4, 0x3       	MOVFF	PREINC1, r0x03
004eb0   f003
004eb2   cfe4     movff   0xfe4, 0x2       	MOVFF	PREINC1, r0x02
004eb4   f002
004eb6   cfe4     movff   0xfe4, 0x1       	MOVFF	PREINC1, r0x01
004eb8   f001
004eba   cfe4     movff   0xfe4, 0         	MOVFF	PREINC1, r0x00
004ebc   f000
004ebe   cfe4     movff   0xfe4, 0xfd9     	MOVFF	PREINC1, FSR2L
004ec0   ffd9
004ec2   0012     return  0                	RETURN	
                                           
                                           ; ; Starting pCode block
                                           S_main__SystemClocksGetPeripheralFrequency	code
                                           _SystemClocksGetPeripheralFrequency:
                                           ;	.line	226; /home/yeison/Documentos/python/apps/pinguinoIDE/x.4/p8/pinguino/core/oscillator.c	u32 SystemClocksGetPeripheralFrequency() 
007710   c000     movff   0, 0xfe5         	MOVFF	r0x00, POSTDEC1
007712   ffe5
007714   c001     movff   0x1, 0xfe5       	MOVFF	r0x01, POSTDEC1
007716   ffe5
007718   c002     movff   0x2, 0xfe5       	MOVFF	r0x02, POSTDEC1
00771a   ffe5
00771c   c003     movff   0x3, 0xfe5       	MOVFF	r0x03, POSTDEC1
00771e   ffe5
                                           ;	.line	228; /home/yeison/Documentos/python/apps/pinguinoIDE/x.4/p8/pinguino/core/oscillator.c	return SystemClocksGetCpuFrequency() >> 2;
007720   ec11     call    0x7022, 0        	CALL	_SystemClocksGetCpuFrequency
007722   f038
007724   6e00     movwf   0, 0             	MOVWF	r0x00
007726   cff3     movff   0xff3, 0x1       	MOVFF	PRODL, r0x01
007728   f001
00772a   cff4     movff   0xff4, 0x2       	MOVFF	PRODH, r0x02
00772c   f002
00772e   cfe9     movff   0xfe9, 0x3       	MOVFF	FSR0L, r0x03
007730   f003
007732   90d8     bcf     0xd8, 0, 0       	BCF	STATUS, 0
007734   3203     rrcf    0x3, 0x1, 0      	RRCF	r0x03, F
007736   3202     rrcf    0x2, 0x1, 0      	RRCF	r0x02, F
007738   3201     rrcf    0x1, 0x1, 0      	RRCF	r0x01, F
00773a   3200     rrcf    0, 0x1, 0        	RRCF	r0x00, F
00773c   90d8     bcf     0xd8, 0, 0       	BCF	STATUS, 0
00773e   3203     rrcf    0x3, 0x1, 0      	RRCF	r0x03, F
007740   3202     rrcf    0x2, 0x1, 0      	RRCF	r0x02, F
007742   3201     rrcf    0x1, 0x1, 0      	RRCF	r0x01, F
007744   3200     rrcf    0, 0x1, 0        	RRCF	r0x00, F
007746   c003     movff   0x3, 0xfe9       	MOVFF	r0x03, FSR0L
007748   ffe9
00774a   c002     movff   0x2, 0xff4       	MOVFF	r0x02, PRODH
00774c   fff4
00774e   c001     movff   0x1, 0xff3       	MOVFF	r0x01, PRODL
007750   fff3
007752   5000     movf    0, 0, 0          	MOVF	r0x00, W
007754   cfe4     movff   0xfe4, 0x3       	MOVFF	PREINC1, r0x03
007756   f003
007758   cfe4     movff   0xfe4, 0x2       	MOVFF	PREINC1, r0x02
00775a   f002
00775c   cfe4     movff   0xfe4, 0x1       	MOVFF	PREINC1, r0x01
00775e   f001
007760   cfe4     movff   0xfe4, 0         	MOVFF	PREINC1, r0x00
007762   f000
007764   0012     return  0                	RETURN	
                                           
                                           ; ; Starting pCode block
                                           S_main__SystemClocksGetCpuFrequency	code
                                           _SystemClocksGetCpuFrequency:
                                           ;	.line	181; /home/yeison/Documentos/python/apps/pinguinoIDE/x.4/p8/pinguino/core/oscillator.c	u32 SystemClocksGetCpuFrequency() 
007022   c000     movff   0, 0xfe5         	MOVFF	r0x00, POSTDEC1
007024   ffe5
007026   c001     movff   0x1, 0xfe5       	MOVFF	r0x01, POSTDEC1
007028   ffe5
00702a   c002     movff   0x2, 0xfe5       	MOVFF	r0x02, POSTDEC1
00702c   ffe5
00702e   c003     movff   0x3, 0xfe5       	MOVFF	r0x03, POSTDEC1
007030   ffe5
                                           ;	.line	188; /home/yeison/Documentos/python/apps/pinguinoIDE/x.4/p8/pinguino/core/oscillator.c	CPUDIV  = SystemReadFlashMemory(__CONFIG1L) & 0b00011000;
007032   6ae5     clrf    0xe5, 0          	CLRF	POSTDEC1
007034   0e30     movlw   0x30             	MOVLW	0x30
007036   6ee5     movwf   0xe5, 0          	MOVWF	POSTDEC1
007038   0e00     movlw   0                	MOVLW	0x00
00703a   6ae5     clrf    0xe5, 0          	CLRF	POSTDEC1
00703c   6ae5     clrf    0xe5, 0          	CLRF	POSTDEC1
00703e   eccf     call    0x6b9e, 0        	CALL	_SystemReadFlashMemory
007040   f035
007042   6e00     movwf   0, 0             	MOVWF	r0x00
007044   0e04     movlw   0x4              	MOVLW	0x04
007046   26e1     addwf   0xe1, 0x1, 0     	ADDWF	FSR1L, F
007048   0e18     movlw   0x18             	MOVLW	0x18
00704a   1600     andwf   0, 0x1, 0        	ANDWF	r0x00, F
00704c   6a01     clrf    0x1, 0           	CLRF	r0x01
                                           ;	.line	203; /home/yeison/Documentos/python/apps/pinguinoIDE/x.4/p8/pinguino/core/oscillator.c	return 48000000L / cpudiv[CPUDIV];
00704e   6a02     clrf    0x2, 0           	CLRF	r0x02
007050   0e14     movlw   0x14             	MOVLW	LOW(_cpudiv)
007052   2600     addwf   0, 0x1, 0        	ADDWF	r0x00, F
007054   0e3f     movlw   0x3f             	MOVLW	HIGH(_cpudiv)
007056   2201     addwfc  0x1, 0x1, 0      	ADDWFC	r0x01, F
007058   0e00     movlw   0                	MOVLW	UPPER(_cpudiv)
00705a   2202     addwfc  0x2, 0x1, 0      	ADDWFC	r0x02, F
00705c   c000     movff   0, 0xff6         	MOVFF	r0x00, TBLPTRL
00705e   fff6
007060   c001     movff   0x1, 0xff7       	MOVFF	r0x01, TBLPTRH
007062   fff7
007064   c002     movff   0x2, 0xff8       	MOVFF	r0x02, TBLPTRU
007066   fff8
007068   0009     tblrd   *+               	TBLRD*+	
00706a   cff5     movff   0xff5, 0         	MOVFF	TABLAT, r0x00
00706c   f000
00706e   6ae5     clrf    0xe5, 0          	CLRF	POSTDEC1
007070   6ae5     clrf    0xe5, 0          	CLRF	POSTDEC1
007072   6ae5     clrf    0xe5, 0          	CLRF	POSTDEC1
007074   5000     movf    0, 0, 0          	MOVF	r0x00, W
007076   6ee5     movwf   0xe5, 0          	MOVWF	POSTDEC1
007078   0e02     movlw   0x2              	MOVLW	0x02
00707a   6ee5     movwf   0xe5, 0          	MOVWF	POSTDEC1
00707c   0edc     movlw   0xdc             	MOVLW	0xdc
00707e   6ee5     movwf   0xe5, 0          	MOVWF	POSTDEC1
007080   0e6c     movlw   0x6c             	MOVLW	0x6c
007082   6ee5     movwf   0xe5, 0          	MOVWF	POSTDEC1
007084   0e00     movlw   0                	MOVLW	0x00
007086   6ae5     clrf    0xe5, 0          	CLRF	POSTDEC1
007088   ec06     call    0x540c, 0        	CALL	__divslong
00708a   f02a
00708c   6e00     movwf   0, 0             	MOVWF	r0x00
00708e   cff3     movff   0xff3, 0x1       	MOVFF	PRODL, r0x01
007090   f001
007092   cff4     movff   0xff4, 0x2       	MOVFF	PRODH, r0x02
007094   f002
007096   cfe9     movff   0xfe9, 0x3       	MOVFF	FSR0L, r0x03
007098   f003
00709a   0e08     movlw   0x8              	MOVLW	0x08
00709c   26e1     addwf   0xe1, 0x1, 0     	ADDWF	FSR1L, F
00709e   c003     movff   0x3, 0xfe9       	MOVFF	r0x03, FSR0L
0070a0   ffe9
0070a2   c002     movff   0x2, 0xff4       	MOVFF	r0x02, PRODH
0070a4   fff4
0070a6   c001     movff   0x1, 0xff3       	MOVFF	r0x01, PRODL
0070a8   fff3
0070aa   5000     movf    0, 0, 0          	MOVF	r0x00, W
                                           ;	.line	216; /home/yeison/Documentos/python/apps/pinguinoIDE/x.4/p8/pinguino/core/oscillator.c	}
0070ac   cfe4     movff   0xfe4, 0x3       	MOVFF	PREINC1, r0x03
0070ae   f003
0070b0   cfe4     movff   0xfe4, 0x2       	MOVFF	PREINC1, r0x02
0070b2   f002
0070b4   cfe4     movff   0xfe4, 0x1       	MOVFF	PREINC1, r0x01
0070b6   f001
0070b8   cfe4     movff   0xfe4, 0         	MOVFF	PREINC1, r0x00
0070ba   f000
0070bc   0012     return  0                	RETURN	
                                           
                                           ; ; Starting pCode block
                                           S_main__SystemReadFlashMemory	code
                                           _SystemReadFlashMemory:
                                           ;	.line	147; /home/yeison/Documentos/python/apps/pinguinoIDE/x.4/p8/pinguino/core/oscillator.c	u16 SystemReadFlashMemory(u32 address)
006b9e   cfd9     movff   0xfd9, 0xfe5     	MOVFF	FSR2L, POSTDEC1
006ba0   ffe5
006ba2   cfe1     movff   0xfe1, 0xfd9     	MOVFF	FSR1L, FSR2L
006ba4   ffd9
006ba6   c000     movff   0, 0xfe5         	MOVFF	r0x00, POSTDEC1
006ba8   ffe5
006baa   c001     movff   0x1, 0xfe5       	MOVFF	r0x01, POSTDEC1
006bac   ffe5
006bae   c002     movff   0x2, 0xfe5       	MOVFF	r0x02, POSTDEC1
006bb0   ffe5
006bb2   c003     movff   0x3, 0xfe5       	MOVFF	r0x03, POSTDEC1
006bb4   ffe5
006bb6   c004     movff   0x4, 0xfe5       	MOVFF	r0x04, POSTDEC1
006bb8   ffe5
006bba   c005     movff   0x5, 0xfe5       	MOVFF	r0x05, POSTDEC1
006bbc   ffe5
006bbe   c006     movff   0x6, 0xfe5       	MOVFF	r0x06, POSTDEC1
006bc0   ffe5
006bc2   c007     movff   0x7, 0xfe5       	MOVFF	r0x07, POSTDEC1
006bc4   ffe5
006bc6   0e02     movlw   0x2              	MOVLW	0x02
006bc8   cfdb     movff   0xfdb, 0         	MOVFF	PLUSW2, r0x00
006bca   f000
006bcc   0e03     movlw   0x3              	MOVLW	0x03
006bce   cfdb     movff   0xfdb, 0x1       	MOVFF	PLUSW2, r0x01
006bd0   f001
006bd2   0e04     movlw   0x4              	MOVLW	0x04
006bd4   cfdb     movff   0xfdb, 0x2       	MOVFF	PLUSW2, r0x02
006bd6   f002
006bd8   0e05     movlw   0x5              	MOVLW	0x05
006bda   cfdb     movff   0xfdb, 0x3       	MOVFF	PLUSW2, r0x03
006bdc   f003
                                           ;	.line	151; /home/yeison/Documentos/python/apps/pinguinoIDE/x.4/p8/pinguino/core/oscillator.c	TBLPTRU=address>>16;
006bde   5002     movf    0x2, 0, 0        	MOVF	r0x02, W
006be0   6e04     movwf   0x4, 0           	MOVWF	r0x04
006be2   5003     movf    0x3, 0, 0        	MOVF	r0x03, W
006be4   6e05     movwf   0x5, 0           	MOVWF	r0x05
006be6   6a06     clrf    0x6, 0           	CLRF	r0x06
006be8   6a07     clrf    0x7, 0           	CLRF	r0x07
006bea   5004     movf    0x4, 0, 0        	MOVF	r0x04, W
006bec   6ef8     movwf   0xf8, 0          	MOVWF	_TBLPTRU
                                           ;	.line	152; /home/yeison/Documentos/python/apps/pinguinoIDE/x.4/p8/pinguino/core/oscillator.c	TBLPTRH=address>>8;
006bee   5001     movf    0x1, 0, 0        	MOVF	r0x01, W
006bf0   6e04     movwf   0x4, 0           	MOVWF	r0x04
006bf2   5002     movf    0x2, 0, 0        	MOVF	r0x02, W
006bf4   6e05     movwf   0x5, 0           	MOVWF	r0x05
006bf6   5003     movf    0x3, 0, 0        	MOVF	r0x03, W
006bf8   6e06     movwf   0x6, 0           	MOVWF	r0x06
006bfa   6a07     clrf    0x7, 0           	CLRF	r0x07
006bfc   5004     movf    0x4, 0, 0        	MOVF	r0x04, W
006bfe   6ef7     movwf   0xf7, 0          	MOVWF	_TBLPTRH
                                           ;	.line	153; /home/yeison/Documentos/python/apps/pinguinoIDE/x.4/p8/pinguino/core/oscillator.c	TBLPTRL=address;
006c00   5000     movf    0, 0, 0          	MOVF	r0x00, W
006c02   6ef6     movwf   0xf6, 0          	MOVWF	_TBLPTRL
006c04   0009     tblrd   *+               	tblrd*+ 
                                           ;	.line	155; /home/yeison/Documentos/python/apps/pinguinoIDE/x.4/p8/pinguino/core/oscillator.c	l8=TABLAT;
006c06   cff5     movff   0xff5, 0         	MOVFF	_TABLAT, r0x00
006c08   f000
006c0a   0009     tblrd   *+               	tblrd*+ 
                                           ;	.line	157; /home/yeison/Documentos/python/apps/pinguinoIDE/x.4/p8/pinguino/core/oscillator.c	h8=TABLAT;
006c0c   cff5     movff   0xff5, 0x1       	MOVFF	_TABLAT, r0x01
006c0e   f001
                                           ;	.line	158; /home/yeison/Documentos/python/apps/pinguinoIDE/x.4/p8/pinguino/core/oscillator.c	return((h8<<8)+l8);
006c10   6a02     clrf    0x2, 0           	CLRF	r0x02
006c12   5001     movf    0x1, 0, 0        	MOVF	r0x01, W
006c14   6e04     movwf   0x4, 0           	MOVWF	r0x04
006c16   6a03     clrf    0x3, 0           	CLRF	r0x03
006c18   6a05     clrf    0x5, 0           	CLRF	r0x05
006c1a   5000     movf    0, 0, 0          	MOVF	r0x00, W
006c1c   2603     addwf   0x3, 0x1, 0      	ADDWF	r0x03, F
006c1e   5005     movf    0x5, 0, 0        	MOVF	r0x05, W
006c20   2204     addwfc  0x4, 0x1, 0      	ADDWFC	r0x04, F
006c22   c004     movff   0x4, 0xff3       	MOVFF	r0x04, PRODL
006c24   fff3
006c26   5003     movf    0x3, 0, 0        	MOVF	r0x03, W
006c28   cfe4     movff   0xfe4, 0x7       	MOVFF	PREINC1, r0x07
006c2a   f007
006c2c   cfe4     movff   0xfe4, 0x6       	MOVFF	PREINC1, r0x06
006c2e   f006
006c30   cfe4     movff   0xfe4, 0x5       	MOVFF	PREINC1, r0x05
006c32   f005
006c34   cfe4     movff   0xfe4, 0x4       	MOVFF	PREINC1, r0x04
006c36   f004
006c38   cfe4     movff   0xfe4, 0x3       	MOVFF	PREINC1, r0x03
006c3a   f003
006c3c   cfe4     movff   0xfe4, 0x2       	MOVFF	PREINC1, r0x02
006c3e   f002
006c40   cfe4     movff   0xfe4, 0x1       	MOVFF	PREINC1, r0x01
006c42   f001
006c44   cfe4     movff   0xfe4, 0         	MOVFF	PREINC1, r0x00
006c46   f000
006c48   cfe4     movff   0xfe4, 0xfd9     	MOVFF	PREINC1, FSR2L
006c4a   ffd9
006c4c   0012     return  0                	RETURN	
                                           
                                           ; ; Starting pCode block
                                           S_main__EEPROM_write16	code
                                           _EEPROM_write16:
                                           ;	.line	113; /home/yeison/Documentos/python/apps/pinguinoIDE/x.4/p8/pinguino/core/eeprom.c	void EEPROM_write16(u8 address, u16 mydata)
0076b6   cfd9     movff   0xfd9, 0xfe5     	MOVFF	FSR2L, POSTDEC1
0076b8   ffe5
0076ba   cfe1     movff   0xfe1, 0xfd9     	MOVFF	FSR1L, FSR2L
0076bc   ffd9
0076be   c000     movff   0, 0xfe5         	MOVFF	r0x00, POSTDEC1
0076c0   ffe5
0076c2   c001     movff   0x1, 0xfe5       	MOVFF	r0x01, POSTDEC1
0076c4   ffe5
0076c6   c002     movff   0x2, 0xfe5       	MOVFF	r0x02, POSTDEC1
0076c8   ffe5
0076ca   0e02     movlw   0x2              	MOVLW	0x02
0076cc   cfdb     movff   0xfdb, 0         	MOVFF	PLUSW2, r0x00
0076ce   f000
0076d0   0e03     movlw   0x3              	MOVLW	0x03
0076d2   cfdb     movff   0xfdb, 0x1       	MOVFF	PLUSW2, r0x01
0076d4   f001
0076d6   0e04     movlw   0x4              	MOVLW	0x04
0076d8   cfdb     movff   0xfdb, 0x2       	MOVFF	PLUSW2, r0x02
0076da   f002
                                           ;	.line	120; /home/yeison/Documentos/python/apps/pinguinoIDE/x.4/p8/pinguino/core/eeprom.c	EEPROM_write8(address,   high8(mydata));
0076dc   5002     movf    0x2, 0, 0        	MOVF	r0x02, W
0076de   6ee5     movwf   0xe5, 0          	MOVWF	POSTDEC1
0076e0   5000     movf    0, 0, 0          	MOVF	r0x00, W
0076e2   6ee5     movwf   0xe5, 0          	MOVWF	POSTDEC1
0076e4   ecfd     call    0x77fa, 0        	CALL	_EEPROM_write8
0076e6   f03b
0076e8   52e6     movf    0xe6, 0x1, 0     	MOVF	POSTINC1, F
0076ea   52e6     movf    0xe6, 0x1, 0     	MOVF	POSTINC1, F
                                           ;	.line	121; /home/yeison/Documentos/python/apps/pinguinoIDE/x.4/p8/pinguino/core/eeprom.c	EEPROM_write8(address+1, low8(mydata));
0076ec   2a00     incf    0, 0x1, 0        	INCF	r0x00, F
0076ee   5001     movf    0x1, 0, 0        	MOVF	r0x01, W
0076f0   6ee5     movwf   0xe5, 0          	MOVWF	POSTDEC1
0076f2   5000     movf    0, 0, 0          	MOVF	r0x00, W
0076f4   6ee5     movwf   0xe5, 0          	MOVWF	POSTDEC1
0076f6   ecfd     call    0x77fa, 0        	CALL	_EEPROM_write8
0076f8   f03b
0076fa   52e6     movf    0xe6, 0x1, 0     	MOVF	POSTINC1, F
0076fc   52e6     movf    0xe6, 0x1, 0     	MOVF	POSTINC1, F
0076fe   cfe4     movff   0xfe4, 0x2       	MOVFF	PREINC1, r0x02
007700   f002
007702   cfe4     movff   0xfe4, 0x1       	MOVFF	PREINC1, r0x01
007704   f001
007706   cfe4     movff   0xfe4, 0         	MOVFF	PREINC1, r0x00
007708   f000
00770a   cfe4     movff   0xfe4, 0xfd9     	MOVFF	PREINC1, FSR2L
00770c   ffd9
00770e   0012     return  0                	RETURN	
                                           
                                           ; ; Starting pCode block
                                           S_main__EEPROM_write8	code
                                           _EEPROM_write8:
                                           ;	.line	81; /home/yeison/Documentos/python/apps/pinguinoIDE/x.4/p8/pinguino/core/eeprom.c	void EEPROM_write8(u8 address, u8 mydata)
0077fa   cfd9     movff   0xfd9, 0xfe5     	MOVFF	FSR2L, POSTDEC1
0077fc   ffe5
0077fe   cfe1     movff   0xfe1, 0xfd9     	MOVFF	FSR1L, FSR2L
007800   ffd9
007802   0e02     movlw   0x2              	MOVLW	0x02
007804   cfdb     movff   0xfdb, 0xfa9     	MOVFF	PLUSW2, _EEADR
007806   ffa9
007808   0e03     movlw   0x3              	MOVLW	0x03
00780a   cfdb     movff   0xfdb, 0xfa8     	MOVFF	PLUSW2, _EEDATA
00780c   ffa8
                                           ;	.line	86; /home/yeison/Documentos/python/apps/pinguinoIDE/x.4/p8/pinguino/core/eeprom.c	EECON1bits.EEPGD = 0;
00780e   9ea6     bcf     0xa6, 0x7, 0     	BCF	_EECON1bits, 7
                                           ;	.line	87; /home/yeison/Documentos/python/apps/pinguinoIDE/x.4/p8/pinguino/core/eeprom.c	EECON1bits.CFGS = 0;
007810   9ca6     bcf     0xa6, 0x6, 0     	BCF	_EECON1bits, 6
                                           ;	.line	88; /home/yeison/Documentos/python/apps/pinguinoIDE/x.4/p8/pinguino/core/eeprom.c	EECON1bits.WREN = 1;	// enable writes to data EEPROM
007812   84a6     bsf     0xa6, 0x2, 0     	BSF	_EECON1bits, 2
                                           ;	.line	89; /home/yeison/Documentos/python/apps/pinguinoIDE/x.4/p8/pinguino/core/eeprom.c	INTCONbits.GIE = 0;		// disable interrupts
007814   9ef2     bcf     0xf2, 0x7, 0     	BCF	_INTCONbits, 7
                                           ;	.line	90; /home/yeison/Documentos/python/apps/pinguinoIDE/x.4/p8/pinguino/core/eeprom.c	EECON2 = 0x55;
007816   0e55     movlw   0x55             	MOVLW	0x55
007818   6ea7     movwf   0xa7, 0          	MOVWF	_EECON2
                                           ;	.line	91; /home/yeison/Documentos/python/apps/pinguinoIDE/x.4/p8/pinguino/core/eeprom.c	EECON2 = 0x0AA;
00781a   0eaa     movlw   0xaa             	MOVLW	0xaa
00781c   6ea7     movwf   0xa7, 0          	MOVWF	_EECON2
                                           ;	.line	92; /home/yeison/Documentos/python/apps/pinguinoIDE/x.4/p8/pinguino/core/eeprom.c	EECON1bits.WR = 1;		// start writing
00781e   82a6     bsf     0xa6, 0x1, 0     	BSF	_EECON1bits, 1
                                           _01633_DS_:
                                           ;	.line	93; /home/yeison/Documentos/python/apps/pinguinoIDE/x.4/p8/pinguino/core/eeprom.c	while (EECON1bits.WR)
007820   a2a6     btfss   0xa6, 0x1, 0     	BTFSS	_EECON1bits, 1
007822   d002     bra     0x7828           	BRA	_01635_DS_
007824   0000     nop                      	nop 
007826   d7fc     bra     0x7820           	BRA	_01633_DS_
                                           ; ;;!!! pic16_aopOp:1117 called for a spillLocation -- assigning WREG instead --- CHECK
                                           _01635_DS_:
                                           ;	.line	97; /home/yeison/Documentos/python/apps/pinguinoIDE/x.4/p8/pinguino/core/eeprom.c	if (EECON1bits.WRERR)
007828   6ae8     clrf    0xe8, 0          	CLRF	WREG
00782a   b6a6     btfsc   0xa6, 0x3, 0     	BTFSC	_EECON1bits, 3
00782c   2ae8     incf    0xe8, 0x1, 0     	INCF	WREG, F
                                           ;	.line	103; /home/yeison/Documentos/python/apps/pinguinoIDE/x.4/p8/pinguino/core/eeprom.c	EECON1bits.WREN = 0;
00782e   94a6     bcf     0xa6, 0x2, 0     	BCF	_EECON1bits, 2
                                           ;	.line	104; /home/yeison/Documentos/python/apps/pinguinoIDE/x.4/p8/pinguino/core/eeprom.c	INTCONbits.GIE = 1;	// enable interrupts
007830   8ef2     bsf     0xf2, 0x7, 0     	BSF	_INTCONbits, 7
007832   cfe4     movff   0xfe4, 0xfd9     	MOVFF	PREINC1, FSR2L
007834   ffd9
007836   0012     return  0                	RETURN	
                                           
                                           ; ; Starting pCode block
                                           S_main__EEPROM_read16	code
                                           _EEPROM_read16:
                                           ;	.line	62; /home/yeison/Documentos/python/apps/pinguinoIDE/x.4/p8/pinguino/core/eeprom.c	u16 EEPROM_read16(u8 address)
0074be   cfd9     movff   0xfd9, 0xfe5     	MOVFF	FSR2L, POSTDEC1
0074c0   ffe5
0074c2   cfe1     movff   0xfe1, 0xfd9     	MOVFF	FSR1L, FSR2L
0074c4   ffd9
0074c6   c000     movff   0, 0xfe5         	MOVFF	r0x00, POSTDEC1
0074c8   ffe5
0074ca   c001     movff   0x1, 0xfe5       	MOVFF	r0x01, POSTDEC1
0074cc   ffe5
0074ce   c003     movff   0x3, 0xfe5       	MOVFF	r0x03, POSTDEC1
0074d0   ffe5
0074d2   c004     movff   0x4, 0xfe5       	MOVFF	r0x04, POSTDEC1
0074d4   ffe5
0074d6   c005     movff   0x5, 0xfe5       	MOVFF	r0x05, POSTDEC1
0074d8   ffe5
0074da   0e02     movlw   0x2              	MOVLW	0x02
0074dc   cfdb     movff   0xfdb, 0         	MOVFF	PLUSW2, r0x00
0074de   f000
                                           ;	.line	68; /home/yeison/Documentos/python/apps/pinguinoIDE/x.4/p8/pinguino/core/eeprom.c	hibyte = EEPROM_read8(address);
0074e0   5000     movf    0, 0, 0          	MOVF	r0x00, W
0074e2   6ee5     movwf   0xe5, 0          	MOVWF	POSTDEC1
0074e4   ece6     call    0x79cc, 0        	CALL	_EEPROM_read8
0074e6   f03c
0074e8   6e01     movwf   0x1, 0           	MOVWF	r0x01
0074ea   52e6     movf    0xe6, 0x1, 0     	MOVF	POSTINC1, F
                                           ;	.line	69; /home/yeison/Documentos/python/apps/pinguinoIDE/x.4/p8/pinguino/core/eeprom.c	lobyte = EEPROM_read8(address+1);
0074ec   2a00     incf    0, 0x1, 0        	INCF	r0x00, F
0074ee   5000     movf    0, 0, 0          	MOVF	r0x00, W
0074f0   6ee5     movwf   0xe5, 0          	MOVWF	POSTDEC1
0074f2   ece6     call    0x79cc, 0        	CALL	_EEPROM_read8
0074f4   f03c
0074f6   6e00     movwf   0, 0             	MOVWF	r0x00
0074f8   52e6     movf    0xe6, 0x1, 0     	MOVF	POSTINC1, F
                                           ;	.line	70; /home/yeison/Documentos/python/apps/pinguinoIDE/x.4/p8/pinguino/core/eeprom.c	mydata = (hibyte << 8) | lobyte;
0074fa   5001     movf    0x1, 0, 0        	MOVF	r0x01, W
0074fc   6e04     movwf   0x4, 0           	MOVWF	r0x04
0074fe   6a03     clrf    0x3, 0           	CLRF	r0x03
007500   6a05     clrf    0x5, 0           	CLRF	r0x05
007502   5000     movf    0, 0, 0          	MOVF	r0x00, W
007504   1203     iorwf   0x3, 0x1, 0      	IORWF	r0x03, F
007506   5005     movf    0x5, 0, 0        	MOVF	r0x05, W
007508   1204     iorwf   0x4, 0x1, 0      	IORWF	r0x04, F
                                           ;	.line	71; /home/yeison/Documentos/python/apps/pinguinoIDE/x.4/p8/pinguino/core/eeprom.c	return mydata;
00750a   c004     movff   0x4, 0xff3       	MOVFF	r0x04, PRODL
00750c   fff3
00750e   5003     movf    0x3, 0, 0        	MOVF	r0x03, W
007510   cfe4     movff   0xfe4, 0x5       	MOVFF	PREINC1, r0x05
007512   f005
007514   cfe4     movff   0xfe4, 0x4       	MOVFF	PREINC1, r0x04
007516   f004
007518   cfe4     movff   0xfe4, 0x3       	MOVFF	PREINC1, r0x03
00751a   f003
00751c   cfe4     movff   0xfe4, 0x1       	MOVFF	PREINC1, r0x01
00751e   f001
007520   cfe4     movff   0xfe4, 0         	MOVFF	PREINC1, r0x00
007522   f000
007524   cfe4     movff   0xfe4, 0xfd9     	MOVFF	PREINC1, FSR2L
007526   ffd9
007528   0012     return  0                	RETURN	
                                           
                                           ; ; Starting pCode block
                                           S_main__EEPROM_read8	code
                                           _EEPROM_read8:
                                           ;	.line	47; /home/yeison/Documentos/python/apps/pinguinoIDE/x.4/p8/pinguino/core/eeprom.c	u8 EEPROM_read8(u8 address)
0079cc   cfd9     movff   0xfd9, 0xfe5     	MOVFF	FSR2L, POSTDEC1
0079ce   ffe5
0079d0   cfe1     movff   0xfe1, 0xfd9     	MOVFF	FSR1L, FSR2L
0079d2   ffd9
0079d4   0e02     movlw   0x2              	MOVLW	0x02
0079d6   cfdb     movff   0xfdb, 0xfa9     	MOVFF	PLUSW2, _EEADR
0079d8   ffa9
                                           ;	.line	50; /home/yeison/Documentos/python/apps/pinguinoIDE/x.4/p8/pinguino/core/eeprom.c	EECON1bits.EEPGD = 0;
0079da   9ea6     bcf     0xa6, 0x7, 0     	BCF	_EECON1bits, 7
                                           ;	.line	51; /home/yeison/Documentos/python/apps/pinguinoIDE/x.4/p8/pinguino/core/eeprom.c	EECON1bits.CFGS = 0;
0079dc   9ca6     bcf     0xa6, 0x6, 0     	BCF	_EECON1bits, 6
                                           ;	.line	52; /home/yeison/Documentos/python/apps/pinguinoIDE/x.4/p8/pinguino/core/eeprom.c	EECON1bits.RD = 1;
0079de   80a6     bsf     0xa6, 0, 0       	BSF	_EECON1bits, 0
                                           ;	.line	53; /home/yeison/Documentos/python/apps/pinguinoIDE/x.4/p8/pinguino/core/eeprom.c	return EEDATA;
0079e0   50a8     movf    0xa8, 0, 0       	MOVF	_EEDATA, W
0079e2   cfe4     movff   0xfe4, 0xfd9     	MOVFF	PREINC1, FSR2L
0079e4   ffd9
0079e6   0012     return  0                	RETURN	
                                           
                                           ; ; Starting pCode block
                                           S_main__toggle	code
                                           _toggle:
                                           ;	.line	254; /home/yeison/Documentos/python/apps/pinguinoIDE/x.4/p8/pinguino/core/digitalw.c	void toggle(u8 pin)
006a0c   cfd9     movff   0xfd9, 0xfe5     	MOVFF	FSR2L, POSTDEC1
006a0e   ffe5
006a10   cfe1     movff   0xfe1, 0xfd9     	MOVFF	FSR1L, FSR2L
006a12   ffd9
006a14   c000     movff   0, 0xfe5         	MOVFF	r0x00, POSTDEC1
006a16   ffe5
006a18   c001     movff   0x1, 0xfe5       	MOVFF	r0x01, POSTDEC1
006a1a   ffe5
006a1c   c002     movff   0x2, 0xfe5       	MOVFF	r0x02, POSTDEC1
006a1e   ffe5
006a20   c003     movff   0x3, 0xfe5       	MOVFF	r0x03, POSTDEC1
006a22   ffe5
006a24   c004     movff   0x4, 0xfe5       	MOVFF	r0x04, POSTDEC1
006a26   ffe5
006a28   0e02     movlw   0x2              	MOVLW	0x02
006a2a   cfdb     movff   0xfdb, 0         	MOVFF	PLUSW2, r0x00
006a2c   f000
                                           ;	.line	262; /home/yeison/Documentos/python/apps/pinguinoIDE/x.4/p8/pinguino/core/digitalw.c	u8  b = mask[pin];          // 1<<bit
006a2e   0eec     movlw   0xec             	MOVLW	LOW(_mask)
006a30   2400     addwf   0, 0, 0          	ADDWF	r0x00, W
006a32   6e01     movwf   0x1, 0           	MOVWF	r0x01
006a34   6a02     clrf    0x2, 0           	CLRF	r0x02
006a36   0e3e     movlw   0x3e             	MOVLW	HIGH(_mask)
006a38   2202     addwfc  0x2, 0x1, 0      	ADDWFC	r0x02, F
006a3a   6a03     clrf    0x3, 0           	CLRF	r0x03
006a3c   0e00     movlw   0                	MOVLW	UPPER(_mask)
006a3e   2203     addwfc  0x3, 0x1, 0      	ADDWFC	r0x03, F
006a40   c001     movff   0x1, 0xff6       	MOVFF	r0x01, TBLPTRL
006a42   fff6
006a44   c002     movff   0x2, 0xff7       	MOVFF	r0x02, TBLPTRH
006a46   fff7
006a48   c003     movff   0x3, 0xff8       	MOVFF	r0x03, TBLPTRU
006a4a   fff8
006a4c   0009     tblrd   *+               	TBLRD*+	
006a4e   cff5     movff   0xff5, 0x1       	MOVFF	TABLAT, r0x01
006a50   f001
                                           ;	.line	265; /home/yeison/Documentos/python/apps/pinguinoIDE/x.4/p8/pinguino/core/digitalw.c	pPORT = (__data u8*) (port[pin] + 0x0F80); // PORTx
006a52   6a02     clrf    0x2, 0           	CLRF	r0x02
006a54   6a03     clrf    0x3, 0           	CLRF	r0x03
006a56   0e00     movlw   0                	MOVLW	LOW(_port)
006a58   2600     addwf   0, 0x1, 0        	ADDWF	r0x00, F
006a5a   0e3f     movlw   0x3f             	MOVLW	HIGH(_port)
006a5c   2202     addwfc  0x2, 0x1, 0      	ADDWFC	r0x02, F
006a5e   0e00     movlw   0                	MOVLW	UPPER(_port)
006a60   2203     addwfc  0x3, 0x1, 0      	ADDWFC	r0x03, F
006a62   c000     movff   0, 0xff6         	MOVFF	r0x00, TBLPTRL
006a64   fff6
006a66   c002     movff   0x2, 0xff7       	MOVFF	r0x02, TBLPTRH
006a68   fff7
006a6a   c003     movff   0x3, 0xff8       	MOVFF	r0x03, TBLPTRU
006a6c   fff8
006a6e   0009     tblrd   *+               	TBLRD*+	
006a70   cff5     movff   0xff5, 0         	MOVFF	TABLAT, r0x00
006a72   f000
006a74   6a02     clrf    0x2, 0           	CLRF	r0x02
006a76   0e80     movlw   0x80             	MOVLW	0x80
006a78   2600     addwf   0, 0x1, 0        	ADDWF	r0x00, F
006a7a   0e0f     movlw   0xf              	MOVLW	0x0f
006a7c   2202     addwfc  0x2, 0x1, 0      	ADDWFC	r0x02, F
                                           ;	.line	267; /home/yeison/Documentos/python/apps/pinguinoIDE/x.4/p8/pinguino/core/digitalw.c	if ( *pPORT & b )           // bit is set ?
006a7e   c000     movff   0, 0xfe9         	MOVFF	r0x00, FSR0L
006a80   ffe9
006a82   c002     movff   0x2, 0xfea       	MOVFF	r0x02, FSR0H
006a84   ffea
006a86   cfef     movff   0xfef, 0x3       	MOVFF	INDF0, r0x03
006a88   f003
006a8a   5001     movf    0x1, 0, 0        	MOVF	r0x01, W
006a8c   1403     andwf   0x3, 0, 0        	ANDWF	r0x03, W
006a8e   6e04     movwf   0x4, 0           	MOVWF	r0x04
006a90   5004     movf    0x4, 0, 0        	MOVF	r0x04, W
006a92   e00c     bz      0x6aac           	BZ	_01616_DS_
                                           ;	.line	268; /home/yeison/Documentos/python/apps/pinguinoIDE/x.4/p8/pinguino/core/digitalw.c	*pPORT &= (255-b);      // clear bit
006a94   5001     movf    0x1, 0, 0        	MOVF	r0x01, W
006a96   08ff     sublw   0xff             	SUBLW	0xff
006a98   6e04     movwf   0x4, 0           	MOVWF	r0x04
006a9a   5003     movf    0x3, 0, 0        	MOVF	r0x03, W
006a9c   1604     andwf   0x4, 0x1, 0      	ANDWF	r0x04, F
006a9e   c000     movff   0, 0xfe9         	MOVFF	r0x00, FSR0L
006aa0   ffe9
006aa2   c002     movff   0x2, 0xfea       	MOVFF	r0x02, FSR0H
006aa4   ffea
006aa6   c004     movff   0x4, 0xfef       	MOVFF	r0x04, INDF0
006aa8   ffef
006aaa   d008     bra     0x6abc           	BRA	_01618_DS_
                                           _01616_DS_:
                                           ;	.line	270; /home/yeison/Documentos/python/apps/pinguinoIDE/x.4/p8/pinguino/core/digitalw.c	*pPORT |= b;            // set bit
006aac   5003     movf    0x3, 0, 0        	MOVF	r0x03, W
006aae   1201     iorwf   0x1, 0x1, 0      	IORWF	r0x01, F
006ab0   c000     movff   0, 0xfe9         	MOVFF	r0x00, FSR0L
006ab2   ffe9
006ab4   c002     movff   0x2, 0xfea       	MOVFF	r0x02, FSR0H
006ab6   ffea
006ab8   c001     movff   0x1, 0xfef       	MOVFF	r0x01, INDF0
006aba   ffef
                                           _01618_DS_:
006abc   cfe4     movff   0xfe4, 0x4       	MOVFF	PREINC1, r0x04
006abe   f004
006ac0   cfe4     movff   0xfe4, 0x3       	MOVFF	PREINC1, r0x03
006ac2   f003
006ac4   cfe4     movff   0xfe4, 0x2       	MOVFF	PREINC1, r0x02
006ac6   f002
006ac8   cfe4     movff   0xfe4, 0x1       	MOVFF	PREINC1, r0x01
006aca   f001
006acc   cfe4     movff   0xfe4, 0         	MOVFF	PREINC1, r0x00
006ace   f000
006ad0   cfe4     movff   0xfe4, 0xfd9     	MOVFF	PREINC1, FSR2L
006ad2   ffd9
006ad4   0012     return  0                	RETURN	
                                           
                                           ; ; Starting pCode block
                                           S_main__pinmode	code
                                           _pinmode:
                                           ;	.line	217; /home/yeison/Documentos/python/apps/pinguinoIDE/x.4/p8/pinguino/core/digitalw.c	void pinmode(u8 pin, u8 state)
0066c8   cfd9     movff   0xfd9, 0xfe5     	MOVFF	FSR2L, POSTDEC1
0066ca   ffe5
0066cc   cfe1     movff   0xfe1, 0xfd9     	MOVFF	FSR1L, FSR2L
0066ce   ffd9
0066d0   c000     movff   0, 0xfe5         	MOVFF	r0x00, POSTDEC1
0066d2   ffe5
0066d4   c001     movff   0x1, 0xfe5       	MOVFF	r0x01, POSTDEC1
0066d6   ffe5
0066d8   c002     movff   0x2, 0xfe5       	MOVFF	r0x02, POSTDEC1
0066da   ffe5
0066dc   c003     movff   0x3, 0xfe5       	MOVFF	r0x03, POSTDEC1
0066de   ffe5
0066e0   c004     movff   0x4, 0xfe5       	MOVFF	r0x04, POSTDEC1
0066e2   ffe5
0066e4   0e02     movlw   0x2              	MOVLW	0x02
0066e6   cfdb     movff   0xfdb, 0         	MOVFF	PLUSW2, r0x00
0066e8   f000
0066ea   0e03     movlw   0x3              	MOVLW	0x03
0066ec   cfdb     movff   0xfdb, 0x1       	MOVFF	PLUSW2, r0x01
0066ee   f001
                                           ;	.line	241; /home/yeison/Documentos/python/apps/pinguinoIDE/x.4/p8/pinguino/core/digitalw.c	u8  b = mask[pin];          // 1<<bit
0066f0   0eec     movlw   0xec             	MOVLW	LOW(_mask)
0066f2   2400     addwf   0, 0, 0          	ADDWF	r0x00, W
0066f4   6e02     movwf   0x2, 0           	MOVWF	r0x02
0066f6   6a03     clrf    0x3, 0           	CLRF	r0x03
0066f8   0e3e     movlw   0x3e             	MOVLW	HIGH(_mask)
0066fa   2203     addwfc  0x3, 0x1, 0      	ADDWFC	r0x03, F
0066fc   6a04     clrf    0x4, 0           	CLRF	r0x04
0066fe   0e00     movlw   0                	MOVLW	UPPER(_mask)
006700   2204     addwfc  0x4, 0x1, 0      	ADDWFC	r0x04, F
006702   c002     movff   0x2, 0xff6       	MOVFF	r0x02, TBLPTRL
006704   fff6
006706   c003     movff   0x3, 0xff7       	MOVFF	r0x03, TBLPTRH
006708   fff7
00670a   c004     movff   0x4, 0xff8       	MOVFF	r0x04, TBLPTRU
00670c   fff8
00670e   0009     tblrd   *+               	TBLRD*+	
006710   cff5     movff   0xff5, 0x2       	MOVFF	TABLAT, r0x02
006712   f002
                                           ;	.line	244; /home/yeison/Documentos/python/apps/pinguinoIDE/x.4/p8/pinguino/core/digitalw.c	pTRIS = (__data u8*) (port[pin] + 0x0F92); // TRISx
006714   6a03     clrf    0x3, 0           	CLRF	r0x03
006716   6a04     clrf    0x4, 0           	CLRF	r0x04
006718   0e00     movlw   0                	MOVLW	LOW(_port)
00671a   2600     addwf   0, 0x1, 0        	ADDWF	r0x00, F
00671c   0e3f     movlw   0x3f             	MOVLW	HIGH(_port)
00671e   2203     addwfc  0x3, 0x1, 0      	ADDWFC	r0x03, F
006720   0e00     movlw   0                	MOVLW	UPPER(_port)
006722   2204     addwfc  0x4, 0x1, 0      	ADDWFC	r0x04, F
006724   c000     movff   0, 0xff6         	MOVFF	r0x00, TBLPTRL
006726   fff6
006728   c003     movff   0x3, 0xff7       	MOVFF	r0x03, TBLPTRH
00672a   fff7
00672c   c004     movff   0x4, 0xff8       	MOVFF	r0x04, TBLPTRU
00672e   fff8
006730   0009     tblrd   *+               	TBLRD*+	
006732   cff5     movff   0xff5, 0         	MOVFF	TABLAT, r0x00
006734   f000
006736   6a03     clrf    0x3, 0           	CLRF	r0x03
006738   0e92     movlw   0x92             	MOVLW	0x92
00673a   2600     addwf   0, 0x1, 0        	ADDWF	r0x00, F
00673c   0e0f     movlw   0xf              	MOVLW	0x0f
00673e   2203     addwfc  0x3, 0x1, 0      	ADDWFC	r0x03, F
                                           ;	.line	246; /home/yeison/Documentos/python/apps/pinguinoIDE/x.4/p8/pinguino/core/digitalw.c	if (state)                  // if 1
006740   5001     movf    0x1, 0, 0        	MOVF	r0x01, W
006742   e00f     bz      0x6762           	BZ	_01608_DS_
                                           ;	.line	247; /home/yeison/Documentos/python/apps/pinguinoIDE/x.4/p8/pinguino/core/digitalw.c	*pTRIS |= b;            // set bit (input)
006744   c000     movff   0, 0xfe9         	MOVFF	r0x00, FSR0L
006746   ffe9
006748   c003     movff   0x3, 0xfea       	MOVFF	r0x03, FSR0H
00674a   ffea
00674c   cfef     movff   0xfef, 0x1       	MOVFF	INDF0, r0x01
00674e   f001
006750   5002     movf    0x2, 0, 0        	MOVF	r0x02, W
006752   1201     iorwf   0x1, 0x1, 0      	IORWF	r0x01, F
006754   c000     movff   0, 0xfe9         	MOVFF	r0x00, FSR0L
006756   ffe9
006758   c003     movff   0x3, 0xfea       	MOVFF	r0x03, FSR0H
00675a   ffea
00675c   c001     movff   0x1, 0xfef       	MOVFF	r0x01, INDF0
00675e   ffef
006760   d00f     bra     0x6780           	BRA	_01610_DS_
                                           _01608_DS_:
                                           ;	.line	249; /home/yeison/Documentos/python/apps/pinguinoIDE/x.4/p8/pinguino/core/digitalw.c	*pTRIS &= (255-b);      // clear bit (output)
006762   c000     movff   0, 0xfe9         	MOVFF	r0x00, FSR0L
006764   ffe9
006766   c003     movff   0x3, 0xfea       	MOVFF	r0x03, FSR0H
006768   ffea
00676a   cfef     movff   0xfef, 0x1       	MOVFF	INDF0, r0x01
00676c   f001
00676e   5002     movf    0x2, 0, 0        	MOVF	r0x02, W
006770   08ff     sublw   0xff             	SUBLW	0xff
                                           ; #	MOVWF	r0x02
                                           ; #	MOVF	r0x02, W
006772   1601     andwf   0x1, 0x1, 0      	ANDWF	r0x01, F
006774   c000     movff   0, 0xfe9         	MOVFF	r0x00, FSR0L
006776   ffe9
006778   c003     movff   0x3, 0xfea       	MOVFF	r0x03, FSR0H
00677a   ffea
00677c   c001     movff   0x1, 0xfef       	MOVFF	r0x01, INDF0
00677e   ffef
                                           _01610_DS_:
006780   cfe4     movff   0xfe4, 0x4       	MOVFF	PREINC1, r0x04
006782   f004
006784   cfe4     movff   0xfe4, 0x3       	MOVFF	PREINC1, r0x03
006786   f003
006788   cfe4     movff   0xfe4, 0x2       	MOVFF	PREINC1, r0x02
00678a   f002
00678c   cfe4     movff   0xfe4, 0x1       	MOVFF	PREINC1, r0x01
00678e   f001
006790   cfe4     movff   0xfe4, 0         	MOVFF	PREINC1, r0x00
006792   f000
006794   cfe4     movff   0xfe4, 0xfd9     	MOVFF	PREINC1, FSR2L
006796   ffd9
006798   0012     return  0                	RETURN	
                                           
                                           ; ; Starting pCode block
                                           S_main__digitalread	code
                                           _digitalread:
                                           ;	.line	181; /home/yeison/Documentos/python/apps/pinguinoIDE/x.4/p8/pinguino/core/digitalw.c	u8 digitalread(u8 pin)
006f84   cfd9     movff   0xfd9, 0xfe5     	MOVFF	FSR2L, POSTDEC1
006f86   ffe5
006f88   cfe1     movff   0xfe1, 0xfd9     	MOVFF	FSR1L, FSR2L
006f8a   ffd9
006f8c   c000     movff   0, 0xfe5         	MOVFF	r0x00, POSTDEC1
006f8e   ffe5
006f90   c001     movff   0x1, 0xfe5       	MOVFF	r0x01, POSTDEC1
006f92   ffe5
006f94   c002     movff   0x2, 0xfe5       	MOVFF	r0x02, POSTDEC1
006f96   ffe5
006f98   c003     movff   0x3, 0xfe5       	MOVFF	r0x03, POSTDEC1
006f9a   ffe5
006f9c   0e02     movlw   0x2              	MOVLW	0x02
006f9e   cfdb     movff   0xfdb, 0         	MOVFF	PLUSW2, r0x00
006fa0   f000
                                           ;	.line	206; /home/yeison/Documentos/python/apps/pinguinoIDE/x.4/p8/pinguino/core/digitalw.c	u8  b = mask[pin];          // 1<<bit
006fa2   0eec     movlw   0xec             	MOVLW	LOW(_mask)
006fa4   2400     addwf   0, 0, 0          	ADDWF	r0x00, W
006fa6   6e01     movwf   0x1, 0           	MOVWF	r0x01
006fa8   6a02     clrf    0x2, 0           	CLRF	r0x02
006faa   0e3e     movlw   0x3e             	MOVLW	HIGH(_mask)
006fac   2202     addwfc  0x2, 0x1, 0      	ADDWFC	r0x02, F
006fae   6a03     clrf    0x3, 0           	CLRF	r0x03
006fb0   0e00     movlw   0                	MOVLW	UPPER(_mask)
006fb2   2203     addwfc  0x3, 0x1, 0      	ADDWFC	r0x03, F
006fb4   c001     movff   0x1, 0xff6       	MOVFF	r0x01, TBLPTRL
006fb6   fff6
006fb8   c002     movff   0x2, 0xff7       	MOVFF	r0x02, TBLPTRH
006fba   fff7
006fbc   c003     movff   0x3, 0xff8       	MOVFF	r0x03, TBLPTRU
006fbe   fff8
006fc0   0009     tblrd   *+               	TBLRD*+	
006fc2   cff5     movff   0xff5, 0x1       	MOVFF	TABLAT, r0x01
006fc4   f001
                                           ;	.line	209; /home/yeison/Documentos/python/apps/pinguinoIDE/x.4/p8/pinguino/core/digitalw.c	pPORT = (__data u8*) (port[pin] + 0x0F80); // PORTx
006fc6   6a02     clrf    0x2, 0           	CLRF	r0x02
006fc8   6a03     clrf    0x3, 0           	CLRF	r0x03
006fca   0e00     movlw   0                	MOVLW	LOW(_port)
006fcc   2600     addwf   0, 0x1, 0        	ADDWF	r0x00, F
006fce   0e3f     movlw   0x3f             	MOVLW	HIGH(_port)
006fd0   2202     addwfc  0x2, 0x1, 0      	ADDWFC	r0x02, F
006fd2   0e00     movlw   0                	MOVLW	UPPER(_port)
006fd4   2203     addwfc  0x3, 0x1, 0      	ADDWFC	r0x03, F
006fd6   c000     movff   0, 0xff6         	MOVFF	r0x00, TBLPTRL
006fd8   fff6
006fda   c002     movff   0x2, 0xff7       	MOVFF	r0x02, TBLPTRH
006fdc   fff7
006fde   c003     movff   0x3, 0xff8       	MOVFF	r0x03, TBLPTRU
006fe0   fff8
006fe2   0009     tblrd   *+               	TBLRD*+	
006fe4   cff5     movff   0xff5, 0         	MOVFF	TABLAT, r0x00
006fe6   f000
006fe8   6a02     clrf    0x2, 0           	CLRF	r0x02
006fea   0e80     movlw   0x80             	MOVLW	0x80
006fec   2600     addwf   0, 0x1, 0        	ADDWF	r0x00, F
006fee   0e0f     movlw   0xf              	MOVLW	0x0f
006ff0   2202     addwfc  0x2, 0x1, 0      	ADDWFC	r0x02, F
                                           ;	.line	211; /home/yeison/Documentos/python/apps/pinguinoIDE/x.4/p8/pinguino/core/digitalw.c	if ( *pPORT & b )
006ff2   c000     movff   0, 0xfe9         	MOVFF	r0x00, FSR0L
006ff4   ffe9
006ff6   c002     movff   0x2, 0xfea       	MOVFF	r0x02, FSR0H
006ff8   ffea
006ffa   cfef     movff   0xfef, 0         	MOVFF	INDF0, r0x00
006ffc   f000
006ffe   5000     movf    0, 0, 0          	MOVF	r0x00, W
007000   1601     andwf   0x1, 0x1, 0      	ANDWF	r0x01, F
007002   5001     movf    0x1, 0, 0        	MOVF	r0x01, W
007004   e002     bz      0x700a           	BZ	_01600_DS_
                                           ;	.line	212; /home/yeison/Documentos/python/apps/pinguinoIDE/x.4/p8/pinguino/core/digitalw.c	return 1;               // bit is set
007006   0e01     movlw   0x1              	MOVLW	0x01
007008   d001     bra     0x700c           	BRA	_01602_DS_
                                           _01600_DS_:
                                           ;	.line	214; /home/yeison/Documentos/python/apps/pinguinoIDE/x.4/p8/pinguino/core/digitalw.c	return 0;               // bit is not set
00700a   6ae8     clrf    0xe8, 0          	CLRF	WREG
                                           _01602_DS_:
00700c   cfe4     movff   0xfe4, 0x3       	MOVFF	PREINC1, r0x03
00700e   f003
007010   cfe4     movff   0xfe4, 0x2       	MOVFF	PREINC1, r0x02
007012   f002
007014   cfe4     movff   0xfe4, 0x1       	MOVFF	PREINC1, r0x01
007016   f001
007018   cfe4     movff   0xfe4, 0         	MOVFF	PREINC1, r0x00
00701a   f000
00701c   cfe4     movff   0xfe4, 0xfd9     	MOVFF	PREINC1, FSR2L
00701e   ffd9
007020   0012     return  0                	RETURN	
                                           
                                           ; ; Starting pCode block
                                           S_main__digitalwrite	code
                                           _digitalwrite:
                                           ;	.line	146; /home/yeison/Documentos/python/apps/pinguinoIDE/x.4/p8/pinguino/core/digitalw.c	void digitalwrite(u8 pin, u8 state)
00679a   cfd9     movff   0xfd9, 0xfe5     	MOVFF	FSR2L, POSTDEC1
00679c   ffe5
00679e   cfe1     movff   0xfe1, 0xfd9     	MOVFF	FSR1L, FSR2L
0067a0   ffd9
0067a2   c000     movff   0, 0xfe5         	MOVFF	r0x00, POSTDEC1
0067a4   ffe5
0067a6   c001     movff   0x1, 0xfe5       	MOVFF	r0x01, POSTDEC1
0067a8   ffe5
0067aa   c002     movff   0x2, 0xfe5       	MOVFF	r0x02, POSTDEC1
0067ac   ffe5
0067ae   c003     movff   0x3, 0xfe5       	MOVFF	r0x03, POSTDEC1
0067b0   ffe5
0067b2   c004     movff   0x4, 0xfe5       	MOVFF	r0x04, POSTDEC1
0067b4   ffe5
0067b6   0e02     movlw   0x2              	MOVLW	0x02
0067b8   cfdb     movff   0xfdb, 0         	MOVFF	PLUSW2, r0x00
0067ba   f000
0067bc   0e03     movlw   0x3              	MOVLW	0x03
0067be   cfdb     movff   0xfdb, 0x1       	MOVFF	PLUSW2, r0x01
0067c0   f001
                                           ;	.line	170; /home/yeison/Documentos/python/apps/pinguinoIDE/x.4/p8/pinguino/core/digitalw.c	u8  b = mask[pin];          // 1<<bit
0067c2   0eec     movlw   0xec             	MOVLW	LOW(_mask)
0067c4   2400     addwf   0, 0, 0          	ADDWF	r0x00, W
0067c6   6e02     movwf   0x2, 0           	MOVWF	r0x02
0067c8   6a03     clrf    0x3, 0           	CLRF	r0x03
0067ca   0e3e     movlw   0x3e             	MOVLW	HIGH(_mask)
0067cc   2203     addwfc  0x3, 0x1, 0      	ADDWFC	r0x03, F
0067ce   6a04     clrf    0x4, 0           	CLRF	r0x04
0067d0   0e00     movlw   0                	MOVLW	UPPER(_mask)
0067d2   2204     addwfc  0x4, 0x1, 0      	ADDWFC	r0x04, F
0067d4   c002     movff   0x2, 0xff6       	MOVFF	r0x02, TBLPTRL
0067d6   fff6
0067d8   c003     movff   0x3, 0xff7       	MOVFF	r0x03, TBLPTRH
0067da   fff7
0067dc   c004     movff   0x4, 0xff8       	MOVFF	r0x04, TBLPTRU
0067de   fff8
0067e0   0009     tblrd   *+               	TBLRD*+	
0067e2   cff5     movff   0xff5, 0x2       	MOVFF	TABLAT, r0x02
0067e4   f002
                                           ;	.line	173; /home/yeison/Documentos/python/apps/pinguinoIDE/x.4/p8/pinguino/core/digitalw.c	pPORT = (__data u8*) (port[pin] + 0x0F80); // PORTx
0067e6   6a03     clrf    0x3, 0           	CLRF	r0x03
0067e8   6a04     clrf    0x4, 0           	CLRF	r0x04
0067ea   0e00     movlw   0                	MOVLW	LOW(_port)
0067ec   2600     addwf   0, 0x1, 0        	ADDWF	r0x00, F
0067ee   0e3f     movlw   0x3f             	MOVLW	HIGH(_port)
0067f0   2203     addwfc  0x3, 0x1, 0      	ADDWFC	r0x03, F
0067f2   0e00     movlw   0                	MOVLW	UPPER(_port)
0067f4   2204     addwfc  0x4, 0x1, 0      	ADDWFC	r0x04, F
0067f6   c000     movff   0, 0xff6         	MOVFF	r0x00, TBLPTRL
0067f8   fff6
0067fa   c003     movff   0x3, 0xff7       	MOVFF	r0x03, TBLPTRH
0067fc   fff7
0067fe   c004     movff   0x4, 0xff8       	MOVFF	r0x04, TBLPTRU
006800   fff8
006802   0009     tblrd   *+               	TBLRD*+	
006804   cff5     movff   0xff5, 0         	MOVFF	TABLAT, r0x00
006806   f000
006808   6a03     clrf    0x3, 0           	CLRF	r0x03
00680a   0e80     movlw   0x80             	MOVLW	0x80
00680c   2600     addwf   0, 0x1, 0        	ADDWF	r0x00, F
00680e   0e0f     movlw   0xf              	MOVLW	0x0f
006810   2203     addwfc  0x3, 0x1, 0      	ADDWFC	r0x03, F
                                           ;	.line	175; /home/yeison/Documentos/python/apps/pinguinoIDE/x.4/p8/pinguino/core/digitalw.c	if (state)
006812   5001     movf    0x1, 0, 0        	MOVF	r0x01, W
006814   e00f     bz      0x6834           	BZ	_01592_DS_
                                           ;	.line	176; /home/yeison/Documentos/python/apps/pinguinoIDE/x.4/p8/pinguino/core/digitalw.c	*pPORT |= b;            // set bit
006816   c000     movff   0, 0xfe9         	MOVFF	r0x00, FSR0L
006818   ffe9
00681a   c003     movff   0x3, 0xfea       	MOVFF	r0x03, FSR0H
00681c   ffea
00681e   cfef     movff   0xfef, 0x1       	MOVFF	INDF0, r0x01
006820   f001
006822   5002     movf    0x2, 0, 0        	MOVF	r0x02, W
006824   1201     iorwf   0x1, 0x1, 0      	IORWF	r0x01, F
006826   c000     movff   0, 0xfe9         	MOVFF	r0x00, FSR0L
006828   ffe9
00682a   c003     movff   0x3, 0xfea       	MOVFF	r0x03, FSR0H
00682c   ffea
00682e   c001     movff   0x1, 0xfef       	MOVFF	r0x01, INDF0
006830   ffef
006832   d00f     bra     0x6852           	BRA	_01594_DS_
                                           _01592_DS_:
                                           ;	.line	178; /home/yeison/Documentos/python/apps/pinguinoIDE/x.4/p8/pinguino/core/digitalw.c	*pPORT &= (255-b);      // clear bit
006834   c000     movff   0, 0xfe9         	MOVFF	r0x00, FSR0L
006836   ffe9
006838   c003     movff   0x3, 0xfea       	MOVFF	r0x03, FSR0H
00683a   ffea
00683c   cfef     movff   0xfef, 0x1       	MOVFF	INDF0, r0x01
00683e   f001
006840   5002     movf    0x2, 0, 0        	MOVF	r0x02, W
006842   08ff     sublw   0xff             	SUBLW	0xff
                                           ; #	MOVWF	r0x02
                                           ; #	MOVF	r0x02, W
006844   1601     andwf   0x1, 0x1, 0      	ANDWF	r0x01, F
006846   c000     movff   0, 0xfe9         	MOVFF	r0x00, FSR0L
006848   ffe9
00684a   c003     movff   0x3, 0xfea       	MOVFF	r0x03, FSR0H
00684c   ffea
00684e   c001     movff   0x1, 0xfef       	MOVFF	r0x01, INDF0
006850   ffef
                                           _01594_DS_:
006852   cfe4     movff   0xfe4, 0x4       	MOVFF	PREINC1, r0x04
006854   f004
006856   cfe4     movff   0xfe4, 0x3       	MOVFF	PREINC1, r0x03
006858   f003
00685a   cfe4     movff   0xfe4, 0x2       	MOVFF	PREINC1, r0x02
00685c   f002
00685e   cfe4     movff   0xfe4, 0x1       	MOVFF	PREINC1, r0x01
006860   f001
006862   cfe4     movff   0xfe4, 0         	MOVFF	PREINC1, r0x00
006864   f000
006866   cfe4     movff   0xfe4, 0xfd9     	MOVFF	PREINC1, FSR2L
006868   ffd9
00686a   0012     return  0                	RETURN	
                                           
                                           ; ; Starting pCode block
                                           S_main__analogread	code
                                           _analogread:
                                           ;	.line	64; /home/yeison/Documentos/python/apps/pinguinoIDE/x.4/p8/pinguino/core/analog.c	u16 analogread(u8 channel)
0070be   cfd9     movff   0xfd9, 0xfe5     	MOVFF	FSR2L, POSTDEC1
0070c0   ffe5
0070c2   cfe1     movff   0xfe1, 0xfd9     	MOVFF	FSR1L, FSR2L
0070c4   ffd9
0070c6   c000     movff   0, 0xfe5         	MOVFF	r0x00, POSTDEC1
0070c8   ffe5
0070ca   c001     movff   0x1, 0xfe5       	MOVFF	r0x01, POSTDEC1
0070cc   ffe5
0070ce   c002     movff   0x2, 0xfe5       	MOVFF	r0x02, POSTDEC1
0070d0   ffe5
0070d2   c003     movff   0x3, 0xfe5       	MOVFF	r0x03, POSTDEC1
0070d4   ffe5
0070d6   0e02     movlw   0x2              	MOVLW	0x02
0070d8   cfdb     movff   0xfdb, 0         	MOVFF	PLUSW2, r0x00
0070da   f000
                                           ;	.line	79; /home/yeison/Documentos/python/apps/pinguinoIDE/x.4/p8/pinguino/core/analog.c	if(channel>=13 && channel<=17)
0070dc   0e0d     movlw   0xd              	MOVLW	0x0d
0070de   5c00     subwf   0, 0, 0          	SUBWF	r0x00, W
0070e0   e30a     bnc     0x70f6           	BNC	_01550_DS_
0070e2   0e12     movlw   0x12             	MOVLW	0x12
0070e4   5c00     subwf   0, 0, 0          	SUBWF	r0x00, W
0070e6   e207     bc      0x70f6           	BC	_01550_DS_
                                           ;	.line	80; /home/yeison/Documentos/python/apps/pinguinoIDE/x.4/p8/pinguino/core/analog.c	ADCON0=(channel-13)*4;              // A0 = 13, A1 = 14, ...
0070e8   0ef3     movlw   0xf3             	MOVLW	0xf3
0070ea   2400     addwf   0, 0, 0          	ADDWF	r0x00, W
                                           ; #	MOVWF	r0x01
                                           ; #;;multiply lit val:0x04 by variable r0x01 and store in _ADCON0
                                           ; #	MOVF	r0x01, W
0070ec   6e01     movwf   0x1, 0           	MOVWF	r0x01
0070ee   0d04     mullw   0x4              	MULLW	0x04
0070f0   cff3     movff   0xff3, 0xfc2     	MOVFF	PRODL, _ADCON0
0070f2   ffc2
0070f4   d007     bra     0x7104           	BRA	_01551_DS_
                                           _01550_DS_:
                                           ;	.line	81; /home/yeison/Documentos/python/apps/pinguinoIDE/x.4/p8/pinguino/core/analog.c	else if(channel<=5)
0070f6   0e06     movlw   0x6              	MOVLW	0x06
0070f8   5c00     subwf   0, 0, 0          	SUBWF	r0x00, W
0070fa   e204     bc      0x7104           	BC	_01551_DS_
                                           ; ;multiply lit val:0x04 by variable r0x00 and store in _ADCON0
                                           ;	.line	82; /home/yeison/Documentos/python/apps/pinguinoIDE/x.4/p8/pinguino/core/analog.c	ADCON0 = channel * 4;              // A0 = 0, A1 = 1, ...
0070fc   5000     movf    0, 0, 0          	MOVF	r0x00, W
0070fe   0d04     mullw   0x4              	MULLW	0x04
007100   cff3     movff   0xff3, 0xfc2     	MOVFF	PRODL, _ADCON0
007102   ffc2
                                           _01551_DS_:
                                           ;	.line	86; /home/yeison/Documentos/python/apps/pinguinoIDE/x.4/p8/pinguino/core/analog.c	ADCON0bits.ADON=1;
007104   80c2     bsf     0xc2, 0, 0       	BSF	_ADCON0bits, 0
                                           ;	.line	87; /home/yeison/Documentos/python/apps/pinguinoIDE/x.4/p8/pinguino/core/analog.c	for (result=1;result<10;result++)
007106   0e09     movlw   0x9              	MOVLW	0x09
007108   6e00     movwf   0, 0             	MOVWF	r0x00
00710a   6a01     clrf    0x1, 0           	CLRF	r0x01
                                           _01559_DS_:
00710c   0000     nop                      	NOP 
00710e   0eff     movlw   0xff             	MOVLW	0xff
007110   2600     addwf   0, 0x1, 0        	ADDWF	r0x00, F
007112   2201     addwfc  0x1, 0x1, 0      	ADDWFC	r0x01, F
                                           ;	.line	87; /home/yeison/Documentos/python/apps/pinguinoIDE/x.4/p8/pinguino/core/analog.c	for (result=1;result<10;result++)
007114   5000     movf    0, 0, 0          	MOVF	r0x00, W
007116   1001     iorwf   0x1, 0, 0        	IORWF	r0x01, W
007118   e1f9     bnz     0x710c           	BNZ	_01559_DS_
                                           ;	.line	89; /home/yeison/Documentos/python/apps/pinguinoIDE/x.4/p8/pinguino/core/analog.c	ADCON0bits.GO=1;
00711a   82c2     bsf     0xc2, 0x1, 0     	BSF	_ADCON0bits, 1
                                           _01554_DS_:
                                           ;	.line	90; /home/yeison/Documentos/python/apps/pinguinoIDE/x.4/p8/pinguino/core/analog.c	while (ADCON0bits.GO);
00711c   b2c2     btfsc   0xc2, 0x1, 0     	BTFSC	_ADCON0bits, 1
00711e   d7fe     bra     0x711c           	BRA	_01554_DS_
                                           ;	.line	91; /home/yeison/Documentos/python/apps/pinguinoIDE/x.4/p8/pinguino/core/analog.c	result=ADRESH<<8;
007120   cfc4     movff   0xfc4, 0         	MOVFF	_ADRESH, r0x00
007122   f000
007124   6a01     clrf    0x1, 0           	CLRF	r0x01
007126   5000     movf    0, 0, 0          	MOVF	r0x00, W
007128   6e03     movwf   0x3, 0           	MOVWF	r0x03
00712a   6a02     clrf    0x2, 0           	CLRF	r0x02
                                           ;	.line	92; /home/yeison/Documentos/python/apps/pinguinoIDE/x.4/p8/pinguino/core/analog.c	result+=ADRESL;
00712c   cfc3     movff   0xfc3, 0         	MOVFF	_ADRESL, r0x00
00712e   f000
007130   6a01     clrf    0x1, 0           	CLRF	r0x01
007132   5000     movf    0, 0, 0          	MOVF	r0x00, W
007134   2602     addwf   0x2, 0x1, 0      	ADDWF	r0x02, F
007136   5001     movf    0x1, 0, 0        	MOVF	r0x01, W
007138   2203     addwfc  0x3, 0x1, 0      	ADDWFC	r0x03, F
                                           ;	.line	93; /home/yeison/Documentos/python/apps/pinguinoIDE/x.4/p8/pinguino/core/analog.c	ADCON0bits.ADON=0;
00713a   90c2     bcf     0xc2, 0, 0       	BCF	_ADCON0bits, 0
                                           ;	.line	94; /home/yeison/Documentos/python/apps/pinguinoIDE/x.4/p8/pinguino/core/analog.c	return(result);
00713c   c003     movff   0x3, 0xff3       	MOVFF	r0x03, PRODL
00713e   fff3
007140   5002     movf    0x2, 0, 0        	MOVF	r0x02, W
007142   cfe4     movff   0xfe4, 0x3       	MOVFF	PREINC1, r0x03
007144   f003
007146   cfe4     movff   0xfe4, 0x2       	MOVFF	PREINC1, r0x02
007148   f002
00714a   cfe4     movff   0xfe4, 0x1       	MOVFF	PREINC1, r0x01
00714c   f001
00714e   cfe4     movff   0xfe4, 0         	MOVFF	PREINC1, r0x00
007150   f000
007152   cfe4     movff   0xfe4, 0xfd9     	MOVFF	PREINC1, FSR2L
007154   ffd9
007156   0012     return  0                	RETURN	
                                           
                                           ; ; Starting pCode block
                                           S_main__analogReference	code
                                           _analogReference:
                                           ;	.line	49; /home/yeison/Documentos/python/apps/pinguinoIDE/x.4/p8/pinguino/core/analog.c	void analogReference(u8 Type)
007918   cfd9     movff   0xfd9, 0xfe5     	MOVFF	FSR2L, POSTDEC1
00791a   ffe5
00791c   cfe1     movff   0xfe1, 0xfd9     	MOVFF	FSR1L, FSR2L
00791e   ffd9
007920   c000     movff   0, 0xfe5         	MOVFF	r0x00, POSTDEC1
007922   ffe5
007924   0e02     movlw   0x2              	MOVLW	0x02
007926   cfdb     movff   0xfdb, 0         	MOVFF	PLUSW2, r0x00
007928   f000
                                           ; #	MOVF	r0x00, W
                                           ; #	BTFSS	STATUS, 2
                                           ; #	GOTO	_01531_DS_
                                           ; #	GOTO	_01533_DS_
                                           ; #	MOVF	r0x00, W
                                           ;	.line	52; /home/yeison/Documentos/python/apps/pinguinoIDE/x.4/p8/pinguino/core/analog.c	if(Type == DEFAULT)			//the default analog reference of 5 volts (on 5V Arduino boards) or 3.3 volts (on 3.3V Arduino boards)
00792a   5000     movf    0, 0, 0          	MOVF	r0x00, W
                                           ;	.line	53; /home/yeison/Documentos/python/apps/pinguinoIDE/x.4/p8/pinguino/core/analog.c	ADCON1|=0x00;			//Vref+ = VDD
00792c   e004     bz      0x7936           	BZ	_01533_DS_
                                           ;	.line	54; /home/yeison/Documentos/python/apps/pinguinoIDE/x.4/p8/pinguino/core/analog.c	else if(Type == EXTERNAL)	//the voltage applied to the AREF pin (0 to 5V only) is used as the reference.
00792e   5000     movf    0, 0, 0          	MOVF	r0x00, W
007930   0a01     xorlw   0x1              	XORLW	0x01
007932   e101     bnz     0x7936           	BNZ	_01533_DS_
                                           ;	.line	55; /home/yeison/Documentos/python/apps/pinguinoIDE/x.4/p8/pinguino/core/analog.c	ADCON1|=0x10;			//Vref+ = External source
007934   88c1     bsf     0xc1, 0x4, 0     	BSF	_ADCON1, 4
                                           _01533_DS_:
007936   cfe4     movff   0xfe4, 0         	MOVFF	PREINC1, r0x00
007938   f000
00793a   cfe4     movff   0xfe4, 0xfd9     	MOVFF	PREINC1, FSR2L
00793c   ffd9
00793e   0012     return  0                	RETURN	
                                           
                                           ; ; Starting pCode block
                                           S_main__analog_init	code
                                           _analog_init:
                                           ;	.line	42; /home/yeison/Documentos/python/apps/pinguinoIDE/x.4/p8/pinguino/core/analog.c	TRISA=TRISA | 0x2F; // 0b00101111 = RA0,1,2,3 and RA5 = AN0 to AN4 are INPUT
007a52   0e2f     movlw   0x2f             	MOVLW	0x2f
007a54   1292     iorwf   0x92, 0x1, 0     	IORWF	_TRISA, F
                                           ;	.line	43; /home/yeison/Documentos/python/apps/pinguinoIDE/x.4/p8/pinguino/core/analog.c	ADCON1=0x0A;        // 0b00001000 = 0, 0, VRef-=VSS, VRef+=VDD, AN0 to AN4 enabled 
007a56   0e0a     movlw   0xa              	MOVLW	0x0a
007a58   6ec1     movwf   0xc1, 0          	MOVWF	_ADCON1
                                           ;	.line	44; /home/yeison/Documentos/python/apps/pinguinoIDE/x.4/p8/pinguino/core/analog.c	ADCON2=0xBD;        // 0b10111101 = Right justified, 0, 20 TAD, FOSC/16
007a5a   0ebd     movlw   0xbd             	MOVLW	0xbd
007a5c   6ec0     movwf   0xc0, 0          	MOVWF	_ADCON2
007a5e   0012     return  0                	RETURN	
                                           
                                           ; ; Starting pCode block
                                           S_main__CDC_interrupt	code
                                           _CDC_interrupt:
                                           ;	.line	174; /home/yeison/Documentos/python/apps/pinguinoIDE/x.4/p8/pinguino/libraries/__cdc.c	if(PIR2bits.USBIF)
007a30   aaa1     btfss   0xa1, 0x5, 0     	BTFSS	_PIR2bits, 5
007a32   d006     bra     0x7a40           	BRA	_01518_DS_
                                           ;	.line	176; /home/yeison/Documentos/python/apps/pinguinoIDE/x.4/p8/pinguino/libraries/__cdc.c	PIR2bits.USBIF = 0;
007a34   9aa1     bcf     0xa1, 0x5, 0     	BCF	_PIR2bits, 5
                                           ;	.line	178; /home/yeison/Documentos/python/apps/pinguinoIDE/x.4/p8/pinguino/libraries/__cdc.c	ProcessUSBTransactions();
007a36   ec95     call    0x752a, 0        	CALL	_ProcessUSBTransactions
007a38   f03a
                                           ;	.line	179; /home/yeison/Documentos/python/apps/pinguinoIDE/x.4/p8/pinguino/libraries/__cdc.c	UIRbits.SOFIF = 0;
007a3a   9c68     bcf     0x68, 0x6, 0     	BCF	_UIRbits, 6
                                           ;	.line	180; /home/yeison/Documentos/python/apps/pinguinoIDE/x.4/p8/pinguino/libraries/__cdc.c	UIRbits.URSTIF = 0;
007a3c   9068     bcf     0x68, 0, 0       	BCF	_UIRbits, 0
                                           ;	.line	182; /home/yeison/Documentos/python/apps/pinguinoIDE/x.4/p8/pinguino/libraries/__cdc.c	UEIR = 0;
007a3e   6a6a     clrf    0x6a, 0          	CLRF	_UEIR
                                           _01518_DS_:
007a40   0012     return  0                	RETURN	
                                           
                                           ; ; Starting pCode block
                                           S_main__CDCgetstring	code
                                           _CDCgetstring:
                                           ;	.line	151; /home/yeison/Documentos/python/apps/pinguinoIDE/x.4/p8/pinguino/libraries/__cdc.c	u8 * CDCgetstring(void)
007318   c000     movff   0, 0xfe5         	MOVFF	r0x00, POSTDEC1
00731a   ffe5
00731c   c001     movff   0x1, 0xfe5       	MOVFF	r0x01, POSTDEC1
00731e   ffe5
007320   c002     movff   0x2, 0xfe5       	MOVFF	r0x02, POSTDEC1
007322   ffe5
007324   c003     movff   0x3, 0xfe5       	MOVFF	r0x03, POSTDEC1
007326   ffe5
                                           ;	.line	156; /home/yeison/Documentos/python/apps/pinguinoIDE/x.4/p8/pinguino/libraries/__cdc.c	do {
007328   6a00     clrf    0, 0             	CLRF	r0x00
                                           _01498_DS_:
                                           ;	.line	157; /home/yeison/Documentos/python/apps/pinguinoIDE/x.4/p8/pinguino/libraries/__cdc.c	c = CDCgetkey();
00732a   eca0     call    0x7940, 0        	CALL	_CDCgetkey
00732c   f03c
00732e   6e01     movwf   0x1, 0           	MOVWF	r0x01
                                           ;	.line	158; /home/yeison/Documentos/python/apps/pinguinoIDE/x.4/p8/pinguino/libraries/__cdc.c	CDCprintf("%c", c);
007330   c001     movff   0x1, 0x2         	MOVFF	r0x01, r0x02
007332   f002
007334   6ae5     clrf    0xe5, 0          	CLRF	POSTDEC1
007336   5002     movf    0x2, 0, 0        	MOVF	r0x02, W
007338   6ee5     movwf   0xe5, 0          	MOVWF	POSTDEC1
00733a   0e00     movlw   0                	MOVLW	UPPER(__str_7)
00733c   6ee5     movwf   0xe5, 0          	MOVWF	POSTDEC1
00733e   0e3e     movlw   0x3e             	MOVLW	HIGH(__str_7)
007340   6ee5     movwf   0xe5, 0          	MOVWF	POSTDEC1
007342   0ee8     movlw   0xe8             	MOVLW	LOW(__str_7)
007344   6ee5     movwf   0xe5, 0          	MOVWF	POSTDEC1
007346   ec19     call    0x7432, 0        	CALL	_CDCprintf
007348   f03a
00734a   0e05     movlw   0x5              	MOVLW	0x05
00734c   26e1     addwf   0xe1, 0x1, 0     	ADDWF	FSR1L, F
                                           ;	.line	159; /home/yeison/Documentos/python/apps/pinguinoIDE/x.4/p8/pinguino/libraries/__cdc.c	_cdc_buffer[i++] = c;
00734e   c000     movff   0, 0x2           	MOVFF	r0x00, r0x02
007350   f002
007352   2a00     incf    0, 0x1, 0        	INCF	r0x00, F
007354   6a03     clrf    0x3, 0           	CLRF	r0x03
007356   0e63     movlw   0x63             	MOVLW	LOW(__cdc_buffer)
007358   2602     addwf   0x2, 0x1, 0      	ADDWF	r0x02, F
00735a   0e02     movlw   0x2              	MOVLW	HIGH(__cdc_buffer)
00735c   2203     addwfc  0x3, 0x1, 0      	ADDWFC	r0x03, F
00735e   c002     movff   0x2, 0xfe9       	MOVFF	r0x02, FSR0L
007360   ffe9
007362   c003     movff   0x3, 0xfea       	MOVFF	r0x03, FSR0H
007364   ffea
007366   c001     movff   0x1, 0xfef       	MOVFF	r0x01, INDF0
007368   ffef
                                           ;	.line	160; /home/yeison/Documentos/python/apps/pinguinoIDE/x.4/p8/pinguino/libraries/__cdc.c	} while (c != '\r');
00736a   5001     movf    0x1, 0, 0        	MOVF	r0x01, W
00736c   0a0d     xorlw   0xd              	XORLW	0x0d
00736e   e1dd     bnz     0x732a           	BNZ	_01498_DS_
                                           ;	.line	161; /home/yeison/Documentos/python/apps/pinguinoIDE/x.4/p8/pinguino/libraries/__cdc.c	_cdc_buffer[i] = '\0';
007370   6a01     clrf    0x1, 0           	CLRF	r0x01
007372   0e63     movlw   0x63             	MOVLW	LOW(__cdc_buffer)
007374   2600     addwf   0, 0x1, 0        	ADDWF	r0x00, F
007376   0e02     movlw   0x2              	MOVLW	HIGH(__cdc_buffer)
007378   2201     addwfc  0x1, 0x1, 0      	ADDWFC	r0x01, F
00737a   c000     movff   0, 0xfe9         	MOVFF	r0x00, FSR0L
00737c   ffe9
00737e   c001     movff   0x1, 0xfea       	MOVFF	r0x01, FSR0H
007380   ffea
007382   6aef     clrf    0xef, 0          	CLRF	INDF0
                                           ;	.line	162; /home/yeison/Documentos/python/apps/pinguinoIDE/x.4/p8/pinguino/libraries/__cdc.c	return _cdc_buffer;
007384   6e01     movwf   0x1, 0           	MOVWF	r0x01
007386   0e80     movlw   0x80             	MOVLW	0x80
007388   6e02     movwf   0x2, 0           	MOVWF	r0x02
00738a   c002     movff   0x2, 0xff4       	MOVFF	r0x02, PRODH
00738c   fff4
00738e   c001     movff   0x1, 0xff3       	MOVFF	r0x01, PRODL
007390   fff3
007392   0e63     movlw   0x63             	MOVLW	LOW(__cdc_buffer)
007394   cfe4     movff   0xfe4, 0x3       	MOVFF	PREINC1, r0x03
007396   f003
007398   cfe4     movff   0xfe4, 0x2       	MOVFF	PREINC1, r0x02
00739a   f002
00739c   cfe4     movff   0xfe4, 0x1       	MOVFF	PREINC1, r0x01
00739e   f001
0073a0   cfe4     movff   0xfe4, 0         	MOVFF	PREINC1, r0x00
0073a2   f000
0073a4   0012     return  0                	RETURN	
                                           
                                           ; ; Starting pCode block
                                           S_main__CDCgetkey	code
                                           _CDCgetkey:
                                           ;	.line	142; /home/yeison/Documentos/python/apps/pinguinoIDE/x.4/p8/pinguino/libraries/__cdc.c	u8 CDCgetkey(void)
007940   c000     movff   0, 0xfe5         	MOVFF	r0x00, POSTDEC1
007942   ffe5
                                           _01490_DS_:
                                           ;	.line	146; /home/yeison/Documentos/python/apps/pinguinoIDE/x.4/p8/pinguino/libraries/__cdc.c	while (!CDCgets(_cdc_buffer));
007944   0e80     movlw   0x80             	MOVLW	0x80
                                           ; #	MOVWF	r0x02
                                           ; #	MOVF	r0x02, W
007946   6ee5     movwf   0xe5, 0          	MOVWF	POSTDEC1
007948   0e02     movlw   0x2              	MOVLW	HIGH(__cdc_buffer)
00794a   6ee5     movwf   0xe5, 0          	MOVWF	POSTDEC1
00794c   0e63     movlw   0x63             	MOVLW	LOW(__cdc_buffer)
00794e   6ee5     movwf   0xe5, 0          	MOVWF	POSTDEC1
007950   ec63     call    0x5ac6, 0        	CALL	_CDCgets
007952   f02d
007954   6e00     movwf   0, 0             	MOVWF	r0x00
007956   0e03     movlw   0x3              	MOVLW	0x03
007958   26e1     addwf   0xe1, 0x1, 0     	ADDWF	FSR1L, F
00795a   5000     movf    0, 0, 0          	MOVF	r0x00, W
00795c   e0f3     bz      0x7944           	BZ	_01490_DS_
00795e   0102     movlb   0x2              	BANKSEL	__cdc_buffer
                                           ;	.line	147; /home/yeison/Documentos/python/apps/pinguinoIDE/x.4/p8/pinguino/libraries/__cdc.c	return (_cdc_buffer[0]);	// return only the first character
007960   5163     movf    0x63, 0, 0x1     	MOVF	__cdc_buffer, W, B
007962   cfe4     movff   0xfe4, 0         	MOVFF	PREINC1, r0x00
007964   f000
007966   0012     return  0                	RETURN	
                                           
                                           ; ; Starting pCode block
                                           S_main__CDCprintln	code
                                           _CDCprintln:
                                           ;	.line	132; /home/yeison/Documentos/python/apps/pinguinoIDE/x.4/p8/pinguino/libraries/__cdc.c	void CDCprintln(const u8 *fmt, ...)
006ad6   cfd9     movff   0xfd9, 0xfe5     	MOVFF	FSR2L, POSTDEC1
006ad8   ffe5
006ada   cfe1     movff   0xfe1, 0xfd9     	MOVFF	FSR1L, FSR2L
006adc   ffd9
006ade   c000     movff   0, 0xfe5         	MOVFF	r0x00, POSTDEC1
006ae0   ffe5
006ae2   c001     movff   0x1, 0xfe5       	MOVFF	r0x01, POSTDEC1
006ae4   ffe5
006ae6   c002     movff   0x2, 0xfe5       	MOVFF	r0x02, POSTDEC1
006ae8   ffe5
                                           ;	.line	135; /home/yeison/Documentos/python/apps/pinguinoIDE/x.4/p8/pinguino/libraries/__cdc.c	va_start(args, fmt);					// initialize the list
006aea   0e02     movlw   0x2              	MOVLW	0x02
006aec   24d9     addwf   0xd9, 0, 0       	ADDWF	FSR2L, W
006aee   6e00     movwf   0, 0             	MOVWF	r0x00
006af0   0e00     movlw   0                	MOVLW	0x00
006af2   20da     addwfc  0xda, 0, 0       	ADDWFC	FSR2H, W
                                           ; #	MOVWF	r0x01
                                           ; #	MOVF	r0x01, W
                                           ; #	MOVWF	r0x01
                                           ; #	MOVWF	r0x01
006af4   6e01     movwf   0x1, 0           	MOVWF	r0x01
                                           ; #	MOVF	r0x00, W
                                           ; #	MOVWF	r0x00
006af6   0e80     movlw   0x80             	MOVLW	0x80
006af8   6e02     movwf   0x2, 0           	MOVWF	r0x02
006afa   0e03     movlw   0x3              	MOVLW	0x03
006afc   2600     addwf   0, 0x1, 0        	ADDWF	r0x00, F
006afe   0e00     movlw   0                	MOVLW	0x00
006b00   2201     addwfc  0x1, 0x1, 0      	ADDWFC	r0x01, F
006b02   2202     addwfc  0x2, 0x1, 0      	ADDWFC	r0x02, F
                                           ;	.line	137; /home/yeison/Documentos/python/apps/pinguinoIDE/x.4/p8/pinguino/libraries/__cdc.c	CDCprintf(fmt, args);
006b04   c003     movff   0x3, 0xfe5       	MOVFF	r0x03, POSTDEC1
006b06   ffe5
006b08   c004     movff   0x4, 0xfe5       	MOVFF	r0x04, POSTDEC1
006b0a   ffe5
006b0c   c005     movff   0x5, 0xfe5       	MOVFF	r0x05, POSTDEC1
006b0e   ffe5
006b10   0e02     movlw   0x2              	MOVLW	0x02
006b12   cfdb     movff   0xfdb, 0x3       	MOVFF	PLUSW2, r0x03
006b14   f003
006b16   0e03     movlw   0x3              	MOVLW	0x03
006b18   cfdb     movff   0xfdb, 0x4       	MOVFF	PLUSW2, r0x04
006b1a   f004
006b1c   0e04     movlw   0x4              	MOVLW	0x04
006b1e   cfdb     movff   0xfdb, 0x5       	MOVFF	PLUSW2, r0x05
006b20   f005
006b22   cfe4     movff   0xfe4, 0x5       	MOVFF	PREINC1, r0x05
006b24   f005
006b26   cfe4     movff   0xfe4, 0x4       	MOVFF	PREINC1, r0x04
006b28   f004
006b2a   cfe4     movff   0xfe4, 0x3       	MOVFF	PREINC1, r0x03
006b2c   f003
006b2e   5002     movf    0x2, 0, 0        	MOVF	r0x02, W
006b30   6ee5     movwf   0xe5, 0          	MOVWF	POSTDEC1
006b32   5001     movf    0x1, 0, 0        	MOVF	r0x01, W
006b34   6ee5     movwf   0xe5, 0          	MOVWF	POSTDEC1
006b36   5000     movf    0, 0, 0          	MOVF	r0x00, W
006b38   6ee5     movwf   0xe5, 0          	MOVWF	POSTDEC1
006b3a   c003     movff   0x3, 0xfe5       	MOVFF	r0x03, POSTDEC1
006b3c   ffe5
006b3e   c004     movff   0x4, 0xfe5       	MOVFF	r0x04, POSTDEC1
006b40   ffe5
006b42   c005     movff   0x5, 0xfe5       	MOVFF	r0x05, POSTDEC1
006b44   ffe5
006b46   0e02     movlw   0x2              	MOVLW	0x02
006b48   cfdb     movff   0xfdb, 0x3       	MOVFF	PLUSW2, r0x03
006b4a   f003
006b4c   0e03     movlw   0x3              	MOVLW	0x03
006b4e   cfdb     movff   0xfdb, 0x4       	MOVFF	PLUSW2, r0x04
006b50   f004
006b52   0e04     movlw   0x4              	MOVLW	0x04
006b54   cfdb     movff   0xfdb, 0x5       	MOVFF	PLUSW2, r0x05
006b56   f005
006b58   5005     movf    0x5, 0, 0        	MOVF	r0x05, W
006b5a   6ee5     movwf   0xe5, 0          	MOVWF	POSTDEC1
006b5c   5004     movf    0x4, 0, 0        	MOVF	r0x04, W
006b5e   6ee5     movwf   0xe5, 0          	MOVWF	POSTDEC1
006b60   5003     movf    0x3, 0, 0        	MOVF	r0x03, W
006b62   6ee5     movwf   0xe5, 0          	MOVWF	POSTDEC1
006b64   cfe4     movff   0xfe4, 0x5       	MOVFF	PREINC1, r0x05
006b66   f005
006b68   cfe4     movff   0xfe4, 0x4       	MOVFF	PREINC1, r0x04
006b6a   f004
006b6c   cfe4     movff   0xfe4, 0x3       	MOVFF	PREINC1, r0x03
006b6e   f003
006b70   ec19     call    0x7432, 0        	CALL	_CDCprintf
006b72   f03a
006b74   0e06     movlw   0x6              	MOVLW	0x06
006b76   26e1     addwf   0xe1, 0x1, 0     	ADDWF	FSR1L, F
                                           ;	.line	138; /home/yeison/Documentos/python/apps/pinguinoIDE/x.4/p8/pinguino/libraries/__cdc.c	CDCprintf("\n\r");
006b78   0e00     movlw   0                	MOVLW	UPPER(__str_6)
006b7a   6ee5     movwf   0xe5, 0          	MOVWF	POSTDEC1
006b7c   0e3e     movlw   0x3e             	MOVLW	HIGH(__str_6)
006b7e   6ee5     movwf   0xe5, 0          	MOVWF	POSTDEC1
006b80   0ee4     movlw   0xe4             	MOVLW	LOW(__str_6)
006b82   6ee5     movwf   0xe5, 0          	MOVWF	POSTDEC1
006b84   ec19     call    0x7432, 0        	CALL	_CDCprintf
006b86   f03a
006b88   0e03     movlw   0x3              	MOVLW	0x03
006b8a   26e1     addwf   0xe1, 0x1, 0     	ADDWF	FSR1L, F
006b8c   cfe4     movff   0xfe4, 0x2       	MOVFF	PREINC1, r0x02
006b8e   f002
006b90   cfe4     movff   0xfe4, 0x1       	MOVFF	PREINC1, r0x01
006b92   f001
006b94   cfe4     movff   0xfe4, 0         	MOVFF	PREINC1, r0x00
006b96   f000
006b98   cfe4     movff   0xfe4, 0xfd9     	MOVFF	PREINC1, FSR2L
006b9a   ffd9
006b9c   0012     return  0                	RETURN	
                                           
                                           ; ; Starting pCode block
                                           S_main__CDCprint	code
                                           _CDCprint:
                                           ;	.line	95; /home/yeison/Documentos/python/apps/pinguinoIDE/x.4/p8/pinguino/libraries/__cdc.c	void CDCprint(const u8 *fmt, ...)
00495c   cfd9     movff   0xfd9, 0xfe5     	MOVFF	FSR2L, POSTDEC1
00495e   ffe5
004960   cfe1     movff   0xfe1, 0xfd9     	MOVFF	FSR1L, FSR2L
004962   ffd9
004964   c000     movff   0, 0xfe5         	MOVFF	r0x00, POSTDEC1
004966   ffe5
004968   c001     movff   0x1, 0xfe5       	MOVFF	r0x01, POSTDEC1
00496a   ffe5
00496c   c002     movff   0x2, 0xfe5       	MOVFF	r0x02, POSTDEC1
00496e   ffe5
                                           ;	.line	99; /home/yeison/Documentos/python/apps/pinguinoIDE/x.4/p8/pinguino/libraries/__cdc.c	va_start(args, fmt);					// initialize the list
004970   0e02     movlw   0x2              	MOVLW	0x02
004972   24d9     addwf   0xd9, 0, 0       	ADDWF	FSR2L, W
004974   6e00     movwf   0, 0             	MOVWF	r0x00
004976   0e00     movlw   0                	MOVLW	0x00
004978   20da     addwfc  0xda, 0, 0       	ADDWFC	FSR2H, W
                                           ; #	MOVWF	r0x01
                                           ; #	MOVF	r0x01, W
                                           ; #	MOVWF	r0x01
                                           ; #	MOVWF	r0x01
00497a   6e01     movwf   0x1, 0           	MOVWF	r0x01
                                           ; #	MOVF	r0x00, W
                                           ; #	MOVWF	r0x00
00497c   0e80     movlw   0x80             	MOVLW	0x80
00497e   6e02     movwf   0x2, 0           	MOVWF	r0x02
004980   0e03     movlw   0x3              	MOVLW	0x03
004982   2600     addwf   0, 0x1, 0        	ADDWF	r0x00, F
004984   0e00     movlw   0                	MOVLW	0x00
004986   2201     addwfc  0x1, 0x1, 0      	ADDWFC	r0x01, F
004988   2202     addwfc  0x2, 0x1, 0      	ADDWFC	r0x02, F
                                           ; #	MOVF	r0x02, W
                                           ; #	MOVWF	r0x02
                                           ; #	MOVF	r0x02, W
                                           ; #	MOVF	r0x01, W
                                           ; #	MOVF	r0x01, W
                                           ; #	MOVWF	r0x01
                                           ; #	MOVF	r0x01, W
                                           ; #	MOVF	r0x00, W
                                           ; #	MOVF	r0x00, W
                                           ; #	MOVWF	r0x00
                                           ;	.line	100; /home/yeison/Documentos/python/apps/pinguinoIDE/x.4/p8/pinguino/libraries/__cdc.c	s = (u8) va_arg(args, u32);				// get the first variable arg.
00498a   c000     movff   0, 0xfe9         	MOVFF	r0x00, FSR0L
00498c   ffe9
00498e   c001     movff   0x1, 0xff3       	MOVFF	r0x01, PRODL
004990   fff3
004992   5002     movf    0x2, 0, 0        	MOVF	r0x02, W
004994   ec2f     call    0x5e, 0          	CALL	__gptrget4
004996   f000
004998   6e00     movwf   0, 0             	MOVWF	r0x00
                                           ;	.line	103; /home/yeison/Documentos/python/apps/pinguinoIDE/x.4/p8/pinguino/libraries/__cdc.c	switch (s)
00499a   0a01     xorlw   0x1              	XORLW	0x01
00499c   e101     bnz     0x49a0           	BNZ	_01470_DS_
00499e   d09a     bra     0x4ad4           	BRA	_01444_DS_
                                           _01470_DS_:
0049a0   5000     movf    0, 0, 0          	MOVF	r0x00, W
0049a2   0a02     xorlw   0x2              	XORLW	0x02
0049a4   e101     bnz     0x49a8           	BNZ	_01472_DS_
0049a6   d0f0     bra     0x4b88           	BRA	_01446_DS_
                                           _01472_DS_:
0049a8   5000     movf    0, 0, 0          	MOVF	r0x00, W
0049aa   0a08     xorlw   0x8              	XORLW	0x08
0049ac   e101     bnz     0x49b0           	BNZ	_01474_DS_
0049ae   d0bf     bra     0x4b2e           	BRA	_01445_DS_
                                           _01474_DS_:
0049b0   5000     movf    0, 0, 0          	MOVF	r0x00, W
0049b2   0a0a     xorlw   0xa              	XORLW	0x0a
0049b4   e035     bz      0x4a20           	BZ	_01442_DS_
0049b6   5000     movf    0, 0, 0          	MOVF	r0x00, W
0049b8   0a10     xorlw   0x10             	XORLW	0x10
0049ba   e101     bnz     0x49be           	BNZ	_01478_DS_
0049bc   d05e     bra     0x4a7a           	BRA	_01443_DS_
                                           _01478_DS_:
0049be   5000     movf    0, 0, 0          	MOVF	r0x00, W
0049c0   0a20     xorlw   0x20             	XORLW	0x20
0049c2   e001     bz      0x49c6           	BZ	_01480_DS_
0049c4   d10e     bra     0x4be2           	BRA	_01447_DS_
                                           _01480_DS_:
                                           ;	.line	106; /home/yeison/Documentos/python/apps/pinguinoIDE/x.4/p8/pinguino/libraries/__cdc.c	CDCprintf("%f", (u32)fmt);
0049c6   c007     movff   0x7, 0xfe5       	MOVFF	r0x07, POSTDEC1
0049c8   ffe5
0049ca   c008     movff   0x8, 0xfe5       	MOVFF	r0x08, POSTDEC1
0049cc   ffe5
0049ce   c009     movff   0x9, 0xfe5       	MOVFF	r0x09, POSTDEC1
0049d0   ffe5
0049d2   0e02     movlw   0x2              	MOVLW	0x02
0049d4   cfdb     movff   0xfdb, 0x7       	MOVFF	PLUSW2, r0x07
0049d6   f007
0049d8   0e03     movlw   0x3              	MOVLW	0x03
0049da   cfdb     movff   0xfdb, 0x8       	MOVFF	PLUSW2, r0x08
0049dc   f008
0049de   0e04     movlw   0x4              	MOVLW	0x04
0049e0   cfdb     movff   0xfdb, 0x9       	MOVFF	PLUSW2, r0x09
0049e2   f009
0049e4   c007     movff   0x7, 0           	MOVFF	r0x07, r0x00
0049e6   f000
0049e8   c008     movff   0x8, 0x1         	MOVFF	r0x08, r0x01
0049ea   f001
0049ec   c009     movff   0x9, 0x2         	MOVFF	r0x09, r0x02
0049ee   f002
0049f0   cfe4     movff   0xfe4, 0x9       	MOVFF	PREINC1, r0x09
0049f2   f009
0049f4   cfe4     movff   0xfe4, 0x8       	MOVFF	PREINC1, r0x08
0049f6   f008
0049f8   cfe4     movff   0xfe4, 0x7       	MOVFF	PREINC1, r0x07
0049fa   f007
0049fc   6ae5     clrf    0xe5, 0          	CLRF	POSTDEC1
0049fe   5002     movf    0x2, 0, 0        	MOVF	r0x02, W
004a00   6ee5     movwf   0xe5, 0          	MOVWF	POSTDEC1
004a02   5001     movf    0x1, 0, 0        	MOVF	r0x01, W
004a04   6ee5     movwf   0xe5, 0          	MOVWF	POSTDEC1
004a06   5000     movf    0, 0, 0          	MOVF	r0x00, W
004a08   6ee5     movwf   0xe5, 0          	MOVWF	POSTDEC1
004a0a   0e00     movlw   0                	MOVLW	UPPER(__str_1)
004a0c   6ee5     movwf   0xe5, 0          	MOVWF	POSTDEC1
004a0e   0e3e     movlw   0x3e             	MOVLW	HIGH(__str_1)
004a10   6ee5     movwf   0xe5, 0          	MOVWF	POSTDEC1
004a12   0ed0     movlw   0xd0             	MOVLW	LOW(__str_1)
004a14   6ee5     movwf   0xe5, 0          	MOVWF	POSTDEC1
004a16   ec19     call    0x7432, 0        	CALL	_CDCprintf
004a18   f03a
004a1a   0e07     movlw   0x7              	MOVLW	0x07
004a1c   26e1     addwf   0xe1, 0x1, 0     	ADDWF	FSR1L, F
                                           ;	.line	107; /home/yeison/Documentos/python/apps/pinguinoIDE/x.4/p8/pinguino/libraries/__cdc.c	break;
004a1e   d115     bra     0x4c4a           	BRA	_01449_DS_
                                           _01442_DS_:
                                           ;	.line	109; /home/yeison/Documentos/python/apps/pinguinoIDE/x.4/p8/pinguino/libraries/__cdc.c	CDCprintf("%d", (u32)fmt);
004a20   c007     movff   0x7, 0xfe5       	MOVFF	r0x07, POSTDEC1
004a22   ffe5
004a24   c008     movff   0x8, 0xfe5       	MOVFF	r0x08, POSTDEC1
004a26   ffe5
004a28   c009     movff   0x9, 0xfe5       	MOVFF	r0x09, POSTDEC1
004a2a   ffe5
004a2c   0e02     movlw   0x2              	MOVLW	0x02
004a2e   cfdb     movff   0xfdb, 0x7       	MOVFF	PLUSW2, r0x07
004a30   f007
004a32   0e03     movlw   0x3              	MOVLW	0x03
004a34   cfdb     movff   0xfdb, 0x8       	MOVFF	PLUSW2, r0x08
004a36   f008
004a38   0e04     movlw   0x4              	MOVLW	0x04
004a3a   cfdb     movff   0xfdb, 0x9       	MOVFF	PLUSW2, r0x09
004a3c   f009
004a3e   c007     movff   0x7, 0           	MOVFF	r0x07, r0x00
004a40   f000
004a42   c008     movff   0x8, 0x1         	MOVFF	r0x08, r0x01
004a44   f001
004a46   c009     movff   0x9, 0x2         	MOVFF	r0x09, r0x02
004a48   f002
004a4a   cfe4     movff   0xfe4, 0x9       	MOVFF	PREINC1, r0x09
004a4c   f009
004a4e   cfe4     movff   0xfe4, 0x8       	MOVFF	PREINC1, r0x08
004a50   f008
004a52   cfe4     movff   0xfe4, 0x7       	MOVFF	PREINC1, r0x07
004a54   f007
004a56   6ae5     clrf    0xe5, 0          	CLRF	POSTDEC1
004a58   5002     movf    0x2, 0, 0        	MOVF	r0x02, W
004a5a   6ee5     movwf   0xe5, 0          	MOVWF	POSTDEC1
004a5c   5001     movf    0x1, 0, 0        	MOVF	r0x01, W
004a5e   6ee5     movwf   0xe5, 0          	MOVWF	POSTDEC1
004a60   5000     movf    0, 0, 0          	MOVF	r0x00, W
004a62   6ee5     movwf   0xe5, 0          	MOVWF	POSTDEC1
004a64   0e00     movlw   0                	MOVLW	UPPER(__str_2)
004a66   6ee5     movwf   0xe5, 0          	MOVWF	POSTDEC1
004a68   0e3e     movlw   0x3e             	MOVLW	HIGH(__str_2)
004a6a   6ee5     movwf   0xe5, 0          	MOVWF	POSTDEC1
004a6c   0ed4     movlw   0xd4             	MOVLW	LOW(__str_2)
004a6e   6ee5     movwf   0xe5, 0          	MOVWF	POSTDEC1
004a70   ec19     call    0x7432, 0        	CALL	_CDCprintf
004a72   f03a
004a74   0e07     movlw   0x7              	MOVLW	0x07
004a76   26e1     addwf   0xe1, 0x1, 0     	ADDWF	FSR1L, F
                                           ;	.line	110; /home/yeison/Documentos/python/apps/pinguinoIDE/x.4/p8/pinguino/libraries/__cdc.c	break;
004a78   d0e8     bra     0x4c4a           	BRA	_01449_DS_
                                           _01443_DS_:
                                           ;	.line	112; /home/yeison/Documentos/python/apps/pinguinoIDE/x.4/p8/pinguino/libraries/__cdc.c	CDCprintf("%x", (u32)fmt);
004a7a   c007     movff   0x7, 0xfe5       	MOVFF	r0x07, POSTDEC1
004a7c   ffe5
004a7e   c008     movff   0x8, 0xfe5       	MOVFF	r0x08, POSTDEC1
004a80   ffe5
004a82   c009     movff   0x9, 0xfe5       	MOVFF	r0x09, POSTDEC1
004a84   ffe5
004a86   0e02     movlw   0x2              	MOVLW	0x02
004a88   cfdb     movff   0xfdb, 0x7       	MOVFF	PLUSW2, r0x07
004a8a   f007
004a8c   0e03     movlw   0x3              	MOVLW	0x03
004a8e   cfdb     movff   0xfdb, 0x8       	MOVFF	PLUSW2, r0x08
004a90   f008
004a92   0e04     movlw   0x4              	MOVLW	0x04
004a94   cfdb     movff   0xfdb, 0x9       	MOVFF	PLUSW2, r0x09
004a96   f009
004a98   c007     movff   0x7, 0           	MOVFF	r0x07, r0x00
004a9a   f000
004a9c   c008     movff   0x8, 0x1         	MOVFF	r0x08, r0x01
004a9e   f001
004aa0   c009     movff   0x9, 0x2         	MOVFF	r0x09, r0x02
004aa2   f002
004aa4   cfe4     movff   0xfe4, 0x9       	MOVFF	PREINC1, r0x09
004aa6   f009
004aa8   cfe4     movff   0xfe4, 0x8       	MOVFF	PREINC1, r0x08
004aaa   f008
004aac   cfe4     movff   0xfe4, 0x7       	MOVFF	PREINC1, r0x07
004aae   f007
004ab0   6ae5     clrf    0xe5, 0          	CLRF	POSTDEC1
004ab2   5002     movf    0x2, 0, 0        	MOVF	r0x02, W
004ab4   6ee5     movwf   0xe5, 0          	MOVWF	POSTDEC1
004ab6   5001     movf    0x1, 0, 0        	MOVF	r0x01, W
004ab8   6ee5     movwf   0xe5, 0          	MOVWF	POSTDEC1
004aba   5000     movf    0, 0, 0          	MOVF	r0x00, W
004abc   6ee5     movwf   0xe5, 0          	MOVWF	POSTDEC1
004abe   0e00     movlw   0                	MOVLW	UPPER(__str_3)
004ac0   6ee5     movwf   0xe5, 0          	MOVWF	POSTDEC1
004ac2   0e3e     movlw   0x3e             	MOVLW	HIGH(__str_3)
004ac4   6ee5     movwf   0xe5, 0          	MOVWF	POSTDEC1
004ac6   0ed8     movlw   0xd8             	MOVLW	LOW(__str_3)
004ac8   6ee5     movwf   0xe5, 0          	MOVWF	POSTDEC1
004aca   ec19     call    0x7432, 0        	CALL	_CDCprintf
004acc   f03a
004ace   0e07     movlw   0x7              	MOVLW	0x07
004ad0   26e1     addwf   0xe1, 0x1, 0     	ADDWF	FSR1L, F
                                           ;	.line	113; /home/yeison/Documentos/python/apps/pinguinoIDE/x.4/p8/pinguino/libraries/__cdc.c	break;
004ad2   d0bb     bra     0x4c4a           	BRA	_01449_DS_
                                           _01444_DS_:
                                           ;	.line	116; /home/yeison/Documentos/python/apps/pinguinoIDE/x.4/p8/pinguino/libraries/__cdc.c	CDCprintf("%d", (u32)fmt);
004ad4   c007     movff   0x7, 0xfe5       	MOVFF	r0x07, POSTDEC1
004ad6   ffe5
004ad8   c008     movff   0x8, 0xfe5       	MOVFF	r0x08, POSTDEC1
004ada   ffe5
004adc   c009     movff   0x9, 0xfe5       	MOVFF	r0x09, POSTDEC1
004ade   ffe5
004ae0   0e02     movlw   0x2              	MOVLW	0x02
004ae2   cfdb     movff   0xfdb, 0x7       	MOVFF	PLUSW2, r0x07
004ae4   f007
004ae6   0e03     movlw   0x3              	MOVLW	0x03
004ae8   cfdb     movff   0xfdb, 0x8       	MOVFF	PLUSW2, r0x08
004aea   f008
004aec   0e04     movlw   0x4              	MOVLW	0x04
004aee   cfdb     movff   0xfdb, 0x9       	MOVFF	PLUSW2, r0x09
004af0   f009
004af2   c007     movff   0x7, 0           	MOVFF	r0x07, r0x00
004af4   f000
004af6   c008     movff   0x8, 0x1         	MOVFF	r0x08, r0x01
004af8   f001
004afa   c009     movff   0x9, 0x2         	MOVFF	r0x09, r0x02
004afc   f002
004afe   cfe4     movff   0xfe4, 0x9       	MOVFF	PREINC1, r0x09
004b00   f009
004b02   cfe4     movff   0xfe4, 0x8       	MOVFF	PREINC1, r0x08
004b04   f008
004b06   cfe4     movff   0xfe4, 0x7       	MOVFF	PREINC1, r0x07
004b08   f007
004b0a   6ae5     clrf    0xe5, 0          	CLRF	POSTDEC1
004b0c   5002     movf    0x2, 0, 0        	MOVF	r0x02, W
004b0e   6ee5     movwf   0xe5, 0          	MOVWF	POSTDEC1
004b10   5001     movf    0x1, 0, 0        	MOVF	r0x01, W
004b12   6ee5     movwf   0xe5, 0          	MOVWF	POSTDEC1
004b14   5000     movf    0, 0, 0          	MOVF	r0x00, W
004b16   6ee5     movwf   0xe5, 0          	MOVWF	POSTDEC1
004b18   0e00     movlw   0                	MOVLW	UPPER(__str_2)
004b1a   6ee5     movwf   0xe5, 0          	MOVWF	POSTDEC1
004b1c   0e3e     movlw   0x3e             	MOVLW	HIGH(__str_2)
004b1e   6ee5     movwf   0xe5, 0          	MOVWF	POSTDEC1
004b20   0ed4     movlw   0xd4             	MOVLW	LOW(__str_2)
004b22   6ee5     movwf   0xe5, 0          	MOVWF	POSTDEC1
004b24   ec19     call    0x7432, 0        	CALL	_CDCprintf
004b26   f03a
004b28   0e07     movlw   0x7              	MOVLW	0x07
004b2a   26e1     addwf   0xe1, 0x1, 0     	ADDWF	FSR1L, F
                                           ;	.line	117; /home/yeison/Documentos/python/apps/pinguinoIDE/x.4/p8/pinguino/libraries/__cdc.c	break;
004b2c   d08e     bra     0x4c4a           	BRA	_01449_DS_
                                           _01445_DS_:
                                           ;	.line	119; /home/yeison/Documentos/python/apps/pinguinoIDE/x.4/p8/pinguino/libraries/__cdc.c	CDCprintf("%o", (u32)fmt);
004b2e   c007     movff   0x7, 0xfe5       	MOVFF	r0x07, POSTDEC1
004b30   ffe5
004b32   c008     movff   0x8, 0xfe5       	MOVFF	r0x08, POSTDEC1
004b34   ffe5
004b36   c009     movff   0x9, 0xfe5       	MOVFF	r0x09, POSTDEC1
004b38   ffe5
004b3a   0e02     movlw   0x2              	MOVLW	0x02
004b3c   cfdb     movff   0xfdb, 0x7       	MOVFF	PLUSW2, r0x07
004b3e   f007
004b40   0e03     movlw   0x3              	MOVLW	0x03
004b42   cfdb     movff   0xfdb, 0x8       	MOVFF	PLUSW2, r0x08
004b44   f008
004b46   0e04     movlw   0x4              	MOVLW	0x04
004b48   cfdb     movff   0xfdb, 0x9       	MOVFF	PLUSW2, r0x09
004b4a   f009
004b4c   c007     movff   0x7, 0           	MOVFF	r0x07, r0x00
004b4e   f000
004b50   c008     movff   0x8, 0x1         	MOVFF	r0x08, r0x01
004b52   f001
004b54   c009     movff   0x9, 0x2         	MOVFF	r0x09, r0x02
004b56   f002
004b58   cfe4     movff   0xfe4, 0x9       	MOVFF	PREINC1, r0x09
004b5a   f009
004b5c   cfe4     movff   0xfe4, 0x8       	MOVFF	PREINC1, r0x08
004b5e   f008
004b60   cfe4     movff   0xfe4, 0x7       	MOVFF	PREINC1, r0x07
004b62   f007
004b64   6ae5     clrf    0xe5, 0          	CLRF	POSTDEC1
004b66   5002     movf    0x2, 0, 0        	MOVF	r0x02, W
004b68   6ee5     movwf   0xe5, 0          	MOVWF	POSTDEC1
004b6a   5001     movf    0x1, 0, 0        	MOVF	r0x01, W
004b6c   6ee5     movwf   0xe5, 0          	MOVWF	POSTDEC1
004b6e   5000     movf    0, 0, 0          	MOVF	r0x00, W
004b70   6ee5     movwf   0xe5, 0          	MOVWF	POSTDEC1
004b72   0e00     movlw   0                	MOVLW	UPPER(__str_4)
004b74   6ee5     movwf   0xe5, 0          	MOVWF	POSTDEC1
004b76   0e3e     movlw   0x3e             	MOVLW	HIGH(__str_4)
004b78   6ee5     movwf   0xe5, 0          	MOVWF	POSTDEC1
004b7a   0edc     movlw   0xdc             	MOVLW	LOW(__str_4)
004b7c   6ee5     movwf   0xe5, 0          	MOVWF	POSTDEC1
004b7e   ec19     call    0x7432, 0        	CALL	_CDCprintf
004b80   f03a
004b82   0e07     movlw   0x7              	MOVLW	0x07
004b84   26e1     addwf   0xe1, 0x1, 0     	ADDWF	FSR1L, F
                                           ;	.line	120; /home/yeison/Documentos/python/apps/pinguinoIDE/x.4/p8/pinguino/libraries/__cdc.c	break;
004b86   d061     bra     0x4c4a           	BRA	_01449_DS_
                                           _01446_DS_:
                                           ;	.line	122; /home/yeison/Documentos/python/apps/pinguinoIDE/x.4/p8/pinguino/libraries/__cdc.c	CDCprintf("%b", (u32)fmt);
004b88   c007     movff   0x7, 0xfe5       	MOVFF	r0x07, POSTDEC1
004b8a   ffe5
004b8c   c008     movff   0x8, 0xfe5       	MOVFF	r0x08, POSTDEC1
004b8e   ffe5
004b90   c009     movff   0x9, 0xfe5       	MOVFF	r0x09, POSTDEC1
004b92   ffe5
004b94   0e02     movlw   0x2              	MOVLW	0x02
004b96   cfdb     movff   0xfdb, 0x7       	MOVFF	PLUSW2, r0x07
004b98   f007
004b9a   0e03     movlw   0x3              	MOVLW	0x03
004b9c   cfdb     movff   0xfdb, 0x8       	MOVFF	PLUSW2, r0x08
004b9e   f008
004ba0   0e04     movlw   0x4              	MOVLW	0x04
004ba2   cfdb     movff   0xfdb, 0x9       	MOVFF	PLUSW2, r0x09
004ba4   f009
004ba6   c007     movff   0x7, 0           	MOVFF	r0x07, r0x00
004ba8   f000
004baa   c008     movff   0x8, 0x1         	MOVFF	r0x08, r0x01
004bac   f001
004bae   c009     movff   0x9, 0x2         	MOVFF	r0x09, r0x02
004bb0   f002
004bb2   cfe4     movff   0xfe4, 0x9       	MOVFF	PREINC1, r0x09
004bb4   f009
004bb6   cfe4     movff   0xfe4, 0x8       	MOVFF	PREINC1, r0x08
004bb8   f008
004bba   cfe4     movff   0xfe4, 0x7       	MOVFF	PREINC1, r0x07
004bbc   f007
004bbe   6ae5     clrf    0xe5, 0          	CLRF	POSTDEC1
004bc0   5002     movf    0x2, 0, 0        	MOVF	r0x02, W
004bc2   6ee5     movwf   0xe5, 0          	MOVWF	POSTDEC1
004bc4   5001     movf    0x1, 0, 0        	MOVF	r0x01, W
004bc6   6ee5     movwf   0xe5, 0          	MOVWF	POSTDEC1
004bc8   5000     movf    0, 0, 0          	MOVF	r0x00, W
004bca   6ee5     movwf   0xe5, 0          	MOVWF	POSTDEC1
004bcc   0e00     movlw   0                	MOVLW	UPPER(__str_5)
004bce   6ee5     movwf   0xe5, 0          	MOVWF	POSTDEC1
004bd0   0e3e     movlw   0x3e             	MOVLW	HIGH(__str_5)
004bd2   6ee5     movwf   0xe5, 0          	MOVWF	POSTDEC1
004bd4   0ee0     movlw   0xe0             	MOVLW	LOW(__str_5)
004bd6   6ee5     movwf   0xe5, 0          	MOVWF	POSTDEC1
004bd8   ec19     call    0x7432, 0        	CALL	_CDCprintf
004bda   f03a
004bdc   0e07     movlw   0x7              	MOVLW	0x07
004bde   26e1     addwf   0xe1, 0x1, 0     	ADDWF	FSR1L, F
                                           ;	.line	123; /home/yeison/Documentos/python/apps/pinguinoIDE/x.4/p8/pinguino/libraries/__cdc.c	break;           
004be0   d034     bra     0x4c4a           	BRA	_01449_DS_
                                           _01447_DS_:
                                           ;	.line	125; /home/yeison/Documentos/python/apps/pinguinoIDE/x.4/p8/pinguino/libraries/__cdc.c	CDCprintf(fmt);
004be2   c007     movff   0x7, 0xfe5       	MOVFF	r0x07, POSTDEC1
004be4   ffe5
004be6   c008     movff   0x8, 0xfe5       	MOVFF	r0x08, POSTDEC1
004be8   ffe5
004bea   c009     movff   0x9, 0xfe5       	MOVFF	r0x09, POSTDEC1
004bec   ffe5
004bee   0e02     movlw   0x2              	MOVLW	0x02
004bf0   cfdb     movff   0xfdb, 0x7       	MOVFF	PLUSW2, r0x07
004bf2   f007
004bf4   0e03     movlw   0x3              	MOVLW	0x03
004bf6   cfdb     movff   0xfdb, 0x8       	MOVFF	PLUSW2, r0x08
004bf8   f008
004bfa   0e04     movlw   0x4              	MOVLW	0x04
004bfc   cfdb     movff   0xfdb, 0x9       	MOVFF	PLUSW2, r0x09
004bfe   f009
004c00   cfe4     movff   0xfe4, 0x9       	MOVFF	PREINC1, r0x09
004c02   f009
004c04   cfe4     movff   0xfe4, 0x8       	MOVFF	PREINC1, r0x08
004c06   f008
004c08   cfe4     movff   0xfe4, 0x7       	MOVFF	PREINC1, r0x07
004c0a   f007
004c0c   c007     movff   0x7, 0xfe5       	MOVFF	r0x07, POSTDEC1
004c0e   ffe5
004c10   c008     movff   0x8, 0xfe5       	MOVFF	r0x08, POSTDEC1
004c12   ffe5
004c14   c009     movff   0x9, 0xfe5       	MOVFF	r0x09, POSTDEC1
004c16   ffe5
004c18   0e02     movlw   0x2              	MOVLW	0x02
004c1a   cfdb     movff   0xfdb, 0x7       	MOVFF	PLUSW2, r0x07
004c1c   f007
004c1e   0e03     movlw   0x3              	MOVLW	0x03
004c20   cfdb     movff   0xfdb, 0x8       	MOVFF	PLUSW2, r0x08
004c22   f008
004c24   0e04     movlw   0x4              	MOVLW	0x04
004c26   cfdb     movff   0xfdb, 0x9       	MOVFF	PLUSW2, r0x09
004c28   f009
004c2a   5009     movf    0x9, 0, 0        	MOVF	r0x09, W
004c2c   6ee5     movwf   0xe5, 0          	MOVWF	POSTDEC1
004c2e   5008     movf    0x8, 0, 0        	MOVF	r0x08, W
004c30   6ee5     movwf   0xe5, 0          	MOVWF	POSTDEC1
004c32   5007     movf    0x7, 0, 0        	MOVF	r0x07, W
004c34   6ee5     movwf   0xe5, 0          	MOVWF	POSTDEC1
004c36   cfe4     movff   0xfe4, 0x9       	MOVFF	PREINC1, r0x09
004c38   f009
004c3a   cfe4     movff   0xfe4, 0x8       	MOVFF	PREINC1, r0x08
004c3c   f008
004c3e   cfe4     movff   0xfe4, 0x7       	MOVFF	PREINC1, r0x07
004c40   f007
004c42   ec19     call    0x7432, 0        	CALL	_CDCprintf
004c44   f03a
004c46   0e03     movlw   0x3              	MOVLW	0x03
004c48   26e1     addwf   0xe1, 0x1, 0     	ADDWF	FSR1L, F
                                           _01449_DS_:
                                           ;	.line	128; /home/yeison/Documentos/python/apps/pinguinoIDE/x.4/p8/pinguino/libraries/__cdc.c	va_end(args);
004c4a   cfe4     movff   0xfe4, 0x2       	MOVFF	PREINC1, r0x02
004c4c   f002
004c4e   cfe4     movff   0xfe4, 0x1       	MOVFF	PREINC1, r0x01
004c50   f001
004c52   cfe4     movff   0xfe4, 0         	MOVFF	PREINC1, r0x00
004c54   f000
004c56   cfe4     movff   0xfe4, 0xfd9     	MOVFF	PREINC1, FSR2L
004c58   ffd9
004c5a   0012     return  0                	RETURN	
                                           
                                           ; ; Starting pCode block
                                           S_main__CDCprintf	code
                                           _CDCprintf:
                                           ;	.line	77; /home/yeison/Documentos/python/apps/pinguinoIDE/x.4/p8/pinguino/libraries/__cdc.c	void CDCprintf(const u8 *fmt, ...)
007432   cfd9     movff   0xfd9, 0xfe5     	MOVFF	FSR2L, POSTDEC1
007434   ffe5
007436   cfe1     movff   0xfe1, 0xfd9     	MOVFF	FSR1L, FSR2L
007438   ffd9
00743a   c000     movff   0, 0xfe5         	MOVFF	r0x00, POSTDEC1
00743c   ffe5
00743e   c001     movff   0x1, 0xfe5       	MOVFF	r0x01, POSTDEC1
007440   ffe5
007442   c002     movff   0x2, 0xfe5       	MOVFF	r0x02, POSTDEC1
007444   ffe5
                                           ;	.line	84; /home/yeison/Documentos/python/apps/pinguinoIDE/x.4/p8/pinguino/libraries/__cdc.c	va_start(args, fmt);
007446   0e02     movlw   0x2              	MOVLW	0x02
007448   24d9     addwf   0xd9, 0, 0       	ADDWF	FSR2L, W
00744a   6e00     movwf   0, 0             	MOVWF	r0x00
00744c   0e00     movlw   0                	MOVLW	0x00
00744e   20da     addwfc  0xda, 0, 0       	ADDWFC	FSR2H, W
                                           ; #	MOVWF	r0x01
                                           ; #	MOVF	r0x01, W
                                           ; #	MOVWF	r0x01
                                           ; #	MOVWF	r0x01
007450   6e01     movwf   0x1, 0           	MOVWF	r0x01
                                           ; #	MOVF	r0x00, W
                                           ; #	MOVWF	r0x00
007452   0e80     movlw   0x80             	MOVLW	0x80
007454   6e02     movwf   0x2, 0           	MOVWF	r0x02
007456   0e03     movlw   0x3              	MOVLW	0x03
007458   2600     addwf   0, 0x1, 0        	ADDWF	r0x00, F
00745a   0e00     movlw   0                	MOVLW	0x00
00745c   2201     addwfc  0x1, 0x1, 0      	ADDWFC	r0x01, F
00745e   2202     addwfc  0x2, 0x1, 0      	ADDWFC	r0x02, F
                                           ;	.line	87; /home/yeison/Documentos/python/apps/pinguinoIDE/x.4/p8/pinguino/libraries/__cdc.c	length = psprintf2(_cdc_buffer, fmt, args);
007460   5002     movf    0x2, 0, 0        	MOVF	r0x02, W
007462   6ee5     movwf   0xe5, 0          	MOVWF	POSTDEC1
007464   5001     movf    0x1, 0, 0        	MOVF	r0x01, W
007466   6ee5     movwf   0xe5, 0          	MOVWF	POSTDEC1
007468   5000     movf    0, 0, 0          	MOVF	r0x00, W
00746a   6ee5     movwf   0xe5, 0          	MOVWF	POSTDEC1
00746c   0e04     movlw   0x4              	MOVLW	0x04
00746e   cfdb     movff   0xfdb, 0xfe5     	MOVFF	PLUSW2, POSTDEC1
007470   ffe5
007472   0e03     movlw   0x3              	MOVLW	0x03
007474   cfdb     movff   0xfdb, 0xfe5     	MOVFF	PLUSW2, POSTDEC1
007476   ffe5
007478   0e02     movlw   0x2              	MOVLW	0x02
00747a   cfdb     movff   0xfdb, 0xfe5     	MOVFF	PLUSW2, POSTDEC1
00747c   ffe5
00747e   0e80     movlw   0x80             	MOVLW	0x80
007480   6ee5     movwf   0xe5, 0          	MOVWF	POSTDEC1
007482   0e02     movlw   0x2              	MOVLW	HIGH(__cdc_buffer)
007484   6ee5     movwf   0xe5, 0          	MOVWF	POSTDEC1
007486   0e63     movlw   0x63             	MOVLW	LOW(__cdc_buffer)
007488   6ee5     movwf   0xe5, 0          	MOVWF	POSTDEC1
00748a   eccf     call    0x6d9e, 0        	CALL	_psprintf2
00748c   f036
00748e   6e00     movwf   0, 0             	MOVWF	r0x00
007490   0e09     movlw   0x9              	MOVLW	0x09
007492   26e1     addwf   0xe1, 0x1, 0     	ADDWF	FSR1L, F
                                           ;	.line	88; /home/yeison/Documentos/python/apps/pinguinoIDE/x.4/p8/pinguino/libraries/__cdc.c	CDCputs(_cdc_buffer,length);
007494   5000     movf    0, 0, 0          	MOVF	r0x00, W
007496   6ee5     movwf   0xe5, 0          	MOVWF	POSTDEC1
007498   0e80     movlw   0x80             	MOVLW	0x80
00749a   6ee5     movwf   0xe5, 0          	MOVWF	POSTDEC1
00749c   0e02     movlw   0x2              	MOVLW	HIGH(__cdc_buffer)
00749e   6ee5     movwf   0xe5, 0          	MOVWF	POSTDEC1
0074a0   0e63     movlw   0x63             	MOVLW	LOW(__cdc_buffer)
0074a2   6ee5     movwf   0xe5, 0          	MOVWF	POSTDEC1
0074a4   ecf2     call    0x5be4, 0        	CALL	_CDCputs
0074a6   f02d
0074a8   0e04     movlw   0x4              	MOVLW	0x04
0074aa   26e1     addwf   0xe1, 0x1, 0     	ADDWF	FSR1L, F
                                           ;	.line	89; /home/yeison/Documentos/python/apps/pinguinoIDE/x.4/p8/pinguino/libraries/__cdc.c	va_end(args);
0074ac   cfe4     movff   0xfe4, 0x2       	MOVFF	PREINC1, r0x02
0074ae   f002
0074b0   cfe4     movff   0xfe4, 0x1       	MOVFF	PREINC1, r0x01
0074b2   f001
0074b4   cfe4     movff   0xfe4, 0         	MOVFF	PREINC1, r0x00
0074b6   f000
0074b8   cfe4     movff   0xfe4, 0xfd9     	MOVFF	PREINC1, FSR2L
0074ba   ffd9
0074bc   0012     return  0                	RETURN	
                                           
                                           ; ; Starting pCode block
                                           S_main__CDCwrite	code
                                           _CDCwrite:
                                           ;	.line	71; /home/yeison/Documentos/python/apps/pinguinoIDE/x.4/p8/pinguino/libraries/__cdc.c	void CDCwrite(u8 c)
007838   cfd9     movff   0xfd9, 0xfe5     	MOVFF	FSR2L, POSTDEC1
00783a   ffe5
00783c   cfe1     movff   0xfe1, 0xfd9     	MOVFF	FSR1L, FSR2L
00783e   ffd9
007840   c000     movff   0, 0xfe5         	MOVFF	r0x00, POSTDEC1
007842   ffe5
007844   0e02     movlw   0x2              	MOVLW	0x02
007846   cfdb     movff   0xfdb, 0         	MOVFF	PLUSW2, r0x00
007848   f000
                                           ; #	MOVF	r0x00, W
                                           ; #	MOVWF	r0x00
                                           ;	.line	73; /home/yeison/Documentos/python/apps/pinguinoIDE/x.4/p8/pinguino/libraries/__cdc.c	CDCputs(c, 1);
00784a   0e01     movlw   0x1              	MOVLW	0x01
00784c   6ee5     movwf   0xe5, 0          	MOVWF	POSTDEC1
00784e   0e80     movlw   0x80             	MOVLW	0x80
007850   6ee5     movwf   0xe5, 0          	MOVWF	POSTDEC1
007852   6ae5     clrf    0xe5, 0          	CLRF	POSTDEC1
007854   5000     movf    0, 0, 0          	MOVF	r0x00, W
007856   6ee5     movwf   0xe5, 0          	MOVWF	POSTDEC1
007858   ecf2     call    0x5be4, 0        	CALL	_CDCputs
00785a   f02d
00785c   0e04     movlw   0x4              	MOVLW	0x04
00785e   26e1     addwf   0xe1, 0x1, 0     	ADDWF	FSR1L, F
007860   cfe4     movff   0xfe4, 0         	MOVFF	PREINC1, r0x00
007862   f000
007864   cfe4     movff   0xfe4, 0xfd9     	MOVFF	PREINC1, FSR2L
007866   ffd9
007868   0012     return  0                	RETURN	
                                           
                                           ; ; Starting pCode block
                                           S_main__CDC_init	code
                                           _CDC_init:
                                           ;	.line	30; /home/yeison/Documentos/python/apps/pinguinoIDE/x.4/p8/pinguino/libraries/__cdc.c	INTCON=0;                   // Disable global HP interrupts
007596   6af2     clrf    0xf2, 0          	CLRF	_INTCON
                                           ;	.line	32; /home/yeison/Documentos/python/apps/pinguinoIDE/x.4/p8/pinguino/libraries/__cdc.c	UCON=0;
007598   6a6d     clrf    0x6d, 0          	CLRF	_UCON
                                           ;	.line	33; /home/yeison/Documentos/python/apps/pinguinoIDE/x.4/p8/pinguino/libraries/__cdc.c	UCFG=0;
00759a   6a6f     clrf    0x6f, 0          	CLRF	_UCFG
                                           ;	.line	34; /home/yeison/Documentos/python/apps/pinguinoIDE/x.4/p8/pinguino/libraries/__cdc.c	UEP0=0;UEP1=0;UEP2=0;UEP3=0;UEP4=0;UEP5=0;
00759c   6a70     clrf    0x70, 0          	CLRF	_UEP0
00759e   6a71     clrf    0x71, 0          	CLRF	_UEP1
0075a0   6a72     clrf    0x72, 0          	CLRF	_UEP2
0075a2   6a73     clrf    0x73, 0          	CLRF	_UEP3
0075a4   6a74     clrf    0x74, 0          	CLRF	_UEP4
0075a6   6a75     clrf    0x75, 0          	CLRF	_UEP5
                                           ;	.line	35; /home/yeison/Documentos/python/apps/pinguinoIDE/x.4/p8/pinguino/libraries/__cdc.c	UEP6=0;UEP7=0;UEP8=0;UEP9=0;UEP10=0;UEP11=0;
0075a8   6a76     clrf    0x76, 0          	CLRF	_UEP6
0075aa   6a77     clrf    0x77, 0          	CLRF	_UEP7
0075ac   6a78     clrf    0x78, 0          	CLRF	_UEP8
0075ae   6a79     clrf    0x79, 0          	CLRF	_UEP9
0075b0   6a7a     clrf    0x7a, 0          	CLRF	_UEP10
0075b2   6a7b     clrf    0x7b, 0          	CLRF	_UEP11
                                           ;	.line	36; /home/yeison/Documentos/python/apps/pinguinoIDE/x.4/p8/pinguino/libraries/__cdc.c	UEP12=0;UEP13=0;UEP14=0;UEP15=0;
0075b4   6a7c     clrf    0x7c, 0          	CLRF	_UEP12
0075b6   6a7d     clrf    0x7d, 0          	CLRF	_UEP13
0075b8   6a7e     clrf    0x7e, 0          	CLRF	_UEP14
0075ba   6a7f     clrf    0x7f, 0          	CLRF	_UEP15
                                           ;	.line	39; /home/yeison/Documentos/python/apps/pinguinoIDE/x.4/p8/pinguino/libraries/__cdc.c	Delayms(2000);
0075bc   0e07     movlw   0x7              	MOVLW	0x07
0075be   6ee5     movwf   0xe5, 0          	MOVWF	POSTDEC1
0075c0   0ed0     movlw   0xd0             	MOVLW	0xd0
0075c2   6ee5     movwf   0xe5, 0          	MOVWF	POSTDEC1
0075c4   ec2d     call    0x765a, 0        	CALL	_Delayms
0075c6   f03b
0075c8   52e6     movf    0xe6, 0x1, 0     	MOVF	POSTINC1, F
0075ca   52e6     movf    0xe6, 0x1, 0     	MOVF	POSTINC1, F
                                           ;	.line	42; /home/yeison/Documentos/python/apps/pinguinoIDE/x.4/p8/pinguino/libraries/__cdc.c	UCFG = 0x14; 				// Enable pullup resistors; full speed mode
0075cc   0e14     movlw   0x14             	MOVLW	0x14
0075ce   6e6f     movwf   0x6f, 0          	MOVWF	_UCFG
0075d0   0103     movlb   0x3              	BANKSEL	_deviceState
                                           ;	.line	43; /home/yeison/Documentos/python/apps/pinguinoIDE/x.4/p8/pinguino/libraries/__cdc.c	deviceState = DETACHED;
0075d2   6b7b     clrf    0x7b, 0x1        	CLRF	_deviceState, B
0075d4   0103     movlb   0x3              	BANKSEL	_remoteWakeup
                                           ;	.line	44; /home/yeison/Documentos/python/apps/pinguinoIDE/x.4/p8/pinguino/libraries/__cdc.c	remoteWakeup = 0x00;
0075d6   6b7a     clrf    0x7a, 0x1        	CLRF	_remoteWakeup, B
0075d8   0103     movlb   0x3              	BANKSEL	_currentConfiguration
                                           ;	.line	45; /home/yeison/Documentos/python/apps/pinguinoIDE/x.4/p8/pinguino/libraries/__cdc.c	currentConfiguration = 0x00;
0075da   6b7c     clrf    0x7c, 0x1        	CLRF	_currentConfiguration, B
                                           _01414_DS_:
0075dc   0103     movlb   0x3              	BANKSEL	_deviceState
                                           ;	.line	48; /home/yeison/Documentos/python/apps/pinguinoIDE/x.4/p8/pinguino/libraries/__cdc.c	while(deviceState != CONFIGURED)
0075de   517b     movf    0x7b, 0, 0x1     	MOVF	_deviceState, W, B
0075e0   0a05     xorlw   0x5              	XORLW	0x05
0075e2   e005     bz      0x75ee           	BZ	_01416_DS_
                                           ;	.line	50; /home/yeison/Documentos/python/apps/pinguinoIDE/x.4/p8/pinguino/libraries/__cdc.c	EnableUSBModule();
0075e4   ec61     call    0x78c2, 0        	CALL	_EnableUSBModule
0075e6   f03c
                                           ;	.line	51; /home/yeison/Documentos/python/apps/pinguinoIDE/x.4/p8/pinguino/libraries/__cdc.c	ProcessUSBTransactions();
0075e8   ec95     call    0x752a, 0        	CALL	_ProcessUSBTransactions
0075ea   f03a
0075ec   d7f7     bra     0x75dc           	BRA	_01414_DS_
                                           _01416_DS_:
                                           ;	.line	60; /home/yeison/Documentos/python/apps/pinguinoIDE/x.4/p8/pinguino/libraries/__cdc.c	PIR2bits.USBIF = 0;     // clear usb interrupt flag
0075ee   9aa1     bcf     0xa1, 0x5, 0     	BCF	_PIR2bits, 5
                                           ;	.line	61; /home/yeison/Documentos/python/apps/pinguinoIDE/x.4/p8/pinguino/libraries/__cdc.c	PIE2bits.USBIE = 1;     // enable usb interrupt
0075f0   8aa0     bsf     0xa0, 0x5, 0     	BSF	_PIE2bits, 5
                                           ;	.line	62; /home/yeison/Documentos/python/apps/pinguinoIDE/x.4/p8/pinguino/libraries/__cdc.c	IPR2bits.USBIP = 1;     // high priority interrupt
0075f2   8aa2     bsf     0xa2, 0x5, 0     	BSF	_IPR2bits, 5
                                           ;	.line	64; /home/yeison/Documentos/python/apps/pinguinoIDE/x.4/p8/pinguino/libraries/__cdc.c	INTCONbits.GIEH = 1;   // Enable global HP interrupts
0075f4   8ef2     bsf     0xf2, 0x7, 0     	BSF	_INTCONbits, 7
                                           ;	.line	65; /home/yeison/Documentos/python/apps/pinguinoIDE/x.4/p8/pinguino/libraries/__cdc.c	INTCONbits.GIEL = 1;   // Enable global LP interrupts
0075f6   8cf2     bsf     0xf2, 0x6, 0     	BSF	_INTCONbits, 6
0075f8   0012     return  0                	RETURN	
                                           
                                           ; ; Starting pCode block
                                           S_main__psprintf	code
                                           _psprintf:
                                           ;	.line	474; /home/yeison/Documentos/python/apps/pinguinoIDE/x.4/p8/pinguino/core/stdio.c	u8 psprintf(u8 *out, const u8 *format, ...)
007286   cfd9     movff   0xfd9, 0xfe5     	MOVFF	FSR2L, POSTDEC1
007288   ffe5
00728a   cfe1     movff   0xfe1, 0xfd9     	MOVFF	FSR1L, FSR2L
00728c   ffd9
00728e   c000     movff   0, 0xfe5         	MOVFF	r0x00, POSTDEC1
007290   ffe5
007292   c001     movff   0x1, 0xfe5       	MOVFF	r0x01, POSTDEC1
007294   ffe5
007296   c002     movff   0x2, 0xfe5       	MOVFF	r0x02, POSTDEC1
007298   ffe5
00729a   c003     movff   0x3, 0xfe5       	MOVFF	r0x03, POSTDEC1
00729c   ffe5
00729e   c004     movff   0x4, 0xfe5       	MOVFF	r0x04, POSTDEC1
0072a0   ffe5
                                           ;	.line	478; /home/yeison/Documentos/python/apps/pinguinoIDE/x.4/p8/pinguino/core/stdio.c	va_start(args, format);
0072a2   0e05     movlw   0x5              	MOVLW	0x05
0072a4   24d9     addwf   0xd9, 0, 0       	ADDWF	FSR2L, W
0072a6   6e00     movwf   0, 0             	MOVWF	r0x00
0072a8   0e00     movlw   0                	MOVLW	0x00
0072aa   20da     addwfc  0xda, 0, 0       	ADDWFC	FSR2H, W
                                           ; #	MOVWF	r0x01
                                           ; #	MOVF	r0x01, W
                                           ; #	MOVWF	r0x01
                                           ; #	MOVWF	r0x01
0072ac   6e01     movwf   0x1, 0           	MOVWF	r0x01
                                           ; #	MOVF	r0x00, W
                                           ; #	MOVWF	r0x00
0072ae   0e80     movlw   0x80             	MOVLW	0x80
0072b0   6e02     movwf   0x2, 0           	MOVWF	r0x02
0072b2   0e03     movlw   0x3              	MOVLW	0x03
0072b4   2600     addwf   0, 0x1, 0        	ADDWF	r0x00, F
0072b6   0e00     movlw   0                	MOVLW	0x00
0072b8   2201     addwfc  0x1, 0x1, 0      	ADDWFC	r0x01, F
0072ba   2202     addwfc  0x2, 0x1, 0      	ADDWFC	r0x02, F
                                           ;	.line	479; /home/yeison/Documentos/python/apps/pinguinoIDE/x.4/p8/pinguino/core/stdio.c	return pprint(&out, format, args);
0072bc   0e02     movlw   0x2              	MOVLW	0x02
0072be   24d9     addwf   0xd9, 0, 0       	ADDWF	FSR2L, W
0072c0   6e03     movwf   0x3, 0           	MOVWF	r0x03
0072c2   0e00     movlw   0                	MOVLW	0x00
0072c4   20da     addwfc  0xda, 0, 0       	ADDWFC	FSR2H, W
                                           ; #	MOVWF	r0x04
                                           ; #	MOVF	r0x04, W
                                           ; #	MOVWF	r0x04
                                           ; #	MOVWF	r0x04
0072c6   6e04     movwf   0x4, 0           	MOVWF	r0x04
                                           ; #	MOVF	r0x03, W
                                           ; #	MOVWF	r0x03
0072c8   5002     movf    0x2, 0, 0        	MOVF	r0x02, W
0072ca   6ee5     movwf   0xe5, 0          	MOVWF	POSTDEC1
0072cc   5001     movf    0x1, 0, 0        	MOVF	r0x01, W
0072ce   6ee5     movwf   0xe5, 0          	MOVWF	POSTDEC1
0072d0   5000     movf    0, 0, 0          	MOVF	r0x00, W
0072d2   6ee5     movwf   0xe5, 0          	MOVWF	POSTDEC1
0072d4   0e07     movlw   0x7              	MOVLW	0x07
0072d6   cfdb     movff   0xfdb, 0xfe5     	MOVFF	PLUSW2, POSTDEC1
0072d8   ffe5
0072da   0e06     movlw   0x6              	MOVLW	0x06
0072dc   cfdb     movff   0xfdb, 0xfe5     	MOVFF	PLUSW2, POSTDEC1
0072de   ffe5
0072e0   0e05     movlw   0x5              	MOVLW	0x05
0072e2   cfdb     movff   0xfdb, 0xfe5     	MOVFF	PLUSW2, POSTDEC1
0072e4   ffe5
0072e6   0e80     movlw   0x80             	MOVLW	0x80
0072e8   6ee5     movwf   0xe5, 0          	MOVWF	POSTDEC1
0072ea   5004     movf    0x4, 0, 0        	MOVF	r0x04, W
0072ec   6ee5     movwf   0xe5, 0          	MOVWF	POSTDEC1
0072ee   5003     movf    0x3, 0, 0        	MOVF	r0x03, W
0072f0   6ee5     movwf   0xe5, 0          	MOVWF	POSTDEC1
0072f2   ec7a     call    0x30f4, 0        	CALL	_pprint
0072f4   f018
0072f6   6e00     movwf   0, 0             	MOVWF	r0x00
0072f8   0e09     movlw   0x9              	MOVLW	0x09
0072fa   26e1     addwf   0xe1, 0x1, 0     	ADDWF	FSR1L, F
0072fc   5000     movf    0, 0, 0          	MOVF	r0x00, W
0072fe   cfe4     movff   0xfe4, 0x4       	MOVFF	PREINC1, r0x04
007300   f004
007302   cfe4     movff   0xfe4, 0x3       	MOVFF	PREINC1, r0x03
007304   f003
007306   cfe4     movff   0xfe4, 0x2       	MOVFF	PREINC1, r0x02
007308   f002
00730a   cfe4     movff   0xfe4, 0x1       	MOVFF	PREINC1, r0x01
00730c   f001
00730e   cfe4     movff   0xfe4, 0         	MOVFF	PREINC1, r0x00
007310   f000
007312   cfe4     movff   0xfe4, 0xfd9     	MOVFF	PREINC1, FSR2L
007314   ffd9
007316   0012     return  0                	RETURN	
                                           
                                           ; ; Starting pCode block
                                           S_main__psprintf2	code
                                           _psprintf2:
                                           ;	.line	468; /home/yeison/Documentos/python/apps/pinguinoIDE/x.4/p8/pinguino/core/stdio.c	u8 psprintf2(u8 *out, const u8 *format, va_list args)
006d9e   cfd9     movff   0xfd9, 0xfe5     	MOVFF	FSR2L, POSTDEC1
006da0   ffe5
006da2   cfe1     movff   0xfe1, 0xfd9     	MOVFF	FSR1L, FSR2L
006da4   ffd9
006da6   c000     movff   0, 0xfe5         	MOVFF	r0x00, POSTDEC1
006da8   ffe5
006daa   c001     movff   0x1, 0xfe5       	MOVFF	r0x01, POSTDEC1
006dac   ffe5
006dae   c002     movff   0x2, 0xfe5       	MOVFF	r0x02, POSTDEC1
006db0   ffe5
006db2   c003     movff   0x3, 0xfe5       	MOVFF	r0x03, POSTDEC1
006db4   ffe5
006db6   c004     movff   0x4, 0xfe5       	MOVFF	r0x04, POSTDEC1
006db8   ffe5
006dba   c005     movff   0x5, 0xfe5       	MOVFF	r0x05, POSTDEC1
006dbc   ffe5
006dbe   0e02     movlw   0x2              	MOVLW	0x02
006dc0   cfdb     movff   0xfdb, 0x363     	MOVFF	PLUSW2, _psprintf2_out_1_199
006dc2   f363
006dc4   0e03     movlw   0x3              	MOVLW	0x03
006dc6   cfdb     movff   0xfdb, 0x364     	MOVFF	PLUSW2, (_psprintf2_out_1_199 + 1)
006dc8   f364
006dca   0e04     movlw   0x4              	MOVLW	0x04
006dcc   cfdb     movff   0xfdb, 0x365     	MOVFF	PLUSW2, (_psprintf2_out_1_199 + 2)
006dce   f365
006dd0   0e05     movlw   0x5              	MOVLW	0x05
006dd2   cfdb     movff   0xfdb, 0         	MOVFF	PLUSW2, r0x00
006dd4   f000
006dd6   0e06     movlw   0x6              	MOVLW	0x06
006dd8   cfdb     movff   0xfdb, 0x1       	MOVFF	PLUSW2, r0x01
006dda   f001
006ddc   0e07     movlw   0x7              	MOVLW	0x07
006dde   cfdb     movff   0xfdb, 0x2       	MOVFF	PLUSW2, r0x02
006de0   f002
006de2   0e08     movlw   0x8              	MOVLW	0x08
006de4   cfdb     movff   0xfdb, 0x3       	MOVFF	PLUSW2, r0x03
006de6   f003
006de8   0e09     movlw   0x9              	MOVLW	0x09
006dea   cfdb     movff   0xfdb, 0x4       	MOVFF	PLUSW2, r0x04
006dec   f004
006dee   0e0a     movlw   0xa              	MOVLW	0x0a
006df0   cfdb     movff   0xfdb, 0x5       	MOVFF	PLUSW2, r0x05
006df2   f005
                                           ;	.line	470; /home/yeison/Documentos/python/apps/pinguinoIDE/x.4/p8/pinguino/core/stdio.c	return pprint(&out, format, args);
006df4   5005     movf    0x5, 0, 0        	MOVF	r0x05, W
006df6   6ee5     movwf   0xe5, 0          	MOVWF	POSTDEC1
006df8   5004     movf    0x4, 0, 0        	MOVF	r0x04, W
006dfa   6ee5     movwf   0xe5, 0          	MOVWF	POSTDEC1
006dfc   5003     movf    0x3, 0, 0        	MOVF	r0x03, W
006dfe   6ee5     movwf   0xe5, 0          	MOVWF	POSTDEC1
006e00   5002     movf    0x2, 0, 0        	MOVF	r0x02, W
006e02   6ee5     movwf   0xe5, 0          	MOVWF	POSTDEC1
006e04   5001     movf    0x1, 0, 0        	MOVF	r0x01, W
006e06   6ee5     movwf   0xe5, 0          	MOVWF	POSTDEC1
006e08   5000     movf    0, 0, 0          	MOVF	r0x00, W
006e0a   6ee5     movwf   0xe5, 0          	MOVWF	POSTDEC1
006e0c   0e80     movlw   0x80             	MOVLW	0x80
006e0e   6ee5     movwf   0xe5, 0          	MOVWF	POSTDEC1
006e10   0e03     movlw   0x3              	MOVLW	HIGH(_psprintf2_out_1_199)
006e12   6ee5     movwf   0xe5, 0          	MOVWF	POSTDEC1
006e14   0e63     movlw   0x63             	MOVLW	LOW(_psprintf2_out_1_199)
006e16   6ee5     movwf   0xe5, 0          	MOVWF	POSTDEC1
006e18   ec7a     call    0x30f4, 0        	CALL	_pprint
006e1a   f018
006e1c   6e00     movwf   0, 0             	MOVWF	r0x00
006e1e   0e09     movlw   0x9              	MOVLW	0x09
006e20   26e1     addwf   0xe1, 0x1, 0     	ADDWF	FSR1L, F
006e22   5000     movf    0, 0, 0          	MOVF	r0x00, W
006e24   cfe4     movff   0xfe4, 0x5       	MOVFF	PREINC1, r0x05
006e26   f005
006e28   cfe4     movff   0xfe4, 0x4       	MOVFF	PREINC1, r0x04
006e2a   f004
006e2c   cfe4     movff   0xfe4, 0x3       	MOVFF	PREINC1, r0x03
006e2e   f003
006e30   cfe4     movff   0xfe4, 0x2       	MOVFF	PREINC1, r0x02
006e32   f002
006e34   cfe4     movff   0xfe4, 0x1       	MOVFF	PREINC1, r0x01
006e36   f001
006e38   cfe4     movff   0xfe4, 0         	MOVFF	PREINC1, r0x00
006e3a   f000
006e3c   cfe4     movff   0xfe4, 0xfd9     	MOVFF	PREINC1, FSR2L
006e3e   ffd9
006e40   0012     return  0                	RETURN	
                                           
                                           ; ; Starting pCode block
                                           S_main__pprintf	code
                                           _pprintf:
                                           ;	.line	454; /home/yeison/Documentos/python/apps/pinguinoIDE/x.4/p8/pinguino/core/stdio.c	u8 pprintf(funcout func, const u8 *format, va_list args)
006ee4   cfd9     movff   0xfd9, 0xfe5     	MOVFF	FSR2L, POSTDEC1
006ee6   ffe5
006ee8   cfe1     movff   0xfe1, 0xfd9     	MOVFF	FSR1L, FSR2L
006eea   ffd9
006eec   c000     movff   0, 0xfe5         	MOVFF	r0x00, POSTDEC1
006eee   ffe5
006ef0   c001     movff   0x1, 0xfe5       	MOVFF	r0x01, POSTDEC1
006ef2   ffe5
006ef4   c002     movff   0x2, 0xfe5       	MOVFF	r0x02, POSTDEC1
006ef6   ffe5
006ef8   c003     movff   0x3, 0xfe5       	MOVFF	r0x03, POSTDEC1
006efa   ffe5
006efc   c004     movff   0x4, 0xfe5       	MOVFF	r0x04, POSTDEC1
006efe   ffe5
006f00   c005     movff   0x5, 0xfe5       	MOVFF	r0x05, POSTDEC1
006f02   ffe5
006f04   0e02     movlw   0x2              	MOVLW	0x02
006f06   cfdb     movff   0xfdb, 0x35a     	MOVFF	PLUSW2, _pputchar
006f08   f35a
006f0a   0e03     movlw   0x3              	MOVLW	0x03
006f0c   cfdb     movff   0xfdb, 0x35b     	MOVFF	PLUSW2, (_pputchar + 1)
006f0e   f35b
006f10   0e04     movlw   0x4              	MOVLW	0x04
006f12   cfdb     movff   0xfdb, 0x35c     	MOVFF	PLUSW2, (_pputchar + 2)
006f14   f35c
006f16   0e05     movlw   0x5              	MOVLW	0x05
006f18   cfdb     movff   0xfdb, 0         	MOVFF	PLUSW2, r0x00
006f1a   f000
006f1c   0e06     movlw   0x6              	MOVLW	0x06
006f1e   cfdb     movff   0xfdb, 0x1       	MOVFF	PLUSW2, r0x01
006f20   f001
006f22   0e07     movlw   0x7              	MOVLW	0x07
006f24   cfdb     movff   0xfdb, 0x2       	MOVFF	PLUSW2, r0x02
006f26   f002
006f28   0e08     movlw   0x8              	MOVLW	0x08
006f2a   cfdb     movff   0xfdb, 0x3       	MOVFF	PLUSW2, r0x03
006f2c   f003
006f2e   0e09     movlw   0x9              	MOVLW	0x09
006f30   cfdb     movff   0xfdb, 0x4       	MOVFF	PLUSW2, r0x04
006f32   f004
006f34   0e0a     movlw   0xa              	MOVLW	0x0a
006f36   cfdb     movff   0xfdb, 0x5       	MOVFF	PLUSW2, r0x05
006f38   f005
                                           ;	.line	460; /home/yeison/Documentos/python/apps/pinguinoIDE/x.4/p8/pinguino/core/stdio.c	return pprint(0, format, args);
006f3a   5005     movf    0x5, 0, 0        	MOVF	r0x05, W
006f3c   6ee5     movwf   0xe5, 0          	MOVWF	POSTDEC1
006f3e   5004     movf    0x4, 0, 0        	MOVF	r0x04, W
006f40   6ee5     movwf   0xe5, 0          	MOVWF	POSTDEC1
006f42   5003     movf    0x3, 0, 0        	MOVF	r0x03, W
006f44   6ee5     movwf   0xe5, 0          	MOVWF	POSTDEC1
006f46   5002     movf    0x2, 0, 0        	MOVF	r0x02, W
006f48   6ee5     movwf   0xe5, 0          	MOVWF	POSTDEC1
006f4a   5001     movf    0x1, 0, 0        	MOVF	r0x01, W
006f4c   6ee5     movwf   0xe5, 0          	MOVWF	POSTDEC1
006f4e   5000     movf    0, 0, 0          	MOVF	r0x00, W
006f50   6ee5     movwf   0xe5, 0          	MOVWF	POSTDEC1
006f52   0e00     movlw   0                	MOVLW	0x00
006f54   6ae5     clrf    0xe5, 0          	CLRF	POSTDEC1
006f56   6ae5     clrf    0xe5, 0          	CLRF	POSTDEC1
006f58   6ae5     clrf    0xe5, 0          	CLRF	POSTDEC1
006f5a   ec7a     call    0x30f4, 0        	CALL	_pprint
006f5c   f018
006f5e   6e00     movwf   0, 0             	MOVWF	r0x00
006f60   0e09     movlw   0x9              	MOVLW	0x09
006f62   26e1     addwf   0xe1, 0x1, 0     	ADDWF	FSR1L, F
006f64   5000     movf    0, 0, 0          	MOVF	r0x00, W
006f66   cfe4     movff   0xfe4, 0x5       	MOVFF	PREINC1, r0x05
006f68   f005
006f6a   cfe4     movff   0xfe4, 0x4       	MOVFF	PREINC1, r0x04
006f6c   f004
006f6e   cfe4     movff   0xfe4, 0x3       	MOVFF	PREINC1, r0x03
006f70   f003
006f72   cfe4     movff   0xfe4, 0x2       	MOVFF	PREINC1, r0x02
006f74   f002
006f76   cfe4     movff   0xfe4, 0x1       	MOVFF	PREINC1, r0x01
006f78   f001
006f7a   cfe4     movff   0xfe4, 0         	MOVFF	PREINC1, r0x00
006f7c   f000
006f7e   cfe4     movff   0xfe4, 0xfd9     	MOVFF	PREINC1, FSR2L
006f80   ffd9
006f82   0012     return  0                	RETURN	
                                           
                                           ; ; Starting pCode block
                                           S_main__pprint	code
                                           _pprint:
                                           ;	.line	306; /home/yeison/Documentos/python/apps/pinguinoIDE/x.4/p8/pinguino/core/stdio.c	static u8 pprint(u8 **out, const u8 *format, va_list args)
0030f4   cfd9     movff   0xfd9, 0xfe5     	MOVFF	FSR2L, POSTDEC1
0030f6   ffe5
0030f8   cfe1     movff   0xfe1, 0xfd9     	MOVFF	FSR1L, FSR2L
0030fa   ffd9
0030fc   c000     movff   0, 0xfe5         	MOVFF	r0x00, POSTDEC1
0030fe   ffe5
003100   c001     movff   0x1, 0xfe5       	MOVFF	r0x01, POSTDEC1
003102   ffe5
003104   c002     movff   0x2, 0xfe5       	MOVFF	r0x02, POSTDEC1
003106   ffe5
003108   c003     movff   0x3, 0xfe5       	MOVFF	r0x03, POSTDEC1
00310a   ffe5
00310c   c004     movff   0x4, 0xfe5       	MOVFF	r0x04, POSTDEC1
00310e   ffe5
003110   c005     movff   0x5, 0xfe5       	MOVFF	r0x05, POSTDEC1
003112   ffe5
003114   c006     movff   0x6, 0xfe5       	MOVFF	r0x06, POSTDEC1
003116   ffe5
003118   c007     movff   0x7, 0xfe5       	MOVFF	r0x07, POSTDEC1
00311a   ffe5
00311c   c008     movff   0x8, 0xfe5       	MOVFF	r0x08, POSTDEC1
00311e   ffe5
003120   c009     movff   0x9, 0xfe5       	MOVFF	r0x09, POSTDEC1
003122   ffe5
003124   c00a     movff   0xa, 0xfe5       	MOVFF	r0x0a, POSTDEC1
003126   ffe5
003128   c00b     movff   0xb, 0xfe5       	MOVFF	r0x0b, POSTDEC1
00312a   ffe5
00312c   c00c     movff   0xc, 0xfe5       	MOVFF	r0x0c, POSTDEC1
00312e   ffe5
003130   c00d     movff   0xd, 0xfe5       	MOVFF	r0x0d, POSTDEC1
003132   ffe5
003134   c00e     movff   0xe, 0xfe5       	MOVFF	r0x0e, POSTDEC1
003136   ffe5
003138   c00f     movff   0xf, 0xfe5       	MOVFF	r0x0f, POSTDEC1
00313a   ffe5
00313c   c010     movff   0x10, 0xfe5      	MOVFF	r0x10, POSTDEC1
00313e   ffe5
003140   c011     movff   0x11, 0xfe5      	MOVFF	r0x11, POSTDEC1
003142   ffe5
003144   c012     movff   0x12, 0xfe5      	MOVFF	r0x12, POSTDEC1
003146   ffe5
003148   c013     movff   0x13, 0xfe5      	MOVFF	r0x13, POSTDEC1
00314a   ffe5
00314c   c014     movff   0x14, 0xfe5      	MOVFF	r0x14, POSTDEC1
00314e   ffe5
003150   c015     movff   0x15, 0xfe5      	MOVFF	r0x15, POSTDEC1
003152   ffe5
003154   c016     movff   0x16, 0xfe5      	MOVFF	r0x16, POSTDEC1
003156   ffe5
003158   c017     movff   0x17, 0xfe5      	MOVFF	r0x17, POSTDEC1
00315a   ffe5
00315c   c018     movff   0x18, 0xfe5      	MOVFF	r0x18, POSTDEC1
00315e   ffe5
003160   c019     movff   0x19, 0xfe5      	MOVFF	r0x19, POSTDEC1
003162   ffe5
003164   0e02     movlw   0x2              	MOVLW	0x02
003166   cfdb     movff   0xfdb, 0         	MOVFF	PLUSW2, r0x00
003168   f000
00316a   0e03     movlw   0x3              	MOVLW	0x03
00316c   cfdb     movff   0xfdb, 0x1       	MOVFF	PLUSW2, r0x01
00316e   f001
003170   0e04     movlw   0x4              	MOVLW	0x04
003172   cfdb     movff   0xfdb, 0x2       	MOVFF	PLUSW2, r0x02
003174   f002
003176   0e05     movlw   0x5              	MOVLW	0x05
003178   cfdb     movff   0xfdb, 0x3       	MOVFF	PLUSW2, r0x03
00317a   f003
00317c   0e06     movlw   0x6              	MOVLW	0x06
00317e   cfdb     movff   0xfdb, 0x4       	MOVFF	PLUSW2, r0x04
003180   f004
003182   0e07     movlw   0x7              	MOVLW	0x07
003184   cfdb     movff   0xfdb, 0x5       	MOVFF	PLUSW2, r0x05
003186   f005
003188   0e08     movlw   0x8              	MOVLW	0x08
00318a   cfdb     movff   0xfdb, 0x6       	MOVFF	PLUSW2, r0x06
00318c   f006
00318e   0e09     movlw   0x9              	MOVLW	0x09
003190   cfdb     movff   0xfdb, 0x7       	MOVFF	PLUSW2, r0x07
003192   f007
003194   0e0a     movlw   0xa              	MOVLW	0x0a
003196   cfdb     movff   0xfdb, 0x8       	MOVFF	PLUSW2, r0x08
003198   f008
                                           ;	.line	310; /home/yeison/Documentos/python/apps/pinguinoIDE/x.4/p8/pinguino/core/stdio.c	register u8 pc = 0;
00319a   6a09     clrf    0x9, 0           	CLRF	r0x09
                                           ;	.line	311; /home/yeison/Documentos/python/apps/pinguinoIDE/x.4/p8/pinguino/core/stdio.c	u8 precision = 2; // default value is 2 digits fractional part
00319c   0e02     movlw   0x2              	MOVLW	0x02
00319e   6e0a     movwf   0xa, 0           	MOVWF	r0x0a
                                           _01226_DS_:
                                           ;	.line	315; /home/yeison/Documentos/python/apps/pinguinoIDE/x.4/p8/pinguino/core/stdio.c	for (; *format != 0; ++format)
0031a0   c003     movff   0x3, 0xfe9       	MOVFF	r0x03, FSR0L
0031a2   ffe9
0031a4   c004     movff   0x4, 0xff3       	MOVFF	r0x04, PRODL
0031a6   fff3
0031a8   5005     movf    0x5, 0, 0        	MOVF	r0x05, W
0031aa   ec29     call    0x52, 0          	CALL	__gptrget1
0031ac   f000
0031ae   6e0b     movwf   0xb, 0           	MOVWF	r0x0b
0031b0   500b     movf    0xb, 0, 0        	MOVF	r0x0b, W
0031b2   e102     bnz     0x31b8           	BNZ	_01346_DS_
0031b4   ef40     goto    0x3a80           	GOTO	_01214_DS_
0031b6   f01d
                                           _01346_DS_:
                                           ;	.line	318; /home/yeison/Documentos/python/apps/pinguinoIDE/x.4/p8/pinguino/core/stdio.c	islong = 0;                 // default is 16-bit
0031b8   6a0c     clrf    0xc, 0           	CLRF	r0x0c
                                           ;	.line	320; /home/yeison/Documentos/python/apps/pinguinoIDE/x.4/p8/pinguino/core/stdio.c	if (*format == '%')
0031ba   500b     movf    0xb, 0, 0        	MOVF	r0x0b, W
0031bc   0a25     xorlw   0x25             	XORLW	0x25
0031be   e002     bz      0x31c4           	BZ	_01348_DS_
0031c0   ef27     goto    0x3a4e           	GOTO	_01209_DS_
0031c2   f01d
                                           _01348_DS_:
                                           ;	.line	322; /home/yeison/Documentos/python/apps/pinguinoIDE/x.4/p8/pinguino/core/stdio.c	width = pad = 0;		// default is left justify, no zero padded
0031c4   6a0b     clrf    0xb, 0           	CLRF	r0x0b
0031c6   6a0d     clrf    0xd, 0           	CLRF	r0x0d
                                           ;	.line	323; /home/yeison/Documentos/python/apps/pinguinoIDE/x.4/p8/pinguino/core/stdio.c	++format;				// get the next format identifier
0031c8   2a03     incf    0x3, 0x1, 0      	INCF	r0x03, F
0031ca   e302     bnc     0x31d0           	BNC	_01349_DS_
0031cc   4a04     infsnz  0x4, 0x1, 0      	INFSNZ	r0x04, F
0031ce   2a05     incf    0x5, 0x1, 0      	INCF	r0x05, F
                                           _01349_DS_:
                                           ;	.line	325; /home/yeison/Documentos/python/apps/pinguinoIDE/x.4/p8/pinguino/core/stdio.c	if (*format == '\0')	// end of line
0031d0   c003     movff   0x3, 0xfe9       	MOVFF	r0x03, FSR0L
0031d2   ffe9
0031d4   c004     movff   0x4, 0xff3       	MOVFF	r0x04, PRODL
0031d6   fff3
0031d8   5005     movf    0x5, 0, 0        	MOVF	r0x05, W
0031da   ec29     call    0x52, 0          	CALL	__gptrget1
0031dc   f000
0031de   6e0e     movwf   0xe, 0           	MOVWF	r0x0e
0031e0   500e     movf    0xe, 0, 0        	MOVF	r0x0e, W
0031e2   b4d8     btfsc   0xd8, 0x2, 0     	BTFSC	STATUS, 2
0031e4   ef40     goto    0x3a80           	GOTO	_01214_DS_
0031e6   f01d
                                           ;	.line	328; /home/yeison/Documentos/python/apps/pinguinoIDE/x.4/p8/pinguino/core/stdio.c	if (*format == '%')		// error
0031e8   500e     movf    0xe, 0, 0        	MOVF	r0x0e, W
0031ea   0a25     xorlw   0x25             	XORLW	0x25
0031ec   e102     bnz     0x31f2           	BNZ	_01351_DS_
0031ee   ef27     goto    0x3a4e           	GOTO	_01209_DS_
0031f0   f01d
                                           _01351_DS_:
                                           ;	.line	331; /home/yeison/Documentos/python/apps/pinguinoIDE/x.4/p8/pinguino/core/stdio.c	if (*format == '-')		// right justify
0031f2   500e     movf    0xe, 0, 0        	MOVF	r0x0e, W
0031f4   0a2d     xorlw   0x2d             	XORLW	0x2d
0031f6   e106     bnz     0x3204           	BNZ	_01249_DS_
                                           ;	.line	333; /home/yeison/Documentos/python/apps/pinguinoIDE/x.4/p8/pinguino/core/stdio.c	++format;
0031f8   2a03     incf    0x3, 0x1, 0      	INCF	r0x03, F
0031fa   e302     bnc     0x3200           	BNC	_01354_DS_
0031fc   4a04     infsnz  0x4, 0x1, 0      	INFSNZ	r0x04, F
0031fe   2a05     incf    0x5, 0x1, 0      	INCF	r0x05, F
                                           _01354_DS_:
                                           ;	.line	334; /home/yeison/Documentos/python/apps/pinguinoIDE/x.4/p8/pinguino/core/stdio.c	pad = PAD_RIGHT;
003200   0e01     movlw   0x1              	MOVLW	0x01
003202   6e0b     movwf   0xb, 0           	MOVWF	r0x0b
                                           _01249_DS_:
                                           ;	.line	337; /home/yeison/Documentos/python/apps/pinguinoIDE/x.4/p8/pinguino/core/stdio.c	while (*format == '0')	// field is padded with 0's instead of blanks
003204   c003     movff   0x3, 0xe         	MOVFF	r0x03, r0x0e
003206   f00e
003208   c004     movff   0x4, 0xf         	MOVFF	r0x04, r0x0f
00320a   f00f
00320c   c005     movff   0x5, 0x10        	MOVFF	r0x05, r0x10
00320e   f010
                                           _01179_DS_:
003210   c00e     movff   0xe, 0xfe9       	MOVFF	r0x0e, FSR0L
003212   ffe9
003214   c00f     movff   0xf, 0xff3       	MOVFF	r0x0f, PRODL
003216   fff3
003218   5010     movf    0x10, 0, 0       	MOVF	r0x10, W
00321a   ec29     call    0x52, 0          	CALL	__gptrget1
00321c   f000
                                           ; #	MOVWF	r0x11
                                           ; #	MOVF	r0x11, W
00321e   0a30     xorlw   0x30             	XORLW	0x30
003220   e106     bnz     0x322e           	BNZ	_01219_DS_
                                           ;	.line	339; /home/yeison/Documentos/python/apps/pinguinoIDE/x.4/p8/pinguino/core/stdio.c	++format;
003222   2a0e     incf    0xe, 0x1, 0      	INCF	r0x0e, F
003224   e302     bnc     0x322a           	BNC	_01357_DS_
003226   4a0f     infsnz  0xf, 0x1, 0      	INFSNZ	r0x0f, F
003228   2a10     incf    0x10, 0x1, 0     	INCF	r0x10, F
                                           _01357_DS_:
                                           ;	.line	340; /home/yeison/Documentos/python/apps/pinguinoIDE/x.4/p8/pinguino/core/stdio.c	pad |= PAD_ZERO;
00322a   820b     bsf     0xb, 0x1, 0      	BSF	r0x0b, 1
00322c   d7f1     bra     0x3210           	BRA	_01179_DS_
                                           _01219_DS_:
                                           ;	.line	343; /home/yeison/Documentos/python/apps/pinguinoIDE/x.4/p8/pinguino/core/stdio.c	for ( ; *format >= '0' && *format <= '9'; ++format)
00322e   c00e     movff   0xe, 0xfe9       	MOVFF	r0x0e, FSR0L
003230   ffe9
003232   c00f     movff   0xf, 0xff3       	MOVFF	r0x0f, PRODL
003234   fff3
003236   5010     movf    0x10, 0, 0       	MOVF	r0x10, W
003238   ec29     call    0x52, 0          	CALL	__gptrget1
00323a   f000
00323c   6e11     movwf   0x11, 0          	MOVWF	r0x11
00323e   0e30     movlw   0x30             	MOVLW	0x30
003240   5c11     subwf   0x11, 0, 0       	SUBWF	r0x11, W
003242   e313     bnc     0x326a           	BNC	_01277_DS_
003244   0e3a     movlw   0x3a             	MOVLW	0x3a
003246   5c11     subwf   0x11, 0, 0       	SUBWF	r0x11, W
003248   e210     bc      0x326a           	BC	_01277_DS_
                                           ; ;multiply lit val:0x0a by variable r0x0d and store in r0x0d
                                           ;	.line	345; /home/yeison/Documentos/python/apps/pinguinoIDE/x.4/p8/pinguino/core/stdio.c	width *= 10;
00324a   500d     movf    0xd, 0, 0        	MOVF	r0x0d, W
00324c   0d0a     mullw   0xa              	MULLW	0x0a
00324e   cff3     movff   0xff3, 0xd       	MOVFF	PRODL, r0x0d
003250   f00d
                                           ;	.line	346; /home/yeison/Documentos/python/apps/pinguinoIDE/x.4/p8/pinguino/core/stdio.c	width += *format - '0';
003252   0ed0     movlw   0xd0             	MOVLW	0xd0
003254   2611     addwf   0x11, 0x1, 0     	ADDWF	r0x11, F
003256   500d     movf    0xd, 0, 0        	MOVF	r0x0d, W
003258   6e12     movwf   0x12, 0          	MOVWF	r0x12
00325a   5011     movf    0x11, 0, 0       	MOVF	r0x11, W
00325c   2412     addwf   0x12, 0, 0       	ADDWF	r0x12, W
00325e   6e0d     movwf   0xd, 0           	MOVWF	r0x0d
                                           ;	.line	343; /home/yeison/Documentos/python/apps/pinguinoIDE/x.4/p8/pinguino/core/stdio.c	for ( ; *format >= '0' && *format <= '9'; ++format)
003260   2a0e     incf    0xe, 0x1, 0      	INCF	r0x0e, F
003262   e302     bnc     0x3268           	BNC	_01361_DS_
003264   4a0f     infsnz  0xf, 0x1, 0      	INFSNZ	r0x0f, F
003266   2a10     incf    0x10, 0x1, 0     	INCF	r0x10, F
                                           _01361_DS_:
003268   d7e2     bra     0x322e           	BRA	_01219_DS_
                                           _01277_DS_:
00326a   c00e     movff   0xe, 0x3         	MOVFF	r0x0e, r0x03
00326c   f003
00326e   c00f     movff   0xf, 0x4         	MOVFF	r0x0f, r0x04
003270   f004
003272   c010     movff   0x10, 0x5        	MOVFF	r0x10, r0x05
003274   f005
                                           ;	.line	356; /home/yeison/Documentos/python/apps/pinguinoIDE/x.4/p8/pinguino/core/stdio.c	if (*format == '.')		// float precision
003276   c00e     movff   0xe, 0xfe9       	MOVFF	r0x0e, FSR0L
003278   ffe9
00327a   c00f     movff   0xf, 0xff3       	MOVFF	r0x0f, PRODL
00327c   fff3
00327e   5010     movf    0x10, 0, 0       	MOVF	r0x10, W
003280   ec29     call    0x52, 0          	CALL	__gptrget1
003282   f000
                                           ; #	MOVWF	r0x11
                                           ; #	MOVF	r0x11, W
003284   0a2e     xorlw   0x2e             	XORLW	0x2e
003286   e134     bnz     0x32f0           	BNZ	_01185_DS_
                                           ;	.line	358; /home/yeison/Documentos/python/apps/pinguinoIDE/x.4/p8/pinguino/core/stdio.c	++format;
003288   500e     movf    0xe, 0, 0        	MOVF	r0x0e, W
00328a   0f01     addlw   0x1              	ADDLW	0x01
00328c   6e03     movwf   0x3, 0           	MOVWF	r0x03
00328e   0e00     movlw   0                	MOVLW	0x00
003290   200f     addwfc  0xf, 0, 0        	ADDWFC	r0x0f, W
003292   6e04     movwf   0x4, 0           	MOVWF	r0x04
003294   0e00     movlw   0                	MOVLW	0x00
003296   2010     addwfc  0x10, 0, 0       	ADDWFC	r0x10, W
003298   6e05     movwf   0x5, 0           	MOVWF	r0x05
                                           ;	.line	359; /home/yeison/Documentos/python/apps/pinguinoIDE/x.4/p8/pinguino/core/stdio.c	precision = 0;
00329a   6a0a     clrf    0xa, 0           	CLRF	r0x0a
00329c   c003     movff   0x3, 0xe         	MOVFF	r0x03, r0x0e
00329e   f00e
0032a0   c004     movff   0x4, 0xf         	MOVFF	r0x04, r0x0f
0032a2   f00f
0032a4   c005     movff   0x5, 0x10        	MOVFF	r0x05, r0x10
0032a6   f010
                                           _01223_DS_:
                                           ;	.line	361; /home/yeison/Documentos/python/apps/pinguinoIDE/x.4/p8/pinguino/core/stdio.c	for ( ; *format >= '0' && *format <= '9'; ++format)
0032a8   c00e     movff   0xe, 0xfe9       	MOVFF	r0x0e, FSR0L
0032aa   ffe9
0032ac   c00f     movff   0xf, 0xff3       	MOVFF	r0x0f, PRODL
0032ae   fff3
0032b0   5010     movf    0x10, 0, 0       	MOVF	r0x10, W
0032b2   ec29     call    0x52, 0          	CALL	__gptrget1
0032b4   f000
0032b6   6e11     movwf   0x11, 0          	MOVWF	r0x11
0032b8   0e30     movlw   0x30             	MOVLW	0x30
0032ba   5c11     subwf   0x11, 0, 0       	SUBWF	r0x11, W
0032bc   e313     bnc     0x32e4           	BNC	_01278_DS_
0032be   0e3a     movlw   0x3a             	MOVLW	0x3a
0032c0   5c11     subwf   0x11, 0, 0       	SUBWF	r0x11, W
0032c2   e210     bc      0x32e4           	BC	_01278_DS_
                                           ; ;multiply lit val:0x0a by variable r0x0a and store in r0x0a
                                           ;	.line	363; /home/yeison/Documentos/python/apps/pinguinoIDE/x.4/p8/pinguino/core/stdio.c	precision *= 10;
0032c4   500a     movf    0xa, 0, 0        	MOVF	r0x0a, W
0032c6   0d0a     mullw   0xa              	MULLW	0x0a
0032c8   cff3     movff   0xff3, 0xa       	MOVFF	PRODL, r0x0a
0032ca   f00a
                                           ;	.line	364; /home/yeison/Documentos/python/apps/pinguinoIDE/x.4/p8/pinguino/core/stdio.c	precision += *format - '0';
0032cc   0ed0     movlw   0xd0             	MOVLW	0xd0
0032ce   2611     addwf   0x11, 0x1, 0     	ADDWF	r0x11, F
0032d0   500a     movf    0xa, 0, 0        	MOVF	r0x0a, W
0032d2   6e12     movwf   0x12, 0          	MOVWF	r0x12
0032d4   5011     movf    0x11, 0, 0       	MOVF	r0x11, W
0032d6   2412     addwf   0x12, 0, 0       	ADDWF	r0x12, W
0032d8   6e0a     movwf   0xa, 0           	MOVWF	r0x0a
                                           ;	.line	361; /home/yeison/Documentos/python/apps/pinguinoIDE/x.4/p8/pinguino/core/stdio.c	for ( ; *format >= '0' && *format <= '9'; ++format)
0032da   2a0e     incf    0xe, 0x1, 0      	INCF	r0x0e, F
0032dc   e302     bnc     0x32e2           	BNC	_01366_DS_
0032de   4a0f     infsnz  0xf, 0x1, 0      	INFSNZ	r0x0f, F
0032e0   2a10     incf    0x10, 0x1, 0     	INCF	r0x10, F
                                           _01366_DS_:
0032e2   d7e2     bra     0x32a8           	BRA	_01223_DS_
                                           _01278_DS_:
0032e4   c00e     movff   0xe, 0x3         	MOVFF	r0x0e, r0x03
0032e6   f003
0032e8   c00f     movff   0xf, 0x4         	MOVFF	r0x0f, r0x04
0032ea   f004
0032ec   c010     movff   0x10, 0x5        	MOVFF	r0x10, r0x05
0032ee   f005
                                           _01185_DS_:
                                           ;	.line	368; /home/yeison/Documentos/python/apps/pinguinoIDE/x.4/p8/pinguino/core/stdio.c	if (*format == 'f') 	// float
0032f0   c003     movff   0x3, 0xfe9       	MOVFF	r0x03, FSR0L
0032f2   ffe9
0032f4   c004     movff   0x4, 0xff3       	MOVFF	r0x04, PRODL
0032f6   fff3
0032f8   5005     movf    0x5, 0, 0        	MOVF	r0x05, W
0032fa   ec29     call    0x52, 0          	CALL	__gptrget1
0032fc   f000
                                           ; #	MOVWF	r0x0e
                                           ; #	MOVF	r0x0e, W
0032fe   6e0e     movwf   0xe, 0           	MOVWF	r0x0e
003300   0a66     xorlw   0x66             	XORLW	0x66
003302   e001     bz      0x3306           	BZ	_01368_DS_
003304   d040     bra     0x3386           	BRA	_01187_DS_
                                           _01368_DS_:
                                           ;	.line	370; /home/yeison/Documentos/python/apps/pinguinoIDE/x.4/p8/pinguino/core/stdio.c	pc += pprintfl(out, va_arg(args, float), width, pad, separator, precision);
003306   5006     movf    0x6, 0, 0        	MOVF	r0x06, W
003308   0f04     addlw   0x4              	ADDLW	0x04
00330a   6e0f     movwf   0xf, 0           	MOVWF	r0x0f
00330c   0e00     movlw   0                	MOVLW	0x00
00330e   2007     addwfc  0x7, 0, 0        	ADDWFC	r0x07, W
003310   6e10     movwf   0x10, 0          	MOVWF	r0x10
003312   0e00     movlw   0                	MOVLW	0x00
003314   2008     addwfc  0x8, 0, 0        	ADDWFC	r0x08, W
003316   6e11     movwf   0x11, 0          	MOVWF	r0x11
003318   c00f     movff   0xf, 0x6         	MOVFF	r0x0f, r0x06
00331a   f006
00331c   c010     movff   0x10, 0x7        	MOVFF	r0x10, r0x07
00331e   f007
003320   c011     movff   0x11, 0x8        	MOVFF	r0x11, r0x08
003322   f008
003324   0efc     movlw   0xfc             	MOVLW	0xfc
003326   260f     addwf   0xf, 0x1, 0      	ADDWF	r0x0f, F
003328   0eff     movlw   0xff             	MOVLW	0xff
00332a   2210     addwfc  0x10, 0x1, 0     	ADDWFC	r0x10, F
00332c   2211     addwfc  0x11, 0x1, 0     	ADDWFC	r0x11, F
                                           ; #	MOVF	r0x11, W
                                           ; #	MOVWF	r0x11
                                           ; #	MOVF	r0x11, W
                                           ; #	MOVF	r0x10, W
                                           ; #	MOVF	r0x10, W
                                           ; #	MOVWF	r0x10
                                           ; #	MOVF	r0x10, W
                                           ; #	MOVF	r0x0f, W
                                           ; #	MOVF	r0x0f, W
                                           ; #	MOVWF	r0x0f
00332e   c00f     movff   0xf, 0xfe9       	MOVFF	r0x0f, FSR0L
003330   ffe9
003332   c010     movff   0x10, 0xff3      	MOVFF	r0x10, PRODL
003334   fff3
003336   5011     movf    0x11, 0, 0       	MOVF	r0x11, W
003338   ec2f     call    0x5e, 0          	CALL	__gptrget4
00333a   f000
00333c   6e0f     movwf   0xf, 0           	MOVWF	r0x0f
00333e   cff3     movff   0xff3, 0x10      	MOVFF	PRODL, r0x10
003340   f010
003342   cff4     movff   0xff4, 0x11      	MOVFF	PRODH, r0x11
003344   f011
003346   cfe9     movff   0xfe9, 0x12      	MOVFF	FSR0L, r0x12
003348   f012
00334a   500a     movf    0xa, 0, 0        	MOVF	r0x0a, W
00334c   6ee5     movwf   0xe5, 0          	MOVWF	POSTDEC1
00334e   6ae5     clrf    0xe5, 0          	CLRF	POSTDEC1
003350   500b     movf    0xb, 0, 0        	MOVF	r0x0b, W
003352   6ee5     movwf   0xe5, 0          	MOVWF	POSTDEC1
003354   500d     movf    0xd, 0, 0        	MOVF	r0x0d, W
003356   6ee5     movwf   0xe5, 0          	MOVWF	POSTDEC1
003358   5012     movf    0x12, 0, 0       	MOVF	r0x12, W
00335a   6ee5     movwf   0xe5, 0          	MOVWF	POSTDEC1
00335c   5011     movf    0x11, 0, 0       	MOVF	r0x11, W
00335e   6ee5     movwf   0xe5, 0          	MOVWF	POSTDEC1
003360   5010     movf    0x10, 0, 0       	MOVF	r0x10, W
003362   6ee5     movwf   0xe5, 0          	MOVWF	POSTDEC1
003364   500f     movf    0xf, 0, 0        	MOVF	r0x0f, W
003366   6ee5     movwf   0xe5, 0          	MOVWF	POSTDEC1
003368   5002     movf    0x2, 0, 0        	MOVF	r0x02, W
00336a   6ee5     movwf   0xe5, 0          	MOVWF	POSTDEC1
00336c   5001     movf    0x1, 0, 0        	MOVF	r0x01, W
00336e   6ee5     movwf   0xe5, 0          	MOVWF	POSTDEC1
003370   5000     movf    0, 0, 0          	MOVF	r0x00, W
003372   6ee5     movwf   0xe5, 0          	MOVWF	POSTDEC1
003374   ec25     call    0x404a, 0        	CALL	_pprintfl
003376   f020
003378   6e0f     movwf   0xf, 0           	MOVWF	r0x0f
00337a   0e0b     movlw   0xb              	MOVLW	0x0b
00337c   26e1     addwf   0xe1, 0x1, 0     	ADDWF	FSR1L, F
00337e   500f     movf    0xf, 0, 0        	MOVF	r0x0f, W
003380   2609     addwf   0x9, 0x1, 0      	ADDWF	r0x09, F
                                           ;	.line	371; /home/yeison/Documentos/python/apps/pinguinoIDE/x.4/p8/pinguino/core/stdio.c	continue;
003382   ef3a     goto    0x3a74           	GOTO	_01213_DS_
003384   f01d
                                           _01187_DS_:
                                           ;	.line	374; /home/yeison/Documentos/python/apps/pinguinoIDE/x.4/p8/pinguino/core/stdio.c	if (*format == 's')		// string
003386   500e     movf    0xe, 0, 0        	MOVF	r0x0e, W
003388   0a73     xorlw   0x73             	XORLW	0x73
00338a   e001     bz      0x338e           	BZ	_01370_DS_
00338c   d045     bra     0x3418           	BRA	_01189_DS_
                                           _01370_DS_:
                                           ;	.line	376; /home/yeison/Documentos/python/apps/pinguinoIDE/x.4/p8/pinguino/core/stdio.c	u8 *s = va_arg(args, u8*);
00338e   5006     movf    0x6, 0, 0        	MOVF	r0x06, W
003390   0f03     addlw   0x3              	ADDLW	0x03
003392   6e0f     movwf   0xf, 0           	MOVWF	r0x0f
003394   0e00     movlw   0                	MOVLW	0x00
003396   2007     addwfc  0x7, 0, 0        	ADDWFC	r0x07, W
003398   6e10     movwf   0x10, 0          	MOVWF	r0x10
00339a   0e00     movlw   0                	MOVLW	0x00
00339c   2008     addwfc  0x8, 0, 0        	ADDWFC	r0x08, W
00339e   6e11     movwf   0x11, 0          	MOVWF	r0x11
0033a0   c00f     movff   0xf, 0x6         	MOVFF	r0x0f, r0x06
0033a2   f006
0033a4   c010     movff   0x10, 0x7        	MOVFF	r0x10, r0x07
0033a6   f007
0033a8   c011     movff   0x11, 0x8        	MOVFF	r0x11, r0x08
0033aa   f008
0033ac   0efd     movlw   0xfd             	MOVLW	0xfd
0033ae   260f     addwf   0xf, 0x1, 0      	ADDWF	r0x0f, F
0033b0   0eff     movlw   0xff             	MOVLW	0xff
0033b2   2210     addwfc  0x10, 0x1, 0     	ADDWFC	r0x10, F
0033b4   2211     addwfc  0x11, 0x1, 0     	ADDWFC	r0x11, F
                                           ; #	MOVF	r0x11, W
                                           ; #	MOVWF	r0x11
                                           ; #	MOVF	r0x11, W
                                           ; #	MOVF	r0x10, W
                                           ; #	MOVF	r0x10, W
                                           ; #	MOVWF	r0x10
                                           ; #	MOVF	r0x10, W
                                           ; #	MOVF	r0x0f, W
                                           ; #	MOVF	r0x0f, W
                                           ; #	MOVWF	r0x0f
0033b6   c00f     movff   0xf, 0xfe9       	MOVFF	r0x0f, FSR0L
0033b8   ffe9
0033ba   c010     movff   0x10, 0xff3      	MOVFF	r0x10, PRODL
0033bc   fff3
0033be   5011     movf    0x11, 0, 0       	MOVF	r0x11, W
0033c0   ec2d     call    0x5a, 0          	CALL	__gptrget3
0033c2   f000
0033c4   6e0f     movwf   0xf, 0           	MOVWF	r0x0f
0033c6   cff3     movff   0xff3, 0x10      	MOVFF	PRODL, r0x10
0033c8   f010
0033ca   cff4     movff   0xff4, 0x11      	MOVFF	PRODH, r0x11
0033cc   f011
                                           ;	.line	377; /home/yeison/Documentos/python/apps/pinguinoIDE/x.4/p8/pinguino/core/stdio.c	pc += pprints(out, s?s:"(null)", width, pad);
0033ce   1010     iorwf   0x10, 0, 0       	IORWF	r0x10, W
                                           ; #	IORWF	r0x11, W
                                           ; #	BTFSC	STATUS, 2
                                           ; #	GOTO	_01229_DS_
                                           ; #	GOTO	_01230_DS_
                                           ; #	MOVLW	UPPER(__str_0)
0033d0   1011     iorwf   0x11, 0, 0       	IORWF	r0x11, W
0033d2   e106     bnz     0x33e0           	BNZ	_01230_DS_
0033d4   0e00     movlw   0                	MOVLW	UPPER(__str_0)
0033d6   6e11     movwf   0x11, 0          	MOVWF	r0x11
0033d8   0e3e     movlw   0x3e             	MOVLW	HIGH(__str_0)
0033da   6e10     movwf   0x10, 0          	MOVWF	r0x10
0033dc   0ec8     movlw   0xc8             	MOVLW	LOW(__str_0)
0033de   6e0f     movwf   0xf, 0           	MOVWF	r0x0f
                                           _01230_DS_:
0033e0   500b     movf    0xb, 0, 0        	MOVF	r0x0b, W
0033e2   6ee5     movwf   0xe5, 0          	MOVWF	POSTDEC1
0033e4   500d     movf    0xd, 0, 0        	MOVF	r0x0d, W
0033e6   6ee5     movwf   0xe5, 0          	MOVWF	POSTDEC1
0033e8   5011     movf    0x11, 0, 0       	MOVF	r0x11, W
0033ea   6ee5     movwf   0xe5, 0          	MOVWF	POSTDEC1
0033ec   5010     movf    0x10, 0, 0       	MOVF	r0x10, W
0033ee   6ee5     movwf   0xe5, 0          	MOVWF	POSTDEC1
0033f0   500f     movf    0xf, 0, 0        	MOVF	r0x0f, W
0033f2   6ee5     movwf   0xe5, 0          	MOVWF	POSTDEC1
0033f4   5002     movf    0x2, 0, 0        	MOVF	r0x02, W
0033f6   6ee5     movwf   0xe5, 0          	MOVWF	POSTDEC1
0033f8   5001     movf    0x1, 0, 0        	MOVF	r0x01, W
0033fa   6ee5     movwf   0xe5, 0          	MOVWF	POSTDEC1
0033fc   5000     movf    0, 0, 0          	MOVF	r0x00, W
0033fe   6ee5     movwf   0xe5, 0          	MOVWF	POSTDEC1
003400   ec34     call    0x5268, 0        	CALL	_pprints
003402   f029
003404   6e0f     movwf   0xf, 0           	MOVWF	r0x0f
003406   0e08     movlw   0x8              	MOVLW	0x08
003408   26e1     addwf   0xe1, 0x1, 0     	ADDWF	FSR1L, F
00340a   5009     movf    0x9, 0, 0        	MOVF	r0x09, W
00340c   6e10     movwf   0x10, 0          	MOVWF	r0x10
00340e   500f     movf    0xf, 0, 0        	MOVF	r0x0f, W
003410   2410     addwf   0x10, 0, 0       	ADDWF	r0x10, W
003412   6e09     movwf   0x9, 0           	MOVWF	r0x09
                                           ;	.line	378; /home/yeison/Documentos/python/apps/pinguinoIDE/x.4/p8/pinguino/core/stdio.c	continue;
003414   ef3a     goto    0x3a74           	GOTO	_01213_DS_
003416   f01d
                                           _01189_DS_:
                                           ;	.line	381; /home/yeison/Documentos/python/apps/pinguinoIDE/x.4/p8/pinguino/core/stdio.c	if (*format == 'l')		// long support
003418   500e     movf    0xe, 0, 0        	MOVF	r0x0e, W
00341a   0a6c     xorlw   0x6c             	XORLW	0x6c
00341c   e106     bnz     0x342a           	BNZ	_01191_DS_
                                           ;	.line	383; /home/yeison/Documentos/python/apps/pinguinoIDE/x.4/p8/pinguino/core/stdio.c	++format;
00341e   2a03     incf    0x3, 0x1, 0      	INCF	r0x03, F
003420   e302     bnc     0x3426           	BNC	_01373_DS_
003422   4a04     infsnz  0x4, 0x1, 0      	INFSNZ	r0x04, F
003424   2a05     incf    0x5, 0x1, 0      	INCF	r0x05, F
                                           _01373_DS_:
                                           ;	.line	384; /home/yeison/Documentos/python/apps/pinguinoIDE/x.4/p8/pinguino/core/stdio.c	islong = 1;
003426   0e01     movlw   0x1              	MOVLW	0x01
003428   6e0c     movwf   0xc, 0           	MOVWF	r0x0c
                                           _01191_DS_:
                                           ;	.line	387; /home/yeison/Documentos/python/apps/pinguinoIDE/x.4/p8/pinguino/core/stdio.c	if (*format == 'u')		// decimal (10) unsigned (0) integer
00342a   c003     movff   0x3, 0xfe9       	MOVFF	r0x03, FSR0L
00342c   ffe9
00342e   c004     movff   0x4, 0xff3       	MOVFF	r0x04, PRODL
003430   fff3
003432   5005     movf    0x5, 0, 0        	MOVF	r0x05, W
003434   ec29     call    0x52, 0          	CALL	__gptrget1
003436   f000
                                           ; #	MOVWF	r0x0e
                                           ; #	MOVF	r0x0e, W
003438   6e0e     movwf   0xe, 0           	MOVWF	r0x0e
00343a   0a75     xorlw   0x75             	XORLW	0x75
00343c   e001     bz      0x3440           	BZ	_01375_DS_
00343e   d06c     bra     0x3518           	BRA	_01193_DS_
                                           _01375_DS_:
                                           ;	.line	389; /home/yeison/Documentos/python/apps/pinguinoIDE/x.4/p8/pinguino/core/stdio.c	val = (islong) ? va_arg(args, u32) : va_arg(args, u16);
003440   500c     movf    0xc, 0, 0        	MOVF	r0x0c, W
003442   e023     bz      0x348a           	BZ	_01231_DS_
003444   5006     movf    0x6, 0, 0        	MOVF	r0x06, W
003446   0f04     addlw   0x4              	ADDLW	0x04
003448   6e0f     movwf   0xf, 0           	MOVWF	r0x0f
00344a   0e00     movlw   0                	MOVLW	0x00
00344c   2007     addwfc  0x7, 0, 0        	ADDWFC	r0x07, W
00344e   6e10     movwf   0x10, 0          	MOVWF	r0x10
003450   0e00     movlw   0                	MOVLW	0x00
003452   2008     addwfc  0x8, 0, 0        	ADDWFC	r0x08, W
003454   6e11     movwf   0x11, 0          	MOVWF	r0x11
003456   c00f     movff   0xf, 0x6         	MOVFF	r0x0f, r0x06
003458   f006
00345a   c010     movff   0x10, 0x7        	MOVFF	r0x10, r0x07
00345c   f007
00345e   c011     movff   0x11, 0x8        	MOVFF	r0x11, r0x08
003460   f008
003462   0efc     movlw   0xfc             	MOVLW	0xfc
003464   260f     addwf   0xf, 0x1, 0      	ADDWF	r0x0f, F
003466   0eff     movlw   0xff             	MOVLW	0xff
003468   2210     addwfc  0x10, 0x1, 0     	ADDWFC	r0x10, F
00346a   2211     addwfc  0x11, 0x1, 0     	ADDWFC	r0x11, F
                                           ; #	MOVF	r0x11, W
                                           ; #	MOVWF	r0x11
                                           ; #	MOVF	r0x11, W
                                           ; #	MOVF	r0x10, W
                                           ; #	MOVF	r0x10, W
                                           ; #	MOVWF	r0x10
                                           ; #	MOVF	r0x10, W
                                           ; #	MOVF	r0x0f, W
                                           ; #	MOVF	r0x0f, W
                                           ; #	MOVWF	r0x0f
00346c   c00f     movff   0xf, 0xfe9       	MOVFF	r0x0f, FSR0L
00346e   ffe9
003470   c010     movff   0x10, 0xff3      	MOVFF	r0x10, PRODL
003472   fff3
003474   5011     movf    0x11, 0, 0       	MOVF	r0x11, W
003476   ec2f     call    0x5e, 0          	CALL	__gptrget4
003478   f000
00347a   6e0f     movwf   0xf, 0           	MOVWF	r0x0f
00347c   cff3     movff   0xff3, 0x10      	MOVFF	PRODL, r0x10
00347e   f010
003480   cff4     movff   0xff4, 0x11      	MOVFF	PRODH, r0x11
003482   f011
003484   cfe9     movff   0xfe9, 0x12      	MOVFF	FSR0L, r0x12
003486   f012
003488   d024     bra     0x34d2           	BRA	_01232_DS_
                                           _01231_DS_:
00348a   5006     movf    0x6, 0, 0        	MOVF	r0x06, W
00348c   0f02     addlw   0x2              	ADDLW	0x02
00348e   6e13     movwf   0x13, 0          	MOVWF	r0x13
003490   0e00     movlw   0                	MOVLW	0x00
003492   2007     addwfc  0x7, 0, 0        	ADDWFC	r0x07, W
003494   6e14     movwf   0x14, 0          	MOVWF	r0x14
003496   0e00     movlw   0                	MOVLW	0x00
003498   2008     addwfc  0x8, 0, 0        	ADDWFC	r0x08, W
00349a   6e15     movwf   0x15, 0          	MOVWF	r0x15
00349c   c013     movff   0x13, 0x6        	MOVFF	r0x13, r0x06
00349e   f006
0034a0   c014     movff   0x14, 0x7        	MOVFF	r0x14, r0x07
0034a2   f007
0034a4   c015     movff   0x15, 0x8        	MOVFF	r0x15, r0x08
0034a6   f008
0034a8   0efe     movlw   0xfe             	MOVLW	0xfe
0034aa   2613     addwf   0x13, 0x1, 0     	ADDWF	r0x13, F
0034ac   0eff     movlw   0xff             	MOVLW	0xff
0034ae   2214     addwfc  0x14, 0x1, 0     	ADDWFC	r0x14, F
0034b0   2215     addwfc  0x15, 0x1, 0     	ADDWFC	r0x15, F
                                           ; #	MOVF	r0x15, W
                                           ; #	MOVWF	r0x15
                                           ; #	MOVF	r0x15, W
                                           ; #	MOVF	r0x14, W
                                           ; #	MOVF	r0x14, W
                                           ; #	MOVWF	r0x14
                                           ; #	MOVF	r0x14, W
                                           ; #	MOVF	r0x13, W
                                           ; #	MOVF	r0x13, W
                                           ; #	MOVWF	r0x13
0034b2   c013     movff   0x13, 0xfe9      	MOVFF	r0x13, FSR0L
0034b4   ffe9
0034b6   c014     movff   0x14, 0xff3      	MOVFF	r0x14, PRODL
0034b8   fff3
0034ba   5015     movf    0x15, 0, 0       	MOVF	r0x15, W
0034bc   ec2b     call    0x56, 0          	CALL	__gptrget2
0034be   f000
0034c0   6e13     movwf   0x13, 0          	MOVWF	r0x13
0034c2   cff3     movff   0xff3, 0x14      	MOVFF	PRODL, r0x14
0034c4   f014
0034c6   c013     movff   0x13, 0xf        	MOVFF	r0x13, r0x0f
0034c8   f00f
0034ca   c014     movff   0x14, 0x10       	MOVFF	r0x14, r0x10
0034cc   f010
0034ce   6a11     clrf    0x11, 0          	CLRF	r0x11
0034d0   6a12     clrf    0x12, 0          	CLRF	r0x12
                                           _01232_DS_:
                                           ;	.line	390; /home/yeison/Documentos/python/apps/pinguinoIDE/x.4/p8/pinguino/core/stdio.c	pc += pprinti(out, val, islong, 10, 0, width, pad, separator, 'a');
0034d2   0e61     movlw   0x61             	MOVLW	0x61
0034d4   6ee5     movwf   0xe5, 0          	MOVWF	POSTDEC1
0034d6   6ae5     clrf    0xe5, 0          	CLRF	POSTDEC1
0034d8   500b     movf    0xb, 0, 0        	MOVF	r0x0b, W
0034da   6ee5     movwf   0xe5, 0          	MOVWF	POSTDEC1
0034dc   500d     movf    0xd, 0, 0        	MOVF	r0x0d, W
0034de   6ee5     movwf   0xe5, 0          	MOVWF	POSTDEC1
0034e0   6ae5     clrf    0xe5, 0          	CLRF	POSTDEC1
0034e2   0e0a     movlw   0xa              	MOVLW	0x0a
0034e4   6ee5     movwf   0xe5, 0          	MOVWF	POSTDEC1
0034e6   500c     movf    0xc, 0, 0        	MOVF	r0x0c, W
0034e8   6ee5     movwf   0xe5, 0          	MOVWF	POSTDEC1
0034ea   5012     movf    0x12, 0, 0       	MOVF	r0x12, W
0034ec   6ee5     movwf   0xe5, 0          	MOVWF	POSTDEC1
0034ee   5011     movf    0x11, 0, 0       	MOVF	r0x11, W
0034f0   6ee5     movwf   0xe5, 0          	MOVWF	POSTDEC1
0034f2   5010     movf    0x10, 0, 0       	MOVF	r0x10, W
0034f4   6ee5     movwf   0xe5, 0          	MOVWF	POSTDEC1
0034f6   500f     movf    0xf, 0, 0        	MOVF	r0x0f, W
0034f8   6ee5     movwf   0xe5, 0          	MOVWF	POSTDEC1
0034fa   5002     movf    0x2, 0, 0        	MOVF	r0x02, W
0034fc   6ee5     movwf   0xe5, 0          	MOVWF	POSTDEC1
0034fe   5001     movf    0x1, 0, 0        	MOVF	r0x01, W
003500   6ee5     movwf   0xe5, 0          	MOVWF	POSTDEC1
003502   5000     movf    0, 0, 0          	MOVF	r0x00, W
003504   6ee5     movwf   0xe5, 0          	MOVWF	POSTDEC1
003506   ecfa     call    0x45f4, 0        	CALL	_pprinti
003508   f022
00350a   6e13     movwf   0x13, 0          	MOVWF	r0x13
00350c   0e0e     movlw   0xe              	MOVLW	0x0e
00350e   26e1     addwf   0xe1, 0x1, 0     	ADDWF	FSR1L, F
003510   5013     movf    0x13, 0, 0       	MOVF	r0x13, W
003512   2609     addwf   0x9, 0x1, 0      	ADDWF	r0x09, F
                                           ;	.line	391; /home/yeison/Documentos/python/apps/pinguinoIDE/x.4/p8/pinguino/core/stdio.c	continue;
003514   ef3a     goto    0x3a74           	GOTO	_01213_DS_
003516   f01d
                                           _01193_DS_:
                                           ;	.line	394; /home/yeison/Documentos/python/apps/pinguinoIDE/x.4/p8/pinguino/core/stdio.c	if (*format == 'd' || *format == 'i') // decimal (10) signed (1) integer
003518   500e     movf    0xe, 0, 0        	MOVF	r0x0e, W
00351a   0a64     xorlw   0x64             	XORLW	0x64
00351c   e004     bz      0x3526           	BZ	_01194_DS_
00351e   500e     movf    0xe, 0, 0        	MOVF	r0x0e, W
003520   0a69     xorlw   0x69             	XORLW	0x69
003522   e001     bz      0x3526           	BZ	_01194_DS_
003524   d075     bra     0x3610           	BRA	_01195_DS_
                                           _01194_DS_:
                                           ;	.line	396; /home/yeison/Documentos/python/apps/pinguinoIDE/x.4/p8/pinguino/core/stdio.c	val = (islong) ? va_arg(args, u32) : va_arg(args, u16);
003526   500c     movf    0xc, 0, 0        	MOVF	r0x0c, W
003528   e023     bz      0x3570           	BZ	_01233_DS_
00352a   5006     movf    0x6, 0, 0        	MOVF	r0x06, W
00352c   0f04     addlw   0x4              	ADDLW	0x04
00352e   6e13     movwf   0x13, 0          	MOVWF	r0x13
003530   0e00     movlw   0                	MOVLW	0x00
003532   2007     addwfc  0x7, 0, 0        	ADDWFC	r0x07, W
003534   6e14     movwf   0x14, 0          	MOVWF	r0x14
003536   0e00     movlw   0                	MOVLW	0x00
003538   2008     addwfc  0x8, 0, 0        	ADDWFC	r0x08, W
00353a   6e15     movwf   0x15, 0          	MOVWF	r0x15
00353c   c013     movff   0x13, 0x6        	MOVFF	r0x13, r0x06
00353e   f006
003540   c014     movff   0x14, 0x7        	MOVFF	r0x14, r0x07
003542   f007
003544   c015     movff   0x15, 0x8        	MOVFF	r0x15, r0x08
003546   f008
003548   0efc     movlw   0xfc             	MOVLW	0xfc
00354a   2613     addwf   0x13, 0x1, 0     	ADDWF	r0x13, F
00354c   0eff     movlw   0xff             	MOVLW	0xff
00354e   2214     addwfc  0x14, 0x1, 0     	ADDWFC	r0x14, F
003550   2215     addwfc  0x15, 0x1, 0     	ADDWFC	r0x15, F
                                           ; #	MOVF	r0x15, W
                                           ; #	MOVWF	r0x15
                                           ; #	MOVF	r0x15, W
                                           ; #	MOVF	r0x14, W
                                           ; #	MOVF	r0x14, W
                                           ; #	MOVWF	r0x14
                                           ; #	MOVF	r0x14, W
                                           ; #	MOVF	r0x13, W
                                           ; #	MOVF	r0x13, W
                                           ; #	MOVWF	r0x13
003552   c013     movff   0x13, 0xfe9      	MOVFF	r0x13, FSR0L
003554   ffe9
003556   c014     movff   0x14, 0xff3      	MOVFF	r0x14, PRODL
003558   fff3
00355a   5015     movf    0x15, 0, 0       	MOVF	r0x15, W
00355c   ec2f     call    0x5e, 0          	CALL	__gptrget4
00355e   f000
003560   6e13     movwf   0x13, 0          	MOVWF	r0x13
003562   cff3     movff   0xff3, 0x14      	MOVFF	PRODL, r0x14
003564   f014
003566   cff4     movff   0xff4, 0x15      	MOVFF	PRODH, r0x15
003568   f015
00356a   cfe9     movff   0xfe9, 0x16      	MOVFF	FSR0L, r0x16
00356c   f016
00356e   d024     bra     0x35b8           	BRA	_01234_DS_
                                           _01233_DS_:
003570   5006     movf    0x6, 0, 0        	MOVF	r0x06, W
003572   0f02     addlw   0x2              	ADDLW	0x02
003574   6e17     movwf   0x17, 0          	MOVWF	r0x17
003576   0e00     movlw   0                	MOVLW	0x00
003578   2007     addwfc  0x7, 0, 0        	ADDWFC	r0x07, W
00357a   6e18     movwf   0x18, 0          	MOVWF	r0x18
00357c   0e00     movlw   0                	MOVLW	0x00
00357e   2008     addwfc  0x8, 0, 0        	ADDWFC	r0x08, W
003580   6e19     movwf   0x19, 0          	MOVWF	r0x19
003582   c017     movff   0x17, 0x6        	MOVFF	r0x17, r0x06
003584   f006
003586   c018     movff   0x18, 0x7        	MOVFF	r0x18, r0x07
003588   f007
00358a   c019     movff   0x19, 0x8        	MOVFF	r0x19, r0x08
00358c   f008
00358e   0efe     movlw   0xfe             	MOVLW	0xfe
003590   2617     addwf   0x17, 0x1, 0     	ADDWF	r0x17, F
003592   0eff     movlw   0xff             	MOVLW	0xff
003594   2218     addwfc  0x18, 0x1, 0     	ADDWFC	r0x18, F
003596   2219     addwfc  0x19, 0x1, 0     	ADDWFC	r0x19, F
                                           ; #	MOVF	r0x19, W
                                           ; #	MOVWF	r0x19
                                           ; #	MOVF	r0x19, W
                                           ; #	MOVF	r0x18, W
                                           ; #	MOVF	r0x18, W
                                           ; #	MOVWF	r0x18
                                           ; #	MOVF	r0x18, W
                                           ; #	MOVF	r0x17, W
                                           ; #	MOVF	r0x17, W
                                           ; #	MOVWF	r0x17
003598   c017     movff   0x17, 0xfe9      	MOVFF	r0x17, FSR0L
00359a   ffe9
00359c   c018     movff   0x18, 0xff3      	MOVFF	r0x18, PRODL
00359e   fff3
0035a0   5019     movf    0x19, 0, 0       	MOVF	r0x19, W
0035a2   ec2b     call    0x56, 0          	CALL	__gptrget2
0035a4   f000
0035a6   6e17     movwf   0x17, 0          	MOVWF	r0x17
0035a8   cff3     movff   0xff3, 0x18      	MOVFF	PRODL, r0x18
0035aa   f018
0035ac   c017     movff   0x17, 0x13       	MOVFF	r0x17, r0x13
0035ae   f013
0035b0   c018     movff   0x18, 0x14       	MOVFF	r0x18, r0x14
0035b2   f014
0035b4   6a15     clrf    0x15, 0          	CLRF	r0x15
0035b6   6a16     clrf    0x16, 0          	CLRF	r0x16
                                           _01234_DS_:
0035b8   c013     movff   0x13, 0xf        	MOVFF	r0x13, r0x0f
0035ba   f00f
0035bc   c014     movff   0x14, 0x10       	MOVFF	r0x14, r0x10
0035be   f010
0035c0   c015     movff   0x15, 0x11       	MOVFF	r0x15, r0x11
0035c2   f011
0035c4   c016     movff   0x16, 0x12       	MOVFF	r0x16, r0x12
0035c6   f012
                                           ;	.line	397; /home/yeison/Documentos/python/apps/pinguinoIDE/x.4/p8/pinguino/core/stdio.c	pc += pprinti(out, val, islong, 10, 1, width, pad, separator, 'a');
0035c8   0e61     movlw   0x61             	MOVLW	0x61
0035ca   6ee5     movwf   0xe5, 0          	MOVWF	POSTDEC1
0035cc   6ae5     clrf    0xe5, 0          	CLRF	POSTDEC1
0035ce   500b     movf    0xb, 0, 0        	MOVF	r0x0b, W
0035d0   6ee5     movwf   0xe5, 0          	MOVWF	POSTDEC1
0035d2   500d     movf    0xd, 0, 0        	MOVF	r0x0d, W
0035d4   6ee5     movwf   0xe5, 0          	MOVWF	POSTDEC1
0035d6   0e01     movlw   0x1              	MOVLW	0x01
0035d8   6ee5     movwf   0xe5, 0          	MOVWF	POSTDEC1
0035da   0e0a     movlw   0xa              	MOVLW	0x0a
0035dc   6ee5     movwf   0xe5, 0          	MOVWF	POSTDEC1
0035de   500c     movf    0xc, 0, 0        	MOVF	r0x0c, W
0035e0   6ee5     movwf   0xe5, 0          	MOVWF	POSTDEC1
0035e2   5012     movf    0x12, 0, 0       	MOVF	r0x12, W
0035e4   6ee5     movwf   0xe5, 0          	MOVWF	POSTDEC1
0035e6   5011     movf    0x11, 0, 0       	MOVF	r0x11, W
0035e8   6ee5     movwf   0xe5, 0          	MOVWF	POSTDEC1
0035ea   5010     movf    0x10, 0, 0       	MOVF	r0x10, W
0035ec   6ee5     movwf   0xe5, 0          	MOVWF	POSTDEC1
0035ee   500f     movf    0xf, 0, 0        	MOVF	r0x0f, W
0035f0   6ee5     movwf   0xe5, 0          	MOVWF	POSTDEC1
0035f2   5002     movf    0x2, 0, 0        	MOVF	r0x02, W
0035f4   6ee5     movwf   0xe5, 0          	MOVWF	POSTDEC1
0035f6   5001     movf    0x1, 0, 0        	MOVF	r0x01, W
0035f8   6ee5     movwf   0xe5, 0          	MOVWF	POSTDEC1
0035fa   5000     movf    0, 0, 0          	MOVF	r0x00, W
0035fc   6ee5     movwf   0xe5, 0          	MOVWF	POSTDEC1
0035fe   ecfa     call    0x45f4, 0        	CALL	_pprinti
003600   f022
003602   6e13     movwf   0x13, 0          	MOVWF	r0x13
003604   0e0e     movlw   0xe              	MOVLW	0x0e
003606   26e1     addwf   0xe1, 0x1, 0     	ADDWF	FSR1L, F
003608   5013     movf    0x13, 0, 0       	MOVF	r0x13, W
00360a   2609     addwf   0x9, 0x1, 0      	ADDWF	r0x09, F
                                           ;	.line	398; /home/yeison/Documentos/python/apps/pinguinoIDE/x.4/p8/pinguino/core/stdio.c	continue;
00360c   ef3a     goto    0x3a74           	GOTO	_01213_DS_
00360e   f01d
                                           _01195_DS_:
                                           ;	.line	401; /home/yeison/Documentos/python/apps/pinguinoIDE/x.4/p8/pinguino/core/stdio.c	if (*format == 'x' || *format == 'p')	// unsigned (0) lower ('a') hexa (16) or pointer
003610   500e     movf    0xe, 0, 0        	MOVF	r0x0e, W
003612   0a78     xorlw   0x78             	XORLW	0x78
003614   e004     bz      0x361e           	BZ	_01197_DS_
003616   500e     movf    0xe, 0, 0        	MOVF	r0x0e, W
003618   0a70     xorlw   0x70             	XORLW	0x70
00361a   e001     bz      0x361e           	BZ	_01197_DS_
00361c   d073     bra     0x3704           	BRA	_01198_DS_
                                           _01197_DS_:
                                           ;	.line	403; /home/yeison/Documentos/python/apps/pinguinoIDE/x.4/p8/pinguino/core/stdio.c	val = (islong) ? va_arg(args, u32) : va_arg(args, u16);
00361e   500c     movf    0xc, 0, 0        	MOVF	r0x0c, W
003620   e023     bz      0x3668           	BZ	_01235_DS_
003622   5006     movf    0x6, 0, 0        	MOVF	r0x06, W
003624   0f04     addlw   0x4              	ADDLW	0x04
003626   6e13     movwf   0x13, 0          	MOVWF	r0x13
003628   0e00     movlw   0                	MOVLW	0x00
00362a   2007     addwfc  0x7, 0, 0        	ADDWFC	r0x07, W
00362c   6e14     movwf   0x14, 0          	MOVWF	r0x14
00362e   0e00     movlw   0                	MOVLW	0x00
003630   2008     addwfc  0x8, 0, 0        	ADDWFC	r0x08, W
003632   6e15     movwf   0x15, 0          	MOVWF	r0x15
003634   c013     movff   0x13, 0x6        	MOVFF	r0x13, r0x06
003636   f006
003638   c014     movff   0x14, 0x7        	MOVFF	r0x14, r0x07
00363a   f007
00363c   c015     movff   0x15, 0x8        	MOVFF	r0x15, r0x08
00363e   f008
003640   0efc     movlw   0xfc             	MOVLW	0xfc
003642   2613     addwf   0x13, 0x1, 0     	ADDWF	r0x13, F
003644   0eff     movlw   0xff             	MOVLW	0xff
003646   2214     addwfc  0x14, 0x1, 0     	ADDWFC	r0x14, F
003648   2215     addwfc  0x15, 0x1, 0     	ADDWFC	r0x15, F
                                           ; #	MOVF	r0x15, W
                                           ; #	MOVWF	r0x15
                                           ; #	MOVF	r0x15, W
                                           ; #	MOVF	r0x14, W
                                           ; #	MOVF	r0x14, W
                                           ; #	MOVWF	r0x14
                                           ; #	MOVF	r0x14, W
                                           ; #	MOVF	r0x13, W
                                           ; #	MOVF	r0x13, W
                                           ; #	MOVWF	r0x13
00364a   c013     movff   0x13, 0xfe9      	MOVFF	r0x13, FSR0L
00364c   ffe9
00364e   c014     movff   0x14, 0xff3      	MOVFF	r0x14, PRODL
003650   fff3
003652   5015     movf    0x15, 0, 0       	MOVF	r0x15, W
003654   ec2f     call    0x5e, 0          	CALL	__gptrget4
003656   f000
003658   6e13     movwf   0x13, 0          	MOVWF	r0x13
00365a   cff3     movff   0xff3, 0x14      	MOVFF	PRODL, r0x14
00365c   f014
00365e   cff4     movff   0xff4, 0x15      	MOVFF	PRODH, r0x15
003660   f015
003662   cfe9     movff   0xfe9, 0x16      	MOVFF	FSR0L, r0x16
003664   f016
003666   d024     bra     0x36b0           	BRA	_01236_DS_
                                           _01235_DS_:
003668   5006     movf    0x6, 0, 0        	MOVF	r0x06, W
00366a   0f02     addlw   0x2              	ADDLW	0x02
00366c   6e17     movwf   0x17, 0          	MOVWF	r0x17
00366e   0e00     movlw   0                	MOVLW	0x00
003670   2007     addwfc  0x7, 0, 0        	ADDWFC	r0x07, W
003672   6e18     movwf   0x18, 0          	MOVWF	r0x18
003674   0e00     movlw   0                	MOVLW	0x00
003676   2008     addwfc  0x8, 0, 0        	ADDWFC	r0x08, W
003678   6e19     movwf   0x19, 0          	MOVWF	r0x19
00367a   c017     movff   0x17, 0x6        	MOVFF	r0x17, r0x06
00367c   f006
00367e   c018     movff   0x18, 0x7        	MOVFF	r0x18, r0x07
003680   f007
003682   c019     movff   0x19, 0x8        	MOVFF	r0x19, r0x08
003684   f008
003686   0efe     movlw   0xfe             	MOVLW	0xfe
003688   2617     addwf   0x17, 0x1, 0     	ADDWF	r0x17, F
00368a   0eff     movlw   0xff             	MOVLW	0xff
00368c   2218     addwfc  0x18, 0x1, 0     	ADDWFC	r0x18, F
00368e   2219     addwfc  0x19, 0x1, 0     	ADDWFC	r0x19, F
                                           ; #	MOVF	r0x19, W
                                           ; #	MOVWF	r0x19
                                           ; #	MOVF	r0x19, W
                                           ; #	MOVF	r0x18, W
                                           ; #	MOVF	r0x18, W
                                           ; #	MOVWF	r0x18
                                           ; #	MOVF	r0x18, W
                                           ; #	MOVF	r0x17, W
                                           ; #	MOVF	r0x17, W
                                           ; #	MOVWF	r0x17
003690   c017     movff   0x17, 0xfe9      	MOVFF	r0x17, FSR0L
003692   ffe9
003694   c018     movff   0x18, 0xff3      	MOVFF	r0x18, PRODL
003696   fff3
003698   5019     movf    0x19, 0, 0       	MOVF	r0x19, W
00369a   ec2b     call    0x56, 0          	CALL	__gptrget2
00369c   f000
00369e   6e17     movwf   0x17, 0          	MOVWF	r0x17
0036a0   cff3     movff   0xff3, 0x18      	MOVFF	PRODL, r0x18
0036a2   f018
0036a4   c017     movff   0x17, 0x13       	MOVFF	r0x17, r0x13
0036a6   f013
0036a8   c018     movff   0x18, 0x14       	MOVFF	r0x18, r0x14
0036aa   f014
0036ac   6a15     clrf    0x15, 0          	CLRF	r0x15
0036ae   6a16     clrf    0x16, 0          	CLRF	r0x16
                                           _01236_DS_:
0036b0   c013     movff   0x13, 0xf        	MOVFF	r0x13, r0x0f
0036b2   f00f
0036b4   c014     movff   0x14, 0x10       	MOVFF	r0x14, r0x10
0036b6   f010
0036b8   c015     movff   0x15, 0x11       	MOVFF	r0x15, r0x11
0036ba   f011
0036bc   c016     movff   0x16, 0x12       	MOVFF	r0x16, r0x12
0036be   f012
                                           ;	.line	404; /home/yeison/Documentos/python/apps/pinguinoIDE/x.4/p8/pinguino/core/stdio.c	pc += pprinti(out, val, islong, 16, 0, width, pad, separator, 'a');
0036c0   0e61     movlw   0x61             	MOVLW	0x61
0036c2   6ee5     movwf   0xe5, 0          	MOVWF	POSTDEC1
0036c4   6ae5     clrf    0xe5, 0          	CLRF	POSTDEC1
0036c6   500b     movf    0xb, 0, 0        	MOVF	r0x0b, W
0036c8   6ee5     movwf   0xe5, 0          	MOVWF	POSTDEC1
0036ca   500d     movf    0xd, 0, 0        	MOVF	r0x0d, W
0036cc   6ee5     movwf   0xe5, 0          	MOVWF	POSTDEC1
0036ce   6ae5     clrf    0xe5, 0          	CLRF	POSTDEC1
0036d0   0e10     movlw   0x10             	MOVLW	0x10
0036d2   6ee5     movwf   0xe5, 0          	MOVWF	POSTDEC1
0036d4   500c     movf    0xc, 0, 0        	MOVF	r0x0c, W
0036d6   6ee5     movwf   0xe5, 0          	MOVWF	POSTDEC1
0036d8   5012     movf    0x12, 0, 0       	MOVF	r0x12, W
0036da   6ee5     movwf   0xe5, 0          	MOVWF	POSTDEC1
0036dc   5011     movf    0x11, 0, 0       	MOVF	r0x11, W
0036de   6ee5     movwf   0xe5, 0          	MOVWF	POSTDEC1
0036e0   5010     movf    0x10, 0, 0       	MOVF	r0x10, W
0036e2   6ee5     movwf   0xe5, 0          	MOVWF	POSTDEC1
0036e4   500f     movf    0xf, 0, 0        	MOVF	r0x0f, W
0036e6   6ee5     movwf   0xe5, 0          	MOVWF	POSTDEC1
0036e8   5002     movf    0x2, 0, 0        	MOVF	r0x02, W
0036ea   6ee5     movwf   0xe5, 0          	MOVWF	POSTDEC1
0036ec   5001     movf    0x1, 0, 0        	MOVF	r0x01, W
0036ee   6ee5     movwf   0xe5, 0          	MOVWF	POSTDEC1
0036f0   5000     movf    0, 0, 0          	MOVF	r0x00, W
0036f2   6ee5     movwf   0xe5, 0          	MOVWF	POSTDEC1
0036f4   ecfa     call    0x45f4, 0        	CALL	_pprinti
0036f6   f022
0036f8   6e13     movwf   0x13, 0          	MOVWF	r0x13
0036fa   0e0e     movlw   0xe              	MOVLW	0x0e
0036fc   26e1     addwf   0xe1, 0x1, 0     	ADDWF	FSR1L, F
0036fe   5013     movf    0x13, 0, 0       	MOVF	r0x13, W
003700   2609     addwf   0x9, 0x1, 0      	ADDWF	r0x09, F
                                           ;	.line	405; /home/yeison/Documentos/python/apps/pinguinoIDE/x.4/p8/pinguino/core/stdio.c	continue;
003702   d1b8     bra     0x3a74           	BRA	_01213_DS_
                                           _01198_DS_:
                                           ;	.line	408; /home/yeison/Documentos/python/apps/pinguinoIDE/x.4/p8/pinguino/core/stdio.c	if (*format == 'X' || *format == 'P')	// unsigned (0) upper ('A') hexa (16) or pointer
003704   500e     movf    0xe, 0, 0        	MOVF	r0x0e, W
003706   0a58     xorlw   0x58             	XORLW	0x58
003708   e004     bz      0x3712           	BZ	_01200_DS_
00370a   500e     movf    0xe, 0, 0        	MOVF	r0x0e, W
00370c   0a50     xorlw   0x50             	XORLW	0x50
00370e   e001     bz      0x3712           	BZ	_01200_DS_
003710   d073     bra     0x37f8           	BRA	_01201_DS_
                                           _01200_DS_:
                                           ;	.line	410; /home/yeison/Documentos/python/apps/pinguinoIDE/x.4/p8/pinguino/core/stdio.c	val = (islong) ? va_arg(args, u32) : va_arg(args, u16);
003712   500c     movf    0xc, 0, 0        	MOVF	r0x0c, W
003714   e023     bz      0x375c           	BZ	_01237_DS_
003716   5006     movf    0x6, 0, 0        	MOVF	r0x06, W
003718   0f04     addlw   0x4              	ADDLW	0x04
00371a   6e13     movwf   0x13, 0          	MOVWF	r0x13
00371c   0e00     movlw   0                	MOVLW	0x00
00371e   2007     addwfc  0x7, 0, 0        	ADDWFC	r0x07, W
003720   6e14     movwf   0x14, 0          	MOVWF	r0x14
003722   0e00     movlw   0                	MOVLW	0x00
003724   2008     addwfc  0x8, 0, 0        	ADDWFC	r0x08, W
003726   6e15     movwf   0x15, 0          	MOVWF	r0x15
003728   c013     movff   0x13, 0x6        	MOVFF	r0x13, r0x06
00372a   f006
00372c   c014     movff   0x14, 0x7        	MOVFF	r0x14, r0x07
00372e   f007
003730   c015     movff   0x15, 0x8        	MOVFF	r0x15, r0x08
003732   f008
003734   0efc     movlw   0xfc             	MOVLW	0xfc
003736   2613     addwf   0x13, 0x1, 0     	ADDWF	r0x13, F
003738   0eff     movlw   0xff             	MOVLW	0xff
00373a   2214     addwfc  0x14, 0x1, 0     	ADDWFC	r0x14, F
00373c   2215     addwfc  0x15, 0x1, 0     	ADDWFC	r0x15, F
                                           ; #	MOVF	r0x15, W
                                           ; #	MOVWF	r0x15
                                           ; #	MOVF	r0x15, W
                                           ; #	MOVF	r0x14, W
                                           ; #	MOVF	r0x14, W
                                           ; #	MOVWF	r0x14
                                           ; #	MOVF	r0x14, W
                                           ; #	MOVF	r0x13, W
                                           ; #	MOVF	r0x13, W
                                           ; #	MOVWF	r0x13
00373e   c013     movff   0x13, 0xfe9      	MOVFF	r0x13, FSR0L
003740   ffe9
003742   c014     movff   0x14, 0xff3      	MOVFF	r0x14, PRODL
003744   fff3
003746   5015     movf    0x15, 0, 0       	MOVF	r0x15, W
003748   ec2f     call    0x5e, 0          	CALL	__gptrget4
00374a   f000
00374c   6e13     movwf   0x13, 0          	MOVWF	r0x13
00374e   cff3     movff   0xff3, 0x14      	MOVFF	PRODL, r0x14
003750   f014
003752   cff4     movff   0xff4, 0x15      	MOVFF	PRODH, r0x15
003754   f015
003756   cfe9     movff   0xfe9, 0x16      	MOVFF	FSR0L, r0x16
003758   f016
00375a   d024     bra     0x37a4           	BRA	_01238_DS_
                                           _01237_DS_:
00375c   5006     movf    0x6, 0, 0        	MOVF	r0x06, W
00375e   0f02     addlw   0x2              	ADDLW	0x02
003760   6e17     movwf   0x17, 0          	MOVWF	r0x17
003762   0e00     movlw   0                	MOVLW	0x00
003764   2007     addwfc  0x7, 0, 0        	ADDWFC	r0x07, W
003766   6e18     movwf   0x18, 0          	MOVWF	r0x18
003768   0e00     movlw   0                	MOVLW	0x00
00376a   2008     addwfc  0x8, 0, 0        	ADDWFC	r0x08, W
00376c   6e19     movwf   0x19, 0          	MOVWF	r0x19
00376e   c017     movff   0x17, 0x6        	MOVFF	r0x17, r0x06
003770   f006
003772   c018     movff   0x18, 0x7        	MOVFF	r0x18, r0x07
003774   f007
003776   c019     movff   0x19, 0x8        	MOVFF	r0x19, r0x08
003778   f008
00377a   0efe     movlw   0xfe             	MOVLW	0xfe
00377c   2617     addwf   0x17, 0x1, 0     	ADDWF	r0x17, F
00377e   0eff     movlw   0xff             	MOVLW	0xff
003780   2218     addwfc  0x18, 0x1, 0     	ADDWFC	r0x18, F
003782   2219     addwfc  0x19, 0x1, 0     	ADDWFC	r0x19, F
                                           ; #	MOVF	r0x19, W
                                           ; #	MOVWF	r0x19
                                           ; #	MOVF	r0x19, W
                                           ; #	MOVF	r0x18, W
                                           ; #	MOVF	r0x18, W
                                           ; #	MOVWF	r0x18
                                           ; #	MOVF	r0x18, W
                                           ; #	MOVF	r0x17, W
                                           ; #	MOVF	r0x17, W
                                           ; #	MOVWF	r0x17
003784   c017     movff   0x17, 0xfe9      	MOVFF	r0x17, FSR0L
003786   ffe9
003788   c018     movff   0x18, 0xff3      	MOVFF	r0x18, PRODL
00378a   fff3
00378c   5019     movf    0x19, 0, 0       	MOVF	r0x19, W
00378e   ec2b     call    0x56, 0          	CALL	__gptrget2
003790   f000
003792   6e17     movwf   0x17, 0          	MOVWF	r0x17
003794   cff3     movff   0xff3, 0x18      	MOVFF	PRODL, r0x18
003796   f018
003798   c017     movff   0x17, 0x13       	MOVFF	r0x17, r0x13
00379a   f013
00379c   c018     movff   0x18, 0x14       	MOVFF	r0x18, r0x14
00379e   f014
0037a0   6a15     clrf    0x15, 0          	CLRF	r0x15
0037a2   6a16     clrf    0x16, 0          	CLRF	r0x16
                                           _01238_DS_:
0037a4   c013     movff   0x13, 0xf        	MOVFF	r0x13, r0x0f
0037a6   f00f
0037a8   c014     movff   0x14, 0x10       	MOVFF	r0x14, r0x10
0037aa   f010
0037ac   c015     movff   0x15, 0x11       	MOVFF	r0x15, r0x11
0037ae   f011
0037b0   c016     movff   0x16, 0x12       	MOVFF	r0x16, r0x12
0037b2   f012
                                           ;	.line	411; /home/yeison/Documentos/python/apps/pinguinoIDE/x.4/p8/pinguino/core/stdio.c	pc += pprinti(out, val, islong, 16, 0, width, pad, separator, 'A');
0037b4   0e41     movlw   0x41             	MOVLW	0x41
0037b6   6ee5     movwf   0xe5, 0          	MOVWF	POSTDEC1
0037b8   6ae5     clrf    0xe5, 0          	CLRF	POSTDEC1
0037ba   500b     movf    0xb, 0, 0        	MOVF	r0x0b, W
0037bc   6ee5     movwf   0xe5, 0          	MOVWF	POSTDEC1
0037be   500d     movf    0xd, 0, 0        	MOVF	r0x0d, W
0037c0   6ee5     movwf   0xe5, 0          	MOVWF	POSTDEC1
0037c2   6ae5     clrf    0xe5, 0          	CLRF	POSTDEC1
0037c4   0e10     movlw   0x10             	MOVLW	0x10
0037c6   6ee5     movwf   0xe5, 0          	MOVWF	POSTDEC1
0037c8   500c     movf    0xc, 0, 0        	MOVF	r0x0c, W
0037ca   6ee5     movwf   0xe5, 0          	MOVWF	POSTDEC1
0037cc   5012     movf    0x12, 0, 0       	MOVF	r0x12, W
0037ce   6ee5     movwf   0xe5, 0          	MOVWF	POSTDEC1
0037d0   5011     movf    0x11, 0, 0       	MOVF	r0x11, W
0037d2   6ee5     movwf   0xe5, 0          	MOVWF	POSTDEC1
0037d4   5010     movf    0x10, 0, 0       	MOVF	r0x10, W
0037d6   6ee5     movwf   0xe5, 0          	MOVWF	POSTDEC1
0037d8   500f     movf    0xf, 0, 0        	MOVF	r0x0f, W
0037da   6ee5     movwf   0xe5, 0          	MOVWF	POSTDEC1
0037dc   5002     movf    0x2, 0, 0        	MOVF	r0x02, W
0037de   6ee5     movwf   0xe5, 0          	MOVWF	POSTDEC1
0037e0   5001     movf    0x1, 0, 0        	MOVF	r0x01, W
0037e2   6ee5     movwf   0xe5, 0          	MOVWF	POSTDEC1
0037e4   5000     movf    0, 0, 0          	MOVF	r0x00, W
0037e6   6ee5     movwf   0xe5, 0          	MOVWF	POSTDEC1
0037e8   ecfa     call    0x45f4, 0        	CALL	_pprinti
0037ea   f022
0037ec   6e13     movwf   0x13, 0          	MOVWF	r0x13
0037ee   0e0e     movlw   0xe              	MOVLW	0x0e
0037f0   26e1     addwf   0xe1, 0x1, 0     	ADDWF	FSR1L, F
0037f2   5013     movf    0x13, 0, 0       	MOVF	r0x13, W
0037f4   2609     addwf   0x9, 0x1, 0      	ADDWF	r0x09, F
                                           ;	.line	412; /home/yeison/Documentos/python/apps/pinguinoIDE/x.4/p8/pinguino/core/stdio.c	continue;
0037f6   d13e     bra     0x3a74           	BRA	_01213_DS_
                                           _01201_DS_:
                                           ;	.line	415; /home/yeison/Documentos/python/apps/pinguinoIDE/x.4/p8/pinguino/core/stdio.c	if (*format == 'b')		// binary
0037f8   500e     movf    0xe, 0, 0        	MOVF	r0x0e, W
0037fa   0a62     xorlw   0x62             	XORLW	0x62
0037fc   e001     bz      0x3800           	BZ	_01389_DS_
0037fe   d073     bra     0x38e6           	BRA	_01204_DS_
                                           _01389_DS_:
                                           ;	.line	417; /home/yeison/Documentos/python/apps/pinguinoIDE/x.4/p8/pinguino/core/stdio.c	val = (islong) ? va_arg(args, u32) : va_arg(args, u16);
003800   500c     movf    0xc, 0, 0        	MOVF	r0x0c, W
003802   e023     bz      0x384a           	BZ	_01239_DS_
003804   5006     movf    0x6, 0, 0        	MOVF	r0x06, W
003806   0f04     addlw   0x4              	ADDLW	0x04
003808   6e13     movwf   0x13, 0          	MOVWF	r0x13
00380a   0e00     movlw   0                	MOVLW	0x00
00380c   2007     addwfc  0x7, 0, 0        	ADDWFC	r0x07, W
00380e   6e14     movwf   0x14, 0          	MOVWF	r0x14
003810   0e00     movlw   0                	MOVLW	0x00
003812   2008     addwfc  0x8, 0, 0        	ADDWFC	r0x08, W
003814   6e15     movwf   0x15, 0          	MOVWF	r0x15
003816   c013     movff   0x13, 0x6        	MOVFF	r0x13, r0x06
003818   f006
00381a   c014     movff   0x14, 0x7        	MOVFF	r0x14, r0x07
00381c   f007
00381e   c015     movff   0x15, 0x8        	MOVFF	r0x15, r0x08
003820   f008
003822   0efc     movlw   0xfc             	MOVLW	0xfc
003824   2613     addwf   0x13, 0x1, 0     	ADDWF	r0x13, F
003826   0eff     movlw   0xff             	MOVLW	0xff
003828   2214     addwfc  0x14, 0x1, 0     	ADDWFC	r0x14, F
00382a   2215     addwfc  0x15, 0x1, 0     	ADDWFC	r0x15, F
                                           ; #	MOVF	r0x15, W
                                           ; #	MOVWF	r0x15
                                           ; #	MOVF	r0x15, W
                                           ; #	MOVF	r0x14, W
                                           ; #	MOVF	r0x14, W
                                           ; #	MOVWF	r0x14
                                           ; #	MOVF	r0x14, W
                                           ; #	MOVF	r0x13, W
                                           ; #	MOVF	r0x13, W
                                           ; #	MOVWF	r0x13
00382c   c013     movff   0x13, 0xfe9      	MOVFF	r0x13, FSR0L
00382e   ffe9
003830   c014     movff   0x14, 0xff3      	MOVFF	r0x14, PRODL
003832   fff3
003834   5015     movf    0x15, 0, 0       	MOVF	r0x15, W
003836   ec2f     call    0x5e, 0          	CALL	__gptrget4
003838   f000
00383a   6e13     movwf   0x13, 0          	MOVWF	r0x13
00383c   cff3     movff   0xff3, 0x14      	MOVFF	PRODL, r0x14
00383e   f014
003840   cff4     movff   0xff4, 0x15      	MOVFF	PRODH, r0x15
003842   f015
003844   cfe9     movff   0xfe9, 0x16      	MOVFF	FSR0L, r0x16
003846   f016
003848   d024     bra     0x3892           	BRA	_01240_DS_
                                           _01239_DS_:
00384a   5006     movf    0x6, 0, 0        	MOVF	r0x06, W
00384c   0f02     addlw   0x2              	ADDLW	0x02
00384e   6e17     movwf   0x17, 0          	MOVWF	r0x17
003850   0e00     movlw   0                	MOVLW	0x00
003852   2007     addwfc  0x7, 0, 0        	ADDWFC	r0x07, W
003854   6e18     movwf   0x18, 0          	MOVWF	r0x18
003856   0e00     movlw   0                	MOVLW	0x00
003858   2008     addwfc  0x8, 0, 0        	ADDWFC	r0x08, W
00385a   6e19     movwf   0x19, 0          	MOVWF	r0x19
00385c   c017     movff   0x17, 0x6        	MOVFF	r0x17, r0x06
00385e   f006
003860   c018     movff   0x18, 0x7        	MOVFF	r0x18, r0x07
003862   f007
003864   c019     movff   0x19, 0x8        	MOVFF	r0x19, r0x08
003866   f008
003868   0efe     movlw   0xfe             	MOVLW	0xfe
00386a   2617     addwf   0x17, 0x1, 0     	ADDWF	r0x17, F
00386c   0eff     movlw   0xff             	MOVLW	0xff
00386e   2218     addwfc  0x18, 0x1, 0     	ADDWFC	r0x18, F
003870   2219     addwfc  0x19, 0x1, 0     	ADDWFC	r0x19, F
                                           ; #	MOVF	r0x19, W
                                           ; #	MOVWF	r0x19
                                           ; #	MOVF	r0x19, W
                                           ; #	MOVF	r0x18, W
                                           ; #	MOVF	r0x18, W
                                           ; #	MOVWF	r0x18
                                           ; #	MOVF	r0x18, W
                                           ; #	MOVF	r0x17, W
                                           ; #	MOVF	r0x17, W
                                           ; #	MOVWF	r0x17
003872   c017     movff   0x17, 0xfe9      	MOVFF	r0x17, FSR0L
003874   ffe9
003876   c018     movff   0x18, 0xff3      	MOVFF	r0x18, PRODL
003878   fff3
00387a   5019     movf    0x19, 0, 0       	MOVF	r0x19, W
00387c   ec2b     call    0x56, 0          	CALL	__gptrget2
00387e   f000
003880   6e17     movwf   0x17, 0          	MOVWF	r0x17
003882   cff3     movff   0xff3, 0x18      	MOVFF	PRODL, r0x18
003884   f018
003886   c017     movff   0x17, 0x13       	MOVFF	r0x17, r0x13
003888   f013
00388a   c018     movff   0x18, 0x14       	MOVFF	r0x18, r0x14
00388c   f014
00388e   6a15     clrf    0x15, 0          	CLRF	r0x15
003890   6a16     clrf    0x16, 0          	CLRF	r0x16
                                           _01240_DS_:
003892   c013     movff   0x13, 0xf        	MOVFF	r0x13, r0x0f
003894   f00f
003896   c014     movff   0x14, 0x10       	MOVFF	r0x14, r0x10
003898   f010
00389a   c015     movff   0x15, 0x11       	MOVFF	r0x15, r0x11
00389c   f011
00389e   c016     movff   0x16, 0x12       	MOVFF	r0x16, r0x12
0038a0   f012
                                           ;	.line	418; /home/yeison/Documentos/python/apps/pinguinoIDE/x.4/p8/pinguino/core/stdio.c	pc += pprinti(out, val, islong, 2, 0, width, pad, separator, 'a');
0038a2   0e61     movlw   0x61             	MOVLW	0x61
0038a4   6ee5     movwf   0xe5, 0          	MOVWF	POSTDEC1
0038a6   6ae5     clrf    0xe5, 0          	CLRF	POSTDEC1
0038a8   500b     movf    0xb, 0, 0        	MOVF	r0x0b, W
0038aa   6ee5     movwf   0xe5, 0          	MOVWF	POSTDEC1
0038ac   500d     movf    0xd, 0, 0        	MOVF	r0x0d, W
0038ae   6ee5     movwf   0xe5, 0          	MOVWF	POSTDEC1
0038b0   6ae5     clrf    0xe5, 0          	CLRF	POSTDEC1
0038b2   0e02     movlw   0x2              	MOVLW	0x02
0038b4   6ee5     movwf   0xe5, 0          	MOVWF	POSTDEC1
0038b6   500c     movf    0xc, 0, 0        	MOVF	r0x0c, W
0038b8   6ee5     movwf   0xe5, 0          	MOVWF	POSTDEC1
0038ba   5012     movf    0x12, 0, 0       	MOVF	r0x12, W
0038bc   6ee5     movwf   0xe5, 0          	MOVWF	POSTDEC1
0038be   5011     movf    0x11, 0, 0       	MOVF	r0x11, W
0038c0   6ee5     movwf   0xe5, 0          	MOVWF	POSTDEC1
0038c2   5010     movf    0x10, 0, 0       	MOVF	r0x10, W
0038c4   6ee5     movwf   0xe5, 0          	MOVWF	POSTDEC1
0038c6   500f     movf    0xf, 0, 0        	MOVF	r0x0f, W
0038c8   6ee5     movwf   0xe5, 0          	MOVWF	POSTDEC1
0038ca   5002     movf    0x2, 0, 0        	MOVF	r0x02, W
0038cc   6ee5     movwf   0xe5, 0          	MOVWF	POSTDEC1
0038ce   5001     movf    0x1, 0, 0        	MOVF	r0x01, W
0038d0   6ee5     movwf   0xe5, 0          	MOVWF	POSTDEC1
0038d2   5000     movf    0, 0, 0          	MOVF	r0x00, W
0038d4   6ee5     movwf   0xe5, 0          	MOVWF	POSTDEC1
0038d6   ecfa     call    0x45f4, 0        	CALL	_pprinti
0038d8   f022
0038da   6e13     movwf   0x13, 0          	MOVWF	r0x13
0038dc   0e0e     movlw   0xe              	MOVLW	0x0e
0038de   26e1     addwf   0xe1, 0x1, 0     	ADDWF	FSR1L, F
0038e0   5013     movf    0x13, 0, 0       	MOVF	r0x13, W
0038e2   2609     addwf   0x9, 0x1, 0      	ADDWF	r0x09, F
                                           ;	.line	419; /home/yeison/Documentos/python/apps/pinguinoIDE/x.4/p8/pinguino/core/stdio.c	continue;
0038e4   d0c7     bra     0x3a74           	BRA	_01213_DS_
                                           _01204_DS_:
                                           ;	.line	422; /home/yeison/Documentos/python/apps/pinguinoIDE/x.4/p8/pinguino/core/stdio.c	if (*format == 'o')		// octal
0038e6   500e     movf    0xe, 0, 0        	MOVF	r0x0e, W
0038e8   0a6f     xorlw   0x6f             	XORLW	0x6f
0038ea   e001     bz      0x38ee           	BZ	_01391_DS_
0038ec   d073     bra     0x39d4           	BRA	_01206_DS_
                                           _01391_DS_:
                                           ;	.line	424; /home/yeison/Documentos/python/apps/pinguinoIDE/x.4/p8/pinguino/core/stdio.c	val = (islong) ? va_arg(args, u32) : va_arg(args, u16);
0038ee   500c     movf    0xc, 0, 0        	MOVF	r0x0c, W
0038f0   e023     bz      0x3938           	BZ	_01241_DS_
0038f2   5006     movf    0x6, 0, 0        	MOVF	r0x06, W
0038f4   0f04     addlw   0x4              	ADDLW	0x04
0038f6   6e13     movwf   0x13, 0          	MOVWF	r0x13
0038f8   0e00     movlw   0                	MOVLW	0x00
0038fa   2007     addwfc  0x7, 0, 0        	ADDWFC	r0x07, W
0038fc   6e14     movwf   0x14, 0          	MOVWF	r0x14
0038fe   0e00     movlw   0                	MOVLW	0x00
003900   2008     addwfc  0x8, 0, 0        	ADDWFC	r0x08, W
003902   6e15     movwf   0x15, 0          	MOVWF	r0x15
003904   c013     movff   0x13, 0x6        	MOVFF	r0x13, r0x06
003906   f006
003908   c014     movff   0x14, 0x7        	MOVFF	r0x14, r0x07
00390a   f007
00390c   c015     movff   0x15, 0x8        	MOVFF	r0x15, r0x08
00390e   f008
003910   0efc     movlw   0xfc             	MOVLW	0xfc
003912   2613     addwf   0x13, 0x1, 0     	ADDWF	r0x13, F
003914   0eff     movlw   0xff             	MOVLW	0xff
003916   2214     addwfc  0x14, 0x1, 0     	ADDWFC	r0x14, F
003918   2215     addwfc  0x15, 0x1, 0     	ADDWFC	r0x15, F
                                           ; #	MOVF	r0x15, W
                                           ; #	MOVWF	r0x15
                                           ; #	MOVF	r0x15, W
                                           ; #	MOVF	r0x14, W
                                           ; #	MOVF	r0x14, W
                                           ; #	MOVWF	r0x14
                                           ; #	MOVF	r0x14, W
                                           ; #	MOVF	r0x13, W
                                           ; #	MOVF	r0x13, W
                                           ; #	MOVWF	r0x13
00391a   c013     movff   0x13, 0xfe9      	MOVFF	r0x13, FSR0L
00391c   ffe9
00391e   c014     movff   0x14, 0xff3      	MOVFF	r0x14, PRODL
003920   fff3
003922   5015     movf    0x15, 0, 0       	MOVF	r0x15, W
003924   ec2f     call    0x5e, 0          	CALL	__gptrget4
003926   f000
003928   6e13     movwf   0x13, 0          	MOVWF	r0x13
00392a   cff3     movff   0xff3, 0x14      	MOVFF	PRODL, r0x14
00392c   f014
00392e   cff4     movff   0xff4, 0x15      	MOVFF	PRODH, r0x15
003930   f015
003932   cfe9     movff   0xfe9, 0x16      	MOVFF	FSR0L, r0x16
003934   f016
003936   d024     bra     0x3980           	BRA	_01242_DS_
                                           _01241_DS_:
003938   5006     movf    0x6, 0, 0        	MOVF	r0x06, W
00393a   0f02     addlw   0x2              	ADDLW	0x02
00393c   6e17     movwf   0x17, 0          	MOVWF	r0x17
00393e   0e00     movlw   0                	MOVLW	0x00
003940   2007     addwfc  0x7, 0, 0        	ADDWFC	r0x07, W
003942   6e18     movwf   0x18, 0          	MOVWF	r0x18
003944   0e00     movlw   0                	MOVLW	0x00
003946   2008     addwfc  0x8, 0, 0        	ADDWFC	r0x08, W
003948   6e19     movwf   0x19, 0          	MOVWF	r0x19
00394a   c017     movff   0x17, 0x6        	MOVFF	r0x17, r0x06
00394c   f006
00394e   c018     movff   0x18, 0x7        	MOVFF	r0x18, r0x07
003950   f007
003952   c019     movff   0x19, 0x8        	MOVFF	r0x19, r0x08
003954   f008
003956   0efe     movlw   0xfe             	MOVLW	0xfe
003958   2617     addwf   0x17, 0x1, 0     	ADDWF	r0x17, F
00395a   0eff     movlw   0xff             	MOVLW	0xff
00395c   2218     addwfc  0x18, 0x1, 0     	ADDWFC	r0x18, F
00395e   2219     addwfc  0x19, 0x1, 0     	ADDWFC	r0x19, F
                                           ; #	MOVF	r0x19, W
                                           ; #	MOVWF	r0x19
                                           ; #	MOVF	r0x19, W
                                           ; #	MOVF	r0x18, W
                                           ; #	MOVF	r0x18, W
                                           ; #	MOVWF	r0x18
                                           ; #	MOVF	r0x18, W
                                           ; #	MOVF	r0x17, W
                                           ; #	MOVF	r0x17, W
                                           ; #	MOVWF	r0x17
003960   c017     movff   0x17, 0xfe9      	MOVFF	r0x17, FSR0L
003962   ffe9
003964   c018     movff   0x18, 0xff3      	MOVFF	r0x18, PRODL
003966   fff3
003968   5019     movf    0x19, 0, 0       	MOVF	r0x19, W
00396a   ec2b     call    0x56, 0          	CALL	__gptrget2
00396c   f000
00396e   6e17     movwf   0x17, 0          	MOVWF	r0x17
003970   cff3     movff   0xff3, 0x18      	MOVFF	PRODL, r0x18
003972   f018
003974   c017     movff   0x17, 0x13       	MOVFF	r0x17, r0x13
003976   f013
003978   c018     movff   0x18, 0x14       	MOVFF	r0x18, r0x14
00397a   f014
00397c   6a15     clrf    0x15, 0          	CLRF	r0x15
00397e   6a16     clrf    0x16, 0          	CLRF	r0x16
                                           _01242_DS_:
003980   c013     movff   0x13, 0xf        	MOVFF	r0x13, r0x0f
003982   f00f
003984   c014     movff   0x14, 0x10       	MOVFF	r0x14, r0x10
003986   f010
003988   c015     movff   0x15, 0x11       	MOVFF	r0x15, r0x11
00398a   f011
00398c   c016     movff   0x16, 0x12       	MOVFF	r0x16, r0x12
00398e   f012
                                           ;	.line	425; /home/yeison/Documentos/python/apps/pinguinoIDE/x.4/p8/pinguino/core/stdio.c	pc += pprinti(out, val, islong, 8, 0, width, pad, separator, 'a');
003990   0e61     movlw   0x61             	MOVLW	0x61
003992   6ee5     movwf   0xe5, 0          	MOVWF	POSTDEC1
003994   6ae5     clrf    0xe5, 0          	CLRF	POSTDEC1
003996   500b     movf    0xb, 0, 0        	MOVF	r0x0b, W
003998   6ee5     movwf   0xe5, 0          	MOVWF	POSTDEC1
00399a   500d     movf    0xd, 0, 0        	MOVF	r0x0d, W
00399c   6ee5     movwf   0xe5, 0          	MOVWF	POSTDEC1
00399e   6ae5     clrf    0xe5, 0          	CLRF	POSTDEC1
0039a0   0e08     movlw   0x8              	MOVLW	0x08
0039a2   6ee5     movwf   0xe5, 0          	MOVWF	POSTDEC1
0039a4   500c     movf    0xc, 0, 0        	MOVF	r0x0c, W
0039a6   6ee5     movwf   0xe5, 0          	MOVWF	POSTDEC1
0039a8   5012     movf    0x12, 0, 0       	MOVF	r0x12, W
0039aa   6ee5     movwf   0xe5, 0          	MOVWF	POSTDEC1
0039ac   5011     movf    0x11, 0, 0       	MOVF	r0x11, W
0039ae   6ee5     movwf   0xe5, 0          	MOVWF	POSTDEC1
0039b0   5010     movf    0x10, 0, 0       	MOVF	r0x10, W
0039b2   6ee5     movwf   0xe5, 0          	MOVWF	POSTDEC1
0039b4   500f     movf    0xf, 0, 0        	MOVF	r0x0f, W
0039b6   6ee5     movwf   0xe5, 0          	MOVWF	POSTDEC1
0039b8   5002     movf    0x2, 0, 0        	MOVF	r0x02, W
0039ba   6ee5     movwf   0xe5, 0          	MOVWF	POSTDEC1
0039bc   5001     movf    0x1, 0, 0        	MOVF	r0x01, W
0039be   6ee5     movwf   0xe5, 0          	MOVWF	POSTDEC1
0039c0   5000     movf    0, 0, 0          	MOVF	r0x00, W
0039c2   6ee5     movwf   0xe5, 0          	MOVWF	POSTDEC1
0039c4   ecfa     call    0x45f4, 0        	CALL	_pprinti
0039c6   f022
0039c8   6e0c     movwf   0xc, 0           	MOVWF	r0x0c
0039ca   0e0e     movlw   0xe              	MOVLW	0x0e
0039cc   26e1     addwf   0xe1, 0x1, 0     	ADDWF	FSR1L, F
0039ce   500c     movf    0xc, 0, 0        	MOVF	r0x0c, W
0039d0   2609     addwf   0x9, 0x1, 0      	ADDWF	r0x09, F
                                           ;	.line	426; /home/yeison/Documentos/python/apps/pinguinoIDE/x.4/p8/pinguino/core/stdio.c	continue;
0039d2   d050     bra     0x3a74           	BRA	_01213_DS_
                                           _01206_DS_:
                                           ;	.line	429; /home/yeison/Documentos/python/apps/pinguinoIDE/x.4/p8/pinguino/core/stdio.c	if (*format == 'c') 	// ascii
0039d4   500e     movf    0xe, 0, 0        	MOVF	r0x0e, W
0039d6   0a63     xorlw   0x63             	XORLW	0x63
0039d8   e001     bz      0x39dc           	BZ	_01393_DS_
0039da   d04c     bra     0x3a74           	BRA	_01213_DS_
                                           _01393_DS_:
                                           ;	.line	431; /home/yeison/Documentos/python/apps/pinguinoIDE/x.4/p8/pinguino/core/stdio.c	scr[0] = va_arg(args, u16);
0039dc   5006     movf    0x6, 0, 0        	MOVF	r0x06, W
0039de   0f02     addlw   0x2              	ADDLW	0x02
0039e0   6e0c     movwf   0xc, 0           	MOVWF	r0x0c
0039e2   0e00     movlw   0                	MOVLW	0x00
0039e4   2007     addwfc  0x7, 0, 0        	ADDWFC	r0x07, W
0039e6   6e0e     movwf   0xe, 0           	MOVWF	r0x0e
0039e8   0e00     movlw   0                	MOVLW	0x00
0039ea   2008     addwfc  0x8, 0, 0        	ADDWFC	r0x08, W
0039ec   6e0f     movwf   0xf, 0           	MOVWF	r0x0f
0039ee   c00c     movff   0xc, 0x6         	MOVFF	r0x0c, r0x06
0039f0   f006
0039f2   c00e     movff   0xe, 0x7         	MOVFF	r0x0e, r0x07
0039f4   f007
0039f6   c00f     movff   0xf, 0x8         	MOVFF	r0x0f, r0x08
0039f8   f008
0039fa   0efe     movlw   0xfe             	MOVLW	0xfe
0039fc   260c     addwf   0xc, 0x1, 0      	ADDWF	r0x0c, F
0039fe   0eff     movlw   0xff             	MOVLW	0xff
003a00   220e     addwfc  0xe, 0x1, 0      	ADDWFC	r0x0e, F
003a02   220f     addwfc  0xf, 0x1, 0      	ADDWFC	r0x0f, F
                                           ; #	MOVF	r0x0f, W
                                           ; #	MOVWF	r0x0f
                                           ; #	MOVF	r0x0f, W
                                           ; #	MOVF	r0x0e, W
                                           ; #	MOVF	r0x0e, W
                                           ; #	MOVWF	r0x0e
                                           ; #	MOVF	r0x0e, W
                                           ; #	MOVF	r0x0c, W
                                           ; #	MOVF	r0x0c, W
                                           ; #	MOVWF	r0x0c
003a04   c00c     movff   0xc, 0xfe9       	MOVFF	r0x0c, FSR0L
003a06   ffe9
003a08   c00e     movff   0xe, 0xff3       	MOVFF	r0x0e, PRODL
003a0a   fff3
003a0c   500f     movf    0xf, 0, 0        	MOVF	r0x0f, W
003a0e   ec2b     call    0x56, 0          	CALL	__gptrget2
003a10   f000
003a12   0103     movlb   0x3              	BANKSEL	_pprint_scr_1_178
003a14   6f6b     movwf   0x6b, 0x1        	MOVWF	_pprint_scr_1_178, B
                                           ; removed redundant BANKSEL
                                           ;	.line	432; /home/yeison/Documentos/python/apps/pinguinoIDE/x.4/p8/pinguino/core/stdio.c	scr[1] = '\0';
003a16   6b6c     clrf    0x6c, 0x1        	CLRF	(_pprint_scr_1_178 + 1), B
                                           ;	.line	433; /home/yeison/Documentos/python/apps/pinguinoIDE/x.4/p8/pinguino/core/stdio.c	pc += pprints(out, scr, width, pad);
003a18   500b     movf    0xb, 0, 0        	MOVF	r0x0b, W
003a1a   6ee5     movwf   0xe5, 0          	MOVWF	POSTDEC1
003a1c   500d     movf    0xd, 0, 0        	MOVF	r0x0d, W
003a1e   6ee5     movwf   0xe5, 0          	MOVWF	POSTDEC1
003a20   0e80     movlw   0x80             	MOVLW	0x80
003a22   6ee5     movwf   0xe5, 0          	MOVWF	POSTDEC1
003a24   0e03     movlw   0x3              	MOVLW	HIGH(_pprint_scr_1_178)
003a26   6ee5     movwf   0xe5, 0          	MOVWF	POSTDEC1
003a28   0e6b     movlw   0x6b             	MOVLW	LOW(_pprint_scr_1_178)
003a2a   6ee5     movwf   0xe5, 0          	MOVWF	POSTDEC1
003a2c   5002     movf    0x2, 0, 0        	MOVF	r0x02, W
003a2e   6ee5     movwf   0xe5, 0          	MOVWF	POSTDEC1
003a30   5001     movf    0x1, 0, 0        	MOVF	r0x01, W
003a32   6ee5     movwf   0xe5, 0          	MOVWF	POSTDEC1
003a34   5000     movf    0, 0, 0          	MOVF	r0x00, W
003a36   6ee5     movwf   0xe5, 0          	MOVWF	POSTDEC1
003a38   ec34     call    0x5268, 0        	CALL	_pprints
003a3a   f029
003a3c   6e0b     movwf   0xb, 0           	MOVWF	r0x0b
003a3e   0e08     movlw   0x8              	MOVLW	0x08
003a40   26e1     addwf   0xe1, 0x1, 0     	ADDWF	FSR1L, F
003a42   5009     movf    0x9, 0, 0        	MOVF	r0x09, W
003a44   6e0c     movwf   0xc, 0           	MOVWF	r0x0c
003a46   500b     movf    0xb, 0, 0        	MOVF	r0x0b, W
003a48   240c     addwf   0xc, 0, 0        	ADDWF	r0x0c, W
003a4a   6e09     movwf   0x9, 0           	MOVWF	r0x09
                                           ;	.line	434; /home/yeison/Documentos/python/apps/pinguinoIDE/x.4/p8/pinguino/core/stdio.c	continue;
003a4c   d013     bra     0x3a74           	BRA	_01213_DS_
                                           _01209_DS_:
                                           ;	.line	441; /home/yeison/Documentos/python/apps/pinguinoIDE/x.4/p8/pinguino/core/stdio.c	pprintc(out, *format);
003a4e   c003     movff   0x3, 0xfe9       	MOVFF	r0x03, FSR0L
003a50   ffe9
003a52   c004     movff   0x4, 0xff3       	MOVFF	r0x04, PRODL
003a54   fff3
003a56   5005     movf    0x5, 0, 0        	MOVF	r0x05, W
003a58   ec29     call    0x52, 0          	CALL	__gptrget1
003a5a   f000
                                           ; #	MOVWF	r0x0b
                                           ; #	MOVF	r0x0b, W
003a5c   6ee5     movwf   0xe5, 0          	MOVWF	POSTDEC1
003a5e   5002     movf    0x2, 0, 0        	MOVF	r0x02, W
003a60   6ee5     movwf   0xe5, 0          	MOVWF	POSTDEC1
003a62   5001     movf    0x1, 0, 0        	MOVF	r0x01, W
003a64   6ee5     movwf   0xe5, 0          	MOVWF	POSTDEC1
003a66   5000     movf    0, 0, 0          	MOVF	r0x00, W
003a68   6ee5     movwf   0xe5, 0          	MOVWF	POSTDEC1
003a6a   ec2a     call    0x6254, 0        	CALL	_pprintc
003a6c   f031
003a6e   0e04     movlw   0x4              	MOVLW	0x04
003a70   26e1     addwf   0xe1, 0x1, 0     	ADDWF	FSR1L, F
                                           ;	.line	442; /home/yeison/Documentos/python/apps/pinguinoIDE/x.4/p8/pinguino/core/stdio.c	++pc;
003a72   2a09     incf    0x9, 0x1, 0      	INCF	r0x09, F
                                           _01213_DS_:
                                           ;	.line	315; /home/yeison/Documentos/python/apps/pinguinoIDE/x.4/p8/pinguino/core/stdio.c	for (; *format != 0; ++format)
003a74   2a03     incf    0x3, 0x1, 0      	INCF	r0x03, F
003a76   e302     bnc     0x3a7c           	BNC	_01394_DS_
003a78   4a04     infsnz  0x4, 0x1, 0      	INFSNZ	r0x04, F
003a7a   2a05     incf    0x5, 0x1, 0      	INCF	r0x05, F
                                           _01394_DS_:
003a7c   efd0     goto    0x31a0           	GOTO	_01226_DS_
003a7e   f018
                                           _01214_DS_:
                                           ;	.line	445; /home/yeison/Documentos/python/apps/pinguinoIDE/x.4/p8/pinguino/core/stdio.c	if (out) **out = '\0';
003a80   5000     movf    0, 0, 0          	MOVF	r0x00, W
003a82   1001     iorwf   0x1, 0, 0        	IORWF	r0x01, W
003a84   1002     iorwf   0x2, 0, 0        	IORWF	r0x02, W
003a86   e014     bz      0x3ab0           	BZ	_01216_DS_
003a88   c000     movff   0, 0xfe9         	MOVFF	r0x00, FSR0L
003a8a   ffe9
003a8c   c001     movff   0x1, 0xff3       	MOVFF	r0x01, PRODL
003a8e   fff3
003a90   5002     movf    0x2, 0, 0        	MOVF	r0x02, W
003a92   ec2d     call    0x5a, 0          	CALL	__gptrget3
003a94   f000
003a96   6e00     movwf   0, 0             	MOVWF	r0x00
003a98   cff3     movff   0xff3, 0x1       	MOVFF	PRODL, r0x01
003a9a   f001
003a9c   cff4     movff   0xff4, 0x2       	MOVFF	PRODH, r0x02
003a9e   f002
003aa0   6ae5     clrf    0xe5, 0          	CLRF	POSTDEC1
003aa2   c000     movff   0, 0xfe9         	MOVFF	r0x00, FSR0L
003aa4   ffe9
003aa6   c001     movff   0x1, 0xff3       	MOVFF	r0x01, PRODL
003aa8   fff3
003aaa   5002     movf    0x2, 0, 0        	MOVF	r0x02, W
003aac   ec31     call    0x62, 0          	CALL	__gptrput1
003aae   f000
                                           _01216_DS_:
                                           ;	.line	446; /home/yeison/Documentos/python/apps/pinguinoIDE/x.4/p8/pinguino/core/stdio.c	return pc;
003ab0   5009     movf    0x9, 0, 0        	MOVF	r0x09, W
003ab2   cfe4     movff   0xfe4, 0x19      	MOVFF	PREINC1, r0x19
003ab4   f019
003ab6   cfe4     movff   0xfe4, 0x18      	MOVFF	PREINC1, r0x18
003ab8   f018
003aba   cfe4     movff   0xfe4, 0x17      	MOVFF	PREINC1, r0x17
003abc   f017
003abe   cfe4     movff   0xfe4, 0x16      	MOVFF	PREINC1, r0x16
003ac0   f016
003ac2   cfe4     movff   0xfe4, 0x15      	MOVFF	PREINC1, r0x15
003ac4   f015
003ac6   cfe4     movff   0xfe4, 0x14      	MOVFF	PREINC1, r0x14
003ac8   f014
003aca   cfe4     movff   0xfe4, 0x13      	MOVFF	PREINC1, r0x13
003acc   f013
003ace   cfe4     movff   0xfe4, 0x12      	MOVFF	PREINC1, r0x12
003ad0   f012
003ad2   cfe4     movff   0xfe4, 0x11      	MOVFF	PREINC1, r0x11
003ad4   f011
003ad6   cfe4     movff   0xfe4, 0x10      	MOVFF	PREINC1, r0x10
003ad8   f010
003ada   cfe4     movff   0xfe4, 0xf       	MOVFF	PREINC1, r0x0f
003adc   f00f
003ade   cfe4     movff   0xfe4, 0xe       	MOVFF	PREINC1, r0x0e
003ae0   f00e
003ae2   cfe4     movff   0xfe4, 0xd       	MOVFF	PREINC1, r0x0d
003ae4   f00d
003ae6   cfe4     movff   0xfe4, 0xc       	MOVFF	PREINC1, r0x0c
003ae8   f00c
003aea   cfe4     movff   0xfe4, 0xb       	MOVFF	PREINC1, r0x0b
003aec   f00b
003aee   cfe4     movff   0xfe4, 0xa       	MOVFF	PREINC1, r0x0a
003af0   f00a
003af2   cfe4     movff   0xfe4, 0x9       	MOVFF	PREINC1, r0x09
003af4   f009
003af6   cfe4     movff   0xfe4, 0x8       	MOVFF	PREINC1, r0x08
003af8   f008
003afa   cfe4     movff   0xfe4, 0x7       	MOVFF	PREINC1, r0x07
003afc   f007
003afe   cfe4     movff   0xfe4, 0x6       	MOVFF	PREINC1, r0x06
003b00   f006
003b02   cfe4     movff   0xfe4, 0x5       	MOVFF	PREINC1, r0x05
003b04   f005
003b06   cfe4     movff   0xfe4, 0x4       	MOVFF	PREINC1, r0x04
003b08   f004
003b0a   cfe4     movff   0xfe4, 0x3       	MOVFF	PREINC1, r0x03
003b0c   f003
003b0e   cfe4     movff   0xfe4, 0x2       	MOVFF	PREINC1, r0x02
003b10   f002
003b12   cfe4     movff   0xfe4, 0x1       	MOVFF	PREINC1, r0x01
003b14   f001
003b16   cfe4     movff   0xfe4, 0         	MOVFF	PREINC1, r0x00
003b18   f000
003b1a   cfe4     movff   0xfe4, 0xfd9     	MOVFF	PREINC1, FSR2L
003b1c   ffd9
003b1e   0012     return  0                	RETURN	
                                           
                                           ; ; Starting pCode block
                                           S_main__pprintfl	code
                                           _pprintfl:
                                           ;	.line	175; /home/yeison/Documentos/python/apps/pinguinoIDE/x.4/p8/pinguino/core/stdio.c	static u8 pprintfl(u8 **out, float value, u8 width, u8 pad, u8 separator, u8 precision)
00404a   cfd9     movff   0xfd9, 0xfe5     	MOVFF	FSR2L, POSTDEC1
00404c   ffe5
00404e   cfe1     movff   0xfe1, 0xfd9     	MOVFF	FSR1L, FSR2L
004050   ffd9
004052   c000     movff   0, 0xfe5         	MOVFF	r0x00, POSTDEC1
004054   ffe5
004056   c001     movff   0x1, 0xfe5       	MOVFF	r0x01, POSTDEC1
004058   ffe5
00405a   c002     movff   0x2, 0xfe5       	MOVFF	r0x02, POSTDEC1
00405c   ffe5
00405e   c003     movff   0x3, 0xfe5       	MOVFF	r0x03, POSTDEC1
004060   ffe5
004062   c004     movff   0x4, 0xfe5       	MOVFF	r0x04, POSTDEC1
004064   ffe5
004066   c005     movff   0x5, 0xfe5       	MOVFF	r0x05, POSTDEC1
004068   ffe5
00406a   c006     movff   0x6, 0xfe5       	MOVFF	r0x06, POSTDEC1
00406c   ffe5
00406e   c007     movff   0x7, 0xfe5       	MOVFF	r0x07, POSTDEC1
004070   ffe5
004072   c008     movff   0x8, 0xfe5       	MOVFF	r0x08, POSTDEC1
004074   ffe5
004076   c009     movff   0x9, 0xfe5       	MOVFF	r0x09, POSTDEC1
004078   ffe5
00407a   c00a     movff   0xa, 0xfe5       	MOVFF	r0x0a, POSTDEC1
00407c   ffe5
00407e   c00b     movff   0xb, 0xfe5       	MOVFF	r0x0b, POSTDEC1
004080   ffe5
004082   c00c     movff   0xc, 0xfe5       	MOVFF	r0x0c, POSTDEC1
004084   ffe5
004086   c00d     movff   0xd, 0xfe5       	MOVFF	r0x0d, POSTDEC1
004088   ffe5
00408a   c00e     movff   0xe, 0xfe5       	MOVFF	r0x0e, POSTDEC1
00408c   ffe5
00408e   c00f     movff   0xf, 0xfe5       	MOVFF	r0x0f, POSTDEC1
004090   ffe5
004092   c010     movff   0x10, 0xfe5      	MOVFF	r0x10, POSTDEC1
004094   ffe5
004096   c011     movff   0x11, 0xfe5      	MOVFF	r0x11, POSTDEC1
004098   ffe5
00409a   c012     movff   0x12, 0xfe5      	MOVFF	r0x12, POSTDEC1
00409c   ffe5
00409e   c013     movff   0x13, 0xfe5      	MOVFF	r0x13, POSTDEC1
0040a0   ffe5
0040a2   c014     movff   0x14, 0xfe5      	MOVFF	r0x14, POSTDEC1
0040a4   ffe5
0040a6   c015     movff   0x15, 0xfe5      	MOVFF	r0x15, POSTDEC1
0040a8   ffe5
0040aa   c016     movff   0x16, 0xfe5      	MOVFF	r0x16, POSTDEC1
0040ac   ffe5
0040ae   c017     movff   0x17, 0xfe5      	MOVFF	r0x17, POSTDEC1
0040b0   ffe5
0040b2   c018     movff   0x18, 0xfe5      	MOVFF	r0x18, POSTDEC1
0040b4   ffe5
0040b6   c019     movff   0x19, 0xfe5      	MOVFF	r0x19, POSTDEC1
0040b8   ffe5
0040ba   c01a     movff   0x1a, 0xfe5      	MOVFF	r0x1a, POSTDEC1
0040bc   ffe5
0040be   c01b     movff   0x1b, 0xfe5      	MOVFF	r0x1b, POSTDEC1
0040c0   ffe5
0040c2   c01c     movff   0x1c, 0xfe5      	MOVFF	r0x1c, POSTDEC1
0040c4   ffe5
0040c6   c01d     movff   0x1d, 0xfe5      	MOVFF	r0x1d, POSTDEC1
0040c8   ffe5
0040ca   c01e     movff   0x1e, 0xfe5      	MOVFF	r0x1e, POSTDEC1
0040cc   ffe5
0040ce   c01f     movff   0x1f, 0xfe5      	MOVFF	r0x1f, POSTDEC1
0040d0   ffe5
0040d2   c020     movff   0x20, 0xfe5      	MOVFF	r0x20, POSTDEC1
0040d4   ffe5
0040d6   0e02     movlw   0x2              	MOVLW	0x02
0040d8   cfdb     movff   0xfdb, 0         	MOVFF	PLUSW2, r0x00
0040da   f000
0040dc   0e03     movlw   0x3              	MOVLW	0x03
0040de   cfdb     movff   0xfdb, 0x1       	MOVFF	PLUSW2, r0x01
0040e0   f001
0040e2   0e04     movlw   0x4              	MOVLW	0x04
0040e4   cfdb     movff   0xfdb, 0x2       	MOVFF	PLUSW2, r0x02
0040e6   f002
0040e8   0e05     movlw   0x5              	MOVLW	0x05
0040ea   cfdb     movff   0xfdb, 0x3       	MOVFF	PLUSW2, r0x03
0040ec   f003
0040ee   0e06     movlw   0x6              	MOVLW	0x06
0040f0   cfdb     movff   0xfdb, 0x4       	MOVFF	PLUSW2, r0x04
0040f2   f004
0040f4   0e07     movlw   0x7              	MOVLW	0x07
0040f6   cfdb     movff   0xfdb, 0x5       	MOVFF	PLUSW2, r0x05
0040f8   f005
0040fa   0e08     movlw   0x8              	MOVLW	0x08
0040fc   cfdb     movff   0xfdb, 0x6       	MOVFF	PLUSW2, r0x06
0040fe   f006
004100   0e09     movlw   0x9              	MOVLW	0x09
004102   cfdb     movff   0xfdb, 0x7       	MOVFF	PLUSW2, r0x07
004104   f007
004106   0e0a     movlw   0xa              	MOVLW	0x0a
004108   cfdb     movff   0xfdb, 0x8       	MOVFF	PLUSW2, r0x08
00410a   f008
00410c   0e0c     movlw   0xc              	MOVLW	0x0c
00410e   cfdb     movff   0xfdb, 0x9       	MOVFF	PLUSW2, r0x09
004110   f009
                                           ;	.line	184; /home/yeison/Documentos/python/apps/pinguinoIDE/x.4/p8/pinguino/core/stdio.c	u32 int_part  = 0;
004112   6a0a     clrf    0xa, 0           	CLRF	r0x0a
004114   6a0b     clrf    0xb, 0           	CLRF	r0x0b
004116   6a0c     clrf    0xc, 0           	CLRF	r0x0c
004118   6a0d     clrf    0xd, 0           	CLRF	r0x0d
                                           ;	.line	185; /home/yeison/Documentos/python/apps/pinguinoIDE/x.4/p8/pinguino/core/stdio.c	u32 frac_part = 0;
00411a   6a0e     clrf    0xe, 0           	CLRF	r0x0e
00411c   6a0f     clrf    0xf, 0           	CLRF	r0x0f
00411e   6a10     clrf    0x10, 0          	CLRF	r0x10
004120   6a11     clrf    0x11, 0          	CLRF	r0x11
                                           ;	.line	187; /home/yeison/Documentos/python/apps/pinguinoIDE/x.4/p8/pinguino/core/stdio.c	u8 buffer[PRINT_BUF_LEN], *string = buffer;
004122   0e03     movlw   0x3              	MOVLW	HIGH(_pprintfl_buffer_1_164)
004124   6e13     movwf   0x13, 0          	MOVWF	r0x13
004126   0e0c     movlw   0xc              	MOVLW	LOW(_pprintfl_buffer_1_164)
004128   6e12     movwf   0x12, 0          	MOVWF	r0x12
00412a   0e80     movlw   0x80             	MOVLW	0x80
00412c   6e14     movwf   0x14, 0          	MOVWF	r0x14
                                           ;	.line	188; /home/yeison/Documentos/python/apps/pinguinoIDE/x.4/p8/pinguino/core/stdio.c	u8 tmp[PRINT_BUF_LEN], *s = tmp;
00412e   0e03     movlw   0x3              	MOVLW	HIGH(_pprintfl_tmp_1_164)
004130   6e16     movwf   0x16, 0          	MOVWF	r0x16
004132   0e18     movlw   0x18             	MOVLW	LOW(_pprintfl_tmp_1_164)
004134   6e15     movwf   0x15, 0          	MOVWF	r0x15
004136   0e80     movlw   0x80             	MOVLW	0x80
004138   6e17     movwf   0x17, 0          	MOVWF	r0x17
                                           ;	.line	189; /home/yeison/Documentos/python/apps/pinguinoIDE/x.4/p8/pinguino/core/stdio.c	u8 count = 0, m, t;
00413a   6a18     clrf    0x18, 0          	CLRF	r0x18
                                           ;	.line	190; /home/yeison/Documentos/python/apps/pinguinoIDE/x.4/p8/pinguino/core/stdio.c	u8 length = PRINT_BUF_LEN - 1;
00413c   0e0b     movlw   0xb              	MOVLW	0x0b
00413e   6e19     movwf   0x19, 0          	MOVWF	r0x19
                                           ;	.line	192; /home/yeison/Documentos/python/apps/pinguinoIDE/x.4/p8/pinguino/core/stdio.c	helper.f = value;
004140   5003     movf    0x3, 0, 0        	MOVF	r0x03, W
004142   0103     movlb   0x3              	BANKSEL	_pprintfl_helper_1_164
004144   6f56     movwf   0x56, 0x1        	MOVWF	_pprintfl_helper_1_164, B
004146   5004     movf    0x4, 0, 0        	MOVF	r0x04, W
                                           ; removed redundant BANKSEL
004148   6f57     movwf   0x57, 0x1        	MOVWF	(_pprintfl_helper_1_164 + 1), B
00414a   5005     movf    0x5, 0, 0        	MOVF	r0x05, W
                                           ; removed redundant BANKSEL
00414c   6f58     movwf   0x58, 0x1        	MOVWF	(_pprintfl_helper_1_164 + 2), B
00414e   5006     movf    0x6, 0, 0        	MOVF	r0x06, W
                                           ; removed redundant BANKSEL
004150   6f59     movwf   0x59, 0x1        	MOVWF	(_pprintfl_helper_1_164 + 3), B
                                           ;	.line	195; /home/yeison/Documentos/python/apps/pinguinoIDE/x.4/p8/pinguino/core/stdio.c	if (helper.l < 0)
004152   80d8     bsf     0xd8, 0, 0       	BSF	STATUS, 0
                                           ; removed redundant BANKSEL
004154   af59     btfss   0x59, 0x7, 0x1   	BTFSS	(_pprintfl_helper_1_164 + 3), 7, B
004156   90d8     bcf     0xd8, 0, 0       	BCF	STATUS, 0
004158   e323     bnc     0x41a0           	BNC	_01050_DS_
                                           ;	.line	197; /home/yeison/Documentos/python/apps/pinguinoIDE/x.4/p8/pinguino/core/stdio.c	if (width && (pad & PAD_ZERO))
00415a   5007     movf    0x7, 0, 0        	MOVF	r0x07, W
00415c   e012     bz      0x4182           	BZ	_01046_DS_
00415e   a208     btfss   0x8, 0x1, 0      	BTFSS	r0x08, 1
004160   d010     bra     0x4182           	BRA	_01046_DS_
                                           ;	.line	199; /home/yeison/Documentos/python/apps/pinguinoIDE/x.4/p8/pinguino/core/stdio.c	pprintc(out, '-');
004162   0e2d     movlw   0x2d             	MOVLW	0x2d
004164   6ee5     movwf   0xe5, 0          	MOVWF	POSTDEC1
004166   5002     movf    0x2, 0, 0        	MOVF	r0x02, W
004168   6ee5     movwf   0xe5, 0          	MOVWF	POSTDEC1
00416a   5001     movf    0x1, 0, 0        	MOVF	r0x01, W
00416c   6ee5     movwf   0xe5, 0          	MOVWF	POSTDEC1
00416e   5000     movf    0, 0, 0          	MOVF	r0x00, W
004170   6ee5     movwf   0xe5, 0          	MOVWF	POSTDEC1
004172   ec2a     call    0x6254, 0        	CALL	_pprintc
004174   f031
004176   0e04     movlw   0x4              	MOVLW	0x04
004178   26e1     addwf   0xe1, 0x1, 0     	ADDWF	FSR1L, F
                                           ;	.line	200; /home/yeison/Documentos/python/apps/pinguinoIDE/x.4/p8/pinguino/core/stdio.c	++count;
00417a   0e01     movlw   0x1              	MOVLW	0x01
00417c   6e18     movwf   0x18, 0          	MOVWF	r0x18
                                           ;	.line	201; /home/yeison/Documentos/python/apps/pinguinoIDE/x.4/p8/pinguino/core/stdio.c	--width;
00417e   0607     decf    0x7, 0x1, 0      	DECF	r0x07, F
004180   d00f     bra     0x41a0           	BRA	_01050_DS_
                                           _01046_DS_:
                                           ;	.line	205; /home/yeison/Documentos/python/apps/pinguinoIDE/x.4/p8/pinguino/core/stdio.c	*string++ = '-';
004182   0e2d     movlw   0x2d             	MOVLW	0x2d
004184   6ee5     movwf   0xe5, 0          	MOVWF	POSTDEC1
004186   c012     movff   0x12, 0xfe9      	MOVFF	r0x12, FSR0L
004188   ffe9
00418a   c013     movff   0x13, 0xff3      	MOVFF	r0x13, PRODL
00418c   fff3
00418e   5014     movf    0x14, 0, 0       	MOVF	r0x14, W
004190   ec31     call    0x62, 0          	CALL	__gptrput1
004192   f000
004194   2a12     incf    0x12, 0x1, 0     	INCF	r0x12, F
004196   e302     bnc     0x419c           	BNC	_01134_DS_
004198   4a13     infsnz  0x13, 0x1, 0     	INFSNZ	r0x13, F
00419a   2a14     incf    0x14, 0x1, 0     	INCF	r0x14, F
                                           _01134_DS_:
                                           ;	.line	206; /home/yeison/Documentos/python/apps/pinguinoIDE/x.4/p8/pinguino/core/stdio.c	length--;
00419c   0e0a     movlw   0xa              	MOVLW	0x0a
00419e   6e19     movwf   0x19, 0          	MOVWF	r0x19
                                           _01050_DS_:
0041a0   0103     movlb   0x3              	BANKSEL	(_pprintfl_helper_1_164 + 2)
                                           ;	.line	212; /home/yeison/Documentos/python/apps/pinguinoIDE/x.4/p8/pinguino/core/stdio.c	exponent = ((helper.l >> 23) & 0xFF) - 127;	
0041a2   3558     rlcf    0x58, 0, 0x1     	RLCF	(_pprintfl_helper_1_164 + 2), W, B
                                           ; removed redundant BANKSEL
0041a4   3559     rlcf    0x59, 0, 0x1     	RLCF	(_pprintfl_helper_1_164 + 3), W, B
0041a6   6e03     movwf   0x3, 0           	MOVWF	r0x03
0041a8   6a04     clrf    0x4, 0           	CLRF	r0x04
0041aa   0e81     movlw   0x81             	MOVLW	0x81
0041ac   2603     addwf   0x3, 0x1, 0      	ADDWF	r0x03, F
                                           ; removed redundant BANKSEL
                                           ;	.line	215; /home/yeison/Documentos/python/apps/pinguinoIDE/x.4/p8/pinguino/core/stdio.c	mantissa = (helper.l & 0x7FFFFF) | 0x800000;
0041ae   5156     movf    0x56, 0, 0x1     	MOVF	_pprintfl_helper_1_164, W, B
0041b0   6e04     movwf   0x4, 0           	MOVWF	r0x04
                                           ; removed redundant BANKSEL
0041b2   5157     movf    0x57, 0, 0x1     	MOVF	(_pprintfl_helper_1_164 + 1), W, B
0041b4   6e05     movwf   0x5, 0           	MOVWF	r0x05
0041b6   0e7f     movlw   0x7f             	MOVLW	0x7f
                                           ; removed redundant BANKSEL
0041b8   1558     andwf   0x58, 0, 0x1     	ANDWF	(_pprintfl_helper_1_164 + 2), W, B
0041ba   6e06     movwf   0x6, 0           	MOVWF	r0x06
0041bc   6a1a     clrf    0x1a, 0          	CLRF	r0x1a
0041be   8e06     bsf     0x6, 0x7, 0      	BSF	r0x06, 7
                                           ;	.line	217; /home/yeison/Documentos/python/apps/pinguinoIDE/x.4/p8/pinguino/core/stdio.c	if ( (exponent >= 31) || (exponent < -23) )
0041c0   5003     movf    0x3, 0, 0        	MOVF	r0x03, W
0041c2   0f80     addlw   0x80             	ADDLW	0x80
0041c4   0f61     addlw   0x61             	ADDLW	0x61
0041c6   e204     bc      0x41d0           	BC	_01057_DS_
0041c8   5003     movf    0x3, 0, 0        	MOVF	r0x03, W
0041ca   0f80     addlw   0x80             	ADDLW	0x80
0041cc   0f97     addlw   0x97             	ADDLW	0x97
0041ce   e21f     bc      0x420e           	BC	_01058_DS_
                                           _01057_DS_:
                                           ;	.line	219; /home/yeison/Documentos/python/apps/pinguinoIDE/x.4/p8/pinguino/core/stdio.c	buffer[0] = 'i';
0041d0   0e69     movlw   0x69             	MOVLW	0x69
0041d2   0103     movlb   0x3              	BANKSEL	_pprintfl_buffer_1_164
0041d4   6f0c     movwf   0xc, 0x1         	MOVWF	_pprintfl_buffer_1_164, B
                                           ;	.line	220; /home/yeison/Documentos/python/apps/pinguinoIDE/x.4/p8/pinguino/core/stdio.c	buffer[1] = 'n';
0041d6   0e6e     movlw   0x6e             	MOVLW	0x6e
                                           ; removed redundant BANKSEL
0041d8   6f0d     movwf   0xd, 0x1         	MOVWF	(_pprintfl_buffer_1_164 + 1), B
                                           ;	.line	221; /home/yeison/Documentos/python/apps/pinguinoIDE/x.4/p8/pinguino/core/stdio.c	buffer[2] = 'f';
0041da   0e66     movlw   0x66             	MOVLW	0x66
                                           ; removed redundant BANKSEL
0041dc   6f0e     movwf   0xe, 0x1         	MOVWF	(_pprintfl_buffer_1_164 + 2), B
                                           ; removed redundant BANKSEL
                                           ;	.line	222; /home/yeison/Documentos/python/apps/pinguinoIDE/x.4/p8/pinguino/core/stdio.c	buffer[3] = '\0';
0041de   6b0f     clrf    0xf, 0x1         	CLRF	(_pprintfl_buffer_1_164 + 3), B
                                           ;	.line	223; /home/yeison/Documentos/python/apps/pinguinoIDE/x.4/p8/pinguino/core/stdio.c	return pprints(out, buffer, width, pad);
0041e0   5008     movf    0x8, 0, 0        	MOVF	r0x08, W
0041e2   6ee5     movwf   0xe5, 0          	MOVWF	POSTDEC1
0041e4   5007     movf    0x7, 0, 0        	MOVF	r0x07, W
0041e6   6ee5     movwf   0xe5, 0          	MOVWF	POSTDEC1
0041e8   0e80     movlw   0x80             	MOVLW	0x80
0041ea   6ee5     movwf   0xe5, 0          	MOVWF	POSTDEC1
0041ec   0e03     movlw   0x3              	MOVLW	HIGH(_pprintfl_buffer_1_164)
0041ee   6ee5     movwf   0xe5, 0          	MOVWF	POSTDEC1
0041f0   0e0c     movlw   0xc              	MOVLW	LOW(_pprintfl_buffer_1_164)
0041f2   6ee5     movwf   0xe5, 0          	MOVWF	POSTDEC1
0041f4   5002     movf    0x2, 0, 0        	MOVF	r0x02, W
0041f6   6ee5     movwf   0xe5, 0          	MOVWF	POSTDEC1
0041f8   5001     movf    0x1, 0, 0        	MOVF	r0x01, W
0041fa   6ee5     movwf   0xe5, 0          	MOVWF	POSTDEC1
0041fc   5000     movf    0, 0, 0          	MOVF	r0x00, W
0041fe   6ee5     movwf   0xe5, 0          	MOVWF	POSTDEC1
004200   ec34     call    0x5268, 0        	CALL	_pprints
004202   f029
004204   6e1b     movwf   0x1b, 0          	MOVWF	r0x1b
004206   0e08     movlw   0x8              	MOVLW	0x08
004208   26e1     addwf   0xe1, 0x1, 0     	ADDWF	FSR1L, F
00420a   501b     movf    0x1b, 0, 0       	MOVF	r0x1b, W
00420c   d1ae     bra     0x456a           	BRA	_01080_DS_
                                           _01058_DS_:
                                           ;	.line	225; /home/yeison/Documentos/python/apps/pinguinoIDE/x.4/p8/pinguino/core/stdio.c	else if (exponent >= 23)
00420e   5003     movf    0x3, 0, 0        	MOVF	r0x03, W
004210   0f80     addlw   0x80             	ADDLW	0x80
004212   0f69     addlw   0x69             	ADDLW	0x69
004214   e325     bnc     0x4260           	BNC	_01055_DS_
                                           ;	.line	227; /home/yeison/Documentos/python/apps/pinguinoIDE/x.4/p8/pinguino/core/stdio.c	int_part = mantissa << (exponent - 23);
004216   c003     movff   0x3, 0x1b        	MOVFF	r0x03, r0x1b
004218   f01b
00421a   6a1c     clrf    0x1c, 0          	CLRF	r0x1c
00421c   be03     btfsc   0x3, 0x7, 0      	BTFSC	r0x03, 7
00421e   681c     setf    0x1c, 0          	SETF	r0x1c
004220   0ee9     movlw   0xe9             	MOVLW	0xe9
004222   261b     addwf   0x1b, 0x1, 0     	ADDWF	r0x1b, F
004224   a0d8     btfss   0xd8, 0, 0       	BTFSS	STATUS, 0
004226   061c     decf    0x1c, 0x1, 0     	DECF	r0x1c, F
004228   c004     movff   0x4, 0xa         	MOVFF	r0x04, r0x0a
00422a   f00a
00422c   c005     movff   0x5, 0xb         	MOVFF	r0x05, r0x0b
00422e   f00b
004230   c006     movff   0x6, 0xc         	MOVFF	r0x06, r0x0c
004232   f00c
004234   c01a     movff   0x1a, 0xd        	MOVFF	r0x1a, r0x0d
004236   f00d
004238   501b     movf    0x1b, 0, 0       	MOVF	r0x1b, W
00423a   e011     bz      0x425e           	BZ	_01141_DS_
00423c   e609     bn      0x4250           	BN	_01144_DS_
00423e   6ce8     negf    0xe8, 0          	NEGF	WREG
004240   90d8     bcf     0xd8, 0, 0       	BCF	STATUS, 0
                                           _01142_DS_:
004242   360a     rlcf    0xa, 0x1, 0      	RLCF	r0x0a, F
004244   360b     rlcf    0xb, 0x1, 0      	RLCF	r0x0b, F
004246   360c     rlcf    0xc, 0x1, 0      	RLCF	r0x0c, F
004248   360d     rlcf    0xd, 0x1, 0      	RLCF	r0x0d, F
00424a   0f01     addlw   0x1              	ADDLW	0x01
00424c   e3fa     bnc     0x4242           	BNC	_01142_DS_
00424e   d07c     bra     0x4348           	BRA	_01059_DS_
                                           _01144_DS_:
004250   90d8     bcf     0xd8, 0, 0       	BCF	STATUS, 0
                                           _01143_DS_:
004252   320d     rrcf    0xd, 0x1, 0      	RRCF	r0x0d, F
004254   320c     rrcf    0xc, 0x1, 0      	RRCF	r0x0c, F
004256   320b     rrcf    0xb, 0x1, 0      	RRCF	r0x0b, F
004258   320a     rrcf    0xa, 0x1, 0      	RRCF	r0x0a, F
00425a   0f01     addlw   0x1              	ADDLW	0x01
00425c   e3fa     bnc     0x4252           	BNC	_01143_DS_
                                           _01141_DS_:
00425e   d074     bra     0x4348           	BRA	_01059_DS_
                                           _01055_DS_:
                                           ;	.line	229; /home/yeison/Documentos/python/apps/pinguinoIDE/x.4/p8/pinguino/core/stdio.c	else if (exponent >= 0) 
004260   80d8     bsf     0xd8, 0, 0       	BSF	STATUS, 0
004262   ae03     btfss   0x3, 0x7, 0      	BTFSS	r0x03, 7
004264   90d8     bcf     0xd8, 0, 0       	BCF	STATUS, 0
004266   b0d8     btfsc   0xd8, 0, 0       	BTFSC	STATUS, 0
004268   d04a     bra     0x42fe           	BRA	_01052_DS_
                                           ;	.line	231; /home/yeison/Documentos/python/apps/pinguinoIDE/x.4/p8/pinguino/core/stdio.c	int_part = mantissa >> (23 - exponent);
00426a   c003     movff   0x3, 0x1b        	MOVFF	r0x03, r0x1b
00426c   f01b
00426e   6a1c     clrf    0x1c, 0          	CLRF	r0x1c
004270   be03     btfsc   0x3, 0x7, 0      	BTFSC	r0x03, 7
004272   681c     setf    0x1c, 0          	SETF	r0x1c
004274   501b     movf    0x1b, 0, 0       	MOVF	r0x1b, W
004276   0817     sublw   0x17             	SUBLW	0x17
004278   6e1d     movwf   0x1d, 0          	MOVWF	r0x1d
00427a   0e00     movlw   0                	MOVLW	0x00
00427c   541c     subfwb  0x1c, 0, 0       	SUBFWB	r0x1c, W
00427e   c004     movff   0x4, 0xa         	MOVFF	r0x04, r0x0a
004280   f00a
004282   c005     movff   0x5, 0xb         	MOVFF	r0x05, r0x0b
004284   f00b
004286   c006     movff   0x6, 0xc         	MOVFF	r0x06, r0x0c
004288   f00c
00428a   c01a     movff   0x1a, 0xd        	MOVFF	r0x1a, r0x0d
00428c   f00d
00428e   501d     movf    0x1d, 0, 0       	MOVF	r0x1d, W
004290   e011     bz      0x42b4           	BZ	_01145_DS_
004292   e609     bn      0x42a6           	BN	_01148_DS_
004294   6ce8     negf    0xe8, 0          	NEGF	WREG
004296   90d8     bcf     0xd8, 0, 0       	BCF	STATUS, 0
                                           _01146_DS_:
004298   320d     rrcf    0xd, 0x1, 0      	RRCF	r0x0d, F
00429a   320c     rrcf    0xc, 0x1, 0      	RRCF	r0x0c, F
00429c   320b     rrcf    0xb, 0x1, 0      	RRCF	r0x0b, F
00429e   320a     rrcf    0xa, 0x1, 0      	RRCF	r0x0a, F
0042a0   0f01     addlw   0x1              	ADDLW	0x01
0042a2   e3fa     bnc     0x4298           	BNC	_01146_DS_
0042a4   d007     bra     0x42b4           	BRA	_01145_DS_
                                           _01148_DS_:
0042a6   90d8     bcf     0xd8, 0, 0       	BCF	STATUS, 0
                                           _01147_DS_:
0042a8   360a     rlcf    0xa, 0x1, 0      	RLCF	r0x0a, F
0042aa   360b     rlcf    0xb, 0x1, 0      	RLCF	r0x0b, F
0042ac   360c     rlcf    0xc, 0x1, 0      	RLCF	r0x0c, F
0042ae   360d     rlcf    0xd, 0x1, 0      	RLCF	r0x0d, F
0042b0   0f01     addlw   0x1              	ADDLW	0x01
0042b2   e3fa     bnc     0x42a8           	BNC	_01147_DS_
                                           _01145_DS_:
                                           ;	.line	232; /home/yeison/Documentos/python/apps/pinguinoIDE/x.4/p8/pinguino/core/stdio.c	frac_part = (mantissa << (exponent + 1)) & 0xFFFFFF; // mfh
0042b4   4a1b     infsnz  0x1b, 0x1, 0     	INFSNZ	r0x1b, F
0042b6   2a1c     incf    0x1c, 0x1, 0     	INCF	r0x1c, F
0042b8   c004     movff   0x4, 0x1d        	MOVFF	r0x04, r0x1d
0042ba   f01d
0042bc   c005     movff   0x5, 0x1e        	MOVFF	r0x05, r0x1e
0042be   f01e
0042c0   c006     movff   0x6, 0x1f        	MOVFF	r0x06, r0x1f
0042c2   f01f
0042c4   c01a     movff   0x1a, 0x20       	MOVFF	r0x1a, r0x20
0042c6   f020
0042c8   501b     movf    0x1b, 0, 0       	MOVF	r0x1b, W
0042ca   e011     bz      0x42ee           	BZ	_01149_DS_
0042cc   e609     bn      0x42e0           	BN	_01152_DS_
0042ce   6ce8     negf    0xe8, 0          	NEGF	WREG
0042d0   90d8     bcf     0xd8, 0, 0       	BCF	STATUS, 0
                                           _01150_DS_:
0042d2   361d     rlcf    0x1d, 0x1, 0     	RLCF	r0x1d, F
0042d4   361e     rlcf    0x1e, 0x1, 0     	RLCF	r0x1e, F
0042d6   361f     rlcf    0x1f, 0x1, 0     	RLCF	r0x1f, F
0042d8   3620     rlcf    0x20, 0x1, 0     	RLCF	r0x20, F
0042da   0f01     addlw   0x1              	ADDLW	0x01
0042dc   e3fa     bnc     0x42d2           	BNC	_01150_DS_
0042de   d007     bra     0x42ee           	BRA	_01149_DS_
                                           _01152_DS_:
0042e0   90d8     bcf     0xd8, 0, 0       	BCF	STATUS, 0
                                           _01151_DS_:
0042e2   3220     rrcf    0x20, 0x1, 0     	RRCF	r0x20, F
0042e4   321f     rrcf    0x1f, 0x1, 0     	RRCF	r0x1f, F
0042e6   321e     rrcf    0x1e, 0x1, 0     	RRCF	r0x1e, F
0042e8   321d     rrcf    0x1d, 0x1, 0     	RRCF	r0x1d, F
0042ea   0f01     addlw   0x1              	ADDLW	0x01
0042ec   e3fa     bnc     0x42e2           	BNC	_01151_DS_
                                           _01149_DS_:
0042ee   501d     movf    0x1d, 0, 0       	MOVF	r0x1d, W
0042f0   6e0e     movwf   0xe, 0           	MOVWF	r0x0e
0042f2   501e     movf    0x1e, 0, 0       	MOVF	r0x1e, W
0042f4   6e0f     movwf   0xf, 0           	MOVWF	r0x0f
0042f6   501f     movf    0x1f, 0, 0       	MOVF	r0x1f, W
0042f8   6e10     movwf   0x10, 0          	MOVWF	r0x10
0042fa   6a11     clrf    0x11, 0          	CLRF	r0x11
0042fc   d025     bra     0x4348           	BRA	_01059_DS_
                                           _01052_DS_:
                                           ;	.line	235; /home/yeison/Documentos/python/apps/pinguinoIDE/x.4/p8/pinguino/core/stdio.c	frac_part = (mantissa & 0xFFFFFF) >> -(exponent + 1);
0042fe   6a1a     clrf    0x1a, 0          	CLRF	r0x1a
004300   6a1b     clrf    0x1b, 0          	CLRF	r0x1b
004302   be03     btfsc   0x3, 0x7, 0      	BTFSC	r0x03, 7
004304   681b     setf    0x1b, 0          	SETF	r0x1b
004306   4a03     infsnz  0x3, 0x1, 0      	INFSNZ	r0x03, F
004308   2a1b     incf    0x1b, 0x1, 0     	INCF	r0x1b, F
00430a   1e1b     comf    0x1b, 0x1, 0     	COMF	r0x1b, F
00430c   6c03     negf    0x3, 0           	NEGF	r0x03
00430e   b4d8     btfsc   0xd8, 0x2, 0     	BTFSC	STATUS, 2
004310   2a1b     incf    0x1b, 0x1, 0     	INCF	r0x1b, F
004312   c004     movff   0x4, 0xe         	MOVFF	r0x04, r0x0e
004314   f00e
004316   c005     movff   0x5, 0xf         	MOVFF	r0x05, r0x0f
004318   f00f
00431a   c006     movff   0x6, 0x10        	MOVFF	r0x06, r0x10
00431c   f010
00431e   c01a     movff   0x1a, 0x11       	MOVFF	r0x1a, r0x11
004320   f011
004322   5003     movf    0x3, 0, 0        	MOVF	r0x03, W
004324   e011     bz      0x4348           	BZ	_01059_DS_
004326   e609     bn      0x433a           	BN	_01159_DS_
004328   6ce8     negf    0xe8, 0          	NEGF	WREG
00432a   90d8     bcf     0xd8, 0, 0       	BCF	STATUS, 0
                                           _01157_DS_:
00432c   3211     rrcf    0x11, 0x1, 0     	RRCF	r0x11, F
00432e   3210     rrcf    0x10, 0x1, 0     	RRCF	r0x10, F
004330   320f     rrcf    0xf, 0x1, 0      	RRCF	r0x0f, F
004332   320e     rrcf    0xe, 0x1, 0      	RRCF	r0x0e, F
004334   0f01     addlw   0x1              	ADDLW	0x01
004336   e3fa     bnc     0x432c           	BNC	_01157_DS_
004338   d007     bra     0x4348           	BRA	_01059_DS_
                                           _01159_DS_:
00433a   90d8     bcf     0xd8, 0, 0       	BCF	STATUS, 0
                                           _01158_DS_:
00433c   360e     rlcf    0xe, 0x1, 0      	RLCF	r0x0e, F
00433e   360f     rlcf    0xf, 0x1, 0      	RLCF	r0x0f, F
004340   3610     rlcf    0x10, 0x1, 0     	RLCF	r0x10, F
004342   3611     rlcf    0x11, 0x1, 0     	RLCF	r0x11, F
004344   0f01     addlw   0x1              	ADDLW	0x01
004346   e3fa     bnc     0x433c           	BNC	_01158_DS_
                                           _01059_DS_:
                                           ;	.line	238; /home/yeison/Documentos/python/apps/pinguinoIDE/x.4/p8/pinguino/core/stdio.c	if (int_part == 0)
004348   500a     movf    0xa, 0, 0        	MOVF	r0x0a, W
00434a   100b     iorwf   0xb, 0, 0        	IORWF	r0x0b, W
00434c   100c     iorwf   0xc, 0, 0        	IORWF	r0x0c, W
00434e   100d     iorwf   0xd, 0, 0        	IORWF	r0x0d, W
004350   e10f     bnz     0x4370           	BNZ	_01090_DS_
                                           ;	.line	240; /home/yeison/Documentos/python/apps/pinguinoIDE/x.4/p8/pinguino/core/stdio.c	*string++ = '0';
004352   0e30     movlw   0x30             	MOVLW	0x30
004354   6ee5     movwf   0xe5, 0          	MOVWF	POSTDEC1
004356   c012     movff   0x12, 0xfe9      	MOVFF	r0x12, FSR0L
004358   ffe9
00435a   c013     movff   0x13, 0xff3      	MOVFF	r0x13, PRODL
00435c   fff3
00435e   5014     movf    0x14, 0, 0       	MOVF	r0x14, W
004360   ec31     call    0x62, 0          	CALL	__gptrput1
004362   f000
004364   2a12     incf    0x12, 0x1, 0     	INCF	r0x12, F
004366   e302     bnc     0x436c           	BNC	_01160_DS_
004368   4a13     infsnz  0x13, 0x1, 0     	INFSNZ	r0x13, F
00436a   2a14     incf    0x14, 0x1, 0     	INCF	r0x14, F
                                           _01160_DS_:
                                           ;	.line	241; /home/yeison/Documentos/python/apps/pinguinoIDE/x.4/p8/pinguino/core/stdio.c	length--;
00436c   0619     decf    0x19, 0x1, 0     	DECF	r0x19, F
00436e   d078     bra     0x4460           	BRA	_01069_DS_
                                           _01090_DS_:
                                           ;	.line	247; /home/yeison/Documentos/python/apps/pinguinoIDE/x.4/p8/pinguino/core/stdio.c	while (int_part)
004370   c015     movff   0x15, 0x3        	MOVFF	r0x15, r0x03
004372   f003
004374   c016     movff   0x16, 0x4        	MOVFF	r0x16, r0x04
004376   f004
004378   c017     movff   0x17, 0x5        	MOVFF	r0x17, r0x05
00437a   f005
00437c   6a06     clrf    0x6, 0           	CLRF	r0x06
00437e   c019     movff   0x19, 0x15       	MOVFF	r0x19, r0x15
004380   f015
                                           _01061_DS_:
004382   500a     movf    0xa, 0, 0        	MOVF	r0x0a, W
004384   100b     iorwf   0xb, 0, 0        	IORWF	r0x0b, W
004386   100c     iorwf   0xc, 0, 0        	IORWF	r0x0c, W
004388   100d     iorwf   0xd, 0, 0        	IORWF	r0x0d, W
00438a   b4d8     btfsc   0xd8, 0x2, 0     	BTFSC	STATUS, 2
00438c   d03c     bra     0x4406           	BRA	_01098_DS_
                                           ;	.line	249; /home/yeison/Documentos/python/apps/pinguinoIDE/x.4/p8/pinguino/core/stdio.c	t = int_part % 10;		// decimal base
00438e   6ae5     clrf    0xe5, 0          	CLRF	POSTDEC1
004390   6ae5     clrf    0xe5, 0          	CLRF	POSTDEC1
004392   6ae5     clrf    0xe5, 0          	CLRF	POSTDEC1
004394   0e0a     movlw   0xa              	MOVLW	0x0a
004396   6ee5     movwf   0xe5, 0          	MOVWF	POSTDEC1
004398   500d     movf    0xd, 0, 0        	MOVF	r0x0d, W
00439a   6ee5     movwf   0xe5, 0          	MOVWF	POSTDEC1
00439c   500c     movf    0xc, 0, 0        	MOVF	r0x0c, W
00439e   6ee5     movwf   0xe5, 0          	MOVWF	POSTDEC1
0043a0   500b     movf    0xb, 0, 0        	MOVF	r0x0b, W
0043a2   6ee5     movwf   0xe5, 0          	MOVWF	POSTDEC1
0043a4   500a     movf    0xa, 0, 0        	MOVF	r0x0a, W
0043a6   6ee5     movwf   0xe5, 0          	MOVWF	POSTDEC1
0043a8   ecd0     call    0x59a0, 0        	CALL	__modulong
0043aa   f02c
0043ac   6e16     movwf   0x16, 0          	MOVWF	r0x16
0043ae   0e08     movlw   0x8              	MOVLW	0x08
0043b0   26e1     addwf   0xe1, 0x1, 0     	ADDWF	FSR1L, F
                                           ;	.line	250; /home/yeison/Documentos/python/apps/pinguinoIDE/x.4/p8/pinguino/core/stdio.c	*s++ = t + '0';
0043b2   0e30     movlw   0x30             	MOVLW	0x30
0043b4   2616     addwf   0x16, 0x1, 0     	ADDWF	r0x16, F
0043b6   c016     movff   0x16, 0xfe5      	MOVFF	r0x16, POSTDEC1
0043b8   ffe5
0043ba   c003     movff   0x3, 0xfe9       	MOVFF	r0x03, FSR0L
0043bc   ffe9
0043be   c004     movff   0x4, 0xff3       	MOVFF	r0x04, PRODL
0043c0   fff3
0043c2   5005     movf    0x5, 0, 0        	MOVF	r0x05, W
0043c4   ec31     call    0x62, 0          	CALL	__gptrput1
0043c6   f000
0043c8   2a03     incf    0x3, 0x1, 0      	INCF	r0x03, F
0043ca   e302     bnc     0x43d0           	BNC	_01161_DS_
0043cc   4a04     infsnz  0x4, 0x1, 0      	INFSNZ	r0x04, F
0043ce   2a05     incf    0x5, 0x1, 0      	INCF	r0x05, F
                                           _01161_DS_:
                                           ;	.line	251; /home/yeison/Documentos/python/apps/pinguinoIDE/x.4/p8/pinguino/core/stdio.c	int_part /= 10;
0043d0   6ae5     clrf    0xe5, 0          	CLRF	POSTDEC1
0043d2   6ae5     clrf    0xe5, 0          	CLRF	POSTDEC1
0043d4   6ae5     clrf    0xe5, 0          	CLRF	POSTDEC1
0043d6   0e0a     movlw   0xa              	MOVLW	0x0a
0043d8   6ee5     movwf   0xe5, 0          	MOVWF	POSTDEC1
0043da   500d     movf    0xd, 0, 0        	MOVF	r0x0d, W
0043dc   6ee5     movwf   0xe5, 0          	MOVWF	POSTDEC1
0043de   500c     movf    0xc, 0, 0        	MOVF	r0x0c, W
0043e0   6ee5     movwf   0xe5, 0          	MOVWF	POSTDEC1
0043e2   500b     movf    0xb, 0, 0        	MOVF	r0x0b, W
0043e4   6ee5     movwf   0xe5, 0          	MOVWF	POSTDEC1
0043e6   500a     movf    0xa, 0, 0        	MOVF	r0x0a, W
0043e8   6ee5     movwf   0xe5, 0          	MOVWF	POSTDEC1
0043ea   ec80     call    0x5d00, 0        	CALL	__divulong
0043ec   f02e
0043ee   6e0a     movwf   0xa, 0           	MOVWF	r0x0a
0043f0   cff3     movff   0xff3, 0xb       	MOVFF	PRODL, r0x0b
0043f2   f00b
0043f4   cff4     movff   0xff4, 0xc       	MOVFF	PRODH, r0x0c
0043f6   f00c
0043f8   cfe9     movff   0xfe9, 0xd       	MOVFF	FSR0L, r0x0d
0043fa   f00d
0043fc   0e08     movlw   0x8              	MOVLW	0x08
0043fe   26e1     addwf   0xe1, 0x1, 0     	ADDWF	FSR1L, F
                                           ;	.line	252; /home/yeison/Documentos/python/apps/pinguinoIDE/x.4/p8/pinguino/core/stdio.c	m++;					// string's length counter
004400   2a06     incf    0x6, 0x1, 0      	INCF	r0x06, F
                                           ;	.line	253; /home/yeison/Documentos/python/apps/pinguinoIDE/x.4/p8/pinguino/core/stdio.c	length--;
004402   0615     decf    0x15, 0x1, 0     	DECF	r0x15, F
004404   d7be     bra     0x4382           	BRA	_01061_DS_
                                           _01098_DS_:
                                           ;	.line	256; /home/yeison/Documentos/python/apps/pinguinoIDE/x.4/p8/pinguino/core/stdio.c	while (m--)
004406   c015     movff   0x15, 0x19       	MOVFF	r0x15, r0x19
004408   f019
00440a   c012     movff   0x12, 0xa        	MOVFF	r0x12, r0x0a
00440c   f00a
00440e   c013     movff   0x13, 0xb        	MOVFF	r0x13, r0x0b
004410   f00b
004412   c014     movff   0x14, 0xc        	MOVFF	r0x14, r0x0c
004414   f00c
                                           _01064_DS_:
004416   c006     movff   0x6, 0xd         	MOVFF	r0x06, r0x0d
004418   f00d
00441a   0606     decf    0x6, 0x1, 0      	DECF	r0x06, F
00441c   500d     movf    0xd, 0, 0        	MOVF	r0x0d, W
00441e   e01a     bz      0x4454           	BZ	_01099_DS_
                                           ;	.line	258; /home/yeison/Documentos/python/apps/pinguinoIDE/x.4/p8/pinguino/core/stdio.c	*string++ = *--s;
004420   0eff     movlw   0xff             	MOVLW	0xff
004422   2603     addwf   0x3, 0x1, 0      	ADDWF	r0x03, F
004424   2204     addwfc  0x4, 0x1, 0      	ADDWFC	r0x04, F
004426   2205     addwfc  0x5, 0x1, 0      	ADDWFC	r0x05, F
004428   c003     movff   0x3, 0xfe9       	MOVFF	r0x03, FSR0L
00442a   ffe9
00442c   c004     movff   0x4, 0xff3       	MOVFF	r0x04, PRODL
00442e   fff3
004430   5005     movf    0x5, 0, 0        	MOVF	r0x05, W
004432   ec29     call    0x52, 0          	CALL	__gptrget1
004434   f000
004436   6e0d     movwf   0xd, 0           	MOVWF	r0x0d
004438   c00d     movff   0xd, 0xfe5       	MOVFF	r0x0d, POSTDEC1
00443a   ffe5
00443c   c00a     movff   0xa, 0xfe9       	MOVFF	r0x0a, FSR0L
00443e   ffe9
004440   c00b     movff   0xb, 0xff3       	MOVFF	r0x0b, PRODL
004442   fff3
004444   500c     movf    0xc, 0, 0        	MOVF	r0x0c, W
004446   ec31     call    0x62, 0          	CALL	__gptrput1
004448   f000
00444a   2a0a     incf    0xa, 0x1, 0      	INCF	r0x0a, F
00444c   e3e4     bnc     0x4416           	BNC	_01064_DS_
00444e   4a0b     infsnz  0xb, 0x1, 0      	INFSNZ	r0x0b, F
004450   2a0c     incf    0xc, 0x1, 0      	INCF	r0x0c, F
                                           _01162_DS_:
004452   d7e1     bra     0x4416           	BRA	_01064_DS_
                                           _01099_DS_:
004454   c00a     movff   0xa, 0x12        	MOVFF	r0x0a, r0x12
004456   f012
004458   c00b     movff   0xb, 0x13        	MOVFF	r0x0b, r0x13
00445a   f013
00445c   c00c     movff   0xc, 0x14        	MOVFF	r0x0c, r0x14
00445e   f014
                                           _01069_DS_:
                                           ;	.line	271; /home/yeison/Documentos/python/apps/pinguinoIDE/x.4/p8/pinguino/core/stdio.c	if (precision > 6)
004460   0e07     movlw   0x7              	MOVLW	0x07
004462   5c09     subwf   0x9, 0, 0        	SUBWF	r0x09, W
004464   e302     bnc     0x446a           	BNC	_01071_DS_
                                           ;	.line	272; /home/yeison/Documentos/python/apps/pinguinoIDE/x.4/p8/pinguino/core/stdio.c	precision = 6;
004466   0e06     movlw   0x6              	MOVLW	0x06
004468   6e09     movwf   0x9, 0           	MOVWF	r0x09
                                           _01071_DS_:
                                           ;	.line	275; /home/yeison/Documentos/python/apps/pinguinoIDE/x.4/p8/pinguino/core/stdio.c	if (precision > length)
00446a   5009     movf    0x9, 0, 0        	MOVF	r0x09, W
                                           ; #	SUBWF	r0x19, W
                                           ; #	BTFSC	STATUS, 0
                                           ; #	GOTO	_01073_DS_
                                           ; #	MOVFF	r0x19, r0x09
                                           ; #	MOVLW	0x01
                                           ;	.line	276; /home/yeison/Documentos/python/apps/pinguinoIDE/x.4/p8/pinguino/core/stdio.c	precision = length;
00446c   5c19     subwf   0x19, 0, 0       	SUBWF	r0x19, W
                                           ;	.line	279; /home/yeison/Documentos/python/apps/pinguinoIDE/x.4/p8/pinguino/core/stdio.c	if (precision >= 1)
00446e   a0d8     btfss   0xd8, 0, 0       	BTFSS	STATUS, 0
004470   c019     movff   0x19, 0x9        	MOVFF	r0x19, r0x09
004472   f009
004474   0e01     movlw   0x1              	MOVLW	0x01
004476   5c09     subwf   0x9, 0, 0        	SUBWF	r0x09, W
004478   a0d8     btfss   0xd8, 0, 0       	BTFSS	STATUS, 0
00447a   d057     bra     0x452a           	BRA	_01076_DS_
                                           ;	.line	282; /home/yeison/Documentos/python/apps/pinguinoIDE/x.4/p8/pinguino/core/stdio.c	*string++ = '.';
00447c   0e2e     movlw   0x2e             	MOVLW	0x2e
00447e   6ee5     movwf   0xe5, 0          	MOVWF	POSTDEC1
004480   c012     movff   0x12, 0xfe9      	MOVFF	r0x12, FSR0L
004482   ffe9
004484   c013     movff   0x13, 0xff3      	MOVFF	r0x13, PRODL
004486   fff3
004488   5014     movf    0x14, 0, 0       	MOVF	r0x14, W
00448a   ec31     call    0x62, 0          	CALL	__gptrput1
00448c   f000
00448e   2a12     incf    0x12, 0x1, 0     	INCF	r0x12, F
004490   e302     bnc     0x4496           	BNC	_01166_DS_
004492   4a13     infsnz  0x13, 0x1, 0     	INFSNZ	r0x13, F
004494   2a14     incf    0x14, 0x1, 0     	INCF	r0x14, F
                                           _01166_DS_:
                                           ;	.line	285; /home/yeison/Documentos/python/apps/pinguinoIDE/x.4/p8/pinguino/core/stdio.c	for (m = 0; m < precision; m++)
004496   c012     movff   0x12, 0x3        	MOVFF	r0x12, r0x03
004498   f003
00449a   c013     movff   0x13, 0x4        	MOVFF	r0x13, r0x04
00449c   f004
00449e   c014     movff   0x14, 0x5        	MOVFF	r0x14, r0x05
0044a0   f005
0044a2   6a06     clrf    0x6, 0           	CLRF	r0x06
                                           _01078_DS_:
0044a4   5009     movf    0x9, 0, 0        	MOVF	r0x09, W
0044a6   5c06     subwf   0x6, 0, 0        	SUBWF	r0x06, W
0044a8   e23a     bc      0x451e           	BC	_01100_DS_
                                           ;	.line	288; /home/yeison/Documentos/python/apps/pinguinoIDE/x.4/p8/pinguino/core/stdio.c	frac_part = (frac_part << 3) + (frac_part << 1); 
0044aa   500e     movf    0xe, 0, 0        	MOVF	r0x0e, W
0044ac   240e     addwf   0xe, 0, 0        	ADDWF	r0x0e, W
0044ae   6e0a     movwf   0xa, 0           	MOVWF	r0x0a
0044b0   340f     rlcf    0xf, 0, 0        	RLCF	r0x0f, W
0044b2   6e0b     movwf   0xb, 0           	MOVWF	r0x0b
0044b4   3410     rlcf    0x10, 0, 0       	RLCF	r0x10, W
0044b6   6e0c     movwf   0xc, 0           	MOVWF	r0x0c
0044b8   3411     rlcf    0x11, 0, 0       	RLCF	r0x11, W
0044ba   6e0d     movwf   0xd, 0           	MOVWF	r0x0d
0044bc   500a     movf    0xa, 0, 0        	MOVF	r0x0a, W
0044be   260a     addwf   0xa, 0x1, 0      	ADDWF	r0x0a, F
0044c0   360b     rlcf    0xb, 0x1, 0      	RLCF	r0x0b, F
0044c2   360c     rlcf    0xc, 0x1, 0      	RLCF	r0x0c, F
0044c4   360d     rlcf    0xd, 0x1, 0      	RLCF	r0x0d, F
0044c6   500a     movf    0xa, 0, 0        	MOVF	r0x0a, W
0044c8   260a     addwf   0xa, 0x1, 0      	ADDWF	r0x0a, F
0044ca   360b     rlcf    0xb, 0x1, 0      	RLCF	r0x0b, F
0044cc   360c     rlcf    0xc, 0x1, 0      	RLCF	r0x0c, F
0044ce   360d     rlcf    0xd, 0x1, 0      	RLCF	r0x0d, F
0044d0   500e     movf    0xe, 0, 0        	MOVF	r0x0e, W
0044d2   240e     addwf   0xe, 0, 0        	ADDWF	r0x0e, W
0044d4   6e15     movwf   0x15, 0          	MOVWF	r0x15
0044d6   340f     rlcf    0xf, 0, 0        	RLCF	r0x0f, W
0044d8   6e16     movwf   0x16, 0          	MOVWF	r0x16
0044da   3410     rlcf    0x10, 0, 0       	RLCF	r0x10, W
0044dc   6e17     movwf   0x17, 0          	MOVWF	r0x17
0044de   3411     rlcf    0x11, 0, 0       	RLCF	r0x11, W
0044e0   6e19     movwf   0x19, 0          	MOVWF	r0x19
0044e2   5015     movf    0x15, 0, 0       	MOVF	r0x15, W
0044e4   240a     addwf   0xa, 0, 0        	ADDWF	r0x0a, W
0044e6   6e0e     movwf   0xe, 0           	MOVWF	r0x0e
0044e8   5016     movf    0x16, 0, 0       	MOVF	r0x16, W
0044ea   200b     addwfc  0xb, 0, 0        	ADDWFC	r0x0b, W
0044ec   6e0f     movwf   0xf, 0           	MOVWF	r0x0f
0044ee   5017     movf    0x17, 0, 0       	MOVF	r0x17, W
0044f0   200c     addwfc  0xc, 0, 0        	ADDWFC	r0x0c, W
0044f2   6e10     movwf   0x10, 0          	MOVWF	r0x10
0044f4   5019     movf    0x19, 0, 0       	MOVF	r0x19, W
0044f6   200d     addwfc  0xd, 0, 0        	ADDWFC	r0x0d, W
                                           ; #	MOVWF	r0x11
                                           ; #	MOVF	r0x11, W
                                           ;	.line	290; /home/yeison/Documentos/python/apps/pinguinoIDE/x.4/p8/pinguino/core/stdio.c	*string++ = (frac_part >> 24) + '0';
0044f8   6e0a     movwf   0xa, 0           	MOVWF	r0x0a
0044fa   0e30     movlw   0x30             	MOVLW	0x30
0044fc   260a     addwf   0xa, 0x1, 0      	ADDWF	r0x0a, F
0044fe   c00a     movff   0xa, 0xfe5       	MOVFF	r0x0a, POSTDEC1
004500   ffe5
004502   c003     movff   0x3, 0xfe9       	MOVFF	r0x03, FSR0L
004504   ffe9
004506   c004     movff   0x4, 0xff3       	MOVFF	r0x04, PRODL
004508   fff3
00450a   5005     movf    0x5, 0, 0        	MOVF	r0x05, W
00450c   ec31     call    0x62, 0          	CALL	__gptrput1
00450e   f000
004510   2a03     incf    0x3, 0x1, 0      	INCF	r0x03, F
004512   e302     bnc     0x4518           	BNC	_01168_DS_
004514   4a04     infsnz  0x4, 0x1, 0      	INFSNZ	r0x04, F
004516   2a05     incf    0x5, 0x1, 0      	INCF	r0x05, F
                                           _01168_DS_:
                                           ;	.line	292; /home/yeison/Documentos/python/apps/pinguinoIDE/x.4/p8/pinguino/core/stdio.c	frac_part &= 0xFFFFFF;
004518   6a11     clrf    0x11, 0          	CLRF	r0x11
                                           ;	.line	285; /home/yeison/Documentos/python/apps/pinguinoIDE/x.4/p8/pinguino/core/stdio.c	for (m = 0; m < precision; m++)
00451a   2a06     incf    0x6, 0x1, 0      	INCF	r0x06, F
00451c   d7c3     bra     0x44a4           	BRA	_01078_DS_
                                           _01100_DS_:
00451e   c003     movff   0x3, 0x12        	MOVFF	r0x03, r0x12
004520   f012
004522   c004     movff   0x4, 0x13        	MOVFF	r0x04, r0x13
004524   f013
004526   c005     movff   0x5, 0x14        	MOVFF	r0x05, r0x14
004528   f014
                                           _01076_DS_:
                                           ;	.line	297; /home/yeison/Documentos/python/apps/pinguinoIDE/x.4/p8/pinguino/core/stdio.c	*string++ = '\0';
00452a   6ae5     clrf    0xe5, 0          	CLRF	POSTDEC1
00452c   c012     movff   0x12, 0xfe9      	MOVFF	r0x12, FSR0L
00452e   ffe9
004530   c013     movff   0x13, 0xff3      	MOVFF	r0x13, PRODL
004532   fff3
004534   5014     movf    0x14, 0, 0       	MOVF	r0x14, W
004536   ec31     call    0x62, 0          	CALL	__gptrput1
004538   f000
                                           ;	.line	299; /home/yeison/Documentos/python/apps/pinguinoIDE/x.4/p8/pinguino/core/stdio.c	return count + pprints(out, buffer, width, pad);
00453a   5008     movf    0x8, 0, 0        	MOVF	r0x08, W
00453c   6ee5     movwf   0xe5, 0          	MOVWF	POSTDEC1
00453e   5007     movf    0x7, 0, 0        	MOVF	r0x07, W
004540   6ee5     movwf   0xe5, 0          	MOVWF	POSTDEC1
004542   0e80     movlw   0x80             	MOVLW	0x80
004544   6ee5     movwf   0xe5, 0          	MOVWF	POSTDEC1
004546   0e03     movlw   0x3              	MOVLW	HIGH(_pprintfl_buffer_1_164)
004548   6ee5     movwf   0xe5, 0          	MOVWF	POSTDEC1
00454a   0e0c     movlw   0xc              	MOVLW	LOW(_pprintfl_buffer_1_164)
00454c   6ee5     movwf   0xe5, 0          	MOVWF	POSTDEC1
00454e   5002     movf    0x2, 0, 0        	MOVF	r0x02, W
004550   6ee5     movwf   0xe5, 0          	MOVWF	POSTDEC1
004552   5001     movf    0x1, 0, 0        	MOVF	r0x01, W
004554   6ee5     movwf   0xe5, 0          	MOVWF	POSTDEC1
004556   5000     movf    0, 0, 0          	MOVF	r0x00, W
004558   6ee5     movwf   0xe5, 0          	MOVWF	POSTDEC1
00455a   ec34     call    0x5268, 0        	CALL	_pprints
00455c   f029
00455e   6e00     movwf   0, 0             	MOVWF	r0x00
004560   0e08     movlw   0x8              	MOVLW	0x08
004562   26e1     addwf   0xe1, 0x1, 0     	ADDWF	FSR1L, F
004564   5018     movf    0x18, 0, 0       	MOVF	r0x18, W
004566   2600     addwf   0, 0x1, 0        	ADDWF	r0x00, F
004568   5000     movf    0, 0, 0          	MOVF	r0x00, W
                                           _01080_DS_:
00456a   cfe4     movff   0xfe4, 0x20      	MOVFF	PREINC1, r0x20
00456c   f020
00456e   cfe4     movff   0xfe4, 0x1f      	MOVFF	PREINC1, r0x1f
004570   f01f
004572   cfe4     movff   0xfe4, 0x1e      	MOVFF	PREINC1, r0x1e
004574   f01e
004576   cfe4     movff   0xfe4, 0x1d      	MOVFF	PREINC1, r0x1d
004578   f01d
00457a   cfe4     movff   0xfe4, 0x1c      	MOVFF	PREINC1, r0x1c
00457c   f01c
00457e   cfe4     movff   0xfe4, 0x1b      	MOVFF	PREINC1, r0x1b
004580   f01b
004582   cfe4     movff   0xfe4, 0x1a      	MOVFF	PREINC1, r0x1a
004584   f01a
004586   cfe4     movff   0xfe4, 0x19      	MOVFF	PREINC1, r0x19
004588   f019
00458a   cfe4     movff   0xfe4, 0x18      	MOVFF	PREINC1, r0x18
00458c   f018
00458e   cfe4     movff   0xfe4, 0x17      	MOVFF	PREINC1, r0x17
004590   f017
004592   cfe4     movff   0xfe4, 0x16      	MOVFF	PREINC1, r0x16
004594   f016
004596   cfe4     movff   0xfe4, 0x15      	MOVFF	PREINC1, r0x15
004598   f015
00459a   cfe4     movff   0xfe4, 0x14      	MOVFF	PREINC1, r0x14
00459c   f014
00459e   cfe4     movff   0xfe4, 0x13      	MOVFF	PREINC1, r0x13
0045a0   f013
0045a2   cfe4     movff   0xfe4, 0x12      	MOVFF	PREINC1, r0x12
0045a4   f012
0045a6   cfe4     movff   0xfe4, 0x11      	MOVFF	PREINC1, r0x11
0045a8   f011
0045aa   cfe4     movff   0xfe4, 0x10      	MOVFF	PREINC1, r0x10
0045ac   f010
0045ae   cfe4     movff   0xfe4, 0xf       	MOVFF	PREINC1, r0x0f
0045b0   f00f
0045b2   cfe4     movff   0xfe4, 0xe       	MOVFF	PREINC1, r0x0e
0045b4   f00e
0045b6   cfe4     movff   0xfe4, 0xd       	MOVFF	PREINC1, r0x0d
0045b8   f00d
0045ba   cfe4     movff   0xfe4, 0xc       	MOVFF	PREINC1, r0x0c
0045bc   f00c
0045be   cfe4     movff   0xfe4, 0xb       	MOVFF	PREINC1, r0x0b
0045c0   f00b
0045c2   cfe4     movff   0xfe4, 0xa       	MOVFF	PREINC1, r0x0a
0045c4   f00a
0045c6   cfe4     movff   0xfe4, 0x9       	MOVFF	PREINC1, r0x09
0045c8   f009
0045ca   cfe4     movff   0xfe4, 0x8       	MOVFF	PREINC1, r0x08
0045cc   f008
0045ce   cfe4     movff   0xfe4, 0x7       	MOVFF	PREINC1, r0x07
0045d0   f007
0045d2   cfe4     movff   0xfe4, 0x6       	MOVFF	PREINC1, r0x06
0045d4   f006
0045d6   cfe4     movff   0xfe4, 0x5       	MOVFF	PREINC1, r0x05
0045d8   f005
0045da   cfe4     movff   0xfe4, 0x4       	MOVFF	PREINC1, r0x04
0045dc   f004
0045de   cfe4     movff   0xfe4, 0x3       	MOVFF	PREINC1, r0x03
0045e0   f003
0045e2   cfe4     movff   0xfe4, 0x2       	MOVFF	PREINC1, r0x02
0045e4   f002
0045e6   cfe4     movff   0xfe4, 0x1       	MOVFF	PREINC1, r0x01
0045e8   f001
0045ea   cfe4     movff   0xfe4, 0         	MOVFF	PREINC1, r0x00
0045ec   f000
0045ee   cfe4     movff   0xfe4, 0xfd9     	MOVFF	PREINC1, FSR2L
0045f0   ffd9
0045f2   0012     return  0                	RETURN	
                                           
                                           ; ; Starting pCode block
                                           S_main__pprinti	code
                                           _pprinti:
                                           ;	.line	112; /home/yeison/Documentos/python/apps/pinguinoIDE/x.4/p8/pinguino/core/stdio.c	static u8 pprinti(u8 **out, u32 i, u8 islong, u8 base, u8 sign, u8 width, u8 pad, u8 separator, u8 letterbase)
0045f4   cfd9     movff   0xfd9, 0xfe5     	MOVFF	FSR2L, POSTDEC1
0045f6   ffe5
0045f8   cfe1     movff   0xfe1, 0xfd9     	MOVFF	FSR1L, FSR2L
0045fa   ffd9
0045fc   c000     movff   0, 0xfe5         	MOVFF	r0x00, POSTDEC1
0045fe   ffe5
004600   c001     movff   0x1, 0xfe5       	MOVFF	r0x01, POSTDEC1
004602   ffe5
004604   c002     movff   0x2, 0xfe5       	MOVFF	r0x02, POSTDEC1
004606   ffe5
004608   c003     movff   0x3, 0xfe5       	MOVFF	r0x03, POSTDEC1
00460a   ffe5
00460c   c004     movff   0x4, 0xfe5       	MOVFF	r0x04, POSTDEC1
00460e   ffe5
004610   c005     movff   0x5, 0xfe5       	MOVFF	r0x05, POSTDEC1
004612   ffe5
004614   c006     movff   0x6, 0xfe5       	MOVFF	r0x06, POSTDEC1
004616   ffe5
004618   c007     movff   0x7, 0xfe5       	MOVFF	r0x07, POSTDEC1
00461a   ffe5
00461c   c008     movff   0x8, 0xfe5       	MOVFF	r0x08, POSTDEC1
00461e   ffe5
004620   c009     movff   0x9, 0xfe5       	MOVFF	r0x09, POSTDEC1
004622   ffe5
004624   c00a     movff   0xa, 0xfe5       	MOVFF	r0x0a, POSTDEC1
004626   ffe5
004628   c00b     movff   0xb, 0xfe5       	MOVFF	r0x0b, POSTDEC1
00462a   ffe5
00462c   c00c     movff   0xc, 0xfe5       	MOVFF	r0x0c, POSTDEC1
00462e   ffe5
004630   c00d     movff   0xd, 0xfe5       	MOVFF	r0x0d, POSTDEC1
004632   ffe5
004634   c00e     movff   0xe, 0xfe5       	MOVFF	r0x0e, POSTDEC1
004636   ffe5
004638   c00f     movff   0xf, 0xfe5       	MOVFF	r0x0f, POSTDEC1
00463a   ffe5
00463c   c010     movff   0x10, 0xfe5      	MOVFF	r0x10, POSTDEC1
00463e   ffe5
004640   c011     movff   0x11, 0xfe5      	MOVFF	r0x11, POSTDEC1
004642   ffe5
004644   c012     movff   0x12, 0xfe5      	MOVFF	r0x12, POSTDEC1
004646   ffe5
004648   c013     movff   0x13, 0xfe5      	MOVFF	r0x13, POSTDEC1
00464a   ffe5
00464c   c014     movff   0x14, 0xfe5      	MOVFF	r0x14, POSTDEC1
00464e   ffe5
004650   c015     movff   0x15, 0xfe5      	MOVFF	r0x15, POSTDEC1
004652   ffe5
004654   c016     movff   0x16, 0xfe5      	MOVFF	r0x16, POSTDEC1
004656   ffe5
004658   c017     movff   0x17, 0xfe5      	MOVFF	r0x17, POSTDEC1
00465a   ffe5
00465c   c018     movff   0x18, 0xfe5      	MOVFF	r0x18, POSTDEC1
00465e   ffe5
004660   c019     movff   0x19, 0xfe5      	MOVFF	r0x19, POSTDEC1
004662   ffe5
004664   c01a     movff   0x1a, 0xfe5      	MOVFF	r0x1a, POSTDEC1
004666   ffe5
004668   c01b     movff   0x1b, 0xfe5      	MOVFF	r0x1b, POSTDEC1
00466a   ffe5
00466c   0e02     movlw   0x2              	MOVLW	0x02
00466e   cfdb     movff   0xfdb, 0         	MOVFF	PLUSW2, r0x00
004670   f000
004672   0e03     movlw   0x3              	MOVLW	0x03
004674   cfdb     movff   0xfdb, 0x1       	MOVFF	PLUSW2, r0x01
004676   f001
004678   0e04     movlw   0x4              	MOVLW	0x04
00467a   cfdb     movff   0xfdb, 0x2       	MOVFF	PLUSW2, r0x02
00467c   f002
00467e   0e05     movlw   0x5              	MOVLW	0x05
004680   cfdb     movff   0xfdb, 0x3       	MOVFF	PLUSW2, r0x03
004682   f003
004684   0e06     movlw   0x6              	MOVLW	0x06
004686   cfdb     movff   0xfdb, 0x4       	MOVFF	PLUSW2, r0x04
004688   f004
00468a   0e07     movlw   0x7              	MOVLW	0x07
00468c   cfdb     movff   0xfdb, 0x5       	MOVFF	PLUSW2, r0x05
00468e   f005
004690   0e08     movlw   0x8              	MOVLW	0x08
004692   cfdb     movff   0xfdb, 0x6       	MOVFF	PLUSW2, r0x06
004694   f006
004696   0e09     movlw   0x9              	MOVLW	0x09
004698   cfdb     movff   0xfdb, 0x7       	MOVFF	PLUSW2, r0x07
00469a   f007
00469c   0e0a     movlw   0xa              	MOVLW	0x0a
00469e   cfdb     movff   0xfdb, 0x8       	MOVFF	PLUSW2, r0x08
0046a0   f008
0046a2   0e0b     movlw   0xb              	MOVLW	0x0b
0046a4   cfdb     movff   0xfdb, 0x9       	MOVFF	PLUSW2, r0x09
0046a6   f009
0046a8   0e0c     movlw   0xc              	MOVLW	0x0c
0046aa   cfdb     movff   0xfdb, 0xa       	MOVFF	PLUSW2, r0x0a
0046ac   f00a
0046ae   0e0d     movlw   0xd              	MOVLW	0x0d
0046b0   cfdb     movff   0xfdb, 0xb       	MOVFF	PLUSW2, r0x0b
0046b2   f00b
0046b4   0e0f     movlw   0xf              	MOVLW	0x0f
0046b6   cfdb     movff   0xfdb, 0xc       	MOVFF	PLUSW2, r0x0c
0046b8   f00c
                                           ;	.line	116; /home/yeison/Documentos/python/apps/pinguinoIDE/x.4/p8/pinguino/core/stdio.c	u8 neg = 0, pc = 0;
0046ba   6a0d     clrf    0xd, 0           	CLRF	r0x0d
0046bc   6a0e     clrf    0xe, 0           	CLRF	r0x0e
                                           ;	.line	117; /home/yeison/Documentos/python/apps/pinguinoIDE/x.4/p8/pinguino/core/stdio.c	u32 t, uns32 = i;
0046be   c003     movff   0x3, 0xf         	MOVFF	r0x03, r0x0f
0046c0   f00f
0046c2   c004     movff   0x4, 0x10        	MOVFF	r0x04, r0x10
0046c4   f010
0046c6   c005     movff   0x5, 0x11        	MOVFF	r0x05, r0x11
0046c8   f011
0046ca   c006     movff   0x6, 0x12        	MOVFF	r0x06, r0x12
0046cc   f012
                                           ;	.line	119; /home/yeison/Documentos/python/apps/pinguinoIDE/x.4/p8/pinguino/core/stdio.c	if (i == 0)
0046ce   5003     movf    0x3, 0, 0        	MOVF	r0x03, W
0046d0   1004     iorwf   0x4, 0, 0        	IORWF	r0x04, W
0046d2   1005     iorwf   0x5, 0, 0        	IORWF	r0x05, W
0046d4   1006     iorwf   0x6, 0, 0        	IORWF	r0x06, W
0046d6   e11b     bnz     0x470e           	BNZ	_00972_DS_
                                           ;	.line	121; /home/yeison/Documentos/python/apps/pinguinoIDE/x.4/p8/pinguino/core/stdio.c	buffer[0] = '0';
0046d8   0e30     movlw   0x30             	MOVLW	0x30
0046da   0103     movlb   0x3              	BANKSEL	_pprinti_buffer_1_154
0046dc   6f00     movwf   0, 0x1           	MOVWF	_pprinti_buffer_1_154, B
                                           ; removed redundant BANKSEL
                                           ;	.line	122; /home/yeison/Documentos/python/apps/pinguinoIDE/x.4/p8/pinguino/core/stdio.c	buffer[1] = '\0';
0046de   6b01     clrf    0x1, 0x1         	CLRF	(_pprinti_buffer_1_154 + 1), B
                                           ;	.line	123; /home/yeison/Documentos/python/apps/pinguinoIDE/x.4/p8/pinguino/core/stdio.c	return pprints(out, buffer, width, pad);
0046e0   500b     movf    0xb, 0, 0        	MOVF	r0x0b, W
0046e2   6ee5     movwf   0xe5, 0          	MOVWF	POSTDEC1
0046e4   500a     movf    0xa, 0, 0        	MOVF	r0x0a, W
0046e6   6ee5     movwf   0xe5, 0          	MOVWF	POSTDEC1
0046e8   0e80     movlw   0x80             	MOVLW	0x80
0046ea   6ee5     movwf   0xe5, 0          	MOVWF	POSTDEC1
0046ec   0e03     movlw   0x3              	MOVLW	HIGH(_pprinti_buffer_1_154)
0046ee   6ee5     movwf   0xe5, 0          	MOVWF	POSTDEC1
0046f0   0e00     movlw   0                	MOVLW	LOW(_pprinti_buffer_1_154)
0046f2   6ee5     movwf   0xe5, 0          	MOVWF	POSTDEC1
0046f4   5002     movf    0x2, 0, 0        	MOVF	r0x02, W
0046f6   6ee5     movwf   0xe5, 0          	MOVWF	POSTDEC1
0046f8   5001     movf    0x1, 0, 0        	MOVF	r0x01, W
0046fa   6ee5     movwf   0xe5, 0          	MOVWF	POSTDEC1
0046fc   5000     movf    0, 0, 0          	MOVF	r0x00, W
0046fe   6ee5     movwf   0xe5, 0          	MOVWF	POSTDEC1
004700   ec34     call    0x5268, 0        	CALL	_pprints
004702   f029
004704   6e13     movwf   0x13, 0          	MOVWF	r0x13
004706   0e08     movlw   0x8              	MOVLW	0x08
004708   26e1     addwf   0xe1, 0x1, 0     	ADDWF	FSR1L, F
00470a   5013     movf    0x13, 0, 0       	MOVF	r0x13, W
00470c   d0ec     bra     0x48e6           	BRA	_00993_DS_
                                           _00972_DS_:
                                           ;	.line	127; /home/yeison/Documentos/python/apps/pinguinoIDE/x.4/p8/pinguino/core/stdio.c	if  ( (sign) && (base == 10) )          // decimal signed number ?
00470e   5009     movf    0x9, 0, 0        	MOVF	r0x09, W
004710   e036     bz      0x477e           	BZ	_00980_DS_
004712   5008     movf    0x8, 0, 0        	MOVF	r0x08, W
004714   0a0a     xorlw   0xa              	XORLW	0x0a
004716   e133     bnz     0x477e           	BNZ	_00980_DS_
                                           ;	.line	129; /home/yeison/Documentos/python/apps/pinguinoIDE/x.4/p8/pinguino/core/stdio.c	if ( (islong) && ((s32)i < 0) )     // negative 32-bit ?
004718   5007     movf    0x7, 0, 0        	MOVF	r0x07, W
00471a   e01c     bz      0x4754           	BZ	_00974_DS_
00471c   5003     movf    0x3, 0, 0        	MOVF	r0x03, W
00471e   6e09     movwf   0x9, 0           	MOVWF	r0x09
004720   5004     movf    0x4, 0, 0        	MOVF	r0x04, W
004722   6e13     movwf   0x13, 0          	MOVWF	r0x13
004724   5005     movf    0x5, 0, 0        	MOVF	r0x05, W
004726   6e14     movwf   0x14, 0          	MOVWF	r0x14
004728   5006     movf    0x6, 0, 0        	MOVF	r0x06, W
00472a   6e15     movwf   0x15, 0          	MOVWF	r0x15
00472c   80d8     bsf     0xd8, 0, 0       	BSF	STATUS, 0
00472e   ae15     btfss   0x15, 0x7, 0     	BTFSS	r0x15, 7
004730   90d8     bcf     0xd8, 0, 0       	BCF	STATUS, 0
004732   e310     bnc     0x4754           	BNC	_00974_DS_
                                           ;	.line	131; /home/yeison/Documentos/python/apps/pinguinoIDE/x.4/p8/pinguino/core/stdio.c	neg = 1;
004734   0e01     movlw   0x1              	MOVLW	0x01
004736   6e0d     movwf   0xd, 0           	MOVWF	r0x0d
                                           ;	.line	132; /home/yeison/Documentos/python/apps/pinguinoIDE/x.4/p8/pinguino/core/stdio.c	uns32 = - (s32)i;
004738   1c15     comf    0x15, 0, 0       	COMF	r0x15, W
00473a   6e12     movwf   0x12, 0          	MOVWF	r0x12
00473c   1c14     comf    0x14, 0, 0       	COMF	r0x14, W
00473e   6e11     movwf   0x11, 0          	MOVWF	r0x11
004740   1c13     comf    0x13, 0, 0       	COMF	r0x13, W
004742   6e10     movwf   0x10, 0          	MOVWF	r0x10
004744   1c09     comf    0x9, 0, 0        	COMF	r0x09, W
004746   6e0f     movwf   0xf, 0           	MOVWF	r0x0f
004748   2a0f     incf    0xf, 0x1, 0      	INCF	r0x0f, F
00474a   e104     bnz     0x4754           	BNZ	_00974_DS_
00474c   2a10     incf    0x10, 0x1, 0     	INCF	r0x10, F
00474e   e102     bnz     0x4754           	BNZ	_00974_DS_
004750   4a11     infsnz  0x11, 0x1, 0     	INFSNZ	r0x11, F
004752   2a12     incf    0x12, 0x1, 0     	INCF	r0x12, F
                                           _00974_DS_:
                                           ;	.line	134; /home/yeison/Documentos/python/apps/pinguinoIDE/x.4/p8/pinguino/core/stdio.c	if ( (!islong) && ((s16)i < 0) )    // negative 16-bit ?
004754   5007     movf    0x7, 0, 0        	MOVF	r0x07, W
004756   e113     bnz     0x477e           	BNZ	_00980_DS_
004758   80d8     bsf     0xd8, 0, 0       	BSF	STATUS, 0
00475a   ae04     btfss   0x4, 0x7, 0      	BTFSS	r0x04, 7
00475c   90d8     bcf     0xd8, 0, 0       	BCF	STATUS, 0
00475e   e30f     bnc     0x477e           	BNC	_00980_DS_
                                           ;	.line	136; /home/yeison/Documentos/python/apps/pinguinoIDE/x.4/p8/pinguino/core/stdio.c	neg = 1;
004760   0e01     movlw   0x1              	MOVLW	0x01
004762   6e0d     movwf   0xd, 0           	MOVWF	r0x0d
                                           ;	.line	137; /home/yeison/Documentos/python/apps/pinguinoIDE/x.4/p8/pinguino/core/stdio.c	uns32 = - (s16)i;
004764   1e04     comf    0x4, 0x1, 0      	COMF	r0x04, F
004766   6c03     negf    0x3, 0           	NEGF	r0x03
004768   b4d8     btfsc   0xd8, 0x2, 0     	BTFSC	STATUS, 2
00476a   2a04     incf    0x4, 0x1, 0      	INCF	r0x04, F
00476c   c003     movff   0x3, 0xf         	MOVFF	r0x03, r0x0f
00476e   f00f
004770   c004     movff   0x4, 0x10        	MOVFF	r0x04, r0x10
004772   f010
004774   6ae8     clrf    0xe8, 0          	CLRF	WREG
004776   be04     btfsc   0x4, 0x7, 0      	BTFSC	r0x04, 7
004778   0eff     movlw   0xff             	MOVLW	0xff
00477a   6e11     movwf   0x11, 0          	MOVWF	r0x11
00477c   6e12     movwf   0x12, 0          	MOVWF	r0x12
                                           _00980_DS_:
                                           ;	.line	142; /home/yeison/Documentos/python/apps/pinguinoIDE/x.4/p8/pinguino/core/stdio.c	string = buffer + PRINT_BUF_LEN - 1;
00477e   0e03     movlw   0x3              	MOVLW	HIGH(_pprinti_buffer_1_154 + 11)
004780   6e04     movwf   0x4, 0           	MOVWF	r0x04
004782   0e0b     movlw   0xb              	MOVLW	LOW(_pprinti_buffer_1_154 + 11)
004784   6e03     movwf   0x3, 0           	MOVWF	r0x03
004786   0e80     movlw   0x80             	MOVLW	0x80
004788   6e05     movwf   0x5, 0           	MOVWF	r0x05
                                           ;	.line	143; /home/yeison/Documentos/python/apps/pinguinoIDE/x.4/p8/pinguino/core/stdio.c	*string = '\0';
00478a   6ae5     clrf    0xe5, 0          	CLRF	POSTDEC1
00478c   c003     movff   0x3, 0xfe9       	MOVFF	r0x03, FSR0L
00478e   ffe9
004790   c004     movff   0x4, 0xff3       	MOVFF	r0x04, PRODL
004792   fff3
004794   ec31     call    0x62, 0          	CALL	__gptrput1
004796   f000
                                           ;	.line	145; /home/yeison/Documentos/python/apps/pinguinoIDE/x.4/p8/pinguino/core/stdio.c	while (uns32)
004798   c003     movff   0x3, 0x6         	MOVFF	r0x03, r0x06
00479a   f006
00479c   c004     movff   0x4, 0x7         	MOVFF	r0x04, r0x07
00479e   f007
0047a0   c005     movff   0x5, 0x9         	MOVFF	r0x05, r0x09
0047a2   f009
                                           _00984_DS_:
0047a4   500f     movf    0xf, 0, 0        	MOVF	r0x0f, W
0047a6   1010     iorwf   0x10, 0, 0       	IORWF	r0x10, W
0047a8   1011     iorwf   0x11, 0, 0       	IORWF	r0x11, W
0047aa   1012     iorwf   0x12, 0, 0       	IORWF	r0x12, W
0047ac   b4d8     btfsc   0xd8, 0x2, 0     	BTFSC	STATUS, 2
0047ae   d05a     bra     0x4864           	BRA	_01008_DS_
                                           ;	.line	147; /home/yeison/Documentos/python/apps/pinguinoIDE/x.4/p8/pinguino/core/stdio.c	t = uns32 % base;
0047b0   c008     movff   0x8, 0x13        	MOVFF	r0x08, r0x13
0047b2   f013
0047b4   6a14     clrf    0x14, 0          	CLRF	r0x14
0047b6   6a15     clrf    0x15, 0          	CLRF	r0x15
0047b8   6a16     clrf    0x16, 0          	CLRF	r0x16
0047ba   6ae5     clrf    0xe5, 0          	CLRF	POSTDEC1
0047bc   6ae5     clrf    0xe5, 0          	CLRF	POSTDEC1
0047be   6ae5     clrf    0xe5, 0          	CLRF	POSTDEC1
0047c0   5013     movf    0x13, 0, 0       	MOVF	r0x13, W
0047c2   6ee5     movwf   0xe5, 0          	MOVWF	POSTDEC1
0047c4   5012     movf    0x12, 0, 0       	MOVF	r0x12, W
0047c6   6ee5     movwf   0xe5, 0          	MOVWF	POSTDEC1
0047c8   5011     movf    0x11, 0, 0       	MOVF	r0x11, W
0047ca   6ee5     movwf   0xe5, 0          	MOVWF	POSTDEC1
0047cc   5010     movf    0x10, 0, 0       	MOVF	r0x10, W
0047ce   6ee5     movwf   0xe5, 0          	MOVWF	POSTDEC1
0047d0   500f     movf    0xf, 0, 0        	MOVF	r0x0f, W
0047d2   6ee5     movwf   0xe5, 0          	MOVWF	POSTDEC1
0047d4   ecd0     call    0x59a0, 0        	CALL	__modulong
0047d6   f02c
0047d8   6e17     movwf   0x17, 0          	MOVWF	r0x17
0047da   cff3     movff   0xff3, 0x18      	MOVFF	PRODL, r0x18
0047dc   f018
0047de   cff4     movff   0xff4, 0x19      	MOVFF	PRODH, r0x19
0047e0   f019
0047e2   cfe9     movff   0xfe9, 0x1a      	MOVFF	FSR0L, r0x1a
0047e4   f01a
0047e6   0e08     movlw   0x8              	MOVLW	0x08
0047e8   26e1     addwf   0xe1, 0x1, 0     	ADDWF	FSR1L, F
                                           ;	.line	148; /home/yeison/Documentos/python/apps/pinguinoIDE/x.4/p8/pinguino/core/stdio.c	if ( t >= 10 )
0047ea   0e00     movlw   0                	MOVLW	0x00
0047ec   5c1a     subwf   0x1a, 0, 0       	SUBWF	r0x1a, W
0047ee   e108     bnz     0x4800           	BNZ	_01039_DS_
0047f0   0e00     movlw   0                	MOVLW	0x00
0047f2   5c19     subwf   0x19, 0, 0       	SUBWF	r0x19, W
0047f4   e105     bnz     0x4800           	BNZ	_01039_DS_
0047f6   0e00     movlw   0                	MOVLW	0x00
0047f8   5c18     subwf   0x18, 0, 0       	SUBWF	r0x18, W
0047fa   e102     bnz     0x4800           	BNZ	_01039_DS_
0047fc   0e0a     movlw   0xa              	MOVLW	0x0a
0047fe   5c17     subwf   0x17, 0, 0       	SUBWF	r0x17, W
                                           _01039_DS_:
004800   e306     bnc     0x480e           	BNC	_00983_DS_
                                           ;	.line	149; /home/yeison/Documentos/python/apps/pinguinoIDE/x.4/p8/pinguino/core/stdio.c	t += letterbase - '0' - 10;
004802   c00c     movff   0xc, 0x1b        	MOVFF	r0x0c, r0x1b
004804   f01b
004806   0ec6     movlw   0xc6             	MOVLW	0xc6
004808   261b     addwf   0x1b, 0x1, 0     	ADDWF	r0x1b, F
00480a   501b     movf    0x1b, 0, 0       	MOVF	r0x1b, W
00480c   2617     addwf   0x17, 0x1, 0     	ADDWF	r0x17, F
                                           _00983_DS_:
                                           ;	.line	150; /home/yeison/Documentos/python/apps/pinguinoIDE/x.4/p8/pinguino/core/stdio.c	*--string = t + '0';
00480e   0eff     movlw   0xff             	MOVLW	0xff
004810   2606     addwf   0x6, 0x1, 0      	ADDWF	r0x06, F
004812   2207     addwfc  0x7, 0x1, 0      	ADDWFC	r0x07, F
004814   2209     addwfc  0x9, 0x1, 0      	ADDWFC	r0x09, F
004816   0e30     movlw   0x30             	MOVLW	0x30
004818   2617     addwf   0x17, 0x1, 0     	ADDWF	r0x17, F
00481a   c017     movff   0x17, 0xfe5      	MOVFF	r0x17, POSTDEC1
00481c   ffe5
00481e   c006     movff   0x6, 0xfe9       	MOVFF	r0x06, FSR0L
004820   ffe9
004822   c007     movff   0x7, 0xff3       	MOVFF	r0x07, PRODL
004824   fff3
004826   5009     movf    0x9, 0, 0        	MOVF	r0x09, W
004828   ec31     call    0x62, 0          	CALL	__gptrput1
00482a   f000
                                           ;	.line	151; /home/yeison/Documentos/python/apps/pinguinoIDE/x.4/p8/pinguino/core/stdio.c	uns32 /= base;
00482c   5016     movf    0x16, 0, 0       	MOVF	r0x16, W
00482e   6ee5     movwf   0xe5, 0          	MOVWF	POSTDEC1
004830   5015     movf    0x15, 0, 0       	MOVF	r0x15, W
004832   6ee5     movwf   0xe5, 0          	MOVWF	POSTDEC1
004834   5014     movf    0x14, 0, 0       	MOVF	r0x14, W
004836   6ee5     movwf   0xe5, 0          	MOVWF	POSTDEC1
004838   5013     movf    0x13, 0, 0       	MOVF	r0x13, W
00483a   6ee5     movwf   0xe5, 0          	MOVWF	POSTDEC1
00483c   5012     movf    0x12, 0, 0       	MOVF	r0x12, W
00483e   6ee5     movwf   0xe5, 0          	MOVWF	POSTDEC1
004840   5011     movf    0x11, 0, 0       	MOVF	r0x11, W
004842   6ee5     movwf   0xe5, 0          	MOVWF	POSTDEC1
004844   5010     movf    0x10, 0, 0       	MOVF	r0x10, W
004846   6ee5     movwf   0xe5, 0          	MOVWF	POSTDEC1
004848   500f     movf    0xf, 0, 0        	MOVF	r0x0f, W
00484a   6ee5     movwf   0xe5, 0          	MOVWF	POSTDEC1
00484c   ec80     call    0x5d00, 0        	CALL	__divulong
00484e   f02e
004850   6e0f     movwf   0xf, 0           	MOVWF	r0x0f
004852   cff3     movff   0xff3, 0x10      	MOVFF	PRODL, r0x10
004854   f010
004856   cff4     movff   0xff4, 0x11      	MOVFF	PRODH, r0x11
004858   f011
00485a   cfe9     movff   0xfe9, 0x12      	MOVFF	FSR0L, r0x12
00485c   f012
00485e   0e08     movlw   0x8              	MOVLW	0x08
004860   26e1     addwf   0xe1, 0x1, 0     	ADDWF	FSR1L, F
004862   d7a0     bra     0x47a4           	BRA	_00984_DS_
                                           _01008_DS_:
004864   c006     movff   0x6, 0x3         	MOVFF	r0x06, r0x03
004866   f003
004868   c007     movff   0x7, 0x4         	MOVFF	r0x07, r0x04
00486a   f004
00486c   c009     movff   0x9, 0x5         	MOVFF	r0x09, r0x05
00486e   f005
                                           ;	.line	154; /home/yeison/Documentos/python/apps/pinguinoIDE/x.4/p8/pinguino/core/stdio.c	if (neg)
004870   500d     movf    0xd, 0, 0        	MOVF	r0x0d, W
004872   e021     bz      0x48b6           	BZ	_00992_DS_
                                           ;	.line	156; /home/yeison/Documentos/python/apps/pinguinoIDE/x.4/p8/pinguino/core/stdio.c	if (width && (pad & PAD_ZERO))
004874   500a     movf    0xa, 0, 0        	MOVF	r0x0a, W
004876   e012     bz      0x489c           	BZ	_00988_DS_
004878   a20b     btfss   0xb, 0x1, 0      	BTFSS	r0x0b, 1
00487a   d010     bra     0x489c           	BRA	_00988_DS_
                                           ;	.line	158; /home/yeison/Documentos/python/apps/pinguinoIDE/x.4/p8/pinguino/core/stdio.c	pprintc(out, '-');
00487c   0e2d     movlw   0x2d             	MOVLW	0x2d
00487e   6ee5     movwf   0xe5, 0          	MOVWF	POSTDEC1
004880   5002     movf    0x2, 0, 0        	MOVF	r0x02, W
004882   6ee5     movwf   0xe5, 0          	MOVWF	POSTDEC1
004884   5001     movf    0x1, 0, 0        	MOVF	r0x01, W
004886   6ee5     movwf   0xe5, 0          	MOVWF	POSTDEC1
004888   5000     movf    0, 0, 0          	MOVF	r0x00, W
00488a   6ee5     movwf   0xe5, 0          	MOVWF	POSTDEC1
00488c   ec2a     call    0x6254, 0        	CALL	_pprintc
00488e   f031
004890   0e04     movlw   0x4              	MOVLW	0x04
004892   26e1     addwf   0xe1, 0x1, 0     	ADDWF	FSR1L, F
                                           ;	.line	159; /home/yeison/Documentos/python/apps/pinguinoIDE/x.4/p8/pinguino/core/stdio.c	++pc;
004894   0e01     movlw   0x1              	MOVLW	0x01
004896   6e0e     movwf   0xe, 0           	MOVWF	r0x0e
                                           ;	.line	160; /home/yeison/Documentos/python/apps/pinguinoIDE/x.4/p8/pinguino/core/stdio.c	--width;
004898   060a     decf    0xa, 0x1, 0      	DECF	r0x0a, F
00489a   d00d     bra     0x48b6           	BRA	_00992_DS_
                                           _00988_DS_:
                                           ;	.line	164; /home/yeison/Documentos/python/apps/pinguinoIDE/x.4/p8/pinguino/core/stdio.c	*--string = '-';
00489c   0eff     movlw   0xff             	MOVLW	0xff
00489e   2603     addwf   0x3, 0x1, 0      	ADDWF	r0x03, F
0048a0   2204     addwfc  0x4, 0x1, 0      	ADDWFC	r0x04, F
0048a2   2205     addwfc  0x5, 0x1, 0      	ADDWFC	r0x05, F
0048a4   0e2d     movlw   0x2d             	MOVLW	0x2d
0048a6   6ee5     movwf   0xe5, 0          	MOVWF	POSTDEC1
0048a8   c003     movff   0x3, 0xfe9       	MOVFF	r0x03, FSR0L
0048aa   ffe9
0048ac   c004     movff   0x4, 0xff3       	MOVFF	r0x04, PRODL
0048ae   fff3
0048b0   5005     movf    0x5, 0, 0        	MOVF	r0x05, W
0048b2   ec31     call    0x62, 0          	CALL	__gptrput1
0048b4   f000
                                           _00992_DS_:
                                           ;	.line	168; /home/yeison/Documentos/python/apps/pinguinoIDE/x.4/p8/pinguino/core/stdio.c	return pc + pprints(out, string, width, pad);
0048b6   500b     movf    0xb, 0, 0        	MOVF	r0x0b, W
0048b8   6ee5     movwf   0xe5, 0          	MOVWF	POSTDEC1
0048ba   500a     movf    0xa, 0, 0        	MOVF	r0x0a, W
0048bc   6ee5     movwf   0xe5, 0          	MOVWF	POSTDEC1
0048be   5005     movf    0x5, 0, 0        	MOVF	r0x05, W
0048c0   6ee5     movwf   0xe5, 0          	MOVWF	POSTDEC1
0048c2   5004     movf    0x4, 0, 0        	MOVF	r0x04, W
0048c4   6ee5     movwf   0xe5, 0          	MOVWF	POSTDEC1
0048c6   5003     movf    0x3, 0, 0        	MOVF	r0x03, W
0048c8   6ee5     movwf   0xe5, 0          	MOVWF	POSTDEC1
0048ca   5002     movf    0x2, 0, 0        	MOVF	r0x02, W
0048cc   6ee5     movwf   0xe5, 0          	MOVWF	POSTDEC1
0048ce   5001     movf    0x1, 0, 0        	MOVF	r0x01, W
0048d0   6ee5     movwf   0xe5, 0          	MOVWF	POSTDEC1
0048d2   5000     movf    0, 0, 0          	MOVF	r0x00, W
0048d4   6ee5     movwf   0xe5, 0          	MOVWF	POSTDEC1
0048d6   ec34     call    0x5268, 0        	CALL	_pprints
0048d8   f029
0048da   6e00     movwf   0, 0             	MOVWF	r0x00
0048dc   0e08     movlw   0x8              	MOVLW	0x08
0048de   26e1     addwf   0xe1, 0x1, 0     	ADDWF	FSR1L, F
0048e0   500e     movf    0xe, 0, 0        	MOVF	r0x0e, W
0048e2   2600     addwf   0, 0x1, 0        	ADDWF	r0x00, F
0048e4   5000     movf    0, 0, 0          	MOVF	r0x00, W
                                           _00993_DS_:
0048e6   cfe4     movff   0xfe4, 0x1b      	MOVFF	PREINC1, r0x1b
0048e8   f01b
0048ea   cfe4     movff   0xfe4, 0x1a      	MOVFF	PREINC1, r0x1a
0048ec   f01a
0048ee   cfe4     movff   0xfe4, 0x19      	MOVFF	PREINC1, r0x19
0048f0   f019
0048f2   cfe4     movff   0xfe4, 0x18      	MOVFF	PREINC1, r0x18
0048f4   f018
0048f6   cfe4     movff   0xfe4, 0x17      	MOVFF	PREINC1, r0x17
0048f8   f017
0048fa   cfe4     movff   0xfe4, 0x16      	MOVFF	PREINC1, r0x16
0048fc   f016
0048fe   cfe4     movff   0xfe4, 0x15      	MOVFF	PREINC1, r0x15
004900   f015
004902   cfe4     movff   0xfe4, 0x14      	MOVFF	PREINC1, r0x14
004904   f014
004906   cfe4     movff   0xfe4, 0x13      	MOVFF	PREINC1, r0x13
004908   f013
00490a   cfe4     movff   0xfe4, 0x12      	MOVFF	PREINC1, r0x12
00490c   f012
00490e   cfe4     movff   0xfe4, 0x11      	MOVFF	PREINC1, r0x11
004910   f011
004912   cfe4     movff   0xfe4, 0x10      	MOVFF	PREINC1, r0x10
004914   f010
004916   cfe4     movff   0xfe4, 0xf       	MOVFF	PREINC1, r0x0f
004918   f00f
00491a   cfe4     movff   0xfe4, 0xe       	MOVFF	PREINC1, r0x0e
00491c   f00e
00491e   cfe4     movff   0xfe4, 0xd       	MOVFF	PREINC1, r0x0d
004920   f00d
004922   cfe4     movff   0xfe4, 0xc       	MOVFF	PREINC1, r0x0c
004924   f00c
004926   cfe4     movff   0xfe4, 0xb       	MOVFF	PREINC1, r0x0b
004928   f00b
00492a   cfe4     movff   0xfe4, 0xa       	MOVFF	PREINC1, r0x0a
00492c   f00a
00492e   cfe4     movff   0xfe4, 0x9       	MOVFF	PREINC1, r0x09
004930   f009
004932   cfe4     movff   0xfe4, 0x8       	MOVFF	PREINC1, r0x08
004934   f008
004936   cfe4     movff   0xfe4, 0x7       	MOVFF	PREINC1, r0x07
004938   f007
00493a   cfe4     movff   0xfe4, 0x6       	MOVFF	PREINC1, r0x06
00493c   f006
00493e   cfe4     movff   0xfe4, 0x5       	MOVFF	PREINC1, r0x05
004940   f005
004942   cfe4     movff   0xfe4, 0x4       	MOVFF	PREINC1, r0x04
004944   f004
004946   cfe4     movff   0xfe4, 0x3       	MOVFF	PREINC1, r0x03
004948   f003
00494a   cfe4     movff   0xfe4, 0x2       	MOVFF	PREINC1, r0x02
00494c   f002
00494e   cfe4     movff   0xfe4, 0x1       	MOVFF	PREINC1, r0x01
004950   f001
004952   cfe4     movff   0xfe4, 0         	MOVFF	PREINC1, r0x00
004954   f000
004956   cfe4     movff   0xfe4, 0xfd9     	MOVFF	PREINC1, FSR2L
004958   ffd9
00495a   0012     return  0                	RETURN	
                                           
                                           ; ; Starting pCode block
                                           S_main__pprints	code
                                           _pprints:
                                           ;	.line	62; /home/yeison/Documentos/python/apps/pinguinoIDE/x.4/p8/pinguino/core/stdio.c	static int pprints(u8 **out, const u8 *string, u8 width, u8 pad)
005268   cfd9     movff   0xfd9, 0xfe5     	MOVFF	FSR2L, POSTDEC1
00526a   ffe5
00526c   cfe1     movff   0xfe1, 0xfd9     	MOVFF	FSR1L, FSR2L
00526e   ffd9
005270   c000     movff   0, 0xfe5         	MOVFF	r0x00, POSTDEC1
005272   ffe5
005274   c001     movff   0x1, 0xfe5       	MOVFF	r0x01, POSTDEC1
005276   ffe5
005278   c002     movff   0x2, 0xfe5       	MOVFF	r0x02, POSTDEC1
00527a   ffe5
00527c   c003     movff   0x3, 0xfe5       	MOVFF	r0x03, POSTDEC1
00527e   ffe5
005280   c004     movff   0x4, 0xfe5       	MOVFF	r0x04, POSTDEC1
005282   ffe5
005284   c005     movff   0x5, 0xfe5       	MOVFF	r0x05, POSTDEC1
005286   ffe5
005288   c006     movff   0x6, 0xfe5       	MOVFF	r0x06, POSTDEC1
00528a   ffe5
00528c   c007     movff   0x7, 0xfe5       	MOVFF	r0x07, POSTDEC1
00528e   ffe5
005290   c008     movff   0x8, 0xfe5       	MOVFF	r0x08, POSTDEC1
005292   ffe5
005294   c009     movff   0x9, 0xfe5       	MOVFF	r0x09, POSTDEC1
005296   ffe5
005298   c00a     movff   0xa, 0xfe5       	MOVFF	r0x0a, POSTDEC1
00529a   ffe5
00529c   c00b     movff   0xb, 0xfe5       	MOVFF	r0x0b, POSTDEC1
00529e   ffe5
0052a0   c00c     movff   0xc, 0xfe5       	MOVFF	r0x0c, POSTDEC1
0052a2   ffe5
0052a4   c00d     movff   0xd, 0xfe5       	MOVFF	r0x0d, POSTDEC1
0052a6   ffe5
0052a8   c00e     movff   0xe, 0xfe5       	MOVFF	r0x0e, POSTDEC1
0052aa   ffe5
0052ac   0e02     movlw   0x2              	MOVLW	0x02
0052ae   cfdb     movff   0xfdb, 0         	MOVFF	PLUSW2, r0x00
0052b0   f000
0052b2   0e03     movlw   0x3              	MOVLW	0x03
0052b4   cfdb     movff   0xfdb, 0x1       	MOVFF	PLUSW2, r0x01
0052b6   f001
0052b8   0e04     movlw   0x4              	MOVLW	0x04
0052ba   cfdb     movff   0xfdb, 0x2       	MOVFF	PLUSW2, r0x02
0052bc   f002
0052be   0e05     movlw   0x5              	MOVLW	0x05
0052c0   cfdb     movff   0xfdb, 0x3       	MOVFF	PLUSW2, r0x03
0052c2   f003
0052c4   0e06     movlw   0x6              	MOVLW	0x06
0052c6   cfdb     movff   0xfdb, 0x4       	MOVFF	PLUSW2, r0x04
0052c8   f004
0052ca   0e07     movlw   0x7              	MOVLW	0x07
0052cc   cfdb     movff   0xfdb, 0x5       	MOVFF	PLUSW2, r0x05
0052ce   f005
0052d0   0e08     movlw   0x8              	MOVLW	0x08
0052d2   cfdb     movff   0xfdb, 0x6       	MOVFF	PLUSW2, r0x06
0052d4   f006
0052d6   0e09     movlw   0x9              	MOVLW	0x09
0052d8   cfdb     movff   0xfdb, 0x7       	MOVFF	PLUSW2, r0x07
0052da   f007
                                           ;	.line	64; /home/yeison/Documentos/python/apps/pinguinoIDE/x.4/p8/pinguino/core/stdio.c	register u8 pc = 0;
0052dc   6a08     clrf    0x8, 0           	CLRF	r0x08
                                           ;	.line	65; /home/yeison/Documentos/python/apps/pinguinoIDE/x.4/p8/pinguino/core/stdio.c	u8 padchar = ' ';
0052de   0e20     movlw   0x20             	MOVLW	0x20
0052e0   6e09     movwf   0x9, 0           	MOVWF	r0x09
                                           ;	.line	69; /home/yeison/Documentos/python/apps/pinguinoIDE/x.4/p8/pinguino/core/stdio.c	if (width > 0)
0052e2   5006     movf    0x6, 0, 0        	MOVF	r0x06, W
0052e4   e022     bz      0x532a           	BZ	_00899_DS_
                                           ;	.line	71; /home/yeison/Documentos/python/apps/pinguinoIDE/x.4/p8/pinguino/core/stdio.c	for (ptr = string; *ptr; ++ptr)
0052e6   6a0a     clrf    0xa, 0           	CLRF	r0x0a
0052e8   c003     movff   0x3, 0xb         	MOVFF	r0x03, r0x0b
0052ea   f00b
0052ec   c004     movff   0x4, 0xc         	MOVFF	r0x04, r0x0c
0052ee   f00c
0052f0   c005     movff   0x5, 0xd         	MOVFF	r0x05, r0x0d
0052f2   f00d
                                           _00906_DS_:
0052f4   c00b     movff   0xb, 0xfe9       	MOVFF	r0x0b, FSR0L
0052f6   ffe9
0052f8   c00c     movff   0xc, 0xff3       	MOVFF	r0x0c, PRODL
0052fa   fff3
0052fc   500d     movf    0xd, 0, 0        	MOVF	r0x0d, W
0052fe   ec29     call    0x52, 0          	CALL	__gptrget1
005300   f000
005302   6e0e     movwf   0xe, 0           	MOVWF	r0x0e
005304   500e     movf    0xe, 0, 0        	MOVF	r0x0e, W
005306   e006     bz      0x5314           	BZ	_00892_DS_
                                           ;	.line	72; /home/yeison/Documentos/python/apps/pinguinoIDE/x.4/p8/pinguino/core/stdio.c	++len;
005308   2a0a     incf    0xa, 0x1, 0      	INCF	r0x0a, F
                                           ;	.line	71; /home/yeison/Documentos/python/apps/pinguinoIDE/x.4/p8/pinguino/core/stdio.c	for (ptr = string; *ptr; ++ptr)
00530a   2a0b     incf    0xb, 0x1, 0      	INCF	r0x0b, F
00530c   e3f3     bnc     0x52f4           	BNC	_00906_DS_
00530e   4a0c     infsnz  0xc, 0x1, 0      	INFSNZ	r0x0c, F
005310   2a0d     incf    0xd, 0x1, 0      	INCF	r0x0d, F
                                           _00962_DS_:
005312   d7f0     bra     0x52f4           	BRA	_00906_DS_
                                           _00892_DS_:
                                           ;	.line	73; /home/yeison/Documentos/python/apps/pinguinoIDE/x.4/p8/pinguino/core/stdio.c	if (len >= width)
005314   5006     movf    0x6, 0, 0        	MOVF	r0x06, W
005316   5c0a     subwf   0xa, 0, 0        	SUBWF	r0x0a, W
005318   e302     bnc     0x531e           	BNC	_00894_DS_
                                           ;	.line	74; /home/yeison/Documentos/python/apps/pinguinoIDE/x.4/p8/pinguino/core/stdio.c	width = 0;
00531a   6a06     clrf    0x6, 0           	CLRF	r0x06
00531c   d002     bra     0x5322           	BRA	_00895_DS_
                                           _00894_DS_:
                                           ;	.line	76; /home/yeison/Documentos/python/apps/pinguinoIDE/x.4/p8/pinguino/core/stdio.c	width -= len;
00531e   500a     movf    0xa, 0, 0        	MOVF	r0x0a, W
005320   5e06     subwf   0x6, 0x1, 0      	SUBWF	r0x06, F
                                           _00895_DS_:
                                           ;	.line	77; /home/yeison/Documentos/python/apps/pinguinoIDE/x.4/p8/pinguino/core/stdio.c	if (pad & PAD_ZERO) padchar = '0';
005322   a207     btfss   0x7, 0x1, 0      	BTFSS	r0x07, 1
005324   d002     bra     0x532a           	BRA	_00899_DS_
005326   0e30     movlw   0x30             	MOVLW	0x30
005328   6e09     movwf   0x9, 0           	MOVWF	r0x09
                                           _00899_DS_:
                                           ;	.line	79; /home/yeison/Documentos/python/apps/pinguinoIDE/x.4/p8/pinguino/core/stdio.c	if (!(pad & PAD_RIGHT))
00532a   b007     btfsc   0x7, 0, 0        	BTFSC	r0x07, 0
00532c   d019     bra     0x5360           	BRA	_00931_DS_
00532e   6a07     clrf    0x7, 0           	CLRF	r0x07
005330   c006     movff   0x6, 0xa         	MOVFF	r0x06, r0x0a
005332   f00a
                                           _00909_DS_:
                                           ;	.line	81; /home/yeison/Documentos/python/apps/pinguinoIDE/x.4/p8/pinguino/core/stdio.c	for ( ; width > 0; --width)
005334   500a     movf    0xa, 0, 0        	MOVF	r0x0a, W
005336   e105     bnz     0x5342           	BNZ	_00908_DS_
005338   c007     movff   0x7, 0x8         	MOVFF	r0x07, r0x08
00533a   f008
00533c   c00a     movff   0xa, 0x6         	MOVFF	r0x0a, r0x06
00533e   f006
005340   d00f     bra     0x5360           	BRA	_00931_DS_
                                           _00908_DS_:
                                           ;	.line	83; /home/yeison/Documentos/python/apps/pinguinoIDE/x.4/p8/pinguino/core/stdio.c	pprintc(out, padchar);
005342   5009     movf    0x9, 0, 0        	MOVF	r0x09, W
005344   6ee5     movwf   0xe5, 0          	MOVWF	POSTDEC1
005346   5002     movf    0x2, 0, 0        	MOVF	r0x02, W
005348   6ee5     movwf   0xe5, 0          	MOVWF	POSTDEC1
00534a   5001     movf    0x1, 0, 0        	MOVF	r0x01, W
00534c   6ee5     movwf   0xe5, 0          	MOVWF	POSTDEC1
00534e   5000     movf    0, 0, 0          	MOVF	r0x00, W
005350   6ee5     movwf   0xe5, 0          	MOVWF	POSTDEC1
005352   ec2a     call    0x6254, 0        	CALL	_pprintc
005354   f031
005356   0e04     movlw   0x4              	MOVLW	0x04
005358   26e1     addwf   0xe1, 0x1, 0     	ADDWF	FSR1L, F
                                           ;	.line	84; /home/yeison/Documentos/python/apps/pinguinoIDE/x.4/p8/pinguino/core/stdio.c	++pc;
00535a   2a07     incf    0x7, 0x1, 0      	INCF	r0x07, F
                                           ;	.line	81; /home/yeison/Documentos/python/apps/pinguinoIDE/x.4/p8/pinguino/core/stdio.c	for ( ; width > 0; --width)
00535c   060a     decf    0xa, 0x1, 0      	DECF	r0x0a, F
00535e   d7ea     bra     0x5334           	BRA	_00909_DS_
                                           _00931_DS_:
005360   c008     movff   0x8, 0x7         	MOVFF	r0x08, r0x07
005362   f007
                                           _00912_DS_:
                                           ;	.line	87; /home/yeison/Documentos/python/apps/pinguinoIDE/x.4/p8/pinguino/core/stdio.c	for ( ; *string ; ++string)
005364   c003     movff   0x3, 0xfe9       	MOVFF	r0x03, FSR0L
005366   ffe9
005368   c004     movff   0x4, 0xff3       	MOVFF	r0x04, PRODL
00536a   fff3
00536c   5005     movf    0x5, 0, 0        	MOVF	r0x05, W
00536e   ec29     call    0x52, 0          	CALL	__gptrget1
005370   f000
005372   6e08     movwf   0x8, 0           	MOVWF	r0x08
005374   5008     movf    0x8, 0, 0        	MOVF	r0x08, W
005376   e012     bz      0x539c           	BZ	_00933_DS_
                                           ;	.line	89; /home/yeison/Documentos/python/apps/pinguinoIDE/x.4/p8/pinguino/core/stdio.c	pprintc(out, *string);
005378   5008     movf    0x8, 0, 0        	MOVF	r0x08, W
00537a   6ee5     movwf   0xe5, 0          	MOVWF	POSTDEC1
00537c   5002     movf    0x2, 0, 0        	MOVF	r0x02, W
00537e   6ee5     movwf   0xe5, 0          	MOVWF	POSTDEC1
005380   5001     movf    0x1, 0, 0        	MOVF	r0x01, W
005382   6ee5     movwf   0xe5, 0          	MOVWF	POSTDEC1
005384   5000     movf    0, 0, 0          	MOVF	r0x00, W
005386   6ee5     movwf   0xe5, 0          	MOVWF	POSTDEC1
005388   ec2a     call    0x6254, 0        	CALL	_pprintc
00538a   f031
00538c   0e04     movlw   0x4              	MOVLW	0x04
00538e   26e1     addwf   0xe1, 0x1, 0     	ADDWF	FSR1L, F
                                           ;	.line	90; /home/yeison/Documentos/python/apps/pinguinoIDE/x.4/p8/pinguino/core/stdio.c	++pc;
005390   2a07     incf    0x7, 0x1, 0      	INCF	r0x07, F
                                           ;	.line	87; /home/yeison/Documentos/python/apps/pinguinoIDE/x.4/p8/pinguino/core/stdio.c	for ( ; *string ; ++string)
005392   2a03     incf    0x3, 0x1, 0      	INCF	r0x03, F
005394   e3e7     bnc     0x5364           	BNC	_00912_DS_
005396   4a04     infsnz  0x4, 0x1, 0      	INFSNZ	r0x04, F
005398   2a05     incf    0x5, 0x1, 0      	INCF	r0x05, F
                                           _00966_DS_:
00539a   d7e4     bra     0x5364           	BRA	_00912_DS_
                                           _00933_DS_:
00539c   c007     movff   0x7, 0x3         	MOVFF	r0x07, r0x03
00539e   f003
0053a0   c006     movff   0x6, 0x4         	MOVFF	r0x06, r0x04
0053a2   f004
                                           _00915_DS_:
                                           ;	.line	92; /home/yeison/Documentos/python/apps/pinguinoIDE/x.4/p8/pinguino/core/stdio.c	for ( ; width > 0; --width)
0053a4   5004     movf    0x4, 0, 0        	MOVF	r0x04, W
0053a6   e00f     bz      0x53c6           	BZ	_00904_DS_
                                           ;	.line	94; /home/yeison/Documentos/python/apps/pinguinoIDE/x.4/p8/pinguino/core/stdio.c	pprintc(out, padchar);
0053a8   5009     movf    0x9, 0, 0        	MOVF	r0x09, W
0053aa   6ee5     movwf   0xe5, 0          	MOVWF	POSTDEC1
0053ac   5002     movf    0x2, 0, 0        	MOVF	r0x02, W
0053ae   6ee5     movwf   0xe5, 0          	MOVWF	POSTDEC1
0053b0   5001     movf    0x1, 0, 0        	MOVF	r0x01, W
0053b2   6ee5     movwf   0xe5, 0          	MOVWF	POSTDEC1
0053b4   5000     movf    0, 0, 0          	MOVF	r0x00, W
0053b6   6ee5     movwf   0xe5, 0          	MOVWF	POSTDEC1
0053b8   ec2a     call    0x6254, 0        	CALL	_pprintc
0053ba   f031
0053bc   0e04     movlw   0x4              	MOVLW	0x04
0053be   26e1     addwf   0xe1, 0x1, 0     	ADDWF	FSR1L, F
                                           ;	.line	95; /home/yeison/Documentos/python/apps/pinguinoIDE/x.4/p8/pinguino/core/stdio.c	++pc;
0053c0   2a03     incf    0x3, 0x1, 0      	INCF	r0x03, F
                                           ;	.line	92; /home/yeison/Documentos/python/apps/pinguinoIDE/x.4/p8/pinguino/core/stdio.c	for ( ; width > 0; --width)
0053c2   0604     decf    0x4, 0x1, 0      	DECF	r0x04, F
0053c4   d7ef     bra     0x53a4           	BRA	_00915_DS_
                                           ; =DF= MOVFF: replaced by CRLF/SETF
                                           _00904_DS_:
                                           ;	.line	98; /home/yeison/Documentos/python/apps/pinguinoIDE/x.4/p8/pinguino/core/stdio.c	return pc;
0053c6   6af3     clrf    0xf3, 0          	CLRF	PRODL
0053c8   5003     movf    0x3, 0, 0        	MOVF	r0x03, W
0053ca   cfe4     movff   0xfe4, 0xe       	MOVFF	PREINC1, r0x0e
0053cc   f00e
0053ce   cfe4     movff   0xfe4, 0xd       	MOVFF	PREINC1, r0x0d
0053d0   f00d
0053d2   cfe4     movff   0xfe4, 0xc       	MOVFF	PREINC1, r0x0c
0053d4   f00c
0053d6   cfe4     movff   0xfe4, 0xb       	MOVFF	PREINC1, r0x0b
0053d8   f00b
0053da   cfe4     movff   0xfe4, 0xa       	MOVFF	PREINC1, r0x0a
0053dc   f00a
0053de   cfe4     movff   0xfe4, 0x9       	MOVFF	PREINC1, r0x09
0053e0   f009
0053e2   cfe4     movff   0xfe4, 0x8       	MOVFF	PREINC1, r0x08
0053e4   f008
0053e6   cfe4     movff   0xfe4, 0x7       	MOVFF	PREINC1, r0x07
0053e8   f007
0053ea   cfe4     movff   0xfe4, 0x6       	MOVFF	PREINC1, r0x06
0053ec   f006
0053ee   cfe4     movff   0xfe4, 0x5       	MOVFF	PREINC1, r0x05
0053f0   f005
0053f2   cfe4     movff   0xfe4, 0x4       	MOVFF	PREINC1, r0x04
0053f4   f004
0053f6   cfe4     movff   0xfe4, 0x3       	MOVFF	PREINC1, r0x03
0053f8   f003
0053fa   cfe4     movff   0xfe4, 0x2       	MOVFF	PREINC1, r0x02
0053fc   f002
0053fe   cfe4     movff   0xfe4, 0x1       	MOVFF	PREINC1, r0x01
005400   f001
005402   cfe4     movff   0xfe4, 0         	MOVFF	PREINC1, r0x00
005404   f000
005406   cfe4     movff   0xfe4, 0xfd9     	MOVFF	PREINC1, FSR2L
005408   ffd9
00540a   0012     return  0                	RETURN	
                                           
                                           ; ; Starting pCode block
                                           S_main__pprintc	code
                                           _pprintc:
                                           ;	.line	42; /home/yeison/Documentos/python/apps/pinguinoIDE/x.4/p8/pinguino/core/stdio.c	static void pprintc(u8 **str, u8 c)
006254   cfd9     movff   0xfd9, 0xfe5     	MOVFF	FSR2L, POSTDEC1
006256   ffe5
006258   cfe1     movff   0xfe1, 0xfd9     	MOVFF	FSR1L, FSR2L
00625a   ffd9
00625c   c000     movff   0, 0xfe5         	MOVFF	r0x00, POSTDEC1
00625e   ffe5
006260   c001     movff   0x1, 0xfe5       	MOVFF	r0x01, POSTDEC1
006262   ffe5
006264   c002     movff   0x2, 0xfe5       	MOVFF	r0x02, POSTDEC1
006266   ffe5
006268   c003     movff   0x3, 0xfe5       	MOVFF	r0x03, POSTDEC1
00626a   ffe5
00626c   c004     movff   0x4, 0xfe5       	MOVFF	r0x04, POSTDEC1
00626e   ffe5
006270   c005     movff   0x5, 0xfe5       	MOVFF	r0x05, POSTDEC1
006272   ffe5
006274   c006     movff   0x6, 0xfe5       	MOVFF	r0x06, POSTDEC1
006276   ffe5
006278   0e02     movlw   0x2              	MOVLW	0x02
00627a   cfdb     movff   0xfdb, 0         	MOVFF	PLUSW2, r0x00
00627c   f000
00627e   0e03     movlw   0x3              	MOVLW	0x03
006280   cfdb     movff   0xfdb, 0x1       	MOVFF	PLUSW2, r0x01
006282   f001
006284   0e04     movlw   0x4              	MOVLW	0x04
006286   cfdb     movff   0xfdb, 0x2       	MOVFF	PLUSW2, r0x02
006288   f002
00628a   0e05     movlw   0x5              	MOVLW	0x05
00628c   cfdb     movff   0xfdb, 0x3       	MOVFF	PLUSW2, r0x03
00628e   f003
                                           ;	.line	44; /home/yeison/Documentos/python/apps/pinguinoIDE/x.4/p8/pinguino/core/stdio.c	if (str)
006290   5000     movf    0, 0, 0          	MOVF	r0x00, W
006292   1001     iorwf   0x1, 0, 0        	IORWF	r0x01, W
006294   1002     iorwf   0x2, 0, 0        	IORWF	r0x02, W
006296   e033     bz      0x62fe           	BZ	_00879_DS_
                                           ;	.line	46; /home/yeison/Documentos/python/apps/pinguinoIDE/x.4/p8/pinguino/core/stdio.c	**str = c;
006298   c000     movff   0, 0xfe9         	MOVFF	r0x00, FSR0L
00629a   ffe9
00629c   c001     movff   0x1, 0xff3       	MOVFF	r0x01, PRODL
00629e   fff3
0062a0   5002     movf    0x2, 0, 0        	MOVF	r0x02, W
0062a2   ec2d     call    0x5a, 0          	CALL	__gptrget3
0062a4   f000
0062a6   6e04     movwf   0x4, 0           	MOVWF	r0x04
0062a8   cff3     movff   0xff3, 0x5       	MOVFF	PRODL, r0x05
0062aa   f005
0062ac   cff4     movff   0xff4, 0x6       	MOVFF	PRODH, r0x06
0062ae   f006
0062b0   c003     movff   0x3, 0xfe5       	MOVFF	r0x03, POSTDEC1
0062b2   ffe5
0062b4   c004     movff   0x4, 0xfe9       	MOVFF	r0x04, FSR0L
0062b6   ffe9
0062b8   c005     movff   0x5, 0xff3       	MOVFF	r0x05, PRODL
0062ba   fff3
0062bc   5006     movf    0x6, 0, 0        	MOVF	r0x06, W
0062be   ec31     call    0x62, 0          	CALL	__gptrput1
0062c0   f000
                                           ;	.line	47; /home/yeison/Documentos/python/apps/pinguinoIDE/x.4/p8/pinguino/core/stdio.c	++(*str);
0062c2   c000     movff   0, 0xfe9         	MOVFF	r0x00, FSR0L
0062c4   ffe9
0062c6   c001     movff   0x1, 0xff3       	MOVFF	r0x01, PRODL
0062c8   fff3
0062ca   5002     movf    0x2, 0, 0        	MOVF	r0x02, W
0062cc   ec2d     call    0x5a, 0          	CALL	__gptrget3
0062ce   f000
0062d0   6e04     movwf   0x4, 0           	MOVWF	r0x04
0062d2   cff3     movff   0xff3, 0x5       	MOVFF	PRODL, r0x05
0062d4   f005
0062d6   cff4     movff   0xff4, 0x6       	MOVFF	PRODH, r0x06
0062d8   f006
0062da   2a04     incf    0x4, 0x1, 0      	INCF	r0x04, F
0062dc   e302     bnc     0x62e2           	BNC	_00886_DS_
0062de   4a05     infsnz  0x5, 0x1, 0      	INFSNZ	r0x05, F
0062e0   2a06     incf    0x6, 0x1, 0      	INCF	r0x06, F
                                           _00886_DS_:
0062e2   c004     movff   0x4, 0xfe5       	MOVFF	r0x04, POSTDEC1
0062e4   ffe5
0062e6   c005     movff   0x5, 0xff4       	MOVFF	r0x05, PRODH
0062e8   fff4
0062ea   c006     movff   0x6, 0xff6       	MOVFF	r0x06, TBLPTRL
0062ec   fff6
0062ee   c000     movff   0, 0xfe9         	MOVFF	r0x00, FSR0L
0062f0   ffe9
0062f2   c001     movff   0x1, 0xff3       	MOVFF	r0x01, PRODL
0062f4   fff3
0062f6   5002     movf    0x2, 0, 0        	MOVF	r0x02, W
0062f8   ec35     call    0x6a, 0          	CALL	__gptrput3
0062fa   f000
0062fc   d016     bra     0x632a           	BRA	_00881_DS_
                                           _00879_DS_:
                                           ;	.line	51; /home/yeison/Documentos/python/apps/pinguinoIDE/x.4/p8/pinguino/core/stdio.c	pputchar(c);
0062fe   5003     movf    0x3, 0, 0        	MOVF	r0x03, W
006300   6ee5     movwf   0xe5, 0          	MOVWF	POSTDEC1
006302   cff2     movff   0xff2, 0xfe5     	MOVFF	INTCON, POSTDEC1
006304   ffe5
006306   9ef2     bcf     0xf2, 0x7, 0     	BCF	INTCON, 7
006308   0005     push                     	PUSH	
00630a   0e28     movlw   0x28             	MOVLW	LOW(_00887_DS_)
00630c   6efd     movwf   0xfd, 0          	MOVWF	TOSL
00630e   0e63     movlw   0x63             	MOVLW	HIGH(_00887_DS_)
006310   6efe     movwf   0xfe, 0          	MOVWF	TOSH
006312   0e00     movlw   0                	MOVLW	UPPER(_00887_DS_)
006314   6eff     movwf   0xff, 0          	MOVWF	TOSU
006316   bee4     btfsc   0xe4, 0x7, 0     	BTFSC	PREINC1, 7
006318   8ef2     bsf     0xf2, 0x7, 0     	BSF	INTCON, 7
00631a   c35c     movff   0x35c, 0xffb     	MOVFF	(_pputchar + 2), PCLATU
00631c   fffb
00631e   c35b     movff   0x35b, 0xffa     	MOVFF	(_pputchar + 1), PCLATH
006320   fffa
006322   0103     movlb   0x3              	BANKSEL	_pputchar
006324   515a     movf    0x5a, 0, 0x1     	MOVF	_pputchar, W, B
006326   6ef9     movwf   0xf9, 0          	MOVWF	PCL
                                           _00887_DS_:
006328   52e6     movf    0xe6, 0x1, 0     	MOVF	POSTINC1, F
                                           _00881_DS_:
00632a   cfe4     movff   0xfe4, 0x6       	MOVFF	PREINC1, r0x06
00632c   f006
00632e   cfe4     movff   0xfe4, 0x5       	MOVFF	PREINC1, r0x05
006330   f005
006332   cfe4     movff   0xfe4, 0x4       	MOVFF	PREINC1, r0x04
006334   f004
006336   cfe4     movff   0xfe4, 0x3       	MOVFF	PREINC1, r0x03
006338   f003
00633a   cfe4     movff   0xfe4, 0x2       	MOVFF	PREINC1, r0x02
00633c   f002
00633e   cfe4     movff   0xfe4, 0x1       	MOVFF	PREINC1, r0x01
006340   f001
006342   cfe4     movff   0xfe4, 0         	MOVFF	PREINC1, r0x00
006344   f000
006346   cfe4     movff   0xfe4, 0xfd9     	MOVFF	PREINC1, FSR2L
006348   ffd9
00634a   0012     return  0                	RETURN	
                                           
                                           ; ; Starting pCode block
                                           S_main__Delayus	code
                                           _Delayus:
                                           ;	.line	88; /home/yeison/Documentos/python/apps/pinguinoIDE/x.4/p8/pinguino/core/delay.c	void Delayus(u16 microseconds)
007766   cfd9     movff   0xfd9, 0xfe5     	MOVFF	FSR2L, POSTDEC1
007768   ffe5
00776a   cfe1     movff   0xfe1, 0xfd9     	MOVFF	FSR1L, FSR2L
00776c   ffd9
00776e   c000     movff   0, 0xfe5         	MOVFF	r0x00, POSTDEC1
007770   ffe5
007772   c001     movff   0x1, 0xfe5       	MOVFF	r0x01, POSTDEC1
007774   ffe5
007776   c002     movff   0x2, 0xfe5       	MOVFF	r0x02, POSTDEC1
007778   ffe5
00777a   c003     movff   0x3, 0xfe5       	MOVFF	r0x03, POSTDEC1
00777c   ffe5
00777e   0e02     movlw   0x2              	MOVLW	0x02
007780   cfdb     movff   0xfdb, 0         	MOVFF	PLUSW2, r0x00
007782   f000
007784   0e03     movlw   0x3              	MOVLW	0x03
007786   cfdb     movff   0xfdb, 0x1       	MOVFF	PLUSW2, r0x01
007788   f001
                                           ;	.line	91; /home/yeison/Documentos/python/apps/pinguinoIDE/x.4/p8/pinguino/core/delay.c	for (i=0;i<microseconds;i++);
00778a   6a02     clrf    0x2, 0           	CLRF	r0x02
00778c   6a03     clrf    0x3, 0           	CLRF	r0x03
                                           _00862_DS_:
00778e   5001     movf    0x1, 0, 0        	MOVF	r0x01, W
007790   5c03     subwf   0x3, 0, 0        	SUBWF	r0x03, W
007792   e102     bnz     0x7798           	BNZ	_00873_DS_
007794   5000     movf    0, 0, 0          	MOVF	r0x00, W
007796   5c02     subwf   0x2, 0, 0        	SUBWF	r0x02, W
                                           _00873_DS_:
007798   e203     bc      0x77a0           	BC	_00864_DS_
00779a   4a02     infsnz  0x2, 0x1, 0      	INFSNZ	r0x02, F
00779c   2a03     incf    0x3, 0x1, 0      	INCF	r0x03, F
00779e   d7f7     bra     0x778e           	BRA	_00862_DS_
                                           _00864_DS_:
0077a0   cfe4     movff   0xfe4, 0x3       	MOVFF	PREINC1, r0x03
0077a2   f003
0077a4   cfe4     movff   0xfe4, 0x2       	MOVFF	PREINC1, r0x02
0077a6   f002
0077a8   cfe4     movff   0xfe4, 0x1       	MOVFF	PREINC1, r0x01
0077aa   f001
0077ac   cfe4     movff   0xfe4, 0         	MOVFF	PREINC1, r0x00
0077ae   f000
0077b0   cfe4     movff   0xfe4, 0xfd9     	MOVFF	PREINC1, FSR2L
0077b2   ffd9
0077b4   0012     return  0                	RETURN	
                                           
                                           ; ; Starting pCode block
                                           S_main__Delayms	code
                                           _Delayms:
                                           ;	.line	77; /home/yeison/Documentos/python/apps/pinguinoIDE/x.4/p8/pinguino/core/delay.c	void Delayms(u16 milliseconds)
00765a   cfd9     movff   0xfd9, 0xfe5     	MOVFF	FSR2L, POSTDEC1
00765c   ffe5
00765e   cfe1     movff   0xfe1, 0xfd9     	MOVFF	FSR1L, FSR2L
007660   ffd9
007662   c000     movff   0, 0xfe5         	MOVFF	r0x00, POSTDEC1
007664   ffe5
007666   c001     movff   0x1, 0xfe5       	MOVFF	r0x01, POSTDEC1
007668   ffe5
00766a   c002     movff   0x2, 0xfe5       	MOVFF	r0x02, POSTDEC1
00766c   ffe5
00766e   c003     movff   0x3, 0xfe5       	MOVFF	r0x03, POSTDEC1
007670   ffe5
007672   0e02     movlw   0x2              	MOVLW	0x02
007674   cfdb     movff   0xfdb, 0         	MOVFF	PLUSW2, r0x00
007676   f000
007678   0e03     movlw   0x3              	MOVLW	0x03
00767a   cfdb     movff   0xfdb, 0x1       	MOVFF	PLUSW2, r0x01
00767c   f001
                                           ;	.line	81; /home/yeison/Documentos/python/apps/pinguinoIDE/x.4/p8/pinguino/core/delay.c	for (i=0;i<milliseconds;i++)
00767e   6a02     clrf    0x2, 0           	CLRF	r0x02
007680   6a03     clrf    0x3, 0           	CLRF	r0x03
                                           _00844_DS_:
007682   5001     movf    0x1, 0, 0        	MOVF	r0x01, W
007684   5c03     subwf   0x3, 0, 0        	SUBWF	r0x03, W
007686   e102     bnz     0x768c           	BNZ	_00855_DS_
007688   5000     movf    0, 0, 0          	MOVF	r0x00, W
00768a   5c02     subwf   0x2, 0, 0        	SUBWF	r0x02, W
                                           _00855_DS_:
00768c   e209     bc      0x76a0           	BC	_00846_DS_
                                           ;	.line	83; /home/yeison/Documentos/python/apps/pinguinoIDE/x.4/p8/pinguino/core/delay.c	delay10ktcy(1);
00768e   0e01     movlw   0x1              	MOVLW	0x01
007690   ec37     call    0x6e, 0          	CALL	_delay10ktcy
007692   f000
                                           ;	.line	84; /home/yeison/Documentos/python/apps/pinguinoIDE/x.4/p8/pinguino/core/delay.c	delay1ktcy(2);
007694   0e02     movlw   0x2              	MOVLW	0x02
007696   ec39     call    0x72, 0          	CALL	_delay1ktcy
007698   f000
                                           ;	.line	81; /home/yeison/Documentos/python/apps/pinguinoIDE/x.4/p8/pinguino/core/delay.c	for (i=0;i<milliseconds;i++)
00769a   4a02     infsnz  0x2, 0x1, 0      	INFSNZ	r0x02, F
00769c   2a03     incf    0x3, 0x1, 0      	INCF	r0x03, F
00769e   d7f1     bra     0x7682           	BRA	_00844_DS_
                                           _00846_DS_:
0076a0   cfe4     movff   0xfe4, 0x3       	MOVFF	PREINC1, r0x03
0076a2   f003
0076a4   cfe4     movff   0xfe4, 0x2       	MOVFF	PREINC1, r0x02
0076a6   f002
0076a8   cfe4     movff   0xfe4, 0x1       	MOVFF	PREINC1, r0x01
0076aa   f001
0076ac   cfe4     movff   0xfe4, 0         	MOVFF	PREINC1, r0x00
0076ae   f000
0076b0   cfe4     movff   0xfe4, 0xfd9     	MOVFF	PREINC1, FSR2L
0076b2   ffd9
0076b4   0012     return  0                	RETURN	
                                           
                                           ; ; Starting pCode block
                                           S_main__CDCInitEndpoint	code
                                           _CDCInitEndpoint:
0075fa   0103     movlb   0x3              	BANKSEL	_line_config
                                           ;	.line	195; /home/yeison/Documentos/python/apps/pinguinoIDE/x.4/p8/pinguino/libraries/usb/usb_cdc.c	line_config.dwDTERate = USB_CDC_BAUD_RATE;
0075fc   6b47     clrf    0x47, 0x1        	CLRF	_line_config, B
0075fe   0ec2     movlw   0xc2             	MOVLW	0xc2
                                           ; removed redundant BANKSEL
007600   6f48     movwf   0x48, 0x1        	MOVWF	(_line_config + 1), B
007602   0e01     movlw   0x1              	MOVLW	0x01
                                           ; removed redundant BANKSEL
007604   6f49     movwf   0x49, 0x1        	MOVWF	(_line_config + 2), B
                                           ; removed redundant BANKSEL
007606   6b4a     clrf    0x4a, 0x1        	CLRF	(_line_config + 3), B
                                           ; removed redundant BANKSEL
                                           ;	.line	196; /home/yeison/Documentos/python/apps/pinguinoIDE/x.4/p8/pinguino/libraries/usb/usb_cdc.c	line_config.bCharFormat = USB_CDC_STOP_BITS;
007608   6b4b     clrf    0x4b, 0x1        	CLRF	(_line_config + 4), B
                                           ; removed redundant BANKSEL
                                           ;	.line	197; /home/yeison/Documentos/python/apps/pinguinoIDE/x.4/p8/pinguino/libraries/usb/usb_cdc.c	line_config.bParityType = USB_CDC_PARITY;
00760a   6b4c     clrf    0x4c, 0x1        	CLRF	(_line_config + 5), B
                                           ;	.line	198; /home/yeison/Documentos/python/apps/pinguinoIDE/x.4/p8/pinguino/libraries/usb/usb_cdc.c	line_config.bDataBits = USB_CDC_DATA_BITS;
00760c   0e08     movlw   0x8              	MOVLW	0x08
                                           ; removed redundant BANKSEL
00760e   6f4d     movwf   0x4d, 0x1        	MOVWF	(_line_config + 6), B
007610   0103     movlb   0x3              	BANKSEL	_zlp
                                           ;	.line	199; /home/yeison/Documentos/python/apps/pinguinoIDE/x.4/p8/pinguino/libraries/usb/usb_cdc.c	zlp.wValue0=0;
007612   6b3f     clrf    0x3f, 0x1        	CLRF	_zlp, B
                                           ; removed redundant BANKSEL
                                           ;	.line	200; /home/yeison/Documentos/python/apps/pinguinoIDE/x.4/p8/pinguino/libraries/usb/usb_cdc.c	zlp.wValue1=0;
007614   6b40     clrf    0x40, 0x1        	CLRF	(_zlp + 1), B
                                           ; removed redundant BANKSEL
                                           ;	.line	201; /home/yeison/Documentos/python/apps/pinguinoIDE/x.4/p8/pinguino/libraries/usb/usb_cdc.c	zlp.wValue2=0;
007616   6b41     clrf    0x41, 0x1        	CLRF	(_zlp + 2), B
                                           ; removed redundant BANKSEL
                                           ;	.line	202; /home/yeison/Documentos/python/apps/pinguinoIDE/x.4/p8/pinguino/libraries/usb/usb_cdc.c	zlp.wValue3=0;
007618   6b42     clrf    0x42, 0x1        	CLRF	(_zlp + 3), B
                                           ; removed redundant BANKSEL
                                           ;	.line	203; /home/yeison/Documentos/python/apps/pinguinoIDE/x.4/p8/pinguino/libraries/usb/usb_cdc.c	zlp.wValue4=0;
00761a   6b43     clrf    0x43, 0x1        	CLRF	(_zlp + 4), B
                                           ; removed redundant BANKSEL
                                           ;	.line	204; /home/yeison/Documentos/python/apps/pinguinoIDE/x.4/p8/pinguino/libraries/usb/usb_cdc.c	zlp.wValue5=0;
00761c   6b44     clrf    0x44, 0x1        	CLRF	(_zlp + 5), B
                                           ; removed redundant BANKSEL
                                           ;	.line	205; /home/yeison/Documentos/python/apps/pinguinoIDE/x.4/p8/pinguino/libraries/usb/usb_cdc.c	zlp.wValue6=0;
00761e   6b45     clrf    0x45, 0x1        	CLRF	(_zlp + 6), B
                                           ; removed redundant BANKSEL
                                           ;	.line	206; /home/yeison/Documentos/python/apps/pinguinoIDE/x.4/p8/pinguino/libraries/usb/usb_cdc.c	zlp.wValue7=0;
007620   6b46     clrf    0x46, 0x1        	CLRF	(_zlp + 7), B
                                           ;	.line	211; /home/yeison/Documentos/python/apps/pinguinoIDE/x.4/p8/pinguino/libraries/usb/usb_cdc.c	USB_COMM_EP_UEP = EP_IN | HSHK_EN;
007622   0e1a     movlw   0x1a             	MOVLW	0x1a
007624   6e72     movwf   0x72, 0          	MOVWF	_UEP2
                                           ;	.line	214; /home/yeison/Documentos/python/apps/pinguinoIDE/x.4/p8/pinguino/libraries/usb/usb_cdc.c	CDC_DATA_EP_UEP = EP_OUT_IN | HSHK_EN;
007626   0e1e     movlw   0x1e             	MOVLW	0x1e
007628   6e73     movwf   0x73, 0          	MOVWF	_UEP3
                                           ;	.line	218; /home/yeison/Documentos/python/apps/pinguinoIDE/x.4/p8/pinguino/libraries/usb/usb_cdc.c	EP_IN_BD(USB_COMM_EP_NUM).ADDR = PTR16(&CDCControlBuffer);
00762a   0eee     movlw   0xee             	MOVLW	LOW(_CDCControlBuffer)
00762c   0104     movlb   0x4              	BANKSEL	(_ep_bdt + 22)
00762e   6f16     movwf   0x16, 0x1        	MOVWF	(_ep_bdt + 22), B
007630   0e02     movlw   0x2              	MOVLW	HIGH(_CDCControlBuffer)
                                           ; removed redundant BANKSEL
007632   6f17     movwf   0x17, 0x1        	MOVWF	(_ep_bdt + 23), B
                                           ; #	MOVLW	0x40
                                           ; #	MOVWF	(_ep_bdt + 20), B
                                           ; #	MOVLW	0x40
                                           ;	.line	219; /home/yeison/Documentos/python/apps/pinguinoIDE/x.4/p8/pinguino/libraries/usb/usb_cdc.c	EP_IN_BD(USB_COMM_EP_NUM).Stat.uc = BDS_DAT1 | BDS_COWN;
007634   0e40     movlw   0x40             	MOVLW	0x40
                                           ; removed redundant BANKSEL
                                           ;	.line	222; /home/yeison/Documentos/python/apps/pinguinoIDE/x.4/p8/pinguino/libraries/usb/usb_cdc.c	EP_OUT_BD(CDC_DATA_EP_NUM).Cnt = sizeof(CDCRxBuffer);
007636   6f14     movwf   0x14, 0x1        	MOVWF	(_ep_bdt + 20), B
                                           ; removed redundant BANKSEL
007638   6f19     movwf   0x19, 0x1        	MOVWF	(_ep_bdt + 25), B
                                           ;	.line	223; /home/yeison/Documentos/python/apps/pinguinoIDE/x.4/p8/pinguino/libraries/usb/usb_cdc.c	EP_OUT_BD(CDC_DATA_EP_NUM).ADDR = PTR16(&CDCRxBuffer);
00763a   0e80     movlw   0x80             	MOVLW	LOW(_CDCRxBuffer)
                                           ; removed redundant BANKSEL
00763c   6f1a     movwf   0x1a, 0x1        	MOVWF	(_ep_bdt + 26), B
00763e   0e05     movlw   0x5              	MOVLW	HIGH(_CDCRxBuffer)
                                           ; removed redundant BANKSEL
007640   6f1b     movwf   0x1b, 0x1        	MOVWF	(_ep_bdt + 27), B
                                           ;	.line	224; /home/yeison/Documentos/python/apps/pinguinoIDE/x.4/p8/pinguino/libraries/usb/usb_cdc.c	EP_OUT_BD(CDC_DATA_EP_NUM).Stat.uc = BDS_UOWN | BDS_DAT0 | BDS_DTSEN;
007642   0e88     movlw   0x88             	MOVLW	0x88
                                           ; removed redundant BANKSEL
007644   6f18     movwf   0x18, 0x1        	MOVWF	(_ep_bdt + 24), B
                                           ;	.line	226; /home/yeison/Documentos/python/apps/pinguinoIDE/x.4/p8/pinguino/libraries/usb/usb_cdc.c	EP_IN_BD(CDC_DATA_EP_NUM).ADDR = PTR16(&CDCTxBuffer); // +1 
007646   0ec0     movlw   0xc0             	MOVLW	LOW(_CDCTxBuffer)
                                           ; removed redundant BANKSEL
007648   6f1e     movwf   0x1e, 0x1        	MOVWF	(_ep_bdt + 30), B
00764a   0e05     movlw   0x5              	MOVLW	HIGH(_CDCTxBuffer)
                                           ; removed redundant BANKSEL
00764c   6f1f     movwf   0x1f, 0x1        	MOVWF	(_ep_bdt + 31), B
                                           ;	.line	227; /home/yeison/Documentos/python/apps/pinguinoIDE/x.4/p8/pinguino/libraries/usb/usb_cdc.c	EP_IN_BD(CDC_DATA_EP_NUM).Stat.uc = BDS_DAT1 | BDS_COWN; 
00764e   0e40     movlw   0x40             	MOVLW	0x40
                                           ; removed redundant BANKSEL
007650   6f1c     movwf   0x1c, 0x1        	MOVWF	(_ep_bdt + 28), B
                                           ;	.line	228; /home/yeison/Documentos/python/apps/pinguinoIDE/x.4/p8/pinguino/libraries/usb/usb_cdc.c	deviceState=CONFIGURED; 
007652   0e05     movlw   0x5              	MOVLW	0x05
007654   0103     movlb   0x3              	BANKSEL	_deviceState
007656   6f7b     movwf   0x7b, 0x1        	MOVWF	_deviceState, B
007658   0012     return  0                	RETURN	
                                           
                                           ; ; Starting pCode block
                                           S_main__CDCputs	code
                                           _CDCputs:
                                           ;	.line	153; /home/yeison/Documentos/python/apps/pinguinoIDE/x.4/p8/pinguino/libraries/usb/usb_cdc.c	u8 CDCputs(u8 *buffer, u8 length)
005be4   cfd9     movff   0xfd9, 0xfe5     	MOVFF	FSR2L, POSTDEC1
005be6   ffe5
005be8   cfe1     movff   0xfe1, 0xfd9     	MOVFF	FSR1L, FSR2L
005bea   ffd9
005bec   c000     movff   0, 0xfe5         	MOVFF	r0x00, POSTDEC1
005bee   ffe5
005bf0   c001     movff   0x1, 0xfe5       	MOVFF	r0x01, POSTDEC1
005bf2   ffe5
005bf4   c002     movff   0x2, 0xfe5       	MOVFF	r0x02, POSTDEC1
005bf6   ffe5
005bf8   c003     movff   0x3, 0xfe5       	MOVFF	r0x03, POSTDEC1
005bfa   ffe5
005bfc   c004     movff   0x4, 0xfe5       	MOVFF	r0x04, POSTDEC1
005bfe   ffe5
005c00   c005     movff   0x5, 0xfe5       	MOVFF	r0x05, POSTDEC1
005c02   ffe5
005c04   c006     movff   0x6, 0xfe5       	MOVFF	r0x06, POSTDEC1
005c06   ffe5
005c08   c007     movff   0x7, 0xfe5       	MOVFF	r0x07, POSTDEC1
005c0a   ffe5
005c0c   c008     movff   0x8, 0xfe5       	MOVFF	r0x08, POSTDEC1
005c0e   ffe5
005c10   c009     movff   0x9, 0xfe5       	MOVFF	r0x09, POSTDEC1
005c12   ffe5
005c14   0e02     movlw   0x2              	MOVLW	0x02
005c16   cfdb     movff   0xfdb, 0         	MOVFF	PLUSW2, r0x00
005c18   f000
005c1a   0e03     movlw   0x3              	MOVLW	0x03
005c1c   cfdb     movff   0xfdb, 0x1       	MOVFF	PLUSW2, r0x01
005c1e   f001
005c20   0e04     movlw   0x4              	MOVLW	0x04
005c22   cfdb     movff   0xfdb, 0x2       	MOVFF	PLUSW2, r0x02
005c24   f002
005c26   0e05     movlw   0x5              	MOVLW	0x05
005c28   cfdb     movff   0xfdb, 0x3       	MOVFF	PLUSW2, r0x03
005c2a   f003
                                           ;	.line	155; /home/yeison/Documentos/python/apps/pinguinoIDE/x.4/p8/pinguino/libraries/usb/usb_cdc.c	u8 i=0;
005c2c   6a04     clrf    0x4, 0           	CLRF	r0x04
005c2e   0103     movlb   0x3              	BANKSEL	_deviceState
                                           ;	.line	157; /home/yeison/Documentos/python/apps/pinguinoIDE/x.4/p8/pinguino/libraries/usb/usb_cdc.c	if (deviceState != CONFIGURED) return 0;
005c30   517b     movf    0x7b, 0, 0x1     	MOVF	_deviceState, W, B
005c32   0a05     xorlw   0x5              	XORLW	0x05
005c34   e002     bz      0x5c3a           	BZ	_00797_DS_
005c36   6ae8     clrf    0xe8, 0          	CLRF	WREG
005c38   d04c     bra     0x5cd2           	BRA	_00808_DS_
                                           _00797_DS_:
005c3a   0103     movlb   0x3              	BANKSEL	_CONTROL_LINE
                                           ;	.line	158; /home/yeison/Documentos/python/apps/pinguinoIDE/x.4/p8/pinguino/libraries/usb/usb_cdc.c	if (!CONTROL_LINE) return 0;
005c3c   5125     movf    0x25, 0, 0x1     	MOVF	_CONTROL_LINE, W, B
005c3e   e102     bnz     0x5c44           	BNZ	_00799_DS_
005c40   6ae8     clrf    0xe8, 0          	CLRF	WREG
005c42   d047     bra     0x5cd2           	BRA	_00808_DS_
                                           _00799_DS_:
005c44   0104     movlb   0x4              	BANKSEL	(_ep_bdt + 28)
                                           ;	.line	159; /home/yeison/Documentos/python/apps/pinguinoIDE/x.4/p8/pinguino/libraries/usb/usb_cdc.c	if (!EP_IN_BD(CDC_DATA_EP_NUM).Stat.UOWN)
005c46   bf1c     btfsc   0x1c, 0x7, 0x1   	BTFSC	(_ep_bdt + 28), 7, B
005c48   d043     bra     0x5cd0           	BRA	_00804_DS_
                                           ;	.line	161; /home/yeison/Documentos/python/apps/pinguinoIDE/x.4/p8/pinguino/libraries/usb/usb_cdc.c	if (length > CDC_BULK_IN_SIZE) length = CDC_BULK_IN_SIZE;
005c4a   0e41     movlw   0x41             	MOVLW	0x41
005c4c   5c03     subwf   0x3, 0, 0        	SUBWF	r0x03, W
005c4e   e302     bnc     0x5c54           	BNC	_00815_DS_
005c50   0e40     movlw   0x40             	MOVLW	0x40
005c52   6e03     movwf   0x3, 0           	MOVWF	r0x03
                                           _00815_DS_:
                                           ;	.line	162; /home/yeison/Documentos/python/apps/pinguinoIDE/x.4/p8/pinguino/libraries/usb/usb_cdc.c	for (i=0; i < length; i++)
005c54   6a05     clrf    0x5, 0           	CLRF	r0x05
                                           _00806_DS_:
005c56   5003     movf    0x3, 0, 0        	MOVF	r0x03, W
005c58   5c05     subwf   0x5, 0, 0        	SUBWF	r0x05, W
005c5a   e21d     bc      0x5c96           	BC	_00816_DS_
                                           ;	.line	164; /home/yeison/Documentos/python/apps/pinguinoIDE/x.4/p8/pinguino/libraries/usb/usb_cdc.c	CDCTxBuffer[i] = buffer[i];
005c5c   0ec0     movlw   0xc0             	MOVLW	LOW(_CDCTxBuffer)
005c5e   2405     addwf   0x5, 0, 0        	ADDWF	r0x05, W
005c60   6e06     movwf   0x6, 0           	MOVWF	r0x06
005c62   6a07     clrf    0x7, 0           	CLRF	r0x07
005c64   0e05     movlw   0x5              	MOVLW	HIGH(_CDCTxBuffer)
005c66   2207     addwfc  0x7, 0x1, 0      	ADDWFC	r0x07, F
005c68   5005     movf    0x5, 0, 0        	MOVF	r0x05, W
005c6a   2400     addwf   0, 0, 0          	ADDWF	r0x00, W
005c6c   6e08     movwf   0x8, 0           	MOVWF	r0x08
005c6e   6ae8     clrf    0xe8, 0          	CLRF	WREG
005c70   2001     addwfc  0x1, 0, 0        	ADDWFC	r0x01, W
005c72   6e09     movwf   0x9, 0           	MOVWF	r0x09
005c74   6ae8     clrf    0xe8, 0          	CLRF	WREG
005c76   2002     addwfc  0x2, 0, 0        	ADDWFC	r0x02, W
005c78   c008     movff   0x8, 0xfe9       	MOVFF	r0x08, FSR0L
005c7a   ffe9
005c7c   c009     movff   0x9, 0xff3       	MOVFF	r0x09, PRODL
005c7e   fff3
005c80   ec29     call    0x52, 0          	CALL	__gptrget1
005c82   f000
005c84   6e08     movwf   0x8, 0           	MOVWF	r0x08
005c86   c006     movff   0x6, 0xfe9       	MOVFF	r0x06, FSR0L
005c88   ffe9
005c8a   c007     movff   0x7, 0xfea       	MOVFF	r0x07, FSR0H
005c8c   ffea
005c8e   c008     movff   0x8, 0xfef       	MOVFF	r0x08, INDF0
005c90   ffef
                                           ;	.line	162; /home/yeison/Documentos/python/apps/pinguinoIDE/x.4/p8/pinguino/libraries/usb/usb_cdc.c	for (i=0; i < length; i++)
005c92   2a05     incf    0x5, 0x1, 0      	INCF	r0x05, F
005c94   d7e0     bra     0x5c56           	BRA	_00806_DS_
                                           _00816_DS_:
005c96   c005     movff   0x5, 0x4         	MOVFF	r0x05, r0x04
005c98   f004
                                           ;	.line	176; /home/yeison/Documentos/python/apps/pinguinoIDE/x.4/p8/pinguino/libraries/usb/usb_cdc.c	EP_IN_BD(CDC_DATA_EP_NUM).Cnt = i;
005c9a   5005     movf    0x5, 0, 0        	MOVF	r0x05, W
005c9c   0104     movlb   0x4              	BANKSEL	(_ep_bdt + 29)
005c9e   6f1d     movwf   0x1d, 0x1        	MOVWF	(_ep_bdt + 29), B
                                           ;	.line	178; /home/yeison/Documentos/python/apps/pinguinoIDE/x.4/p8/pinguino/libraries/usb/usb_cdc.c	EP_IN_BD(CDC_DATA_EP_NUM).Stat.uc &= 0x40;
005ca0   0e40     movlw   0x40             	MOVLW	0x40
                                           ; removed redundant BANKSEL
005ca2   151c     andwf   0x1c, 0, 0x1     	ANDWF	(_ep_bdt + 28), W, B
                                           ; #	MOVWF	r0x00
                                           ; #	MOVF	r0x00, W
005ca4   6f1c     movwf   0x1c, 0x1        	MOVWF	(_ep_bdt + 28), B
                                           ;	.line	179; /home/yeison/Documentos/python/apps/pinguinoIDE/x.4/p8/pinguino/libraries/usb/usb_cdc.c	EP_IN_BD(CDC_DATA_EP_NUM).Stat.DTS = !EP_IN_BD(CDC_DATA_EP_NUM).Stat.DTS;
005ca6   6a00     clrf    0, 0             	CLRF	r0x00
                                           ; removed redundant BANKSEL
005ca8   bd1c     btfsc   0x1c, 0x6, 0x1   	BTFSC	(_ep_bdt + 28), 6, B
005caa   2a00     incf    0, 0x1, 0        	INCF	r0x00, F
005cac   5000     movf    0, 0, 0          	MOVF	r0x00, W
005cae   80d8     bsf     0xd8, 0, 0       	BSF	STATUS, 0
005cb0   66e8     tstfsz  0xe8, 0          	TSTFSZ	WREG
005cb2   90d8     bcf     0xd8, 0, 0       	BCF	STATUS, 0
005cb4   6a00     clrf    0, 0             	CLRF	r0x00
005cb6   3600     rlcf    0, 0x1, 0        	RLCF	r0x00, F
005cb8   5000     movf    0, 0, 0          	MOVF	r0x00, W
005cba   0b01     andlw   0x1              	ANDLW	0x01
005cbc   40e8     rrncf   0xe8, 0, 0       	RRNCF	WREG, W
005cbe   40e8     rrncf   0xe8, 0, 0       	RRNCF	WREG, W
005cc0   6ef4     movwf   0xf4, 0          	MOVWF	PRODH
                                           ; removed redundant BANKSEL
005cc2   511c     movf    0x1c, 0, 0x1     	MOVF	(_ep_bdt + 28), W, B
005cc4   0bbf     andlw   0xbf             	ANDLW	0xbf
005cc6   10f4     iorwf   0xf4, 0, 0       	IORWF	PRODH, W
                                           ; removed redundant BANKSEL
005cc8   6f1c     movwf   0x1c, 0x1        	MOVWF	(_ep_bdt + 28), B
                                           ;	.line	181; /home/yeison/Documentos/python/apps/pinguinoIDE/x.4/p8/pinguino/libraries/usb/usb_cdc.c	EP_IN_BD(CDC_DATA_EP_NUM).Stat.uc |= BDS_UOWN | BDS_DTSEN;
005cca   0e88     movlw   0x88             	MOVLW	0x88
                                           ; removed redundant BANKSEL
005ccc   111c     iorwf   0x1c, 0, 0x1     	IORWF	(_ep_bdt + 28), W, B
                                           ; #	MOVWF	r0x00
                                           ; #	MOVF	r0x00, W
005cce   6f1c     movwf   0x1c, 0x1        	MOVWF	(_ep_bdt + 28), B
                                           _00804_DS_:
                                           ;	.line	183; /home/yeison/Documentos/python/apps/pinguinoIDE/x.4/p8/pinguino/libraries/usb/usb_cdc.c	return i;
005cd0   5004     movf    0x4, 0, 0        	MOVF	r0x04, W
                                           _00808_DS_:
005cd2   cfe4     movff   0xfe4, 0x9       	MOVFF	PREINC1, r0x09
005cd4   f009
005cd6   cfe4     movff   0xfe4, 0x8       	MOVFF	PREINC1, r0x08
005cd8   f008
005cda   cfe4     movff   0xfe4, 0x7       	MOVFF	PREINC1, r0x07
005cdc   f007
005cde   cfe4     movff   0xfe4, 0x6       	MOVFF	PREINC1, r0x06
005ce0   f006
005ce2   cfe4     movff   0xfe4, 0x5       	MOVFF	PREINC1, r0x05
005ce4   f005
005ce6   cfe4     movff   0xfe4, 0x4       	MOVFF	PREINC1, r0x04
005ce8   f004
005cea   cfe4     movff   0xfe4, 0x3       	MOVFF	PREINC1, r0x03
005cec   f003
005cee   cfe4     movff   0xfe4, 0x2       	MOVFF	PREINC1, r0x02
005cf0   f002
005cf2   cfe4     movff   0xfe4, 0x1       	MOVFF	PREINC1, r0x01
005cf4   f001
005cf6   cfe4     movff   0xfe4, 0         	MOVFF	PREINC1, r0x00
005cf8   f000
005cfa   cfe4     movff   0xfe4, 0xfd9     	MOVFF	PREINC1, FSR2L
005cfc   ffd9
005cfe   0012     return  0                	RETURN	
                                           
                                           ; ; Starting pCode block
                                           S_main__CDCgets	code
                                           _CDCgets:
                                           ;	.line	106; /home/yeison/Documentos/python/apps/pinguinoIDE/x.4/p8/pinguino/libraries/usb/usb_cdc.c	u8 CDCgets(u8 *buffer)
005ac6   cfd9     movff   0xfd9, 0xfe5     	MOVFF	FSR2L, POSTDEC1
005ac8   ffe5
005aca   cfe1     movff   0xfe1, 0xfd9     	MOVFF	FSR1L, FSR2L
005acc   ffd9
005ace   c000     movff   0, 0xfe5         	MOVFF	r0x00, POSTDEC1
005ad0   ffe5
005ad2   c001     movff   0x1, 0xfe5       	MOVFF	r0x01, POSTDEC1
005ad4   ffe5
005ad6   c002     movff   0x2, 0xfe5       	MOVFF	r0x02, POSTDEC1
005ad8   ffe5
005ada   c003     movff   0x3, 0xfe5       	MOVFF	r0x03, POSTDEC1
005adc   ffe5
005ade   c004     movff   0x4, 0xfe5       	MOVFF	r0x04, POSTDEC1
005ae0   ffe5
005ae2   c005     movff   0x5, 0xfe5       	MOVFF	r0x05, POSTDEC1
005ae4   ffe5
005ae6   c006     movff   0x6, 0xfe5       	MOVFF	r0x06, POSTDEC1
005ae8   ffe5
005aea   c007     movff   0x7, 0xfe5       	MOVFF	r0x07, POSTDEC1
005aec   ffe5
005aee   c008     movff   0x8, 0xfe5       	MOVFF	r0x08, POSTDEC1
005af0   ffe5
005af2   c009     movff   0x9, 0xfe5       	MOVFF	r0x09, POSTDEC1
005af4   ffe5
005af6   0e02     movlw   0x2              	MOVLW	0x02
005af8   cfdb     movff   0xfdb, 0         	MOVFF	PLUSW2, r0x00
005afa   f000
005afc   0e03     movlw   0x3              	MOVLW	0x03
005afe   cfdb     movff   0xfdb, 0x1       	MOVFF	PLUSW2, r0x01
005b00   f001
005b02   0e04     movlw   0x4              	MOVLW	0x04
005b04   cfdb     movff   0xfdb, 0x2       	MOVFF	PLUSW2, r0x02
005b06   f002
                                           ;	.line	108; /home/yeison/Documentos/python/apps/pinguinoIDE/x.4/p8/pinguino/libraries/usb/usb_cdc.c	u8 i=0;
005b08   6a03     clrf    0x3, 0           	CLRF	r0x03
005b0a   0103     movlb   0x3              	BANKSEL	_deviceState
                                           ;	.line	111; /home/yeison/Documentos/python/apps/pinguinoIDE/x.4/p8/pinguino/libraries/usb/usb_cdc.c	if (deviceState != CONFIGURED)
005b0c   517b     movf    0x7b, 0, 0x1     	MOVF	_deviceState, W, B
005b0e   0a05     xorlw   0x5              	XORLW	0x05
005b10   e002     bz      0x5b16           	BZ	_00756_DS_
                                           ;	.line	112; /home/yeison/Documentos/python/apps/pinguinoIDE/x.4/p8/pinguino/libraries/usb/usb_cdc.c	return 0;
005b12   6ae8     clrf    0xe8, 0          	CLRF	WREG
005b14   d050     bra     0x5bb6           	BRA	_00767_DS_
                                           _00756_DS_:
005b16   0103     movlb   0x3              	BANKSEL	_CONTROL_LINE
                                           ;	.line	115; /home/yeison/Documentos/python/apps/pinguinoIDE/x.4/p8/pinguino/libraries/usb/usb_cdc.c	if (!CONTROL_LINE)
005b18   5125     movf    0x25, 0, 0x1     	MOVF	_CONTROL_LINE, W, B
005b1a   e102     bnz     0x5b20           	BNZ	_00758_DS_
                                           ;	.line	116; /home/yeison/Documentos/python/apps/pinguinoIDE/x.4/p8/pinguino/libraries/usb/usb_cdc.c	return 0;
005b1c   6ae8     clrf    0xe8, 0          	CLRF	WREG
005b1e   d04b     bra     0x5bb6           	BRA	_00767_DS_
                                           _00758_DS_:
005b20   0104     movlb   0x4              	BANKSEL	(_ep_bdt + 24)
                                           ;	.line	119; /home/yeison/Documentos/python/apps/pinguinoIDE/x.4/p8/pinguino/libraries/usb/usb_cdc.c	if (!EP_OUT_BD(CDC_DATA_EP_NUM).Stat.UOWN)
005b22   bf18     btfsc   0x18, 0x7, 0x1   	BTFSC	(_ep_bdt + 24), 7, B
005b24   d047     bra     0x5bb4           	BRA	_00763_DS_
                                           ;	.line	126; /home/yeison/Documentos/python/apps/pinguinoIDE/x.4/p8/pinguino/libraries/usb/usb_cdc.c	if (length > EP_OUT_BD(CDC_DATA_EP_NUM).Cnt)
005b26   0e40     movlw   0x40             	MOVLW	0x40
                                           ; #	SUBWF	(_ep_bdt + 25), W, B
                                           ; #	BTFSC	STATUS, 0
                                           ; #	GOTO	_00774_DS_
                                           ; #;;;!!! pic16_aopOp:1117 called for a spillLocation -- assigning WREG instead --- CHECK
                                           ; #	MOVFF	(_ep_bdt + 25), WREG
                                           ; #	CLRF	r0x04
                                           ; removed redundant BANKSEL
                                           ;	.line	127; /home/yeison/Documentos/python/apps/pinguinoIDE/x.4/p8/pinguino/libraries/usb/usb_cdc.c	length = EP_OUT_BD(CDC_DATA_EP_NUM).Cnt;
005b28   5d19     subwf   0x19, 0, 0x1     	SUBWF	(_ep_bdt + 25), W, B
                                           ;	.line	129; /home/yeison/Documentos/python/apps/pinguinoIDE/x.4/p8/pinguino/libraries/usb/usb_cdc.c	for (i=0; i < EP_OUT_BD(CDC_DATA_EP_NUM).Cnt; i++)
005b2a   a0d8     btfss   0xd8, 0, 0       	BTFSS	STATUS, 0
005b2c   c419     movff   0x419, 0xfe8     	MOVFF	(_ep_bdt + 25), WREG
005b2e   ffe8
005b30   6a04     clrf    0x4, 0           	CLRF	r0x04
                                           _00765_DS_:
005b32   0104     movlb   0x4              	BANKSEL	(_ep_bdt + 25)
005b34   5119     movf    0x19, 0, 0x1     	MOVF	(_ep_bdt + 25), W, B
005b36   5c04     subwf   0x4, 0, 0        	SUBWF	r0x04, W
005b38   e220     bc      0x5b7a           	BC	_00775_DS_
                                           ;	.line	131; /home/yeison/Documentos/python/apps/pinguinoIDE/x.4/p8/pinguino/libraries/usb/usb_cdc.c	buffer[i] = CDCRxBuffer[i];
005b3a   5004     movf    0x4, 0, 0        	MOVF	r0x04, W
005b3c   2400     addwf   0, 0, 0          	ADDWF	r0x00, W
005b3e   6e05     movwf   0x5, 0           	MOVWF	r0x05
005b40   6ae8     clrf    0xe8, 0          	CLRF	WREG
005b42   2001     addwfc  0x1, 0, 0        	ADDWFC	r0x01, W
005b44   6e06     movwf   0x6, 0           	MOVWF	r0x06
005b46   6ae8     clrf    0xe8, 0          	CLRF	WREG
005b48   2002     addwfc  0x2, 0, 0        	ADDWFC	r0x02, W
005b4a   6e07     movwf   0x7, 0           	MOVWF	r0x07
005b4c   0e80     movlw   0x80             	MOVLW	LOW(_CDCRxBuffer)
005b4e   2404     addwf   0x4, 0, 0        	ADDWF	r0x04, W
005b50   6e08     movwf   0x8, 0           	MOVWF	r0x08
005b52   6a09     clrf    0x9, 0           	CLRF	r0x09
005b54   0e05     movlw   0x5              	MOVLW	HIGH(_CDCRxBuffer)
005b56   2209     addwfc  0x9, 0x1, 0      	ADDWFC	r0x09, F
005b58   c008     movff   0x8, 0xfe9       	MOVFF	r0x08, FSR0L
005b5a   ffe9
005b5c   c009     movff   0x9, 0xfea       	MOVFF	r0x09, FSR0H
005b5e   ffea
005b60   cfef     movff   0xfef, 0x8       	MOVFF	INDF0, r0x08
005b62   f008
005b64   c008     movff   0x8, 0xfe5       	MOVFF	r0x08, POSTDEC1
005b66   ffe5
005b68   c005     movff   0x5, 0xfe9       	MOVFF	r0x05, FSR0L
005b6a   ffe9
005b6c   c006     movff   0x6, 0xff3       	MOVFF	r0x06, PRODL
005b6e   fff3
005b70   5007     movf    0x7, 0, 0        	MOVF	r0x07, W
005b72   ec31     call    0x62, 0          	CALL	__gptrput1
005b74   f000
                                           ;	.line	129; /home/yeison/Documentos/python/apps/pinguinoIDE/x.4/p8/pinguino/libraries/usb/usb_cdc.c	for (i=0; i < EP_OUT_BD(CDC_DATA_EP_NUM).Cnt; i++)
005b76   2a04     incf    0x4, 0x1, 0      	INCF	r0x04, F
005b78   d7dc     bra     0x5b32           	BRA	_00765_DS_
                                           _00775_DS_:
005b7a   c004     movff   0x4, 0x3         	MOVFF	r0x04, r0x03
005b7c   f003
                                           ;	.line	143; /home/yeison/Documentos/python/apps/pinguinoIDE/x.4/p8/pinguino/libraries/usb/usb_cdc.c	EP_OUT_BD(CDC_DATA_EP_NUM).Stat.uc &= 0x40;
005b7e   0e40     movlw   0x40             	MOVLW	0x40
005b80   0104     movlb   0x4              	BANKSEL	(_ep_bdt + 24)
005b82   1518     andwf   0x18, 0, 0x1     	ANDWF	(_ep_bdt + 24), W, B
                                           ; #	MOVWF	r0x00
                                           ; #	MOVF	r0x00, W
005b84   6f18     movwf   0x18, 0x1        	MOVWF	(_ep_bdt + 24), B
                                           ;	.line	144; /home/yeison/Documentos/python/apps/pinguinoIDE/x.4/p8/pinguino/libraries/usb/usb_cdc.c	EP_OUT_BD(CDC_DATA_EP_NUM).Stat.DTS = !EP_OUT_BD(CDC_DATA_EP_NUM).Stat.DTS;
005b86   6a00     clrf    0, 0             	CLRF	r0x00
                                           ; removed redundant BANKSEL
005b88   bd18     btfsc   0x18, 0x6, 0x1   	BTFSC	(_ep_bdt + 24), 6, B
005b8a   2a00     incf    0, 0x1, 0        	INCF	r0x00, F
005b8c   5000     movf    0, 0, 0          	MOVF	r0x00, W
005b8e   80d8     bsf     0xd8, 0, 0       	BSF	STATUS, 0
005b90   66e8     tstfsz  0xe8, 0          	TSTFSZ	WREG
005b92   90d8     bcf     0xd8, 0, 0       	BCF	STATUS, 0
005b94   6a00     clrf    0, 0             	CLRF	r0x00
005b96   3600     rlcf    0, 0x1, 0        	RLCF	r0x00, F
005b98   5000     movf    0, 0, 0          	MOVF	r0x00, W
005b9a   0b01     andlw   0x1              	ANDLW	0x01
005b9c   40e8     rrncf   0xe8, 0, 0       	RRNCF	WREG, W
005b9e   40e8     rrncf   0xe8, 0, 0       	RRNCF	WREG, W
005ba0   6ef4     movwf   0xf4, 0          	MOVWF	PRODH
                                           ; removed redundant BANKSEL
005ba2   5118     movf    0x18, 0, 0x1     	MOVF	(_ep_bdt + 24), W, B
005ba4   0bbf     andlw   0xbf             	ANDLW	0xbf
005ba6   10f4     iorwf   0xf4, 0, 0       	IORWF	PRODH, W
                                           ; removed redundant BANKSEL
005ba8   6f18     movwf   0x18, 0x1        	MOVWF	(_ep_bdt + 24), B
                                           ;	.line	146; /home/yeison/Documentos/python/apps/pinguinoIDE/x.4/p8/pinguino/libraries/usb/usb_cdc.c	EP_OUT_BD(CDC_DATA_EP_NUM).Cnt = sizeof(CDCRxBuffer);
005baa   0e40     movlw   0x40             	MOVLW	0x40
                                           ; removed redundant BANKSEL
005bac   6f19     movwf   0x19, 0x1        	MOVWF	(_ep_bdt + 25), B
                                           ;	.line	147; /home/yeison/Documentos/python/apps/pinguinoIDE/x.4/p8/pinguino/libraries/usb/usb_cdc.c	EP_OUT_BD(CDC_DATA_EP_NUM).Stat.uc |= BDS_UOWN | BDS_DTSEN;
005bae   0e88     movlw   0x88             	MOVLW	0x88
                                           ; removed redundant BANKSEL
005bb0   1118     iorwf   0x18, 0, 0x1     	IORWF	(_ep_bdt + 24), W, B
                                           ; #	MOVWF	r0x00
                                           ; #	MOVF	r0x00, W
005bb2   6f18     movwf   0x18, 0x1        	MOVWF	(_ep_bdt + 24), B
                                           _00763_DS_:
                                           ;	.line	150; /home/yeison/Documentos/python/apps/pinguinoIDE/x.4/p8/pinguino/libraries/usb/usb_cdc.c	return i;
005bb4   5003     movf    0x3, 0, 0        	MOVF	r0x03, W
                                           _00767_DS_:
005bb6   cfe4     movff   0xfe4, 0x9       	MOVFF	PREINC1, r0x09
005bb8   f009
005bba   cfe4     movff   0xfe4, 0x8       	MOVFF	PREINC1, r0x08
005bbc   f008
005bbe   cfe4     movff   0xfe4, 0x7       	MOVFF	PREINC1, r0x07
005bc0   f007
005bc2   cfe4     movff   0xfe4, 0x6       	MOVFF	PREINC1, r0x06
005bc4   f006
005bc6   cfe4     movff   0xfe4, 0x5       	MOVFF	PREINC1, r0x05
005bc8   f005
005bca   cfe4     movff   0xfe4, 0x4       	MOVFF	PREINC1, r0x04
005bcc   f004
005bce   cfe4     movff   0xfe4, 0x3       	MOVFF	PREINC1, r0x03
005bd0   f003
005bd2   cfe4     movff   0xfe4, 0x2       	MOVFF	PREINC1, r0x02
005bd4   f002
005bd6   cfe4     movff   0xfe4, 0x1       	MOVFF	PREINC1, r0x01
005bd8   f001
005bda   cfe4     movff   0xfe4, 0         	MOVFF	PREINC1, r0x00
005bdc   f000
005bde   cfe4     movff   0xfe4, 0xfd9     	MOVFF	PREINC1, FSR2L
005be0   ffd9
005be2   0012     return  0                	RETURN	
                                           
                                           ; ; Starting pCode block
                                           S_main__ProcessCDCRequest	code
                                           _ProcessCDCRequest:
                                           ;	.line	29; /home/yeison/Documentos/python/apps/pinguinoIDE/x.4/p8/pinguino/libraries/usb/usb_cdc.c	void ProcessCDCRequest(void)
006c4e   c000     movff   0, 0xfe5         	MOVFF	r0x00, POSTDEC1
006c50   ffe5
                                           ;	.line	40; /home/yeison/Documentos/python/apps/pinguinoIDE/x.4/p8/pinguino/libraries/usb/usb_cdc.c	if ((SetupPacket.bmRequestType & USB_TYPE_MASK) != USB_TYPE_CLASS) return;
006c52   0e60     movlw   0x60             	MOVLW	0x60
006c54   0105     movlb   0x5              	BANKSEL	_SetupPacket
006c56   1500     andwf   0, 0, 0x1        	ANDWF	_SetupPacket, W, B
                                           ; #	MOVWF	r0x00
                                           ; #	MOVF	r0x00, W
006c58   0a20     xorlw   0x20             	XORLW	0x20
006c5a   e001     bz      0x6c5e           	BZ	_00703_DS_
006c5c   d049     bra     0x6cf0           	BRA	_00713_DS_
                                           _00703_DS_:
                                           ;	.line	46; /home/yeison/Documentos/python/apps/pinguinoIDE/x.4/p8/pinguino/libraries/usb/usb_cdc.c	switch(SetupPacket.bRequest)
006c5e   c501     movff   0x501, 0         	MOVFF	(_SetupPacket + 1), r0x00
006c60   f000
006c62   5000     movf    0, 0, 0          	MOVF	r0x00, W
006c64   e101     bnz     0x6c68           	BNZ	_00740_DS_
006c66   d044     bra     0x6cf0           	BRA	_00713_DS_
                                           _00740_DS_:
006c68   5000     movf    0, 0, 0          	MOVF	r0x00, W
006c6a   0a01     xorlw   0x1              	XORLW	0x01
006c6c   e101     bnz     0x6c70           	BNZ	_00742_DS_
006c6e   d040     bra     0x6cf0           	BRA	_00713_DS_
                                           _00742_DS_:
006c70   5000     movf    0, 0, 0          	MOVF	r0x00, W
006c72   0a20     xorlw   0x20             	XORLW	0x20
006c74   e007     bz      0x6c84           	BZ	_00706_DS_
006c76   5000     movf    0, 0, 0          	MOVF	r0x00, W
006c78   0a21     xorlw   0x21             	XORLW	0x21
006c7a   e013     bz      0x6ca2           	BZ	_00707_DS_
006c7c   5000     movf    0, 0, 0          	MOVF	r0x00, W
006c7e   0a22     xorlw   0x22             	XORLW	0x22
006c80   e01f     bz      0x6cc0           	BZ	_00708_DS_
006c82   d036     bra     0x6cf0           	BRA	_00713_DS_
                                           _00706_DS_:
                                           ;	.line	68; /home/yeison/Documentos/python/apps/pinguinoIDE/x.4/p8/pinguino/libraries/usb/usb_cdc.c	outPtr = (__data u8 *)&line_config;
006c84   0e03     movlw   0x3              	MOVLW	HIGH(_line_config)
                                           ; #	MOVWF	r0x01
                                           ; #	MOVF	r0x01, W
006c86   0103     movlb   0x3              	BANKSEL	(_outPtr + 1)
006c88   6f5e     movwf   0x5e, 0x1        	MOVWF	(_outPtr + 1), B
006c8a   0e47     movlw   0x47             	MOVLW	LOW(_line_config)
                                           ; removed redundant BANKSEL
006c8c   6f5d     movwf   0x5d, 0x1        	MOVWF	_outPtr, B
006c8e   0e80     movlw   0x80             	MOVLW	0x80
                                           ; removed redundant BANKSEL
006c90   6f5f     movwf   0x5f, 0x1        	MOVWF	(_outPtr + 2), B
                                           ;	.line	69; /home/yeison/Documentos/python/apps/pinguinoIDE/x.4/p8/pinguino/libraries/usb/usb_cdc.c	wCount = sizeof(USB_CDC_Line_Coding) ;
006c92   0e07     movlw   0x7              	MOVLW	0x07
006c94   0103     movlb   0x3              	BANKSEL	_wCount
006c96   6f69     movwf   0x69, 0x1        	MOVWF	_wCount, B
                                           ; removed redundant BANKSEL
006c98   6b6a     clrf    0x6a, 0x1        	CLRF	(_wCount + 1), B
                                           ;	.line	70; /home/yeison/Documentos/python/apps/pinguinoIDE/x.4/p8/pinguino/libraries/usb/usb_cdc.c	requestHandled = 1;				
006c9a   0e01     movlw   0x1              	MOVLW	0x01
006c9c   0103     movlb   0x3              	BANKSEL	_requestHandled
006c9e   6f78     movwf   0x78, 0x1        	MOVWF	_requestHandled, B
                                           ;	.line	71; /home/yeison/Documentos/python/apps/pinguinoIDE/x.4/p8/pinguino/libraries/usb/usb_cdc.c	break;
006ca0   d027     bra     0x6cf0           	BRA	_00713_DS_
                                           _00707_DS_:
                                           ;	.line	78; /home/yeison/Documentos/python/apps/pinguinoIDE/x.4/p8/pinguino/libraries/usb/usb_cdc.c	outPtr = (__data u8 *)&line_config;
006ca2   0e03     movlw   0x3              	MOVLW	HIGH(_line_config)
                                           ; #	MOVWF	r0x01
                                           ; #	MOVF	r0x01, W
006ca4   0103     movlb   0x3              	BANKSEL	(_outPtr + 1)
006ca6   6f5e     movwf   0x5e, 0x1        	MOVWF	(_outPtr + 1), B
006ca8   0e47     movlw   0x47             	MOVLW	LOW(_line_config)
                                           ; removed redundant BANKSEL
006caa   6f5d     movwf   0x5d, 0x1        	MOVWF	_outPtr, B
006cac   0e80     movlw   0x80             	MOVLW	0x80
                                           ; removed redundant BANKSEL
006cae   6f5f     movwf   0x5f, 0x1        	MOVWF	(_outPtr + 2), B
                                           ;	.line	79; /home/yeison/Documentos/python/apps/pinguinoIDE/x.4/p8/pinguino/libraries/usb/usb_cdc.c	wCount = sizeof(USB_CDC_Line_Coding) ;
006cb0   0e07     movlw   0x7              	MOVLW	0x07
006cb2   0103     movlb   0x3              	BANKSEL	_wCount
006cb4   6f69     movwf   0x69, 0x1        	MOVWF	_wCount, B
                                           ; removed redundant BANKSEL
006cb6   6b6a     clrf    0x6a, 0x1        	CLRF	(_wCount + 1), B
                                           ;	.line	80; /home/yeison/Documentos/python/apps/pinguinoIDE/x.4/p8/pinguino/libraries/usb/usb_cdc.c	requestHandled = 1;
006cb8   0e01     movlw   0x1              	MOVLW	0x01
006cba   0103     movlb   0x3              	BANKSEL	_requestHandled
006cbc   6f78     movwf   0x78, 0x1        	MOVWF	_requestHandled, B
                                           ;	.line	81; /home/yeison/Documentos/python/apps/pinguinoIDE/x.4/p8/pinguino/libraries/usb/usb_cdc.c	break;
006cbe   d018     bra     0x6cf0           	BRA	_00713_DS_
                                           _00708_DS_:
006cc0   0105     movlb   0x5              	BANKSEL	(_SetupPacket + 2)
                                           ;	.line	90; /home/yeison/Documentos/python/apps/pinguinoIDE/x.4/p8/pinguino/libraries/usb/usb_cdc.c	if (SetupPacket.wValue0==3) CONTROL_LINE=1;
006cc2   5102     movf    0x2, 0, 0x1      	MOVF	(_SetupPacket + 2), W, B
006cc4   0a03     xorlw   0x3              	XORLW	0x03
006cc6   e104     bnz     0x6cd0           	BNZ	_00710_DS_
006cc8   0e01     movlw   0x1              	MOVLW	0x01
006cca   0103     movlb   0x3              	BANKSEL	_CONTROL_LINE
006ccc   6f25     movwf   0x25, 0x1        	MOVWF	_CONTROL_LINE, B
006cce   d002     bra     0x6cd4           	BRA	_00711_DS_
                                           _00710_DS_:
006cd0   0103     movlb   0x3              	BANKSEL	_CONTROL_LINE
                                           ;	.line	91; /home/yeison/Documentos/python/apps/pinguinoIDE/x.4/p8/pinguino/libraries/usb/usb_cdc.c	else CONTROL_LINE=0;		
006cd2   6b25     clrf    0x25, 0x1        	CLRF	_CONTROL_LINE, B
                                           _00711_DS_:
                                           ;	.line	92; /home/yeison/Documentos/python/apps/pinguinoIDE/x.4/p8/pinguino/libraries/usb/usb_cdc.c	outPtr = (__data u8 *)&zlp;
006cd4   0e03     movlw   0x3              	MOVLW	HIGH(_zlp)
                                           ; #	MOVWF	r0x01
                                           ; #	MOVF	r0x01, W
006cd6   0103     movlb   0x3              	BANKSEL	(_outPtr + 1)
006cd8   6f5e     movwf   0x5e, 0x1        	MOVWF	(_outPtr + 1), B
006cda   0e3f     movlw   0x3f             	MOVLW	LOW(_zlp)
                                           ; removed redundant BANKSEL
006cdc   6f5d     movwf   0x5d, 0x1        	MOVWF	_outPtr, B
006cde   0e80     movlw   0x80             	MOVLW	0x80
                                           ; removed redundant BANKSEL
006ce0   6f5f     movwf   0x5f, 0x1        	MOVWF	(_outPtr + 2), B
                                           ;	.line	93; /home/yeison/Documentos/python/apps/pinguinoIDE/x.4/p8/pinguino/libraries/usb/usb_cdc.c	wCount = sizeof(Zero_Packet_Length) ;
006ce2   0e08     movlw   0x8              	MOVLW	0x08
006ce4   0103     movlb   0x3              	BANKSEL	_wCount
006ce6   6f69     movwf   0x69, 0x1        	MOVWF	_wCount, B
                                           ; removed redundant BANKSEL
006ce8   6b6a     clrf    0x6a, 0x1        	CLRF	(_wCount + 1), B
                                           ;	.line	94; /home/yeison/Documentos/python/apps/pinguinoIDE/x.4/p8/pinguino/libraries/usb/usb_cdc.c	requestHandled = 1;						
006cea   0e01     movlw   0x1              	MOVLW	0x01
006cec   0103     movlb   0x3              	BANKSEL	_requestHandled
006cee   6f78     movwf   0x78, 0x1        	MOVWF	_requestHandled, B
                                           _00713_DS_:
                                           ;	.line	96; /home/yeison/Documentos/python/apps/pinguinoIDE/x.4/p8/pinguino/libraries/usb/usb_cdc.c	}
006cf0   cfe4     movff   0xfe4, 0         	MOVFF	PREINC1, r0x00
006cf2   f000
006cf4   0012     return  0                	RETURN	
                                           
                                           ; ; Starting pCode block
                                           S_main__ProcessUSBTransactions	code
                                           _ProcessUSBTransactions:
                                           ;	.line	809; /home/yeison/Documentos/python/apps/pinguinoIDE/x.4/p8/pinguino/libraries/usb/picUSB.c	void ProcessUSBTransactions(void)
00752a   c000     movff   0, 0xfe5         	MOVFF	r0x00, POSTDEC1
00752c   ffe5
                                           ; #	MOVF	_deviceState, W, B
                                           ; #	BTFSS	STATUS, 2
                                           ; #	GOTO	_00616_DS_
                                           ; #	GOTO	_00642_DS_
                                           ; #	BTFSS	_UIRbits, 2
00752e   0103     movlb   0x3              	BANKSEL	_deviceState
                                           ;	.line	812; /home/yeison/Documentos/python/apps/pinguinoIDE/x.4/p8/pinguino/libraries/usb/picUSB.c	if(deviceState == DETACHED)
007530   517b     movf    0x7b, 0, 0x1     	MOVF	_deviceState, W, B
                                           ;	.line	813; /home/yeison/Documentos/python/apps/pinguinoIDE/x.4/p8/pinguino/libraries/usb/picUSB.c	return;
007532   e02e     bz      0x7590           	BZ	_00642_DS_
                                           ;	.line	816; /home/yeison/Documentos/python/apps/pinguinoIDE/x.4/p8/pinguino/libraries/usb/picUSB.c	if(UIRbits.ACTVIF && UIEbits.ACTVIE)
007534   a468     btfss   0x68, 0x2, 0     	BTFSS	_UIRbits, 2
                                           ; #	GOTO	_00618_DS_
                                           ; #	BTFSS	_UIEbits, 2
                                           ; #	GOTO	_00618_DS_
                                           ; #	CALL	_UnSuspend
                                           ; #	CLRF	r0x00
                                           ;	.line	817; /home/yeison/Documentos/python/apps/pinguinoIDE/x.4/p8/pinguino/libraries/usb/picUSB.c	UnSuspend();
007536   d003     bra     0x753e           	BRA	_00618_DS_
                                           ;	.line	821; /home/yeison/Documentos/python/apps/pinguinoIDE/x.4/p8/pinguino/libraries/usb/picUSB.c	if(UCONbits.SUSPND == 1)
007538   b469     btfsc   0x69, 0x2, 0     	BTFSC	_UIEbits, 2
00753a   ec37     call    0x7a6e, 0        	CALL	_UnSuspend
00753c   f03d
                                           _00618_DS_:
00753e   6a00     clrf    0, 0             	CLRF	r0x00
007540   b26d     btfsc   0x6d, 0x1, 0     	BTFSC	_UCONbits, 1
007542   2a00     incf    0, 0x1, 0        	INCF	r0x00, F
007544   5000     movf    0, 0, 0          	MOVF	r0x00, W
007546   0a01     xorlw   0x1              	XORLW	0x01
                                           ;	.line	822; /home/yeison/Documentos/python/apps/pinguinoIDE/x.4/p8/pinguino/libraries/usb/picUSB.c	return;
007548   e023     bz      0x7590           	BZ	_00642_DS_
                                           ;	.line	825; /home/yeison/Documentos/python/apps/pinguinoIDE/x.4/p8/pinguino/libraries/usb/picUSB.c	if (UIRbits.URSTIF && UIEbits.URSTIE) {
00754a   a068     btfss   0x68, 0, 0       	BTFSS	_UIRbits, 0
                                           ; #	GOTO	_00623_DS_
                                           ; #	BTFSS	_UIEbits, 0
                                           ; #	GOTO	_00623_DS_
                                           ; #	CALL	_BusReset
                                           ; #	BTFSS	_UIRbits, 4
                                           ;	.line	826; /home/yeison/Documentos/python/apps/pinguinoIDE/x.4/p8/pinguino/libraries/usb/picUSB.c	BusReset();
00754c   d003     bra     0x7554           	BRA	_00623_DS_
                                           ;	.line	829; /home/yeison/Documentos/python/apps/pinguinoIDE/x.4/p8/pinguino/libraries/usb/picUSB.c	if (UIRbits.IDLEIF && UIEbits.IDLEIE) {
00754e   b069     btfsc   0x69, 0, 0       	BTFSC	_UIEbits, 0
007550   ecdb     call    0x77b6, 0        	CALL	_BusReset
007552   f03b
                                           _00623_DS_:
007554   a868     btfss   0x68, 0x4, 0     	BTFSS	_UIRbits, 4
                                           ; #	GOTO	_00626_DS_
                                           ; #	BTFSS	_UIEbits, 4
                                           ; #	GOTO	_00626_DS_
                                           ; #	CALL	_Suspend
                                           ; #	BTFSS	_UIRbits, 6
                                           ;	.line	831; /home/yeison/Documentos/python/apps/pinguinoIDE/x.4/p8/pinguino/libraries/usb/picUSB.c	Suspend();
007556   d003     bra     0x755e           	BRA	_00626_DS_
                                           ;	.line	833; /home/yeison/Documentos/python/apps/pinguinoIDE/x.4/p8/pinguino/libraries/usb/picUSB.c	if (UIRbits.SOFIF && UIEbits.SOFIE) {
007558   b869     btfsc   0x69, 0x4, 0     	BTFSC	_UIEbits, 4
00755a   ecc6     call    0x798c, 0        	CALL	_Suspend
00755c   f03c
                                           _00626_DS_:
00755e   ac68     btfss   0x68, 0x6, 0     	BTFSS	_UIRbits, 6
                                           ; #	GOTO	_00629_DS_
                                           ; #	BTFSS	_UIEbits, 6
                                           ; #	GOTO	_00629_DS_
                                           ; #	CALL	_StartOfFrame
                                           ; #	BTFSS	_UIRbits, 5
                                           ;	.line	834; /home/yeison/Documentos/python/apps/pinguinoIDE/x.4/p8/pinguino/libraries/usb/picUSB.c	StartOfFrame();
007560   d003     bra     0x7568           	BRA	_00629_DS_
                                           ;	.line	836; /home/yeison/Documentos/python/apps/pinguinoIDE/x.4/p8/pinguino/libraries/usb/picUSB.c	if (UIRbits.STALLIF && UIEbits.STALLIE) {
007562   bc69     btfsc   0x69, 0x6, 0     	BTFSC	_UIEbits, 6
007564   ec3b     call    0x7a76, 0        	CALL	_StartOfFrame
007566   f03d
                                           _00629_DS_:
007568   aa68     btfss   0x68, 0x5, 0     	BTFSS	_UIRbits, 5
                                           ; #	GOTO	_00632_DS_
                                           ; #	BTFSS	_UIEbits, 5
                                           ; #	GOTO	_00632_DS_
                                           ; #	CALL	_Stall
                                           ; #	BTFSS	_UIRbits, 1
                                           ;	.line	837; /home/yeison/Documentos/python/apps/pinguinoIDE/x.4/p8/pinguino/libraries/usb/picUSB.c	Stall();
00756a   d003     bra     0x7572           	BRA	_00632_DS_
                                           ;	.line	840; /home/yeison/Documentos/python/apps/pinguinoIDE/x.4/p8/pinguino/libraries/usb/picUSB.c	if (UIRbits.UERRIF && UIEbits.UERRIE) {
00756c   ba69     btfsc   0x69, 0x5, 0     	BTFSC	_UIEbits, 5
00756e   ecd7     call    0x79ae, 0        	CALL	_Stall
007570   f03c
                                           _00632_DS_:
007572   a268     btfss   0x68, 0x1, 0     	BTFSS	_UIRbits, 1
                                           ; #	GOTO	_00635_DS_
                                           ; #	BTFSS	_UIEbits, 1
                                           ; #	GOTO	_00635_DS_
                                           ; #	BCF	_UIRbits, 1
                                           ; #	MOVLW	0x03
                                           ;	.line	844; /home/yeison/Documentos/python/apps/pinguinoIDE/x.4/p8/pinguino/libraries/usb/picUSB.c	UIRbits.UERRIF = 0;
007574   d002     bra     0x757a           	BRA	_00635_DS_
                                           ;	.line	848; /home/yeison/Documentos/python/apps/pinguinoIDE/x.4/p8/pinguino/libraries/usb/picUSB.c	if (deviceState < DEFAULT)
007576   b269     btfsc   0x69, 0x1, 0     	BTFSC	_UIEbits, 1
007578   9268     bcf     0x68, 0x1, 0     	BCF	_UIRbits, 1
                                           _00635_DS_:
00757a   0e03     movlw   0x3              	MOVLW	0x03
                                           ; #	SUBWF	_deviceState, W, B
                                           ; #	BTFSC	STATUS, 0
                                           ; #	GOTO	_00638_DS_
                                           ; #	GOTO	_00642_DS_
                                           ; #	BTFSS	_UIRbits, 3
00757c   0103     movlb   0x3              	BANKSEL	_deviceState
                                           ;	.line	849; /home/yeison/Documentos/python/apps/pinguinoIDE/x.4/p8/pinguino/libraries/usb/picUSB.c	return;
00757e   5d7b     subwf   0x7b, 0, 0x1     	SUBWF	_deviceState, W, B
                                           ;	.line	852; /home/yeison/Documentos/python/apps/pinguinoIDE/x.4/p8/pinguino/libraries/usb/picUSB.c	if(UIRbits.TRNIF && UIEbits.TRNIE) {
007580   e307     bnc     0x7590           	BNC	_00642_DS_
007582   a668     btfss   0x68, 0x3, 0     	BTFSS	_UIRbits, 3
007584   d005     bra     0x7590           	BRA	_00642_DS_
007586   a669     btfss   0x69, 0x3, 0     	BTFSS	_UIEbits, 3
007588   d003     bra     0x7590           	BRA	_00642_DS_
                                           ;	.line	853; /home/yeison/Documentos/python/apps/pinguinoIDE/x.4/p8/pinguino/libraries/usb/picUSB.c	ProcessControlTransfer();
00758a   ec21     call    0x6e42, 0        	CALL	_ProcessControlTransfer
00758c   f037
                                           ;	.line	856; /home/yeison/Documentos/python/apps/pinguinoIDE/x.4/p8/pinguino/libraries/usb/picUSB.c	UIRbits.TRNIF = 0;
00758e   9668     bcf     0x68, 0x3, 0     	BCF	_UIRbits, 3
                                           _00642_DS_:
007590   cfe4     movff   0xfe4, 0         	MOVFF	PREINC1, r0x00
007592   f000
007594   0012     return  0                	RETURN	
                                           
                                           ; ; Starting pCode block
                                           S_main__BusReset	code
                                           _BusReset:
                                           ;	.line	781; /home/yeison/Documentos/python/apps/pinguinoIDE/x.4/p8/pinguino/libraries/usb/picUSB.c	void BusReset() {
0077b6   c000     movff   0, 0xfe5         	MOVFF	r0x00, POSTDEC1
0077b8   ffe5
                                           ;	.line	782; /home/yeison/Documentos/python/apps/pinguinoIDE/x.4/p8/pinguino/libraries/usb/picUSB.c	UEIR  = 0x00;
0077ba   6a6a     clrf    0x6a, 0          	CLRF	_UEIR
                                           ;	.line	783; /home/yeison/Documentos/python/apps/pinguinoIDE/x.4/p8/pinguino/libraries/usb/picUSB.c	UIR   = 0x00;
0077bc   6a68     clrf    0x68, 0          	CLRF	_UIR
                                           ;	.line	784; /home/yeison/Documentos/python/apps/pinguinoIDE/x.4/p8/pinguino/libraries/usb/picUSB.c	UEIE  = 0x9f;
0077be   0e9f     movlw   0x9f             	MOVLW	0x9f
0077c0   6e6b     movwf   0x6b, 0          	MOVWF	_UEIE
                                           ;	.line	785; /home/yeison/Documentos/python/apps/pinguinoIDE/x.4/p8/pinguino/libraries/usb/picUSB.c	UIE   = 0x7b;
0077c2   0e7b     movlw   0x7b             	MOVLW	0x7b
0077c4   6e69     movwf   0x69, 0          	MOVWF	_UIE
                                           ;	.line	786; /home/yeison/Documentos/python/apps/pinguinoIDE/x.4/p8/pinguino/libraries/usb/picUSB.c	UADDR = 0x00;
0077c6   6a6e     clrf    0x6e, 0          	CLRF	_UADDR
                                           ;	.line	789; /home/yeison/Documentos/python/apps/pinguinoIDE/x.4/p8/pinguino/libraries/usb/picUSB.c	UEP0 = EP_CTRL | HSHK_EN;
0077c8   0e16     movlw   0x16             	MOVLW	0x16
0077ca   6e70     movwf   0x70, 0          	MOVWF	_UEP0
                                           _00598_DS_:
                                           ;	.line	792; /home/yeison/Documentos/python/apps/pinguinoIDE/x.4/p8/pinguino/libraries/usb/picUSB.c	while (UIRbits.TRNIF == 1)
0077cc   6a00     clrf    0, 0             	CLRF	r0x00
0077ce   b668     btfsc   0x68, 0x3, 0     	BTFSC	_UIRbits, 3
0077d0   2a00     incf    0, 0x1, 0        	INCF	r0x00, F
0077d2   5000     movf    0, 0, 0          	MOVF	r0x00, W
0077d4   0a01     xorlw   0x1              	XORLW	0x01
0077d6   e102     bnz     0x77dc           	BNZ	_00600_DS_
                                           ;	.line	793; /home/yeison/Documentos/python/apps/pinguinoIDE/x.4/p8/pinguino/libraries/usb/picUSB.c	UIRbits.TRNIF = 0;
0077d8   9668     bcf     0x68, 0x3, 0     	BCF	_UIRbits, 3
0077da   d7f8     bra     0x77cc           	BRA	_00598_DS_
                                           _00600_DS_:
                                           ;	.line	796; /home/yeison/Documentos/python/apps/pinguinoIDE/x.4/p8/pinguino/libraries/usb/picUSB.c	UCONbits.PKTDIS = 0;
0077dc   986d     bcf     0x6d, 0x4, 0     	BCF	_UCONbits, 4
                                           ;	.line	799; /home/yeison/Documentos/python/apps/pinguinoIDE/x.4/p8/pinguino/libraries/usb/picUSB.c	WaitForSetupStage();
0077de   ecf4     call    0x79e8, 0        	CALL	_WaitForSetupStage
0077e0   f03c
0077e2   0103     movlb   0x3              	BANKSEL	_remoteWakeup
                                           ;	.line	801; /home/yeison/Documentos/python/apps/pinguinoIDE/x.4/p8/pinguino/libraries/usb/picUSB.c	remoteWakeup = 0;                     // Remote wakeup is off by default
0077e4   6b7a     clrf    0x7a, 0x1        	CLRF	_remoteWakeup, B
0077e6   0103     movlb   0x3              	BANKSEL	_selfPowered
                                           ;	.line	802; /home/yeison/Documentos/python/apps/pinguinoIDE/x.4/p8/pinguino/libraries/usb/picUSB.c	selfPowered = 0;                      // Self powered is off by default
0077e8   6b79     clrf    0x79, 0x1        	CLRF	_selfPowered, B
0077ea   0103     movlb   0x3              	BANKSEL	_currentConfiguration
                                           ;	.line	803; /home/yeison/Documentos/python/apps/pinguinoIDE/x.4/p8/pinguino/libraries/usb/picUSB.c	currentConfiguration = 0;             // Clear active configuration
0077ec   6b7c     clrf    0x7c, 0x1        	CLRF	_currentConfiguration, B
                                           ;	.line	804; /home/yeison/Documentos/python/apps/pinguinoIDE/x.4/p8/pinguino/libraries/usb/picUSB.c	deviceState = DEFAULT;
0077ee   0e03     movlw   0x3              	MOVLW	0x03
0077f0   0103     movlb   0x3              	BANKSEL	_deviceState
0077f2   6f7b     movwf   0x7b, 0x1        	MOVWF	_deviceState, B
0077f4   cfe4     movff   0xfe4, 0         	MOVFF	PREINC1, r0x00
0077f6   f000
0077f8   0012     return  0                	RETURN	
                                           
                                           ; ; Starting pCode block
                                           S_main__Suspend	code
                                           _Suspend:
                                           ;	.line	708; /home/yeison/Documentos/python/apps/pinguinoIDE/x.4/p8/pinguino/libraries/usb/picUSB.c	void Suspend(void)
00798c   cfd9     movff   0xfd9, 0xfe5     	MOVFF	FSR2L, POSTDEC1
00798e   ffe5
007990   cfe1     movff   0xfe1, 0xfd9     	MOVFF	FSR1L, FSR2L
007992   ffd9
                                           ;	.line	714; /home/yeison/Documentos/python/apps/pinguinoIDE/x.4/p8/pinguino/libraries/usb/picUSB.c	UIEbits.ACTVIE = 1;
007994   8469     bsf     0x69, 0x2, 0     	BSF	_UIEbits, 2
                                           ;	.line	715; /home/yeison/Documentos/python/apps/pinguinoIDE/x.4/p8/pinguino/libraries/usb/picUSB.c	UIRbits.IDLEIF = 0;
007996   9868     bcf     0x68, 0x4, 0     	BCF	_UIRbits, 4
                                           ;	.line	716; /home/yeison/Documentos/python/apps/pinguinoIDE/x.4/p8/pinguino/libraries/usb/picUSB.c	UCONbits.SUSPND = 1;
007998   826d     bsf     0x6d, 0x1, 0     	BSF	_UCONbits, 1
                                           ;	.line	721; /home/yeison/Documentos/python/apps/pinguinoIDE/x.4/p8/pinguino/libraries/usb/picUSB.c	PIR2bits.USBIF = 0;
00799a   9aa1     bcf     0xa1, 0x5, 0     	BCF	_PIR2bits, 5
                                           ;	.line	727; /home/yeison/Documentos/python/apps/pinguinoIDE/x.4/p8/pinguino/libraries/usb/picUSB.c	INTCONbits.RBIF = 0;
00799c   90f2     bcf     0xf2, 0, 0       	BCF	_INTCONbits, 0
                                           ;	.line	733; /home/yeison/Documentos/python/apps/pinguinoIDE/x.4/p8/pinguino/libraries/usb/picUSB.c	PIE2bits.USBIE = 1;
00799e   8aa0     bsf     0xa0, 0x5, 0     	BSF	_PIE2bits, 5
                                           ;	.line	739; /home/yeison/Documentos/python/apps/pinguinoIDE/x.4/p8/pinguino/libraries/usb/picUSB.c	INTCONbits.RBIE = 1;
0079a0   86f2     bsf     0xf2, 0x3, 0     	BSF	_INTCONbits, 3
0079a2   0003     sleep                    	sleep 
                                           ;	.line	769; /home/yeison/Documentos/python/apps/pinguinoIDE/x.4/p8/pinguino/libraries/usb/picUSB.c	PIE2bits.USBIE = 0;
0079a4   9aa0     bcf     0xa0, 0x5, 0     	BCF	_PIE2bits, 5
                                           ;	.line	775; /home/yeison/Documentos/python/apps/pinguinoIDE/x.4/p8/pinguino/libraries/usb/picUSB.c	INTCONbits.RBIE = 0;
0079a6   96f2     bcf     0xf2, 0x3, 0     	BCF	_INTCONbits, 3
0079a8   cfe4     movff   0xfe4, 0xfd9     	MOVFF	PREINC1, FSR2L
0079aa   ffd9
0079ac   0012     return  0                	RETURN	
                                           
                                           ; ; Starting pCode block
                                           S_main__Stall	code
                                           _Stall:
                                           ;	.line	692; /home/yeison/Documentos/python/apps/pinguinoIDE/x.4/p8/pinguino/libraries/usb/picUSB.c	void Stall(void)
0079ae   c000     movff   0, 0xfe5         	MOVFF	r0x00, POSTDEC1
0079b0   ffe5
                                           ;	.line	697; /home/yeison/Documentos/python/apps/pinguinoIDE/x.4/p8/pinguino/libraries/usb/picUSB.c	if(UEP0bits.EPSTALL == 1)
0079b2   6a00     clrf    0, 0             	CLRF	r0x00
0079b4   b070     btfsc   0x70, 0, 0       	BTFSC	_UEP0bits, 0
0079b6   2a00     incf    0, 0x1, 0        	INCF	r0x00, F
0079b8   5000     movf    0, 0, 0          	MOVF	r0x00, W
0079ba   0a01     xorlw   0x1              	XORLW	0x01
0079bc   e103     bnz     0x79c4           	BNZ	_00581_DS_
                                           ;	.line	700; /home/yeison/Documentos/python/apps/pinguinoIDE/x.4/p8/pinguino/libraries/usb/picUSB.c	WaitForSetupStage();
0079be   ecf4     call    0x79e8, 0        	CALL	_WaitForSetupStage
0079c0   f03c
                                           ;	.line	701; /home/yeison/Documentos/python/apps/pinguinoIDE/x.4/p8/pinguino/libraries/usb/picUSB.c	UEP0bits.EPSTALL = 0;
0079c2   9070     bcf     0x70, 0, 0       	BCF	_UEP0bits, 0
                                           _00581_DS_:
                                           ;	.line	703; /home/yeison/Documentos/python/apps/pinguinoIDE/x.4/p8/pinguino/libraries/usb/picUSB.c	UIRbits.STALLIF = 0;
0079c4   9a68     bcf     0x68, 0x5, 0     	BCF	_UIRbits, 5
0079c6   cfe4     movff   0xfe4, 0         	MOVFF	PREINC1, r0x00
0079c8   f000
0079ca   0012     return  0                	RETURN	
                                           
                                           ; ; Starting pCode block
                                           S_main__StartOfFrame	code
                                           _StartOfFrame:
                                           ;	.line	688; /home/yeison/Documentos/python/apps/pinguinoIDE/x.4/p8/pinguino/libraries/usb/picUSB.c	UIRbits.SOFIF = 0;
007a76   9c68     bcf     0x68, 0x6, 0     	BCF	_UIRbits, 6
007a78   0012     return  0                	RETURN	
                                           
                                           ; ; Starting pCode block
                                           S_main__UnSuspend	code
                                           _UnSuspend:
                                           ;	.line	677; /home/yeison/Documentos/python/apps/pinguinoIDE/x.4/p8/pinguino/libraries/usb/picUSB.c	UCONbits.SUSPND = 0;
007a6e   926d     bcf     0x6d, 0x1, 0     	BCF	_UCONbits, 1
                                           ;	.line	678; /home/yeison/Documentos/python/apps/pinguinoIDE/x.4/p8/pinguino/libraries/usb/picUSB.c	UIEbits.ACTVIE = 0;
007a70   9469     bcf     0x69, 0x2, 0     	BCF	_UIEbits, 2
                                           ;	.line	679; /home/yeison/Documentos/python/apps/pinguinoIDE/x.4/p8/pinguino/libraries/usb/picUSB.c	UIRbits.ACTVIF = 0;
007a72   9468     bcf     0x68, 0x2, 0     	BCF	_UIRbits, 2
007a74   0012     return  0                	RETURN	
                                           
                                           ; ; Starting pCode block
                                           S_main__EnableUSBModule	code
                                           _EnableUSBModule:
                                           ;	.line	643; /home/yeison/Documentos/python/apps/pinguinoIDE/x.4/p8/pinguino/libraries/usb/picUSB.c	if(UCONbits.USBEN == 0)
0078c2   b66d     btfsc   0x6d, 0x3, 0     	BTFSC	_UCONbits, 3
0078c4   d006     bra     0x78d2           	BRA	_00549_DS_
                                           ;	.line	648; /home/yeison/Documentos/python/apps/pinguinoIDE/x.4/p8/pinguino/libraries/usb/picUSB.c	UCON = 0;
0078c6   6a6d     clrf    0x6d, 0          	CLRF	_UCON
                                           ;	.line	649; /home/yeison/Documentos/python/apps/pinguinoIDE/x.4/p8/pinguino/libraries/usb/picUSB.c	UIE = 0;
0078c8   6a69     clrf    0x69, 0          	CLRF	_UIE
                                           ;	.line	650; /home/yeison/Documentos/python/apps/pinguinoIDE/x.4/p8/pinguino/libraries/usb/picUSB.c	UCONbits.USBEN = 1;
0078ca   866d     bsf     0x6d, 0x3, 0     	BSF	_UCONbits, 3
                                           ;	.line	651; /home/yeison/Documentos/python/apps/pinguinoIDE/x.4/p8/pinguino/libraries/usb/picUSB.c	deviceState = ATTACHED;
0078cc   0e01     movlw   0x1              	MOVLW	0x01
0078ce   0103     movlb   0x3              	BANKSEL	_deviceState
0078d0   6f7b     movwf   0x7b, 0x1        	MOVWF	_deviceState, B
                                           _00549_DS_:
0078d2   0103     movlb   0x3              	BANKSEL	_deviceState
                                           ;	.line	656; /home/yeison/Documentos/python/apps/pinguinoIDE/x.4/p8/pinguino/libraries/usb/picUSB.c	if ((deviceState == ATTACHED) && !UCONbits.SE0)
0078d4   517b     movf    0x7b, 0, 0x1     	MOVF	_deviceState, W, B
0078d6   0a01     xorlw   0x1              	XORLW	0x01
0078d8   e109     bnz     0x78ec           	BNZ	_00553_DS_
0078da   ba6d     btfsc   0x6d, 0x5, 0     	BTFSC	_UCONbits, 5
0078dc   d007     bra     0x78ec           	BRA	_00553_DS_
                                           ;	.line	658; /home/yeison/Documentos/python/apps/pinguinoIDE/x.4/p8/pinguino/libraries/usb/picUSB.c	UIR = 0;
0078de   6a68     clrf    0x68, 0          	CLRF	_UIR
                                           ;	.line	659; /home/yeison/Documentos/python/apps/pinguinoIDE/x.4/p8/pinguino/libraries/usb/picUSB.c	UIE = 0;
0078e0   6a69     clrf    0x69, 0          	CLRF	_UIE
                                           ;	.line	660; /home/yeison/Documentos/python/apps/pinguinoIDE/x.4/p8/pinguino/libraries/usb/picUSB.c	UIEbits.URSTIE = 1;
0078e2   8069     bsf     0x69, 0, 0       	BSF	_UIEbits, 0
                                           ;	.line	661; /home/yeison/Documentos/python/apps/pinguinoIDE/x.4/p8/pinguino/libraries/usb/picUSB.c	UIEbits.IDLEIE = 1;
0078e4   8869     bsf     0x69, 0x4, 0     	BSF	_UIEbits, 4
                                           ;	.line	662; /home/yeison/Documentos/python/apps/pinguinoIDE/x.4/p8/pinguino/libraries/usb/picUSB.c	deviceState = POWERED;
0078e6   0e02     movlw   0x2              	MOVLW	0x02
0078e8   0103     movlb   0x3              	BANKSEL	_deviceState
0078ea   6f7b     movwf   0x7b, 0x1        	MOVWF	_deviceState, B
                                           _00553_DS_:
0078ec   0012     return  0                	RETURN	
                                           
                                           ; ; Starting pCode block
                                           S_main__ProcessControlTransfer	code
                                           _ProcessControlTransfer:
                                           ;	.line	551; /home/yeison/Documentos/python/apps/pinguinoIDE/x.4/p8/pinguino/libraries/usb/picUSB.c	void ProcessControlTransfer(void) {
006e42   c000     movff   0, 0xfe5         	MOVFF	r0x00, POSTDEC1
006e44   ffe5
                                           ;	.line	555; /home/yeison/Documentos/python/apps/pinguinoIDE/x.4/p8/pinguino/libraries/usb/picUSB.c	if (USTATbits.DIR == OUT) {
006e46   b46c     btfsc   0x6c, 0x2, 0     	BTFSC	_USTATbits, 2
006e48   d022     bra     0x6e8e           	BRA	_00499_DS_
                                           ;	.line	558; /home/yeison/Documentos/python/apps/pinguinoIDE/x.4/p8/pinguino/libraries/usb/picUSB.c	u8 PID = (EP_OUT_BD(0).Stat.uc & 0x3C) >> 2;
006e4a   0e3c     movlw   0x3c             	MOVLW	0x3c
006e4c   0104     movlb   0x4              	BANKSEL	_ep_bdt
006e4e   1500     andwf   0, 0, 0x1        	ANDWF	_ep_bdt, W, B
006e50   6e00     movwf   0, 0             	MOVWF	r0x00
006e52   4000     rrncf   0, 0, 0          	RRNCF	r0x00, W
006e54   40e8     rrncf   0xe8, 0, 0       	RRNCF	WREG, W
006e56   0b3f     andlw   0x3f             	ANDLW	0x3f
                                           ; #	MOVWF	r0x00
                                           ; #	MOVF	r0x00, W
                                           ;	.line	559; /home/yeison/Documentos/python/apps/pinguinoIDE/x.4/p8/pinguino/libraries/usb/picUSB.c	if (PID == 0x0D)
006e58   0a0d     xorlw   0xd              	XORLW	0x0d
006e5a   e103     bnz     0x6e62           	BNZ	_00483_DS_
                                           ;	.line	561; /home/yeison/Documentos/python/apps/pinguinoIDE/x.4/p8/pinguino/libraries/usb/picUSB.c	SetupStage();
006e5c   ec36     call    0x686c, 0        	CALL	_SetupStage
006e5e   f034
006e60   d03e     bra     0x6ede           	BRA	_00501_DS_
                                           _00483_DS_:
006e62   0103     movlb   0x3              	BANKSEL	_ctrlTransferStage
                                           ;	.line	562; /home/yeison/Documentos/python/apps/pinguinoIDE/x.4/p8/pinguino/libraries/usb/picUSB.c	else if (ctrlTransferStage == DATA_OUT_STAGE) {
006e64   517d     movf    0x7d, 0, 0x1     	MOVF	_ctrlTransferStage, W, B
006e66   0a01     xorlw   0x1              	XORLW	0x01
006e68   e10f     bnz     0x6e88           	BNZ	_00480_DS_
                                           ;	.line	565; /home/yeison/Documentos/python/apps/pinguinoIDE/x.4/p8/pinguino/libraries/usb/picUSB.c	OutDataStage(0);
006e6a   0e00     movlw   0                	MOVLW	0x00
006e6c   6ae5     clrf    0xe5, 0          	CLRF	POSTDEC1
006e6e   ec9a     call    0x5734, 0        	CALL	_OutDataStage
006e70   f02b
006e72   52e6     movf    0xe6, 0x1, 0     	MOVF	POSTINC1, F
006e74   0104     movlb   0x4              	BANKSEL	_ep_bdt
                                           ;	.line	589; /home/yeison/Documentos/python/apps/pinguinoIDE/x.4/p8/pinguino/libraries/usb/picUSB.c	if(EP_OUT_BD(0).Stat.DTS)
006e76   ad00     btfss   0, 0x6, 0x1      	BTFSS	_ep_bdt, 6, B
006e78   d003     bra     0x6e80           	BRA	_00477_DS_
                                           ;	.line	590; /home/yeison/Documentos/python/apps/pinguinoIDE/x.4/p8/pinguino/libraries/usb/picUSB.c	EP_OUT_BD(0).Stat.uc = BDS_UOWN | BDS_DTSEN;
006e7a   0e88     movlw   0x88             	MOVLW	0x88
                                           ; removed redundant BANKSEL
006e7c   6f00     movwf   0, 0x1           	MOVWF	_ep_bdt, B
006e7e   d02f     bra     0x6ede           	BRA	_00501_DS_
                                           _00477_DS_:
                                           ;	.line	592; /home/yeison/Documentos/python/apps/pinguinoIDE/x.4/p8/pinguino/libraries/usb/picUSB.c	EP_OUT_BD(0).Stat.uc = BDS_UOWN | BDS_DTS | BDS_DTSEN;
006e80   0ec8     movlw   0xc8             	MOVLW	0xc8
006e82   0104     movlb   0x4              	BANKSEL	_ep_bdt
006e84   6f00     movwf   0, 0x1           	MOVWF	_ep_bdt, B
006e86   d02b     bra     0x6ede           	BRA	_00501_DS_
                                           _00480_DS_:
                                           ;	.line	596; /home/yeison/Documentos/python/apps/pinguinoIDE/x.4/p8/pinguino/libraries/usb/picUSB.c	WaitForSetupStage();
006e88   ecf4     call    0x79e8, 0        	CALL	_WaitForSetupStage
006e8a   f03c
006e8c   d028     bra     0x6ede           	BRA	_00501_DS_
                                           _00499_DS_:
                                           ;	.line	599; /home/yeison/Documentos/python/apps/pinguinoIDE/x.4/p8/pinguino/libraries/usb/picUSB.c	else if(USTATbits.DIR == IN) {
006e8e   6a00     clrf    0, 0             	CLRF	r0x00
006e90   b46c     btfsc   0x6c, 0x2, 0     	BTFSC	_USTATbits, 2
006e92   2a00     incf    0, 0x1, 0        	INCF	r0x00, F
006e94   5000     movf    0, 0, 0          	MOVF	r0x00, W
006e96   0a01     xorlw   0x1              	XORLW	0x01
006e98   e122     bnz     0x6ede           	BNZ	_00501_DS_
                                           ;	.line	601; /home/yeison/Documentos/python/apps/pinguinoIDE/x.4/p8/pinguino/libraries/usb/picUSB.c	if ((UADDR == 0) && (deviceState == ADDRESS)) {
006e9a   506e     movf    0x6e, 0, 0       	MOVF	_UADDR, W
006e9c   e10b     bnz     0x6eb4           	BNZ	_00488_DS_
006e9e   0103     movlb   0x3              	BANKSEL	_deviceState
006ea0   517b     movf    0x7b, 0, 0x1     	MOVF	_deviceState, W, B
006ea2   0a04     xorlw   0x4              	XORLW	0x04
006ea4   e107     bnz     0x6eb4           	BNZ	_00488_DS_
                                           ;	.line	604; /home/yeison/Documentos/python/apps/pinguinoIDE/x.4/p8/pinguino/libraries/usb/picUSB.c	UADDR = SetupPacket.wValue0;
006ea6   c502     movff   0x502, 0xf6e     	MOVFF	(_SetupPacket + 2), _UADDR
006ea8   ff6e
                                           ;	.line	608; /home/yeison/Documentos/python/apps/pinguinoIDE/x.4/p8/pinguino/libraries/usb/picUSB.c	if(UADDR == 0)
006eaa   506e     movf    0x6e, 0, 0       	MOVF	_UADDR, W
006eac   e103     bnz     0x6eb4           	BNZ	_00488_DS_
                                           ;	.line	611; /home/yeison/Documentos/python/apps/pinguinoIDE/x.4/p8/pinguino/libraries/usb/picUSB.c	deviceState = DEFAULT;
006eae   0e03     movlw   0x3              	MOVLW	0x03
006eb0   0103     movlb   0x3              	BANKSEL	_deviceState
006eb2   6f7b     movwf   0x7b, 0x1        	MOVWF	_deviceState, B
                                           _00488_DS_:
006eb4   0103     movlb   0x3              	BANKSEL	_ctrlTransferStage
                                           ;	.line	614; /home/yeison/Documentos/python/apps/pinguinoIDE/x.4/p8/pinguino/libraries/usb/picUSB.c	if (ctrlTransferStage == DATA_IN_STAGE) {
006eb6   517d     movf    0x7d, 0, 0x1     	MOVF	_ctrlTransferStage, W, B
006eb8   0a02     xorlw   0x2              	XORLW	0x02
006eba   e10f     bnz     0x6eda           	BNZ	_00494_DS_
                                           ;	.line	616; /home/yeison/Documentos/python/apps/pinguinoIDE/x.4/p8/pinguino/libraries/usb/picUSB.c	InDataStage(0);
006ebc   0e00     movlw   0                	MOVLW	0x00
006ebe   6ae5     clrf    0xe5, 0          	CLRF	POSTDEC1
006ec0   ec54     call    0x50a8, 0        	CALL	_InDataStage
006ec2   f028
006ec4   52e6     movf    0xe6, 0x1, 0     	MOVF	POSTINC1, F
006ec6   0104     movlb   0x4              	BANKSEL	(_ep_bdt + 4)
                                           ;	.line	619; /home/yeison/Documentos/python/apps/pinguinoIDE/x.4/p8/pinguino/libraries/usb/picUSB.c	if(EP_IN_BD(0).Stat.DTS)
006ec8   ad04     btfss   0x4, 0x6, 0x1    	BTFSS	(_ep_bdt + 4), 6, B
006eca   d003     bra     0x6ed2           	BRA	_00491_DS_
                                           ;	.line	620; /home/yeison/Documentos/python/apps/pinguinoIDE/x.4/p8/pinguino/libraries/usb/picUSB.c	EP_IN_BD(0).Stat.uc = BDS_UOWN | BDS_DTSEN;
006ecc   0e88     movlw   0x88             	MOVLW	0x88
                                           ; removed redundant BANKSEL
006ece   6f04     movwf   0x4, 0x1         	MOVWF	(_ep_bdt + 4), B
006ed0   d006     bra     0x6ede           	BRA	_00501_DS_
                                           _00491_DS_:
                                           ;	.line	622; /home/yeison/Documentos/python/apps/pinguinoIDE/x.4/p8/pinguino/libraries/usb/picUSB.c	EP_IN_BD(0).Stat.uc = BDS_UOWN | BDS_DTS | BDS_DTSEN;
006ed2   0ec8     movlw   0xc8             	MOVLW	0xc8
006ed4   0104     movlb   0x4              	BANKSEL	(_ep_bdt + 4)
006ed6   6f04     movwf   0x4, 0x1         	MOVWF	(_ep_bdt + 4), B
006ed8   d002     bra     0x6ede           	BRA	_00501_DS_
                                           _00494_DS_:
                                           ;	.line	626; /home/yeison/Documentos/python/apps/pinguinoIDE/x.4/p8/pinguino/libraries/usb/picUSB.c	WaitForSetupStage();
006eda   ecf4     call    0x79e8, 0        	CALL	_WaitForSetupStage
006edc   f03c
                                           _00501_DS_:
006ede   cfe4     movff   0xfe4, 0         	MOVFF	PREINC1, r0x00
006ee0   f000
006ee2   0012     return  0                	RETURN	
                                           
                                           ; ; Starting pCode block
                                           S_main__WaitForSetupStage	code
                                           _WaitForSetupStage:
0079e8   0103     movlb   0x3              	BANKSEL	_ctrlTransferStage
                                           ;	.line	538; /home/yeison/Documentos/python/apps/pinguinoIDE/x.4/p8/pinguino/libraries/usb/picUSB.c	ctrlTransferStage = SETUP_STAGE;
0079ea   6b7d     clrf    0x7d, 0x1        	CLRF	_ctrlTransferStage, B
                                           ;	.line	539; /home/yeison/Documentos/python/apps/pinguinoIDE/x.4/p8/pinguino/libraries/usb/picUSB.c	EP_OUT_BD(0).Cnt = EP0_BUFFER_SIZE;
0079ec   0e40     movlw   0x40             	MOVLW	0x40
0079ee   0104     movlb   0x4              	BANKSEL	(_ep_bdt + 1)
0079f0   6f01     movwf   0x1, 0x1         	MOVWF	(_ep_bdt + 1), B
                                           ;	.line	540; /home/yeison/Documentos/python/apps/pinguinoIDE/x.4/p8/pinguino/libraries/usb/picUSB.c	EP_OUT_BD(0).ADDR = PTR16(&SetupPacket);
0079f2   0e00     movlw   0                	MOVLW	LOW(_SetupPacket)
                                           ; removed redundant BANKSEL
0079f4   6f02     movwf   0x2, 0x1         	MOVWF	(_ep_bdt + 2), B
0079f6   0e05     movlw   0x5              	MOVLW	HIGH(_SetupPacket)
                                           ; removed redundant BANKSEL
0079f8   6f03     movwf   0x3, 0x1         	MOVWF	(_ep_bdt + 3), B
                                           ;	.line	542; /home/yeison/Documentos/python/apps/pinguinoIDE/x.4/p8/pinguino/libraries/usb/picUSB.c	EP_OUT_BD(0).Stat.uc = BDS_UOWN | BDS_DTSEN;
0079fa   0e88     movlw   0x88             	MOVLW	0x88
                                           ; removed redundant BANKSEL
0079fc   6f00     movwf   0, 0x1           	MOVWF	_ep_bdt, B
                                           ; removed redundant BANKSEL
                                           ;	.line	543; /home/yeison/Documentos/python/apps/pinguinoIDE/x.4/p8/pinguino/libraries/usb/picUSB.c	EP_IN_BD(0).Stat.uc = 0x00;           // Give control to CPU
0079fe   6b04     clrf    0x4, 0x1         	CLRF	(_ep_bdt + 4), B
007a00   0012     return  0                	RETURN	
                                           
                                           ; ; Starting pCode block
                                           S_main__SetupStage	code
                                           _SetupStage:
                                           ;	.line	465; /home/yeison/Documentos/python/apps/pinguinoIDE/x.4/p8/pinguino/libraries/usb/picUSB.c	void SetupStage(void) {
00686c   c000     movff   0, 0xfe5         	MOVFF	r0x00, POSTDEC1
00686e   ffe5
006870   0104     movlb   0x4              	BANKSEL	(_ep_bdt + 4)
                                           ;	.line	468; /home/yeison/Documentos/python/apps/pinguinoIDE/x.4/p8/pinguino/libraries/usb/picUSB.c	EP_IN_BD(0).Stat.uc &= ~BDS_UOWN;
006872   5104     movf    0x4, 0, 0x1      	MOVF	(_ep_bdt + 4), W, B
006874   6e00     movwf   0, 0             	MOVWF	r0x00
006876   9e00     bcf     0, 0x7, 0        	BCF	r0x00, 7
006878   5000     movf    0, 0, 0          	MOVF	r0x00, W
                                           ; removed redundant BANKSEL
00687a   6f04     movwf   0x4, 0x1         	MOVWF	(_ep_bdt + 4), B
                                           ; removed redundant BANKSEL
                                           ;	.line	469; /home/yeison/Documentos/python/apps/pinguinoIDE/x.4/p8/pinguino/libraries/usb/picUSB.c	EP_OUT_BD(0).Stat.uc &= ~BDS_UOWN;
00687c   5100     movf    0, 0, 0x1        	MOVF	_ep_bdt, W, B
00687e   6e00     movwf   0, 0             	MOVWF	r0x00
006880   9e00     bcf     0, 0x7, 0        	BCF	r0x00, 7
006882   5000     movf    0, 0, 0          	MOVF	r0x00, W
                                           ; removed redundant BANKSEL
006884   6f00     movwf   0, 0x1           	MOVWF	_ep_bdt, B
006886   0103     movlb   0x3              	BANKSEL	_ctrlTransferStage
                                           ;	.line	472; /home/yeison/Documentos/python/apps/pinguinoIDE/x.4/p8/pinguino/libraries/usb/picUSB.c	ctrlTransferStage = SETUP_STAGE;
006888   6b7d     clrf    0x7d, 0x1        	CLRF	_ctrlTransferStage, B
00688a   0103     movlb   0x3              	BANKSEL	_requestHandled
                                           ;	.line	473; /home/yeison/Documentos/python/apps/pinguinoIDE/x.4/p8/pinguino/libraries/usb/picUSB.c	requestHandled = 0;                   // Default is that request hasn't been handled
00688c   6b78     clrf    0x78, 0x1        	CLRF	_requestHandled, B
00688e   0103     movlb   0x3              	BANKSEL	_HIDPostProcess
                                           ;	.line	474; /home/yeison/Documentos/python/apps/pinguinoIDE/x.4/p8/pinguino/libraries/usb/picUSB.c	HIDPostProcess = 0;                   // Assume standard request until know otherwise
006890   6b74     clrf    0x74, 0x1        	CLRF	_HIDPostProcess, B
006892   0103     movlb   0x3              	BANKSEL	_wCount
                                           ;	.line	475; /home/yeison/Documentos/python/apps/pinguinoIDE/x.4/p8/pinguino/libraries/usb/picUSB.c	wCount = 0;                           // No bytes transferred
006894   6b69     clrf    0x69, 0x1        	CLRF	_wCount, B
                                           ; removed redundant BANKSEL
006896   6b6a     clrf    0x6a, 0x1        	CLRF	(_wCount + 1), B
                                           ;	.line	478; /home/yeison/Documentos/python/apps/pinguinoIDE/x.4/p8/pinguino/libraries/usb/picUSB.c	ProcessStandardRequest();
006898   ec8b     call    0x6516, 0        	CALL	_ProcessStandardRequest
00689a   f032
                                           ;	.line	488; /home/yeison/Documentos/python/apps/pinguinoIDE/x.4/p8/pinguino/libraries/usb/picUSB.c	if ((SetupPacket.bmRequestType & USB_RECIP_MASK) == USB_RECIP_INTERFACE)  
00689c   0e1f     movlw   0x1f             	MOVLW	0x1f
00689e   0105     movlb   0x5              	BANKSEL	_SetupPacket
0068a0   1500     andwf   0, 0, 0x1        	ANDWF	_SetupPacket, W, B
                                           ; #	MOVWF	r0x00
                                           ; #	MOVF	r0x00, W
0068a2   0a01     xorlw   0x1              	XORLW	0x01
0068a4   e102     bnz     0x68aa           	BNZ	_00436_DS_
                                           ;	.line	489; /home/yeison/Documentos/python/apps/pinguinoIDE/x.4/p8/pinguino/libraries/usb/picUSB.c	ProcessCDCRequest();
0068a6   ec27     call    0x6c4e, 0        	CALL	_ProcessCDCRequest
0068a8   f036
                                           _00436_DS_:
0068aa   0103     movlb   0x3              	BANKSEL	_requestHandled
                                           ;	.line	492; /home/yeison/Documentos/python/apps/pinguinoIDE/x.4/p8/pinguino/libraries/usb/picUSB.c	if (!requestHandled) {
0068ac   5178     movf    0x78, 0, 0x1     	MOVF	_requestHandled, W, B
0068ae   e10b     bnz     0x68c6           	BNZ	_00443_DS_
                                           ;	.line	494; /home/yeison/Documentos/python/apps/pinguinoIDE/x.4/p8/pinguino/libraries/usb/picUSB.c	EP_OUT_BD(0).Cnt = EP0_BUFFER_SIZE;
0068b0   0e40     movlw   0x40             	MOVLW	0x40
0068b2   0104     movlb   0x4              	BANKSEL	(_ep_bdt + 1)
0068b4   6f01     movwf   0x1, 0x1         	MOVWF	(_ep_bdt + 1), B
                                           ;	.line	495; /home/yeison/Documentos/python/apps/pinguinoIDE/x.4/p8/pinguino/libraries/usb/picUSB.c	EP_OUT_BD(0).ADDR = PTR16(&SetupPacket);
0068b6   0e00     movlw   0                	MOVLW	LOW(_SetupPacket)
                                           ; removed redundant BANKSEL
0068b8   6f02     movwf   0x2, 0x1         	MOVWF	(_ep_bdt + 2), B
0068ba   0e05     movlw   0x5              	MOVLW	HIGH(_SetupPacket)
                                           ; removed redundant BANKSEL
0068bc   6f03     movwf   0x3, 0x1         	MOVWF	(_ep_bdt + 3), B
                                           ; #	MOVLW	0x84
                                           ; #	MOVWF	_ep_bdt, B
                                           ; #	MOVLW	0x84
                                           ;	.line	496; /home/yeison/Documentos/python/apps/pinguinoIDE/x.4/p8/pinguino/libraries/usb/picUSB.c	EP_OUT_BD(0).Stat.uc = BDS_UOWN | BDS_BSTALL;
0068be   0e84     movlw   0x84             	MOVLW	0x84
                                           ; removed redundant BANKSEL
                                           ;	.line	497; /home/yeison/Documentos/python/apps/pinguinoIDE/x.4/p8/pinguino/libraries/usb/picUSB.c	EP_IN_BD(0).Stat.uc = BDS_UOWN | BDS_BSTALL;
0068c0   6f00     movwf   0, 0x1           	MOVWF	_ep_bdt, B
                                           ; removed redundant BANKSEL
0068c2   6f04     movwf   0x4, 0x1         	MOVWF	(_ep_bdt + 4), B
0068c4   d038     bra     0x6936           	BRA	_00444_DS_
                                           _00443_DS_:
0068c6   0105     movlb   0x5              	BANKSEL	_SetupPacket
                                           ;	.line	499; /home/yeison/Documentos/python/apps/pinguinoIDE/x.4/p8/pinguino/libraries/usb/picUSB.c	else if (SetupPacket.bmRequestType & 0x80) {
0068c8   af00     btfss   0, 0x7, 0x1      	BTFSS	_SetupPacket, 7, B
0068ca   d026     bra     0x6918           	BRA	_00440_DS_
0068cc   0103     movlb   0x3              	BANKSEL	(_wCount + 1)
                                           ;	.line	501; /home/yeison/Documentos/python/apps/pinguinoIDE/x.4/p8/pinguino/libraries/usb/picUSB.c	if(SetupPacket.wLength < wCount)
0068ce   516a     movf    0x6a, 0, 0x1     	MOVF	(_wCount + 1), W, B
0068d0   0105     movlb   0x5              	BANKSEL	(_SetupPacket + 7)
0068d2   5d07     subwf   0x7, 0, 0x1      	SUBWF	(_SetupPacket + 7), W, B
0068d4   e104     bnz     0x68de           	BNZ	_00466_DS_
0068d6   0103     movlb   0x3              	BANKSEL	_wCount
0068d8   5169     movf    0x69, 0, 0x1     	MOVF	_wCount, W, B
0068da   0105     movlb   0x5              	BANKSEL	(_SetupPacket + 6)
0068dc   5d06     subwf   0x6, 0, 0x1      	SUBWF	(_SetupPacket + 6), W, B
                                           _00466_DS_:
0068de   e204     bc      0x68e8           	BC	_00438_DS_
                                           ;	.line	502; /home/yeison/Documentos/python/apps/pinguinoIDE/x.4/p8/pinguino/libraries/usb/picUSB.c	wCount = SetupPacket.wLength;
0068e0   c506     movff   0x506, 0x369     	MOVFF	(_SetupPacket + 6), _wCount
0068e2   f369
0068e4   c507     movff   0x507, 0x36a     	MOVFF	(_SetupPacket + 7), (_wCount + 1)
0068e6   f36a
                                           _00438_DS_:
                                           ;	.line	503; /home/yeison/Documentos/python/apps/pinguinoIDE/x.4/p8/pinguino/libraries/usb/picUSB.c	InDataStage(0);
0068e8   0e00     movlw   0                	MOVLW	0x00
0068ea   6ae5     clrf    0xe5, 0          	CLRF	POSTDEC1
0068ec   ec54     call    0x50a8, 0        	CALL	_InDataStage
0068ee   f028
0068f0   52e6     movf    0xe6, 0x1, 0     	MOVF	POSTINC1, F
                                           ;	.line	504; /home/yeison/Documentos/python/apps/pinguinoIDE/x.4/p8/pinguino/libraries/usb/picUSB.c	ctrlTransferStage = DATA_IN_STAGE;
0068f2   0e02     movlw   0x2              	MOVLW	0x02
0068f4   0103     movlb   0x3              	BANKSEL	_ctrlTransferStage
0068f6   6f7d     movwf   0x7d, 0x1        	MOVWF	_ctrlTransferStage, B
                                           ;	.line	506; /home/yeison/Documentos/python/apps/pinguinoIDE/x.4/p8/pinguino/libraries/usb/picUSB.c	EP_OUT_BD(0).Cnt = EP0_BUFFER_SIZE;
0068f8   0e40     movlw   0x40             	MOVLW	0x40
0068fa   0104     movlb   0x4              	BANKSEL	(_ep_bdt + 1)
0068fc   6f01     movwf   0x1, 0x1         	MOVWF	(_ep_bdt + 1), B
                                           ;	.line	507; /home/yeison/Documentos/python/apps/pinguinoIDE/x.4/p8/pinguino/libraries/usb/picUSB.c	EP_OUT_BD(0).ADDR = PTR16(&SetupPacket);
0068fe   0e00     movlw   0                	MOVLW	LOW(_SetupPacket)
                                           ; removed redundant BANKSEL
006900   6f02     movwf   0x2, 0x1         	MOVWF	(_ep_bdt + 2), B
006902   0e05     movlw   0x5              	MOVLW	HIGH(_SetupPacket)
                                           ; removed redundant BANKSEL
006904   6f03     movwf   0x3, 0x1         	MOVWF	(_ep_bdt + 3), B
                                           ;	.line	508; /home/yeison/Documentos/python/apps/pinguinoIDE/x.4/p8/pinguino/libraries/usb/picUSB.c	EP_OUT_BD(0).Stat.uc = BDS_UOWN;
006906   0e80     movlw   0x80             	MOVLW	0x80
                                           ; removed redundant BANKSEL
006908   6f00     movwf   0, 0x1           	MOVWF	_ep_bdt, B
                                           ;	.line	511; /home/yeison/Documentos/python/apps/pinguinoIDE/x.4/p8/pinguino/libraries/usb/picUSB.c	EP_IN_BD(0).ADDR = PTR16(&controlTransferBuffer);
00690a   0e40     movlw   0x40             	MOVLW	LOW(_controlTransferBuffer)
                                           ; removed redundant BANKSEL
00690c   6f06     movwf   0x6, 0x1         	MOVWF	(_ep_bdt + 6), B
00690e   0e05     movlw   0x5              	MOVLW	HIGH(_controlTransferBuffer)
                                           ; removed redundant BANKSEL
006910   6f07     movwf   0x7, 0x1         	MOVWF	(_ep_bdt + 7), B
                                           ;	.line	513; /home/yeison/Documentos/python/apps/pinguinoIDE/x.4/p8/pinguino/libraries/usb/picUSB.c	EP_IN_BD(0).Stat.uc = BDS_UOWN | BDS_DTS | BDS_DTSEN;
006912   0ec8     movlw   0xc8             	MOVLW	0xc8
                                           ; removed redundant BANKSEL
006914   6f04     movwf   0x4, 0x1         	MOVWF	(_ep_bdt + 4), B
006916   d00f     bra     0x6936           	BRA	_00444_DS_
                                           _00440_DS_:
                                           ;	.line	517; /home/yeison/Documentos/python/apps/pinguinoIDE/x.4/p8/pinguino/libraries/usb/picUSB.c	ctrlTransferStage = DATA_OUT_STAGE;
006918   0e01     movlw   0x1              	MOVLW	0x01
00691a   0103     movlb   0x3              	BANKSEL	_ctrlTransferStage
00691c   6f7d     movwf   0x7d, 0x1        	MOVWF	_ctrlTransferStage, B
00691e   0104     movlb   0x4              	BANKSEL	(_ep_bdt + 5)
                                           ;	.line	520; /home/yeison/Documentos/python/apps/pinguinoIDE/x.4/p8/pinguino/libraries/usb/picUSB.c	EP_IN_BD(0).Cnt = 0;
006920   6b05     clrf    0x5, 0x1         	CLRF	(_ep_bdt + 5), B
                                           ;	.line	521; /home/yeison/Documentos/python/apps/pinguinoIDE/x.4/p8/pinguino/libraries/usb/picUSB.c	EP_IN_BD(0).Stat.uc = BDS_UOWN | BDS_DTS | BDS_DTSEN;
006922   0ec8     movlw   0xc8             	MOVLW	0xc8
                                           ; removed redundant BANKSEL
006924   6f04     movwf   0x4, 0x1         	MOVWF	(_ep_bdt + 4), B
                                           ;	.line	524; /home/yeison/Documentos/python/apps/pinguinoIDE/x.4/p8/pinguino/libraries/usb/picUSB.c	EP_OUT_BD(0).Cnt = EP0_BUFFER_SIZE;
006926   0e40     movlw   0x40             	MOVLW	0x40
                                           ; removed redundant BANKSEL
006928   6f01     movwf   0x1, 0x1         	MOVWF	(_ep_bdt + 1), B
                                           ;	.line	525; /home/yeison/Documentos/python/apps/pinguinoIDE/x.4/p8/pinguino/libraries/usb/picUSB.c	EP_OUT_BD(0).ADDR = PTR16(&controlTransferBuffer);
00692a   0e40     movlw   0x40             	MOVLW	LOW(_controlTransferBuffer)
                                           ; removed redundant BANKSEL
00692c   6f02     movwf   0x2, 0x1         	MOVWF	(_ep_bdt + 2), B
00692e   0e05     movlw   0x5              	MOVLW	HIGH(_controlTransferBuffer)
                                           ; removed redundant BANKSEL
006930   6f03     movwf   0x3, 0x1         	MOVWF	(_ep_bdt + 3), B
                                           ;	.line	527; /home/yeison/Documentos/python/apps/pinguinoIDE/x.4/p8/pinguino/libraries/usb/picUSB.c	EP_OUT_BD(0).Stat.uc = BDS_UOWN | BDS_DTS | BDS_DTSEN;
006932   0ec8     movlw   0xc8             	MOVLW	0xc8
                                           ; removed redundant BANKSEL
006934   6f00     movwf   0, 0x1           	MOVWF	_ep_bdt, B
                                           _00444_DS_:
                                           ;	.line	531; /home/yeison/Documentos/python/apps/pinguinoIDE/x.4/p8/pinguino/libraries/usb/picUSB.c	UCONbits.PKTDIS = 0;
006936   986d     bcf     0x6d, 0x4, 0     	BCF	_UCONbits, 4
006938   cfe4     movff   0xfe4, 0         	MOVFF	PREINC1, r0x00
00693a   f000
00693c   0012     return  0                	RETURN	
                                           
                                           ; ; Starting pCode block
                                           S_main__OutDataStage	code
                                           _OutDataStage:
                                           ;	.line	429; /home/yeison/Documentos/python/apps/pinguinoIDE/x.4/p8/pinguino/libraries/usb/picUSB.c	void OutDataStage(unsigned char ep) {
005734   cfd9     movff   0xfd9, 0xfe5     	MOVFF	FSR2L, POSTDEC1
005736   ffe5
005738   cfe1     movff   0xfe1, 0xfd9     	MOVFF	FSR1L, FSR2L
00573a   ffd9
00573c   c000     movff   0, 0xfe5         	MOVFF	r0x00, POSTDEC1
00573e   ffe5
005740   c001     movff   0x1, 0xfe5       	MOVFF	r0x01, POSTDEC1
005742   ffe5
005744   c002     movff   0x2, 0xfe5       	MOVFF	r0x02, POSTDEC1
005746   ffe5
005748   c003     movff   0x3, 0xfe5       	MOVFF	r0x03, POSTDEC1
00574a   ffe5
00574c   c004     movff   0x4, 0xfe5       	MOVFF	r0x04, POSTDEC1
00574e   ffe5
005750   c005     movff   0x5, 0xfe5       	MOVFF	r0x05, POSTDEC1
005752   ffe5
005754   c006     movff   0x6, 0xfe5       	MOVFF	r0x06, POSTDEC1
005756   ffe5
005758   c007     movff   0x7, 0xfe5       	MOVFF	r0x07, POSTDEC1
00575a   ffe5
00575c   c008     movff   0x8, 0xfe5       	MOVFF	r0x08, POSTDEC1
00575e   ffe5
005760   c009     movff   0x9, 0xfe5       	MOVFF	r0x09, POSTDEC1
005762   ffe5
005764   0e02     movlw   0x2              	MOVLW	0x02
005766   cfdb     movff   0xfdb, 0         	MOVFF	PLUSW2, r0x00
005768   f000
                                           ;	.line	432; /home/yeison/Documentos/python/apps/pinguinoIDE/x.4/p8/pinguino/libraries/usb/picUSB.c	bufferSize = ((0x03 & EP_OUT_BD(ep).Stat.uc) << 8) | EP_OUT_BD(ep).Cnt;
00576a   4400     rlncf   0, 0, 0          	RLNCF	r0x00, W
00576c   0bfe     andlw   0xfe             	ANDLW	0xfe
                                           ; #	MOVWF	r0x01
                                           ; #;;multiply lit val:0x04 by variable r0x01 and store in r0x00
                                           ; #	MOVF	r0x01, W
00576e   0d04     mullw   0x4              	MULLW	0x04
005770   50f4     movf    0xf4, 0, 0       	MOVF	PRODH, W
005772   6e02     movwf   0x2, 0           	MOVWF	r0x02
005774   cff3     movff   0xff3, 0         	MOVFF	PRODL, r0x00
005776   f000
005778   0e00     movlw   0                	MOVLW	LOW(_ep_bdt)
00577a   2400     addwf   0, 0, 0          	ADDWF	r0x00, W
00577c   6e01     movwf   0x1, 0           	MOVWF	r0x01
00577e   0e04     movlw   0x4              	MOVLW	HIGH(_ep_bdt)
005780   2002     addwfc  0x2, 0, 0        	ADDWFC	r0x02, W
005782   6e03     movwf   0x3, 0           	MOVWF	r0x03
005784   c001     movff   0x1, 0xfe9       	MOVFF	r0x01, FSR0L
005786   ffe9
005788   c003     movff   0x3, 0xfea       	MOVFF	r0x03, FSR0H
00578a   ffea
00578c   cfef     movff   0xfef, 0x1       	MOVFF	INDF0, r0x01
00578e   f001
005790   0e03     movlw   0x3              	MOVLW	0x03
005792   1601     andwf   0x1, 0x1, 0      	ANDWF	r0x01, F
005794   5001     movf    0x1, 0, 0        	MOVF	r0x01, W
005796   6e05     movwf   0x5, 0           	MOVWF	r0x05
005798   6a04     clrf    0x4, 0           	CLRF	r0x04
00579a   0e00     movlw   0                	MOVLW	LOW(_ep_bdt)
00579c   2600     addwf   0, 0x1, 0        	ADDWF	r0x00, F
00579e   0e04     movlw   0x4              	MOVLW	HIGH(_ep_bdt)
0057a0   2202     addwfc  0x2, 0x1, 0      	ADDWFC	r0x02, F
0057a2   4a00     infsnz  0, 0x1, 0        	INFSNZ	r0x00, F
0057a4   2a02     incf    0x2, 0x1, 0      	INCF	r0x02, F
0057a6   c000     movff   0, 0xfe9         	MOVFF	r0x00, FSR0L
0057a8   ffe9
0057aa   c002     movff   0x2, 0xfea       	MOVFF	r0x02, FSR0H
0057ac   ffea
0057ae   cfef     movff   0xfef, 0         	MOVFF	INDF0, r0x00
0057b0   f000
0057b2   6a01     clrf    0x1, 0           	CLRF	r0x01
0057b4   5004     movf    0x4, 0, 0        	MOVF	r0x04, W
0057b6   1200     iorwf   0, 0x1, 0        	IORWF	r0x00, F
0057b8   5005     movf    0x5, 0, 0        	MOVF	r0x05, W
0057ba   1201     iorwf   0x1, 0x1, 0      	IORWF	r0x01, F
                                           ;	.line	439; /home/yeison/Documentos/python/apps/pinguinoIDE/x.4/p8/pinguino/libraries/usb/picUSB.c	wCount = wCount + bufferSize;
0057bc   5000     movf    0, 0, 0          	MOVF	r0x00, W
0057be   0103     movlb   0x3              	BANKSEL	_wCount
0057c0   2769     addwf   0x69, 0x1, 0x1   	ADDWF	_wCount, F, B
0057c2   5001     movf    0x1, 0, 0        	MOVF	r0x01, W
                                           ; removed redundant BANKSEL
0057c4   236a     addwfc  0x6a, 0x1, 0x1   	ADDWFC	(_wCount + 1), F, B
                                           ;	.line	441; /home/yeison/Documentos/python/apps/pinguinoIDE/x.4/p8/pinguino/libraries/usb/picUSB.c	outPtr = (u8*)&controlTransferBuffer;
0057c6   0e05     movlw   0x5              	MOVLW	HIGH(_controlTransferBuffer)
0057c8   0103     movlb   0x3              	BANKSEL	(_outPtr + 1)
0057ca   6f5e     movwf   0x5e, 0x1        	MOVWF	(_outPtr + 1), B
0057cc   0e40     movlw   0x40             	MOVLW	LOW(_controlTransferBuffer)
                                           ; removed redundant BANKSEL
0057ce   6f5d     movwf   0x5d, 0x1        	MOVWF	_outPtr, B
0057d0   0e80     movlw   0x80             	MOVLW	0x80
                                           ; removed redundant BANKSEL
0057d2   6f5f     movwf   0x5f, 0x1        	MOVWF	(_outPtr + 2), B
                                           ;	.line	445; /home/yeison/Documentos/python/apps/pinguinoIDE/x.4/p8/pinguino/libraries/usb/picUSB.c	for (i=0;i<bufferSize;i++) {
0057d4   6a02     clrf    0x2, 0           	CLRF	r0x02
0057d6   6a03     clrf    0x3, 0           	CLRF	r0x03
                                           _00415_DS_:
0057d8   5001     movf    0x1, 0, 0        	MOVF	r0x01, W
0057da   5c03     subwf   0x3, 0, 0        	SUBWF	r0x03, W
0057dc   e102     bnz     0x57e2           	BNZ	_00428_DS_
0057de   5000     movf    0, 0, 0          	MOVF	r0x00, W
0057e0   5c02     subwf   0x2, 0, 0        	SUBWF	r0x02, W
                                           _00428_DS_:
0057e2   e22c     bc      0x583c           	BC	_00417_DS_
                                           ;	.line	449; /home/yeison/Documentos/python/apps/pinguinoIDE/x.4/p8/pinguino/libraries/usb/picUSB.c	*inPtr++ = *outPtr++;
0057e4   c360     movff   0x360, 0x4       	MOVFF	_inPtr, r0x04
0057e6   f004
0057e8   c361     movff   0x361, 0x5       	MOVFF	(_inPtr + 1), r0x05
0057ea   f005
0057ec   c362     movff   0x362, 0x6       	MOVFF	(_inPtr + 2), r0x06
0057ee   f006
0057f0   c35d     movff   0x35d, 0x7       	MOVFF	_outPtr, r0x07
0057f2   f007
0057f4   c35e     movff   0x35e, 0x8       	MOVFF	(_outPtr + 1), r0x08
0057f6   f008
0057f8   c35f     movff   0x35f, 0x9       	MOVFF	(_outPtr + 2), r0x09
0057fa   f009
0057fc   c007     movff   0x7, 0xfe9       	MOVFF	r0x07, FSR0L
0057fe   ffe9
005800   c008     movff   0x8, 0xff3       	MOVFF	r0x08, PRODL
005802   fff3
005804   5009     movf    0x9, 0, 0        	MOVF	r0x09, W
005806   ec29     call    0x52, 0          	CALL	__gptrget1
005808   f000
00580a   6e07     movwf   0x7, 0           	MOVWF	r0x07
00580c   0103     movlb   0x3              	BANKSEL	_outPtr
00580e   2b5d     incf    0x5d, 0x1, 0x1   	INCF	_outPtr, F, B
005810   e303     bnc     0x5818           	BNC	_00429_DS_
                                           ; removed redundant BANKSEL
005812   3f5e     incfsz  0x5e, 0x1, 0x1   	INCFSZ	(_outPtr + 1), F, B
005814   d001     bra     0x5818           	BRA	_142467_DS_
                                           ; removed redundant BANKSEL
005816   2b5f     incf    0x5f, 0x1, 0x1   	INCF	(_outPtr + 2), F, B
                                           _142467_DS_:
                                           _00429_DS_:
005818   c007     movff   0x7, 0xfe5       	MOVFF	r0x07, POSTDEC1
00581a   ffe5
00581c   c004     movff   0x4, 0xfe9       	MOVFF	r0x04, FSR0L
00581e   ffe9
005820   c005     movff   0x5, 0xff3       	MOVFF	r0x05, PRODL
005822   fff3
005824   5006     movf    0x6, 0, 0        	MOVF	r0x06, W
005826   ec31     call    0x62, 0          	CALL	__gptrput1
005828   f000
00582a   0103     movlb   0x3              	BANKSEL	_inPtr
00582c   2b60     incf    0x60, 0x1, 0x1   	INCF	_inPtr, F, B
00582e   e303     bnc     0x5836           	BNC	_00430_DS_
                                           ; removed redundant BANKSEL
005830   3f61     incfsz  0x61, 0x1, 0x1   	INCFSZ	(_inPtr + 1), F, B
005832   d001     bra     0x5836           	BRA	_152468_DS_
                                           ; removed redundant BANKSEL
005834   2b62     incf    0x62, 0x1, 0x1   	INCF	(_inPtr + 2), F, B
                                           _152468_DS_:
                                           _00430_DS_:
                                           ;	.line	445; /home/yeison/Documentos/python/apps/pinguinoIDE/x.4/p8/pinguino/libraries/usb/picUSB.c	for (i=0;i<bufferSize;i++) {
005836   4a02     infsnz  0x2, 0x1, 0      	INFSNZ	r0x02, F
005838   2a03     incf    0x3, 0x1, 0      	INCF	r0x03, F
00583a   d7ce     bra     0x57d8           	BRA	_00415_DS_
                                           _00417_DS_:
00583c   cfe4     movff   0xfe4, 0x9       	MOVFF	PREINC1, r0x09
00583e   f009
005840   cfe4     movff   0xfe4, 0x8       	MOVFF	PREINC1, r0x08
005842   f008
005844   cfe4     movff   0xfe4, 0x7       	MOVFF	PREINC1, r0x07
005846   f007
005848   cfe4     movff   0xfe4, 0x6       	MOVFF	PREINC1, r0x06
00584a   f006
00584c   cfe4     movff   0xfe4, 0x5       	MOVFF	PREINC1, r0x05
00584e   f005
005850   cfe4     movff   0xfe4, 0x4       	MOVFF	PREINC1, r0x04
005852   f004
005854   cfe4     movff   0xfe4, 0x3       	MOVFF	PREINC1, r0x03
005856   f003
005858   cfe4     movff   0xfe4, 0x2       	MOVFF	PREINC1, r0x02
00585a   f002
00585c   cfe4     movff   0xfe4, 0x1       	MOVFF	PREINC1, r0x01
00585e   f001
005860   cfe4     movff   0xfe4, 0         	MOVFF	PREINC1, r0x00
005862   f000
005864   cfe4     movff   0xfe4, 0xfd9     	MOVFF	PREINC1, FSR2L
005866   ffd9
005868   0012     return  0                	RETURN	
                                           
                                           ; ; Starting pCode block
                                           S_main__InDataStage	code
                                           _InDataStage:
                                           ;	.line	382; /home/yeison/Documentos/python/apps/pinguinoIDE/x.4/p8/pinguino/libraries/usb/picUSB.c	void InDataStage(unsigned char ep) {
0050a8   cfd9     movff   0xfd9, 0xfe5     	MOVFF	FSR2L, POSTDEC1
0050aa   ffe5
0050ac   cfe1     movff   0xfe1, 0xfd9     	MOVFF	FSR1L, FSR2L
0050ae   ffd9
0050b0   c000     movff   0, 0xfe5         	MOVFF	r0x00, POSTDEC1
0050b2   ffe5
0050b4   c001     movff   0x1, 0xfe5       	MOVFF	r0x01, POSTDEC1
0050b6   ffe5
0050b8   c002     movff   0x2, 0xfe5       	MOVFF	r0x02, POSTDEC1
0050ba   ffe5
0050bc   c003     movff   0x3, 0xfe5       	MOVFF	r0x03, POSTDEC1
0050be   ffe5
0050c0   c004     movff   0x4, 0xfe5       	MOVFF	r0x04, POSTDEC1
0050c2   ffe5
0050c4   c005     movff   0x5, 0xfe5       	MOVFF	r0x05, POSTDEC1
0050c6   ffe5
0050c8   c006     movff   0x6, 0xfe5       	MOVFF	r0x06, POSTDEC1
0050ca   ffe5
0050cc   c007     movff   0x7, 0xfe5       	MOVFF	r0x07, POSTDEC1
0050ce   ffe5
0050d0   c008     movff   0x8, 0xfe5       	MOVFF	r0x08, POSTDEC1
0050d2   ffe5
0050d4   0e02     movlw   0x2              	MOVLW	0x02
0050d6   cfdb     movff   0xfdb, 0         	MOVFF	PLUSW2, r0x00
0050d8   f000
                                           ;	.line	389; /home/yeison/Documentos/python/apps/pinguinoIDE/x.4/p8/pinguino/libraries/usb/picUSB.c	if(wCount < EP0_BUFFER_SIZE)
0050da   0e00     movlw   0                	MOVLW	0x00
0050dc   0103     movlb   0x3              	BANKSEL	(_wCount + 1)
0050de   5d6a     subwf   0x6a, 0, 0x1     	SUBWF	(_wCount + 1), W, B
0050e0   e102     bnz     0x50e6           	BNZ	_00400_DS_
0050e2   0e40     movlw   0x40             	MOVLW	0x40
                                           ; removed redundant BANKSEL
0050e4   5d69     subwf   0x69, 0, 0x1     	SUBWF	_wCount, W, B
                                           _00400_DS_:
0050e6   e205     bc      0x50f2           	BC	_00382_DS_
                                           ;	.line	390; /home/yeison/Documentos/python/apps/pinguinoIDE/x.4/p8/pinguino/libraries/usb/picUSB.c	bufferSize = wCount;
0050e8   c369     movff   0x369, 0x1       	MOVFF	_wCount, r0x01
0050ea   f001
0050ec   c36a     movff   0x36a, 0x2       	MOVFF	(_wCount + 1), r0x02
0050ee   f002
0050f0   d003     bra     0x50f8           	BRA	_00383_DS_
                                           _00382_DS_:
                                           ;	.line	392; /home/yeison/Documentos/python/apps/pinguinoIDE/x.4/p8/pinguino/libraries/usb/picUSB.c	bufferSize = EP0_BUFFER_SIZE;
0050f2   0e40     movlw   0x40             	MOVLW	0x40
0050f4   6e01     movwf   0x1, 0           	MOVWF	r0x01
0050f6   6a02     clrf    0x2, 0           	CLRF	r0x02
                                           _00383_DS_:
                                           ;	.line	400; /home/yeison/Documentos/python/apps/pinguinoIDE/x.4/p8/pinguino/libraries/usb/picUSB.c	EP_IN_BD(ep).Stat.uc &= ~(BDS_BC8 | BDS_BC9);
0050f8   4400     rlncf   0, 0, 0          	RLNCF	r0x00, W
0050fa   0bfe     andlw   0xfe             	ANDLW	0xfe
0050fc   6e03     movwf   0x3, 0           	MOVWF	r0x03
0050fe   2803     incf    0x3, 0, 0        	INCF	r0x03, W
                                           ; #	MOVWF	r0x00
                                           ; #;;multiply lit val:0x04 by variable r0x00 and store in r0x00
                                           ; #	MOVF	r0x00, W
005100   0d04     mullw   0x4              	MULLW	0x04
005102   50f4     movf    0xf4, 0, 0       	MOVF	PRODH, W
005104   6e03     movwf   0x3, 0           	MOVWF	r0x03
005106   cff3     movff   0xff3, 0         	MOVFF	PRODL, r0x00
005108   f000
00510a   0e00     movlw   0                	MOVLW	LOW(_ep_bdt)
00510c   2400     addwf   0, 0, 0          	ADDWF	r0x00, W
00510e   6e04     movwf   0x4, 0           	MOVWF	r0x04
005110   0e04     movlw   0x4              	MOVLW	HIGH(_ep_bdt)
005112   2003     addwfc  0x3, 0, 0        	ADDWFC	r0x03, W
005114   6e05     movwf   0x5, 0           	MOVWF	r0x05
005116   0e00     movlw   0                	MOVLW	LOW(_ep_bdt)
005118   2400     addwf   0, 0, 0          	ADDWF	r0x00, W
00511a   6e06     movwf   0x6, 0           	MOVWF	r0x06
00511c   0e04     movlw   0x4              	MOVLW	HIGH(_ep_bdt)
00511e   2003     addwfc  0x3, 0, 0        	ADDWFC	r0x03, W
005120   6e07     movwf   0x7, 0           	MOVWF	r0x07
005122   c006     movff   0x6, 0xfe9       	MOVFF	r0x06, FSR0L
005124   ffe9
005126   c007     movff   0x7, 0xfea       	MOVFF	r0x07, FSR0H
005128   ffea
00512a   cfef     movff   0xfef, 0x6       	MOVFF	INDF0, r0x06
00512c   f006
00512e   0efc     movlw   0xfc             	MOVLW	0xfc
005130   1606     andwf   0x6, 0x1, 0      	ANDWF	r0x06, F
005132   c004     movff   0x4, 0xfe9       	MOVFF	r0x04, FSR0L
005134   ffe9
005136   c005     movff   0x5, 0xfea       	MOVFF	r0x05, FSR0H
005138   ffea
00513a   c006     movff   0x6, 0xfef       	MOVFF	r0x06, INDF0
00513c   ffef
                                           ;	.line	401; /home/yeison/Documentos/python/apps/pinguinoIDE/x.4/p8/pinguino/libraries/usb/picUSB.c	EP_IN_BD(ep).Stat.uc |= (u8)((bufferSize & 0x0300) >> 8);
00513e   0e00     movlw   0                	MOVLW	LOW(_ep_bdt)
005140   2400     addwf   0, 0, 0          	ADDWF	r0x00, W
005142   6e04     movwf   0x4, 0           	MOVWF	r0x04
005144   0e04     movlw   0x4              	MOVLW	HIGH(_ep_bdt)
005146   2003     addwfc  0x3, 0, 0        	ADDWFC	r0x03, W
005148   6e05     movwf   0x5, 0           	MOVWF	r0x05
00514a   0e00     movlw   0                	MOVLW	LOW(_ep_bdt)
00514c   2400     addwf   0, 0, 0          	ADDWF	r0x00, W
00514e   6e06     movwf   0x6, 0           	MOVWF	r0x06
005150   0e04     movlw   0x4              	MOVLW	HIGH(_ep_bdt)
005152   2003     addwfc  0x3, 0, 0        	ADDWFC	r0x03, W
005154   6e07     movwf   0x7, 0           	MOVWF	r0x07
005156   c006     movff   0x6, 0xfe9       	MOVFF	r0x06, FSR0L
005158   ffe9
00515a   c007     movff   0x7, 0xfea       	MOVFF	r0x07, FSR0H
00515c   ffea
00515e   cfef     movff   0xfef, 0x6       	MOVFF	INDF0, r0x06
005160   f006
005162   0e03     movlw   0x3              	MOVLW	0x03
005164   1402     andwf   0x2, 0, 0        	ANDWF	r0x02, W
                                           ; #	MOVWF	r0x08
                                           ; #	MOVF	r0x08, W
005166   1206     iorwf   0x6, 0x1, 0      	IORWF	r0x06, F
005168   c004     movff   0x4, 0xfe9       	MOVFF	r0x04, FSR0L
00516a   ffe9
00516c   c005     movff   0x5, 0xfea       	MOVFF	r0x05, FSR0H
00516e   ffea
005170   c006     movff   0x6, 0xfef       	MOVFF	r0x06, INDF0
005172   ffef
                                           ;	.line	402; /home/yeison/Documentos/python/apps/pinguinoIDE/x.4/p8/pinguino/libraries/usb/picUSB.c	EP_IN_BD(ep).Cnt = (u8)(bufferSize & 0xFF);
005174   0e00     movlw   0                	MOVLW	LOW(_ep_bdt)
005176   2400     addwf   0, 0, 0          	ADDWF	r0x00, W
005178   6e04     movwf   0x4, 0           	MOVWF	r0x04
00517a   0e04     movlw   0x4              	MOVLW	HIGH(_ep_bdt)
00517c   2003     addwfc  0x3, 0, 0        	ADDWFC	r0x03, W
00517e   6e05     movwf   0x5, 0           	MOVWF	r0x05
005180   4a04     infsnz  0x4, 0x1, 0      	INFSNZ	r0x04, F
005182   2a05     incf    0x5, 0x1, 0      	INCF	r0x05, F
005184   5001     movf    0x1, 0, 0        	MOVF	r0x01, W
005186   6e06     movwf   0x6, 0           	MOVWF	r0x06
005188   c004     movff   0x4, 0xfe9       	MOVFF	r0x04, FSR0L
00518a   ffe9
00518c   c005     movff   0x5, 0xfea       	MOVFF	r0x05, FSR0H
00518e   ffea
005190   c006     movff   0x6, 0xfef       	MOVFF	r0x06, INDF0
005192   ffef
                                           ;	.line	403; /home/yeison/Documentos/python/apps/pinguinoIDE/x.4/p8/pinguino/libraries/usb/picUSB.c	EP_IN_BD(ep).ADDR = PTR16(&controlTransferBuffer);
005194   0e00     movlw   0                	MOVLW	LOW(_ep_bdt)
005196   2600     addwf   0, 0x1, 0        	ADDWF	r0x00, F
005198   0e04     movlw   0x4              	MOVLW	HIGH(_ep_bdt)
00519a   2203     addwfc  0x3, 0x1, 0      	ADDWFC	r0x03, F
00519c   0e02     movlw   0x2              	MOVLW	0x02
00519e   2600     addwf   0, 0x1, 0        	ADDWF	r0x00, F
0051a0   b0d8     btfsc   0xd8, 0, 0       	BTFSC	STATUS, 0
0051a2   2a03     incf    0x3, 0x1, 0      	INCF	r0x03, F
0051a4   0e40     movlw   0x40             	MOVLW	LOW(_controlTransferBuffer)
0051a6   6e04     movwf   0x4, 0           	MOVWF	r0x04
0051a8   0e05     movlw   0x5              	MOVLW	HIGH(_controlTransferBuffer)
0051aa   6e05     movwf   0x5, 0           	MOVWF	r0x05
0051ac   c000     movff   0, 0xfe9         	MOVFF	r0x00, FSR0L
0051ae   ffe9
0051b0   c003     movff   0x3, 0xfea       	MOVFF	r0x03, FSR0H
0051b2   ffea
0051b4   c004     movff   0x4, 0xfee       	MOVFF	r0x04, POSTINC0
0051b6   ffee
0051b8   c005     movff   0x5, 0xfef       	MOVFF	r0x05, INDF0
0051ba   ffef
                                           ;	.line	408; /home/yeison/Documentos/python/apps/pinguinoIDE/x.4/p8/pinguino/libraries/usb/picUSB.c	wCount = wCount - bufferSize;
0051bc   5001     movf    0x1, 0, 0        	MOVF	r0x01, W
0051be   0103     movlb   0x3              	BANKSEL	_wCount
0051c0   5f69     subwf   0x69, 0x1, 0x1   	SUBWF	_wCount, F, B
0051c2   5002     movf    0x2, 0, 0        	MOVF	r0x02, W
                                           ; removed redundant BANKSEL
0051c4   5b6a     subwfb  0x6a, 0x1, 0x1   	SUBWFB	(_wCount + 1), F, B
                                           ;	.line	411; /home/yeison/Documentos/python/apps/pinguinoIDE/x.4/p8/pinguino/libraries/usb/picUSB.c	inPtr = (u8 *)&controlTransferBuffer;
0051c6   0e05     movlw   0x5              	MOVLW	HIGH(_controlTransferBuffer)
0051c8   0103     movlb   0x3              	BANKSEL	(_inPtr + 1)
0051ca   6f61     movwf   0x61, 0x1        	MOVWF	(_inPtr + 1), B
0051cc   0e40     movlw   0x40             	MOVLW	LOW(_controlTransferBuffer)
                                           ; removed redundant BANKSEL
0051ce   6f60     movwf   0x60, 0x1        	MOVWF	_inPtr, B
0051d0   0e80     movlw   0x80             	MOVLW	0x80
                                           ; removed redundant BANKSEL
0051d2   6f62     movwf   0x62, 0x1        	MOVWF	(_inPtr + 2), B
                                           ;	.line	416; /home/yeison/Documentos/python/apps/pinguinoIDE/x.4/p8/pinguino/libraries/usb/picUSB.c	for (i=0;i<bufferSize;i++) {
0051d4   6a00     clrf    0, 0             	CLRF	r0x00
                                           _00386_DS_:
0051d6   c000     movff   0, 0x3           	MOVFF	r0x00, r0x03
0051d8   f003
0051da   6a04     clrf    0x4, 0           	CLRF	r0x04
0051dc   5002     movf    0x2, 0, 0        	MOVF	r0x02, W
0051de   5c04     subwf   0x4, 0, 0        	SUBWF	r0x04, W
0051e0   e102     bnz     0x51e6           	BNZ	_00406_DS_
0051e2   5001     movf    0x1, 0, 0        	MOVF	r0x01, W
0051e4   5c03     subwf   0x3, 0, 0        	SUBWF	r0x03, W
                                           _00406_DS_:
0051e6   e22b     bc      0x523e           	BC	_00388_DS_
                                           ;	.line	420; /home/yeison/Documentos/python/apps/pinguinoIDE/x.4/p8/pinguino/libraries/usb/picUSB.c	*inPtr++ = *outPtr++;
0051e8   c360     movff   0x360, 0x3       	MOVFF	_inPtr, r0x03
0051ea   f003
0051ec   c361     movff   0x361, 0x4       	MOVFF	(_inPtr + 1), r0x04
0051ee   f004
0051f0   c362     movff   0x362, 0x5       	MOVFF	(_inPtr + 2), r0x05
0051f2   f005
0051f4   c35d     movff   0x35d, 0x6       	MOVFF	_outPtr, r0x06
0051f6   f006
0051f8   c35e     movff   0x35e, 0x7       	MOVFF	(_outPtr + 1), r0x07
0051fa   f007
0051fc   c35f     movff   0x35f, 0x8       	MOVFF	(_outPtr + 2), r0x08
0051fe   f008
005200   c006     movff   0x6, 0xfe9       	MOVFF	r0x06, FSR0L
005202   ffe9
005204   c007     movff   0x7, 0xff3       	MOVFF	r0x07, PRODL
005206   fff3
005208   5008     movf    0x8, 0, 0        	MOVF	r0x08, W
00520a   ec29     call    0x52, 0          	CALL	__gptrget1
00520c   f000
00520e   6e06     movwf   0x6, 0           	MOVWF	r0x06
005210   0103     movlb   0x3              	BANKSEL	_outPtr
005212   2b5d     incf    0x5d, 0x1, 0x1   	INCF	_outPtr, F, B
005214   e303     bnc     0x521c           	BNC	_00407_DS_
                                           ; removed redundant BANKSEL
005216   3f5e     incfsz  0x5e, 0x1, 0x1   	INCFSZ	(_outPtr + 1), F, B
005218   d001     bra     0x521c           	BRA	_162469_DS_
                                           ; removed redundant BANKSEL
00521a   2b5f     incf    0x5f, 0x1, 0x1   	INCF	(_outPtr + 2), F, B
                                           _162469_DS_:
                                           _00407_DS_:
00521c   c006     movff   0x6, 0xfe5       	MOVFF	r0x06, POSTDEC1
00521e   ffe5
005220   c003     movff   0x3, 0xfe9       	MOVFF	r0x03, FSR0L
005222   ffe9
005224   c004     movff   0x4, 0xff3       	MOVFF	r0x04, PRODL
005226   fff3
005228   5005     movf    0x5, 0, 0        	MOVF	r0x05, W
00522a   ec31     call    0x62, 0          	CALL	__gptrput1
00522c   f000
00522e   0103     movlb   0x3              	BANKSEL	_inPtr
005230   2b60     incf    0x60, 0x1, 0x1   	INCF	_inPtr, F, B
005232   e303     bnc     0x523a           	BNC	_00408_DS_
                                           ; removed redundant BANKSEL
005234   3f61     incfsz  0x61, 0x1, 0x1   	INCFSZ	(_inPtr + 1), F, B
005236   d001     bra     0x523a           	BRA	_172470_DS_
                                           ; removed redundant BANKSEL
005238   2b62     incf    0x62, 0x1, 0x1   	INCF	(_inPtr + 2), F, B
                                           _172470_DS_:
                                           _00408_DS_:
                                           ;	.line	416; /home/yeison/Documentos/python/apps/pinguinoIDE/x.4/p8/pinguino/libraries/usb/picUSB.c	for (i=0;i<bufferSize;i++) {
00523a   2a00     incf    0, 0x1, 0        	INCF	r0x00, F
00523c   d7cc     bra     0x51d6           	BRA	_00386_DS_
                                           _00388_DS_:
00523e   cfe4     movff   0xfe4, 0x8       	MOVFF	PREINC1, r0x08
005240   f008
005242   cfe4     movff   0xfe4, 0x7       	MOVFF	PREINC1, r0x07
005244   f007
005246   cfe4     movff   0xfe4, 0x6       	MOVFF	PREINC1, r0x06
005248   f006
00524a   cfe4     movff   0xfe4, 0x5       	MOVFF	PREINC1, r0x05
00524c   f005
00524e   cfe4     movff   0xfe4, 0x4       	MOVFF	PREINC1, r0x04
005250   f004
005252   cfe4     movff   0xfe4, 0x3       	MOVFF	PREINC1, r0x03
005254   f003
005256   cfe4     movff   0xfe4, 0x2       	MOVFF	PREINC1, r0x02
005258   f002
00525a   cfe4     movff   0xfe4, 0x1       	MOVFF	PREINC1, r0x01
00525c   f001
00525e   cfe4     movff   0xfe4, 0         	MOVFF	PREINC1, r0x00
005260   f000
005262   cfe4     movff   0xfe4, 0xfd9     	MOVFF	PREINC1, FSR2L
005264   ffd9
005266   0012     return  0                	RETURN	
                                           
                                           ; ; Starting pCode block
                                           S_main__ProcessStandardRequest	code
                                           _ProcessStandardRequest:
                                           ;	.line	271; /home/yeison/Documentos/python/apps/pinguinoIDE/x.4/p8/pinguino/libraries/usb/picUSB.c	void ProcessStandardRequest(void) {
006516   c000     movff   0, 0xfe5         	MOVFF	r0x00, POSTDEC1
006518   ffe5
                                           ;	.line	272; /home/yeison/Documentos/python/apps/pinguinoIDE/x.4/p8/pinguino/libraries/usb/picUSB.c	u8 request = SetupPacket.bRequest;
00651a   c501     movff   0x501, 0         	MOVFF	(_SetupPacket + 1), r0x00
00651c   f000
00651e   0105     movlb   0x5              	BANKSEL	_SetupPacket
                                           ;	.line	274; /home/yeison/Documentos/python/apps/pinguinoIDE/x.4/p8/pinguino/libraries/usb/picUSB.c	if((SetupPacket.bmRequestType & 0x60) != 0x00)
006520   5100     movf    0, 0, 0x1        	MOVF	_SetupPacket, W, B
                                           ; #	ANDLW	0x60
                                           ; #	BTFSC	STATUS, 2
                                           ; #	GOTO	_00295_DS_
                                           ; #	GOTO	_00327_DS_
                                           ; #	MOVF	r0x00, W
                                           ;	.line	277; /home/yeison/Documentos/python/apps/pinguinoIDE/x.4/p8/pinguino/libraries/usb/picUSB.c	return;
006522   0b60     andlw   0x60             	ANDLW	0x60
                                           ;	.line	279; /home/yeison/Documentos/python/apps/pinguinoIDE/x.4/p8/pinguino/libraries/usb/picUSB.c	if (request == SET_ADDRESS) {
006524   a4d8     btfss   0xd8, 0x2, 0     	BTFSS	STATUS, 2
006526   d061     bra     0x65ea           	BRA	_00327_DS_
006528   5000     movf    0, 0, 0          	MOVF	r0x00, W
00652a   0a05     xorlw   0x5              	XORLW	0x05
00652c   e109     bnz     0x6540           	BNZ	_00325_DS_
                                           ;	.line	287; /home/yeison/Documentos/python/apps/pinguinoIDE/x.4/p8/pinguino/libraries/usb/picUSB.c	requestHandled = 1;
00652e   0e01     movlw   0x1              	MOVLW	0x01
006530   0103     movlb   0x3              	BANKSEL	_requestHandled
006532   6f78     movwf   0x78, 0x1        	MOVWF	_requestHandled, B
                                           ;	.line	288; /home/yeison/Documentos/python/apps/pinguinoIDE/x.4/p8/pinguino/libraries/usb/picUSB.c	deviceState = ADDRESS;
006534   0e04     movlw   0x4              	MOVLW	0x04
006536   0103     movlb   0x3              	BANKSEL	_deviceState
006538   6f7b     movwf   0x7b, 0x1        	MOVWF	_deviceState, B
                                           ;	.line	289; /home/yeison/Documentos/python/apps/pinguinoIDE/x.4/p8/pinguino/libraries/usb/picUSB.c	deviceAddress = SetupPacket.wValue0;
00653a   c502     movff   0x502, 0x373     	MOVFF	(_SetupPacket + 2), _deviceAddress
00653c   f373
00653e   d055     bra     0x65ea           	BRA	_00327_DS_
                                           _00325_DS_:
                                           ;	.line	291; /home/yeison/Documentos/python/apps/pinguinoIDE/x.4/p8/pinguino/libraries/usb/picUSB.c	else if (request == GET_DESCRIPTOR) {
006540   5000     movf    0, 0, 0          	MOVF	r0x00, W
006542   0a06     xorlw   0x6              	XORLW	0x06
006544   e103     bnz     0x654c           	BNZ	_00322_DS_
                                           ;	.line	292; /home/yeison/Documentos/python/apps/pinguinoIDE/x.4/p8/pinguino/libraries/usb/picUSB.c	GetDescriptor();
006546   eca9     call    0x6152, 0        	CALL	_GetDescriptor
006548   f030
00654a   d04f     bra     0x65ea           	BRA	_00327_DS_
                                           _00322_DS_:
                                           ;	.line	294; /home/yeison/Documentos/python/apps/pinguinoIDE/x.4/p8/pinguino/libraries/usb/picUSB.c	else if (request == SET_CONFIGURATION) {
00654c   5000     movf    0, 0, 0          	MOVF	r0x00, W
00654e   0a09     xorlw   0x9              	XORLW	0x09
006550   e112     bnz     0x6576           	BNZ	_00319_DS_
                                           ;	.line	298; /home/yeison/Documentos/python/apps/pinguinoIDE/x.4/p8/pinguino/libraries/usb/picUSB.c	requestHandled = 1;
006552   0e01     movlw   0x1              	MOVLW	0x01
006554   0103     movlb   0x3              	BANKSEL	_requestHandled
006556   6f78     movwf   0x78, 0x1        	MOVWF	_requestHandled, B
                                           ;	.line	299; /home/yeison/Documentos/python/apps/pinguinoIDE/x.4/p8/pinguino/libraries/usb/picUSB.c	currentConfiguration = SetupPacket.wValue0;
006558   c502     movff   0x502, 0x37c     	MOVFF	(_SetupPacket + 2), _currentConfiguration
00655a   f37c
00655c   0103     movlb   0x3              	BANKSEL	_currentConfiguration
                                           ;	.line	302; /home/yeison/Documentos/python/apps/pinguinoIDE/x.4/p8/pinguino/libraries/usb/picUSB.c	if (currentConfiguration == 0)
00655e   517c     movf    0x7c, 0, 0x1     	MOVF	_currentConfiguration, W, B
006560   e104     bnz     0x656a           	BNZ	_00297_DS_
                                           ;	.line	305; /home/yeison/Documentos/python/apps/pinguinoIDE/x.4/p8/pinguino/libraries/usb/picUSB.c	deviceState = ADDRESS;
006562   0e04     movlw   0x4              	MOVLW	0x04
006564   0103     movlb   0x3              	BANKSEL	_deviceState
006566   6f7b     movwf   0x7b, 0x1        	MOVWF	_deviceState, B
006568   d040     bra     0x65ea           	BRA	_00327_DS_
                                           _00297_DS_:
                                           ;	.line	308; /home/yeison/Documentos/python/apps/pinguinoIDE/x.4/p8/pinguino/libraries/usb/picUSB.c	deviceState = CONFIGURED;
00656a   0e05     movlw   0x5              	MOVLW	0x05
00656c   0103     movlb   0x3              	BANKSEL	_deviceState
00656e   6f7b     movwf   0x7b, 0x1        	MOVWF	_deviceState, B
                                           ;	.line	318; /home/yeison/Documentos/python/apps/pinguinoIDE/x.4/p8/pinguino/libraries/usb/picUSB.c	CDCInitEndpoint();
006570   ecfd     call    0x75fa, 0        	CALL	_CDCInitEndpoint
006572   f03a
006574   d03a     bra     0x65ea           	BRA	_00327_DS_
                                           _00319_DS_:
                                           ;	.line	328; /home/yeison/Documentos/python/apps/pinguinoIDE/x.4/p8/pinguino/libraries/usb/picUSB.c	else if (request == GET_CONFIGURATION) {
006576   5000     movf    0, 0, 0          	MOVF	r0x00, W
006578   0a08     xorlw   0x8              	XORLW	0x08
00657a   e10f     bnz     0x659a           	BNZ	_00316_DS_
                                           ;	.line	332; /home/yeison/Documentos/python/apps/pinguinoIDE/x.4/p8/pinguino/libraries/usb/picUSB.c	requestHandled = 1;
00657c   0e01     movlw   0x1              	MOVLW	0x01
00657e   0103     movlb   0x3              	BANKSEL	_requestHandled
006580   6f78     movwf   0x78, 0x1        	MOVWF	_requestHandled, B
                                           ;	.line	333; /home/yeison/Documentos/python/apps/pinguinoIDE/x.4/p8/pinguino/libraries/usb/picUSB.c	outPtr = (u8*)&currentConfiguration;
006582   0e03     movlw   0x3              	MOVLW	HIGH(_currentConfiguration)
006584   0103     movlb   0x3              	BANKSEL	(_outPtr + 1)
006586   6f5e     movwf   0x5e, 0x1        	MOVWF	(_outPtr + 1), B
006588   0e7c     movlw   0x7c             	MOVLW	LOW(_currentConfiguration)
                                           ; removed redundant BANKSEL
00658a   6f5d     movwf   0x5d, 0x1        	MOVWF	_outPtr, B
00658c   0e80     movlw   0x80             	MOVLW	0x80
                                           ; removed redundant BANKSEL
00658e   6f5f     movwf   0x5f, 0x1        	MOVWF	(_outPtr + 2), B
                                           ;	.line	334; /home/yeison/Documentos/python/apps/pinguinoIDE/x.4/p8/pinguino/libraries/usb/picUSB.c	wCount = 1;
006590   0e01     movlw   0x1              	MOVLW	0x01
006592   0103     movlb   0x3              	BANKSEL	_wCount
006594   6f69     movwf   0x69, 0x1        	MOVWF	_wCount, B
                                           ; removed redundant BANKSEL
006596   6b6a     clrf    0x6a, 0x1        	CLRF	(_wCount + 1), B
006598   d028     bra     0x65ea           	BRA	_00327_DS_
                                           _00316_DS_:
                                           ;	.line	336; /home/yeison/Documentos/python/apps/pinguinoIDE/x.4/p8/pinguino/libraries/usb/picUSB.c	else if (request == GET_STATUS) {
00659a   5000     movf    0, 0, 0          	MOVF	r0x00, W
00659c   e103     bnz     0x65a4           	BNZ	_00313_DS_
                                           ;	.line	337; /home/yeison/Documentos/python/apps/pinguinoIDE/x.4/p8/pinguino/libraries/usb/picUSB.c	GetStatus();
00659e   ec97     call    0x5f2e, 0        	CALL	_GetStatus
0065a0   f02f
0065a2   d023     bra     0x65ea           	BRA	_00327_DS_
                                           _00313_DS_:
                                           ;	.line	339; /home/yeison/Documentos/python/apps/pinguinoIDE/x.4/p8/pinguino/libraries/usb/picUSB.c	else if ((request == CLEAR_FEATURE) ||
0065a4   5000     movf    0, 0, 0          	MOVF	r0x00, W
0065a6   0a01     xorlw   0x1              	XORLW	0x01
0065a8   e003     bz      0x65b0           	BZ	_00308_DS_
                                           ;	.line	340; /home/yeison/Documentos/python/apps/pinguinoIDE/x.4/p8/pinguino/libraries/usb/picUSB.c	(request == SET_FEATURE)) {
0065aa   5000     movf    0, 0, 0          	MOVF	r0x00, W
0065ac   0a03     xorlw   0x3              	XORLW	0x03
0065ae   e103     bnz     0x65b6           	BNZ	_00309_DS_
                                           _00308_DS_:
                                           ;	.line	341; /home/yeison/Documentos/python/apps/pinguinoIDE/x.4/p8/pinguino/libraries/usb/picUSB.c	SetFeature();
0065b0   ec35     call    0x586a, 0        	CALL	_SetFeature
0065b2   f02c
0065b4   d01a     bra     0x65ea           	BRA	_00327_DS_
                                           _00309_DS_:
                                           ;	.line	343; /home/yeison/Documentos/python/apps/pinguinoIDE/x.4/p8/pinguino/libraries/usb/picUSB.c	else if (request == GET_INTERFACE) {
0065b6   5000     movf    0, 0, 0          	MOVF	r0x00, W
0065b8   0a0a     xorlw   0xa              	XORLW	0x0a
0065ba   e111     bnz     0x65de           	BNZ	_00306_DS_
                                           ;	.line	349; /home/yeison/Documentos/python/apps/pinguinoIDE/x.4/p8/pinguino/libraries/usb/picUSB.c	requestHandled = 1;
0065bc   0e01     movlw   0x1              	MOVLW	0x01
0065be   0103     movlb   0x3              	BANKSEL	_requestHandled
0065c0   6f78     movwf   0x78, 0x1        	MOVWF	_requestHandled, B
0065c2   0105     movlb   0x5              	BANKSEL	_controlTransferBuffer
                                           ;	.line	350; /home/yeison/Documentos/python/apps/pinguinoIDE/x.4/p8/pinguino/libraries/usb/picUSB.c	controlTransferBuffer[0] = 0;
0065c4   6b40     clrf    0x40, 0x1        	CLRF	_controlTransferBuffer, B
                                           ;	.line	351; /home/yeison/Documentos/python/apps/pinguinoIDE/x.4/p8/pinguino/libraries/usb/picUSB.c	outPtr = (u8 *)&controlTransferBuffer;
0065c6   0e05     movlw   0x5              	MOVLW	HIGH(_controlTransferBuffer)
0065c8   0103     movlb   0x3              	BANKSEL	(_outPtr + 1)
0065ca   6f5e     movwf   0x5e, 0x1        	MOVWF	(_outPtr + 1), B
0065cc   0e40     movlw   0x40             	MOVLW	LOW(_controlTransferBuffer)
                                           ; removed redundant BANKSEL
0065ce   6f5d     movwf   0x5d, 0x1        	MOVWF	_outPtr, B
0065d0   0e80     movlw   0x80             	MOVLW	0x80
                                           ; removed redundant BANKSEL
0065d2   6f5f     movwf   0x5f, 0x1        	MOVWF	(_outPtr + 2), B
                                           ;	.line	352; /home/yeison/Documentos/python/apps/pinguinoIDE/x.4/p8/pinguino/libraries/usb/picUSB.c	wCount = 1;
0065d4   0e01     movlw   0x1              	MOVLW	0x01
0065d6   0103     movlb   0x3              	BANKSEL	_wCount
0065d8   6f69     movwf   0x69, 0x1        	MOVWF	_wCount, B
                                           ; removed redundant BANKSEL
0065da   6b6a     clrf    0x6a, 0x1        	CLRF	(_wCount + 1), B
0065dc   d006     bra     0x65ea           	BRA	_00327_DS_
                                           _00306_DS_:
                                           ;	.line	354; /home/yeison/Documentos/python/apps/pinguinoIDE/x.4/p8/pinguino/libraries/usb/picUSB.c	else if (request == SET_INTERFACE) {
0065de   5000     movf    0, 0, 0          	MOVF	r0x00, W
0065e0   0a0b     xorlw   0xb              	XORLW	0x0b
0065e2   e103     bnz     0x65ea           	BNZ	_00327_DS_
                                           ;	.line	359; /home/yeison/Documentos/python/apps/pinguinoIDE/x.4/p8/pinguino/libraries/usb/picUSB.c	requestHandled = 1;
0065e4   0e01     movlw   0x1              	MOVLW	0x01
0065e6   0103     movlb   0x3              	BANKSEL	_requestHandled
0065e8   6f78     movwf   0x78, 0x1        	MOVWF	_requestHandled, B
                                           _00327_DS_:
                                           ;	.line	366; /home/yeison/Documentos/python/apps/pinguinoIDE/x.4/p8/pinguino/libraries/usb/picUSB.c	else if (request == SYNCH_FRAME) {
0065ea   cfe4     movff   0xfe4, 0         	MOVFF	PREINC1, r0x00
0065ec   f000
0065ee   0012     return  0                	RETURN	
                                           
                                           ; ; Starting pCode block
                                           S_main__SetFeature	code
                                           _SetFeature:
                                           ;	.line	227; /home/yeison/Documentos/python/apps/pinguinoIDE/x.4/p8/pinguino/libraries/usb/picUSB.c	static void SetFeature(void) {
00586a   c000     movff   0, 0xfe5         	MOVFF	r0x00, POSTDEC1
00586c   ffe5
00586e   c001     movff   0x1, 0xfe5       	MOVFF	r0x01, POSTDEC1
005870   ffe5
005872   c002     movff   0x2, 0xfe5       	MOVFF	r0x02, POSTDEC1
005874   ffe5
005876   c003     movff   0x3, 0xfe5       	MOVFF	r0x03, POSTDEC1
005878   ffe5
00587a   c004     movff   0x4, 0xfe5       	MOVFF	r0x04, POSTDEC1
00587c   ffe5
00587e   c005     movff   0x5, 0xfe5       	MOVFF	r0x05, POSTDEC1
005880   ffe5
                                           ;	.line	228; /home/yeison/Documentos/python/apps/pinguinoIDE/x.4/p8/pinguino/libraries/usb/picUSB.c	u8 recipient = SetupPacket.bmRequestType & 0x1F;
005882   0e1f     movlw   0x1f             	MOVLW	0x1f
005884   0105     movlb   0x5              	BANKSEL	_SetupPacket
005886   1500     andwf   0, 0, 0x1        	ANDWF	_SetupPacket, W, B
005888   6e00     movwf   0, 0             	MOVWF	r0x00
                                           ;	.line	229; /home/yeison/Documentos/python/apps/pinguinoIDE/x.4/p8/pinguino/libraries/usb/picUSB.c	u8 feature = SetupPacket.wValue0;
00588a   c502     movff   0x502, 0x1       	MOVFF	(_SetupPacket + 2), r0x01
00588c   f001
                                           ;	.line	234; /home/yeison/Documentos/python/apps/pinguinoIDE/x.4/p8/pinguino/libraries/usb/picUSB.c	if (recipient == 0x00) {
00588e   5000     movf    0, 0, 0          	MOVF	r0x00, W
005890   e112     bnz     0x58b6           	BNZ	_00246_DS_
                                           ;	.line	236; /home/yeison/Documentos/python/apps/pinguinoIDE/x.4/p8/pinguino/libraries/usb/picUSB.c	if (feature == DEVICE_REMOTE_WAKEUP) {
005892   5001     movf    0x1, 0, 0        	MOVF	r0x01, W
005894   0a01     xorlw   0x1              	XORLW	0x01
005896   e001     bz      0x589a           	BZ	_00279_DS_
005898   d076     bra     0x5986           	BRA	_00248_DS_
                                           _00279_DS_:
                                           ;	.line	237; /home/yeison/Documentos/python/apps/pinguinoIDE/x.4/p8/pinguino/libraries/usb/picUSB.c	requestHandled = 1;
00589a   0e01     movlw   0x1              	MOVLW	0x01
00589c   0103     movlb   0x3              	BANKSEL	_requestHandled
00589e   6f78     movwf   0x78, 0x1        	MOVWF	_requestHandled, B
0058a0   0105     movlb   0x5              	BANKSEL	(_SetupPacket + 1)
                                           ;	.line	238; /home/yeison/Documentos/python/apps/pinguinoIDE/x.4/p8/pinguino/libraries/usb/picUSB.c	if (SetupPacket.bRequest == SET_FEATURE)
0058a2   5101     movf    0x1, 0, 0x1      	MOVF	(_SetupPacket + 1), W, B
0058a4   0a03     xorlw   0x3              	XORLW	0x03
0058a6   e104     bnz     0x58b0           	BNZ	_00228_DS_
                                           ;	.line	239; /home/yeison/Documentos/python/apps/pinguinoIDE/x.4/p8/pinguino/libraries/usb/picUSB.c	remoteWakeup = 1;
0058a8   0e01     movlw   0x1              	MOVLW	0x01
0058aa   0103     movlb   0x3              	BANKSEL	_remoteWakeup
0058ac   6f7a     movwf   0x7a, 0x1        	MOVWF	_remoteWakeup, B
0058ae   d06b     bra     0x5986           	BRA	_00248_DS_
                                           _00228_DS_:
0058b0   0103     movlb   0x3              	BANKSEL	_remoteWakeup
                                           ;	.line	241; /home/yeison/Documentos/python/apps/pinguinoIDE/x.4/p8/pinguino/libraries/usb/picUSB.c	remoteWakeup = 0;
0058b2   6b7a     clrf    0x7a, 0x1        	CLRF	_remoteWakeup, B
0058b4   d068     bra     0x5986           	BRA	_00248_DS_
                                           _00246_DS_:
                                           ;	.line	245; /home/yeison/Documentos/python/apps/pinguinoIDE/x.4/p8/pinguino/libraries/usb/picUSB.c	else if (recipient == 0x02) {
0058b6   5000     movf    0, 0, 0          	MOVF	r0x00, W
0058b8   0a02     xorlw   0x2              	XORLW	0x02
0058ba   e001     bz      0x58be           	BZ	_00283_DS_
0058bc   d064     bra     0x5986           	BRA	_00248_DS_
                                           _00283_DS_:
                                           ;	.line	247; /home/yeison/Documentos/python/apps/pinguinoIDE/x.4/p8/pinguino/libraries/usb/picUSB.c	u8 endpointNum = SetupPacket.wIndex0 & 0x0F;
0058be   0e0f     movlw   0xf              	MOVLW	0x0f
0058c0   0105     movlb   0x5              	BANKSEL	(_SetupPacket + 4)
0058c2   1504     andwf   0x4, 0, 0x1      	ANDWF	(_SetupPacket + 4), W, B
0058c4   6e00     movwf   0, 0             	MOVWF	r0x00
                                           ;	.line	248; /home/yeison/Documentos/python/apps/pinguinoIDE/x.4/p8/pinguino/libraries/usb/picUSB.c	u8 endpointDir = SetupPacket.wIndex0 & 0x80;
0058c6   0e80     movlw   0x80             	MOVLW	0x80
                                           ; removed redundant BANKSEL
0058c8   1504     andwf   0x4, 0, 0x1      	ANDWF	(_SetupPacket + 4), W, B
0058ca   6e02     movwf   0x2, 0           	MOVWF	r0x02
                                           ;	.line	249; /home/yeison/Documentos/python/apps/pinguinoIDE/x.4/p8/pinguino/libraries/usb/picUSB.c	if ((feature == ENDPOINT_HALT) && (endpointNum != 0)) {
0058cc   5001     movf    0x1, 0, 0        	MOVF	r0x01, W
0058ce   a4d8     btfss   0xd8, 0x2, 0     	BTFSS	STATUS, 2
0058d0   d05a     bra     0x5986           	BRA	_00248_DS_
0058d2   5000     movf    0, 0, 0          	MOVF	r0x00, W
0058d4   b4d8     btfsc   0xd8, 0x2, 0     	BTFSC	STATUS, 2
0058d6   d057     bra     0x5986           	BRA	_00248_DS_
                                           ;	.line	251; /home/yeison/Documentos/python/apps/pinguinoIDE/x.4/p8/pinguino/libraries/usb/picUSB.c	requestHandled = 1;
0058d8   0e01     movlw   0x1              	MOVLW	0x01
0058da   0103     movlb   0x3              	BANKSEL	_requestHandled
0058dc   6f78     movwf   0x78, 0x1        	MOVWF	_requestHandled, B
                                           ;	.line	254; /home/yeison/Documentos/python/apps/pinguinoIDE/x.4/p8/pinguino/libraries/usb/picUSB.c	inPtr = (u8 *)&EP_OUT_BD(0) + (endpointNum * 8);
0058de   0e04     movlw   0x4              	MOVLW	HIGH(_ep_bdt)
0058e0   6e03     movwf   0x3, 0           	MOVWF	r0x03
0058e2   0e00     movlw   0                	MOVLW	LOW(_ep_bdt)
0058e4   6e01     movwf   0x1, 0           	MOVWF	r0x01
0058e6   0e80     movlw   0x80             	MOVLW	0x80
0058e8   6e04     movwf   0x4, 0           	MOVWF	r0x04
                                           ; ;multiply lit val:0x08 by variable r0x00 and store in r0x00
0058ea   5000     movf    0, 0, 0          	MOVF	r0x00, W
0058ec   0d08     mullw   0x8              	MULLW	0x08
0058ee   50f4     movf    0xf4, 0, 0       	MOVF	PRODH, W
0058f0   6e05     movwf   0x5, 0           	MOVWF	r0x05
0058f2   cff3     movff   0xff3, 0         	MOVFF	PRODL, r0x00
0058f4   f000
0058f6   5000     movf    0, 0, 0          	MOVF	r0x00, W
0058f8   2401     addwf   0x1, 0, 0        	ADDWF	r0x01, W
0058fa   0103     movlb   0x3              	BANKSEL	_inPtr
0058fc   6f60     movwf   0x60, 0x1        	MOVWF	_inPtr, B
0058fe   5005     movf    0x5, 0, 0        	MOVF	r0x05, W
005900   2003     addwfc  0x3, 0, 0        	ADDWFC	r0x03, W
                                           ; removed redundant BANKSEL
005902   6f61     movwf   0x61, 0x1        	MOVWF	(_inPtr + 1), B
005904   6ae8     clrf    0xe8, 0          	CLRF	WREG
005906   be05     btfsc   0x5, 0x7, 0      	BTFSC	r0x05, 7
005908   68e8     setf    0xe8, 0          	SETF	WREG
00590a   2004     addwfc  0x4, 0, 0        	ADDWFC	r0x04, W
                                           ; removed redundant BANKSEL
00590c   6f62     movwf   0x62, 0x1        	MOVWF	(_inPtr + 2), B
                                           ;	.line	255; /home/yeison/Documentos/python/apps/pinguinoIDE/x.4/p8/pinguino/libraries/usb/picUSB.c	if (endpointDir)
00590e   5002     movf    0x2, 0, 0        	MOVF	r0x02, W
005910   e005     bz      0x591c           	BZ	_00233_DS_
                                           ;	.line	256; /home/yeison/Documentos/python/apps/pinguinoIDE/x.4/p8/pinguino/libraries/usb/picUSB.c	inPtr += 4;
005912   0e04     movlw   0x4              	MOVLW	0x04
                                           ; removed redundant BANKSEL
005914   2760     addwf   0x60, 0x1, 0x1   	ADDWF	_inPtr, F, B
005916   0e00     movlw   0                	MOVLW	0x00
                                           ; removed redundant BANKSEL
005918   2361     addwfc  0x61, 0x1, 0x1   	ADDWFC	(_inPtr + 1), F, B
                                           ; removed redundant BANKSEL
00591a   2362     addwfc  0x62, 0x1, 0x1   	ADDWFC	(_inPtr + 2), F, B
                                           _00233_DS_:
00591c   0105     movlb   0x5              	BANKSEL	(_SetupPacket + 1)
                                           ;	.line	258; /home/yeison/Documentos/python/apps/pinguinoIDE/x.4/p8/pinguino/libraries/usb/picUSB.c	if(SetupPacket.bRequest == SET_FEATURE)
00591e   5101     movf    0x1, 0, 0x1      	MOVF	(_SetupPacket + 1), W, B
005920   0a03     xorlw   0x3              	XORLW	0x03
005922   e110     bnz     0x5944           	BNZ	_00238_DS_
                                           ;	.line	259; /home/yeison/Documentos/python/apps/pinguinoIDE/x.4/p8/pinguino/libraries/usb/picUSB.c	*inPtr = 0x84;
005924   c360     movff   0x360, 0         	MOVFF	_inPtr, r0x00
005926   f000
005928   c361     movff   0x361, 0x1       	MOVFF	(_inPtr + 1), r0x01
00592a   f001
00592c   c362     movff   0x362, 0x3       	MOVFF	(_inPtr + 2), r0x03
00592e   f003
005930   0e84     movlw   0x84             	MOVLW	0x84
005932   6ee5     movwf   0xe5, 0          	MOVWF	POSTDEC1
005934   c000     movff   0, 0xfe9         	MOVFF	r0x00, FSR0L
005936   ffe9
005938   c001     movff   0x1, 0xff3       	MOVFF	r0x01, PRODL
00593a   fff3
00593c   5003     movf    0x3, 0, 0        	MOVF	r0x03, W
00593e   ec31     call    0x62, 0          	CALL	__gptrput1
005940   f000
005942   d021     bra     0x5986           	BRA	_00248_DS_
                                           _00238_DS_:
                                           ;	.line	261; /home/yeison/Documentos/python/apps/pinguinoIDE/x.4/p8/pinguino/libraries/usb/picUSB.c	if(endpointDir == 1)
005944   5002     movf    0x2, 0, 0        	MOVF	r0x02, W
005946   0a01     xorlw   0x1              	XORLW	0x01
005948   e10f     bnz     0x5968           	BNZ	_00235_DS_
                                           ;	.line	262; /home/yeison/Documentos/python/apps/pinguinoIDE/x.4/p8/pinguino/libraries/usb/picUSB.c	*inPtr = 0x00;
00594a   c360     movff   0x360, 0         	MOVFF	_inPtr, r0x00
00594c   f000
00594e   c361     movff   0x361, 0x1       	MOVFF	(_inPtr + 1), r0x01
005950   f001
005952   c362     movff   0x362, 0x2       	MOVFF	(_inPtr + 2), r0x02
005954   f002
005956   6ae5     clrf    0xe5, 0          	CLRF	POSTDEC1
005958   c000     movff   0, 0xfe9         	MOVFF	r0x00, FSR0L
00595a   ffe9
00595c   c001     movff   0x1, 0xff3       	MOVFF	r0x01, PRODL
00595e   fff3
005960   5002     movf    0x2, 0, 0        	MOVF	r0x02, W
005962   ec31     call    0x62, 0          	CALL	__gptrput1
005964   f000
005966   d00f     bra     0x5986           	BRA	_00248_DS_
                                           _00235_DS_:
                                           ;	.line	264; /home/yeison/Documentos/python/apps/pinguinoIDE/x.4/p8/pinguino/libraries/usb/picUSB.c	*inPtr = 0x88;
005968   c360     movff   0x360, 0         	MOVFF	_inPtr, r0x00
00596a   f000
00596c   c361     movff   0x361, 0x1       	MOVFF	(_inPtr + 1), r0x01
00596e   f001
005970   c362     movff   0x362, 0x2       	MOVFF	(_inPtr + 2), r0x02
005972   f002
005974   0e88     movlw   0x88             	MOVLW	0x88
005976   6ee5     movwf   0xe5, 0          	MOVWF	POSTDEC1
005978   c000     movff   0, 0xfe9         	MOVFF	r0x00, FSR0L
00597a   ffe9
00597c   c001     movff   0x1, 0xff3       	MOVFF	r0x01, PRODL
00597e   fff3
005980   5002     movf    0x2, 0, 0        	MOVF	r0x02, W
005982   ec31     call    0x62, 0          	CALL	__gptrput1
005984   f000
                                           _00248_DS_:
005986   cfe4     movff   0xfe4, 0x5       	MOVFF	PREINC1, r0x05
005988   f005
00598a   cfe4     movff   0xfe4, 0x4       	MOVFF	PREINC1, r0x04
00598c   f004
00598e   cfe4     movff   0xfe4, 0x3       	MOVFF	PREINC1, r0x03
005990   f003
005992   cfe4     movff   0xfe4, 0x2       	MOVFF	PREINC1, r0x02
005994   f002
005996   cfe4     movff   0xfe4, 0x1       	MOVFF	PREINC1, r0x01
005998   f001
00599a   cfe4     movff   0xfe4, 0         	MOVFF	PREINC1, r0x00
00599c   f000
00599e   0012     return  0                	RETURN	
                                           
                                           ; ; Starting pCode block
                                           S_main__GetStatus	code
                                           _GetStatus:
                                           ;	.line	182; /home/yeison/Documentos/python/apps/pinguinoIDE/x.4/p8/pinguino/libraries/usb/picUSB.c	static void GetStatus(void) {
005f2e   c000     movff   0, 0xfe5         	MOVFF	r0x00, POSTDEC1
005f30   ffe5
005f32   c001     movff   0x1, 0xfe5       	MOVFF	r0x01, POSTDEC1
005f34   ffe5
005f36   c002     movff   0x2, 0xfe5       	MOVFF	r0x02, POSTDEC1
005f38   ffe5
005f3a   c003     movff   0x3, 0xfe5       	MOVFF	r0x03, POSTDEC1
005f3c   ffe5
005f3e   c004     movff   0x4, 0xfe5       	MOVFF	r0x04, POSTDEC1
005f40   ffe5
005f42   c005     movff   0x5, 0xfe5       	MOVFF	r0x05, POSTDEC1
005f44   ffe5
                                           ;	.line	184; /home/yeison/Documentos/python/apps/pinguinoIDE/x.4/p8/pinguino/libraries/usb/picUSB.c	u8 recipient = SetupPacket.bmRequestType & 0x1F;
005f46   0e1f     movlw   0x1f             	MOVLW	0x1f
005f48   0105     movlb   0x5              	BANKSEL	_SetupPacket
005f4a   1500     andwf   0, 0, 0x1        	ANDWF	_SetupPacket, W, B
005f4c   6e00     movwf   0, 0             	MOVWF	r0x00
005f4e   0105     movlb   0x5              	BANKSEL	_controlTransferBuffer
                                           ;	.line	188; /home/yeison/Documentos/python/apps/pinguinoIDE/x.4/p8/pinguino/libraries/usb/picUSB.c	controlTransferBuffer[0] = 0;
005f50   6b40     clrf    0x40, 0x1        	CLRF	_controlTransferBuffer, B
                                           ; removed redundant BANKSEL
                                           ;	.line	189; /home/yeison/Documentos/python/apps/pinguinoIDE/x.4/p8/pinguino/libraries/usb/picUSB.c	controlTransferBuffer[1] = 0;
005f52   6b41     clrf    0x41, 0x1        	CLRF	(_controlTransferBuffer + 1), B
                                           ;	.line	192; /home/yeison/Documentos/python/apps/pinguinoIDE/x.4/p8/pinguino/libraries/usb/picUSB.c	if (recipient == 0x00) {
005f54   5000     movf    0, 0, 0          	MOVF	r0x00, W
005f56   e113     bnz     0x5f7e           	BNZ	_00183_DS_
                                           ;	.line	194; /home/yeison/Documentos/python/apps/pinguinoIDE/x.4/p8/pinguino/libraries/usb/picUSB.c	requestHandled = 1;
005f58   0e01     movlw   0x1              	MOVLW	0x01
005f5a   0103     movlb   0x3              	BANKSEL	_requestHandled
005f5c   6f78     movwf   0x78, 0x1        	MOVWF	_requestHandled, B
005f5e   0103     movlb   0x3              	BANKSEL	_selfPowered
                                           ;	.line	196; /home/yeison/Documentos/python/apps/pinguinoIDE/x.4/p8/pinguino/libraries/usb/picUSB.c	if (selfPowered)
005f60   5179     movf    0x79, 0, 0x1     	MOVF	_selfPowered, W, B
005f62   e004     bz      0x5f6c           	BZ	_00170_DS_
                                           ;	.line	197; /home/yeison/Documentos/python/apps/pinguinoIDE/x.4/p8/pinguino/libraries/usb/picUSB.c	controlTransferBuffer[0] |= 0x01;
005f64   0e01     movlw   0x1              	MOVLW	0x01
005f66   0105     movlb   0x5              	BANKSEL	_controlTransferBuffer
005f68   1140     iorwf   0x40, 0, 0x1     	IORWF	_controlTransferBuffer, W, B
                                           ; #	MOVWF	r0x01
                                           ; #	MOVF	r0x01, W
005f6a   6f40     movwf   0x40, 0x1        	MOVWF	_controlTransferBuffer, B
                                           _00170_DS_:
005f6c   0103     movlb   0x3              	BANKSEL	_remoteWakeup
                                           ;	.line	198; /home/yeison/Documentos/python/apps/pinguinoIDE/x.4/p8/pinguino/libraries/usb/picUSB.c	if (remoteWakeup)
005f6e   517a     movf    0x7a, 0, 0x1     	MOVF	_remoteWakeup, W, B
005f70   b4d8     btfsc   0xd8, 0x2, 0     	BTFSC	STATUS, 2
005f72   d04c     bra     0x600c           	BRA	_00184_DS_
                                           ;	.line	199; /home/yeison/Documentos/python/apps/pinguinoIDE/x.4/p8/pinguino/libraries/usb/picUSB.c	controlTransferBuffer[0] |= 0x02;
005f74   0e02     movlw   0x2              	MOVLW	0x02
005f76   0105     movlb   0x5              	BANKSEL	_controlTransferBuffer
005f78   1140     iorwf   0x40, 0, 0x1     	IORWF	_controlTransferBuffer, W, B
                                           ; #	MOVWF	r0x01
                                           ; #	MOVF	r0x01, W
005f7a   6f40     movwf   0x40, 0x1        	MOVWF	_controlTransferBuffer, B
005f7c   d047     bra     0x600c           	BRA	_00184_DS_
                                           _00183_DS_:
                                           ;	.line	201; /home/yeison/Documentos/python/apps/pinguinoIDE/x.4/p8/pinguino/libraries/usb/picUSB.c	else if (recipient == 0x01) {
005f7e   5000     movf    0, 0, 0          	MOVF	r0x00, W
005f80   0a01     xorlw   0x1              	XORLW	0x01
005f82   e104     bnz     0x5f8c           	BNZ	_00180_DS_
                                           ;	.line	203; /home/yeison/Documentos/python/apps/pinguinoIDE/x.4/p8/pinguino/libraries/usb/picUSB.c	requestHandled = 1;
005f84   0e01     movlw   0x1              	MOVLW	0x01
005f86   0103     movlb   0x3              	BANKSEL	_requestHandled
005f88   6f78     movwf   0x78, 0x1        	MOVWF	_requestHandled, B
005f8a   d040     bra     0x600c           	BRA	_00184_DS_
                                           _00180_DS_:
                                           ;	.line	205; /home/yeison/Documentos/python/apps/pinguinoIDE/x.4/p8/pinguino/libraries/usb/picUSB.c	else if (recipient == 0x02) {
005f8c   5000     movf    0, 0, 0          	MOVF	r0x00, W
005f8e   0a02     xorlw   0x2              	XORLW	0x02
005f90   e001     bz      0x5f94           	BZ	_00219_DS_
005f92   d03c     bra     0x600c           	BRA	_00184_DS_
                                           _00219_DS_:
                                           ;	.line	207; /home/yeison/Documentos/python/apps/pinguinoIDE/x.4/p8/pinguino/libraries/usb/picUSB.c	u8 endpointNum = SetupPacket.wIndex0 & 0x0F;
005f94   0e0f     movlw   0xf              	MOVLW	0x0f
005f96   0105     movlb   0x5              	BANKSEL	(_SetupPacket + 4)
005f98   1504     andwf   0x4, 0, 0x1      	ANDWF	(_SetupPacket + 4), W, B
005f9a   6e00     movwf   0, 0             	MOVWF	r0x00
                                           ;	.line	208; /home/yeison/Documentos/python/apps/pinguinoIDE/x.4/p8/pinguino/libraries/usb/picUSB.c	u8 endpointDir = SetupPacket.wIndex0 & 0x80;
005f9c   0e80     movlw   0x80             	MOVLW	0x80
                                           ; removed redundant BANKSEL
005f9e   1504     andwf   0x4, 0, 0x1      	ANDWF	(_SetupPacket + 4), W, B
005fa0   6e01     movwf   0x1, 0           	MOVWF	r0x01
                                           ;	.line	209; /home/yeison/Documentos/python/apps/pinguinoIDE/x.4/p8/pinguino/libraries/usb/picUSB.c	requestHandled = 1;
005fa2   0e01     movlw   0x1              	MOVLW	0x01
005fa4   0103     movlb   0x3              	BANKSEL	_requestHandled
005fa6   6f78     movwf   0x78, 0x1        	MOVWF	_requestHandled, B
                                           ;	.line	212; /home/yeison/Documentos/python/apps/pinguinoIDE/x.4/p8/pinguino/libraries/usb/picUSB.c	inPtr = (u8 *)&EP_OUT_BD(0) + (endpointNum * 8);
005fa8   0e04     movlw   0x4              	MOVLW	HIGH(_ep_bdt)
005faa   6e03     movwf   0x3, 0           	MOVWF	r0x03
005fac   0e00     movlw   0                	MOVLW	LOW(_ep_bdt)
005fae   6e02     movwf   0x2, 0           	MOVWF	r0x02
005fb0   0e80     movlw   0x80             	MOVLW	0x80
005fb2   6e04     movwf   0x4, 0           	MOVWF	r0x04
                                           ; ;multiply lit val:0x08 by variable r0x00 and store in r0x00
005fb4   5000     movf    0, 0, 0          	MOVF	r0x00, W
005fb6   0d08     mullw   0x8              	MULLW	0x08
005fb8   50f4     movf    0xf4, 0, 0       	MOVF	PRODH, W
005fba   6e05     movwf   0x5, 0           	MOVWF	r0x05
005fbc   cff3     movff   0xff3, 0         	MOVFF	PRODL, r0x00
005fbe   f000
005fc0   5000     movf    0, 0, 0          	MOVF	r0x00, W
005fc2   2402     addwf   0x2, 0, 0        	ADDWF	r0x02, W
005fc4   0103     movlb   0x3              	BANKSEL	_inPtr
005fc6   6f60     movwf   0x60, 0x1        	MOVWF	_inPtr, B
005fc8   5005     movf    0x5, 0, 0        	MOVF	r0x05, W
005fca   2003     addwfc  0x3, 0, 0        	ADDWFC	r0x03, W
                                           ; removed redundant BANKSEL
005fcc   6f61     movwf   0x61, 0x1        	MOVWF	(_inPtr + 1), B
005fce   6ae8     clrf    0xe8, 0          	CLRF	WREG
005fd0   be05     btfsc   0x5, 0x7, 0      	BTFSC	r0x05, 7
005fd2   68e8     setf    0xe8, 0          	SETF	WREG
005fd4   2004     addwfc  0x4, 0, 0        	ADDWFC	r0x04, W
                                           ; removed redundant BANKSEL
005fd6   6f62     movwf   0x62, 0x1        	MOVWF	(_inPtr + 2), B
                                           ;	.line	213; /home/yeison/Documentos/python/apps/pinguinoIDE/x.4/p8/pinguino/libraries/usb/picUSB.c	if (endpointDir)
005fd8   5001     movf    0x1, 0, 0        	MOVF	r0x01, W
005fda   e005     bz      0x5fe6           	BZ	_00174_DS_
                                           ;	.line	214; /home/yeison/Documentos/python/apps/pinguinoIDE/x.4/p8/pinguino/libraries/usb/picUSB.c	inPtr += 4;
005fdc   0e04     movlw   0x4              	MOVLW	0x04
                                           ; removed redundant BANKSEL
005fde   2760     addwf   0x60, 0x1, 0x1   	ADDWF	_inPtr, F, B
005fe0   0e00     movlw   0                	MOVLW	0x00
                                           ; removed redundant BANKSEL
005fe2   2361     addwfc  0x61, 0x1, 0x1   	ADDWFC	(_inPtr + 1), F, B
                                           ; removed redundant BANKSEL
005fe4   2362     addwfc  0x62, 0x1, 0x1   	ADDWFC	(_inPtr + 2), F, B
                                           _00174_DS_:
                                           ;	.line	215; /home/yeison/Documentos/python/apps/pinguinoIDE/x.4/p8/pinguino/libraries/usb/picUSB.c	if(*inPtr & BDS_BSTALL)
005fe6   c360     movff   0x360, 0         	MOVFF	_inPtr, r0x00
005fe8   f000
005fea   c361     movff   0x361, 0x1       	MOVFF	(_inPtr + 1), r0x01
005fec   f001
005fee   c362     movff   0x362, 0x2       	MOVFF	(_inPtr + 2), r0x02
005ff0   f002
005ff2   c000     movff   0, 0xfe9         	MOVFF	r0x00, FSR0L
005ff4   ffe9
005ff6   c001     movff   0x1, 0xff3       	MOVFF	r0x01, PRODL
005ff8   fff3
005ffa   5002     movf    0x2, 0, 0        	MOVF	r0x02, W
005ffc   ec29     call    0x52, 0          	CALL	__gptrget1
005ffe   f000
006000   6e00     movwf   0, 0             	MOVWF	r0x00
006002   a400     btfss   0, 0x2, 0        	BTFSS	r0x00, 2
006004   d003     bra     0x600c           	BRA	_00184_DS_
                                           ;	.line	216; /home/yeison/Documentos/python/apps/pinguinoIDE/x.4/p8/pinguino/libraries/usb/picUSB.c	controlTransferBuffer[0] = 0x01;
006006   0e01     movlw   0x1              	MOVLW	0x01
006008   0105     movlb   0x5              	BANKSEL	_controlTransferBuffer
00600a   6f40     movwf   0x40, 0x1        	MOVWF	_controlTransferBuffer, B
                                           _00184_DS_:
00600c   0103     movlb   0x3              	BANKSEL	_requestHandled
                                           ;	.line	219; /home/yeison/Documentos/python/apps/pinguinoIDE/x.4/p8/pinguino/libraries/usb/picUSB.c	if (requestHandled) {
00600e   5178     movf    0x78, 0, 0x1     	MOVF	_requestHandled, W, B
006010   e00b     bz      0x6028           	BZ	_00187_DS_
                                           ;	.line	220; /home/yeison/Documentos/python/apps/pinguinoIDE/x.4/p8/pinguino/libraries/usb/picUSB.c	outPtr = (u8 *)&controlTransferBuffer;
006012   0e05     movlw   0x5              	MOVLW	HIGH(_controlTransferBuffer)
006014   0103     movlb   0x3              	BANKSEL	(_outPtr + 1)
006016   6f5e     movwf   0x5e, 0x1        	MOVWF	(_outPtr + 1), B
006018   0e40     movlw   0x40             	MOVLW	LOW(_controlTransferBuffer)
                                           ; removed redundant BANKSEL
00601a   6f5d     movwf   0x5d, 0x1        	MOVWF	_outPtr, B
00601c   0e80     movlw   0x80             	MOVLW	0x80
                                           ; removed redundant BANKSEL
00601e   6f5f     movwf   0x5f, 0x1        	MOVWF	(_outPtr + 2), B
                                           ;	.line	221; /home/yeison/Documentos/python/apps/pinguinoIDE/x.4/p8/pinguino/libraries/usb/picUSB.c	wCount = 2;
006020   0e02     movlw   0x2              	MOVLW	0x02
006022   0103     movlb   0x3              	BANKSEL	_wCount
006024   6f69     movwf   0x69, 0x1        	MOVWF	_wCount, B
                                           ; removed redundant BANKSEL
006026   6b6a     clrf    0x6a, 0x1        	CLRF	(_wCount + 1), B
                                           _00187_DS_:
006028   cfe4     movff   0xfe4, 0x5       	MOVFF	PREINC1, r0x05
00602a   f005
00602c   cfe4     movff   0xfe4, 0x4       	MOVFF	PREINC1, r0x04
00602e   f004
006030   cfe4     movff   0xfe4, 0x3       	MOVFF	PREINC1, r0x03
006032   f003
006034   cfe4     movff   0xfe4, 0x2       	MOVFF	PREINC1, r0x02
006036   f002
006038   cfe4     movff   0xfe4, 0x1       	MOVFF	PREINC1, r0x01
00603a   f001
00603c   cfe4     movff   0xfe4, 0         	MOVFF	PREINC1, r0x00
00603e   f000
006040   0012     return  0                	RETURN	
                                           
                                           ; ; Starting pCode block
                                           S_main__GetDescriptor	code
                                           _GetDescriptor:
                                           ;	.line	97; /home/yeison/Documentos/python/apps/pinguinoIDE/x.4/p8/pinguino/libraries/usb/picUSB.c	static void GetDescriptor(void)
006152   c000     movff   0, 0xfe5         	MOVFF	r0x00, POSTDEC1
006154   ffe5
006156   c001     movff   0x1, 0xfe5       	MOVFF	r0x01, POSTDEC1
006158   ffe5
00615a   c002     movff   0x2, 0xfe5       	MOVFF	r0x02, POSTDEC1
00615c   ffe5
00615e   c003     movff   0x3, 0xfe5       	MOVFF	r0x03, POSTDEC1
006160   ffe5
006162   0105     movlb   0x5              	BANKSEL	_SetupPacket
                                           ;	.line	103; /home/yeison/Documentos/python/apps/pinguinoIDE/x.4/p8/pinguino/libraries/usb/picUSB.c	if(SetupPacket.bmRequestType == 0x80)
006164   5100     movf    0, 0, 0x1        	MOVF	_SetupPacket, W, B
006166   0a80     xorlw   0x80             	XORLW	0x80
006168   e001     bz      0x616c           	BZ	_00156_DS_
00616a   d06b     bra     0x6242           	BRA	_00138_DS_
                                           _00156_DS_:
                                           ;	.line	105; /home/yeison/Documentos/python/apps/pinguinoIDE/x.4/p8/pinguino/libraries/usb/picUSB.c	u8 descriptorType  = SetupPacket.wValue1;
00616c   c503     movff   0x503, 0         	MOVFF	(_SetupPacket + 3), r0x00
00616e   f000
                                           ;	.line	106; /home/yeison/Documentos/python/apps/pinguinoIDE/x.4/p8/pinguino/libraries/usb/picUSB.c	u8 descriptorIndex = SetupPacket.wValue0;
006170   c502     movff   0x502, 0x1       	MOVFF	(_SetupPacket + 2), r0x01
006172   f001
                                           ;	.line	108; /home/yeison/Documentos/python/apps/pinguinoIDE/x.4/p8/pinguino/libraries/usb/picUSB.c	if (descriptorType == DEVICE_DESCRIPTOR)
006174   5000     movf    0, 0, 0          	MOVF	r0x00, W
006176   0a01     xorlw   0x1              	XORLW	0x01
006178   e10f     bnz     0x6198           	BNZ	_00134_DS_
                                           ;	.line	113; /home/yeison/Documentos/python/apps/pinguinoIDE/x.4/p8/pinguino/libraries/usb/picUSB.c	requestHandled = 1;
00617a   0e01     movlw   0x1              	MOVLW	0x01
00617c   0103     movlb   0x3              	BANKSEL	_requestHandled
00617e   6f78     movwf   0x78, 0x1        	MOVWF	_requestHandled, B
                                           ;	.line	114; /home/yeison/Documentos/python/apps/pinguinoIDE/x.4/p8/pinguino/libraries/usb/picUSB.c	outPtr = (u8 *)&libdevice_descriptor;
006180   0e00     movlw   0                	MOVLW	UPPER(_libdevice_descriptor)
006182   0103     movlb   0x3              	BANKSEL	(_outPtr + 2)
006184   6f5f     movwf   0x5f, 0x1        	MOVWF	(_outPtr + 2), B
006186   0e3e     movlw   0x3e             	MOVLW	HIGH(_libdevice_descriptor)
                                           ; removed redundant BANKSEL
006188   6f5e     movwf   0x5e, 0x1        	MOVWF	(_outPtr + 1), B
00618a   0e3c     movlw   0x3c             	MOVLW	LOW(_libdevice_descriptor)
                                           ; removed redundant BANKSEL
00618c   6f5d     movwf   0x5d, 0x1        	MOVWF	_outPtr, B
                                           ;	.line	115; /home/yeison/Documentos/python/apps/pinguinoIDE/x.4/p8/pinguino/libraries/usb/picUSB.c	wCount = sizeof(USB_Device_Descriptor);
00618e   0e12     movlw   0x12             	MOVLW	0x12
006190   0103     movlb   0x3              	BANKSEL	_wCount
006192   6f69     movwf   0x69, 0x1        	MOVWF	_wCount, B
                                           ; removed redundant BANKSEL
006194   6b6a     clrf    0x6a, 0x1        	CLRF	(_wCount + 1), B
006196   d055     bra     0x6242           	BRA	_00138_DS_
                                           _00134_DS_:
                                           ;	.line	118; /home/yeison/Documentos/python/apps/pinguinoIDE/x.4/p8/pinguino/libraries/usb/picUSB.c	else if (descriptorType == CONFIGURATION_DESCRIPTOR)
006198   5000     movf    0, 0, 0          	MOVF	r0x00, W
00619a   0a02     xorlw   0x2              	XORLW	0x02
00619c   e117     bnz     0x61cc           	BNZ	_00131_DS_
                                           ;	.line	124; /home/yeison/Documentos/python/apps/pinguinoIDE/x.4/p8/pinguino/libraries/usb/picUSB.c	requestHandled = 1;
00619e   0e01     movlw   0x1              	MOVLW	0x01
0061a0   0103     movlb   0x3              	BANKSEL	_requestHandled
0061a2   6f78     movwf   0x78, 0x1        	MOVWF	_requestHandled, B
                                           ;	.line	136; /home/yeison/Documentos/python/apps/pinguinoIDE/x.4/p8/pinguino/libraries/usb/picUSB.c	outPtr = (u8 *)&libconfiguration_descriptor;
0061a4   0e00     movlw   0                	MOVLW	UPPER(_libconfiguration_descriptor)
0061a6   0103     movlb   0x3              	BANKSEL	(_outPtr + 2)
0061a8   6f5f     movwf   0x5f, 0x1        	MOVWF	(_outPtr + 2), B
0061aa   0e3e     movlw   0x3e             	MOVLW	HIGH(_libconfiguration_descriptor)
                                           ; removed redundant BANKSEL
0061ac   6f5e     movwf   0x5e, 0x1        	MOVWF	(_outPtr + 1), B
0061ae   0e4e     movlw   0x4e             	MOVLW	LOW(_libconfiguration_descriptor)
                                           ; removed redundant BANKSEL
0061b0   6f5d     movwf   0x5d, 0x1        	MOVWF	_outPtr, B
                                           ;	.line	138; /home/yeison/Documentos/python/apps/pinguinoIDE/x.4/p8/pinguino/libraries/usb/picUSB.c	wCount = libconfiguration_descriptor.Header.wTotalLength;
0061b2   0e50     movlw   0x50             	MOVLW	LOW(_libconfiguration_descriptor + 2)
0061b4   6ef6     movwf   0xf6, 0          	MOVWF	TBLPTRL
0061b6   0e3e     movlw   0x3e             	MOVLW	HIGH(_libconfiguration_descriptor + 2)
0061b8   6ef7     movwf   0xf7, 0          	MOVWF	TBLPTRH
0061ba   0e00     movlw   0                	MOVLW	UPPER(_libconfiguration_descriptor + 2)
0061bc   6ef8     movwf   0xf8, 0          	MOVWF	TBLPTRU
0061be   0009     tblrd   *+               	TBLRD*+	
0061c0   cff5     movff   0xff5, 0x369     	MOVFF	TABLAT, _wCount
0061c2   f369
0061c4   0009     tblrd   *+               	TBLRD*+	
0061c6   cff5     movff   0xff5, 0x36a     	MOVFF	TABLAT, (_wCount + 1)
0061c8   f36a
0061ca   d03b     bra     0x6242           	BRA	_00138_DS_
                                           _00131_DS_:
                                           ;	.line	146; /home/yeison/Documentos/python/apps/pinguinoIDE/x.4/p8/pinguino/libraries/usb/picUSB.c	else if (descriptorType == STRING_DESCRIPTOR)
0061cc   5000     movf    0, 0, 0          	MOVF	r0x00, W
0061ce   0a03     xorlw   0x3              	XORLW	0x03
0061d0   e132     bnz     0x6236           	BNZ	_00128_DS_
                                           ;	.line	152; /home/yeison/Documentos/python/apps/pinguinoIDE/x.4/p8/pinguino/libraries/usb/picUSB.c	requestHandled = 1;
0061d2   0e01     movlw   0x1              	MOVLW	0x01
0061d4   0103     movlb   0x3              	BANKSEL	_requestHandled
0061d6   6f78     movwf   0x78, 0x1        	MOVWF	_requestHandled, B
                                           ; ;multiply lit val:0x03 by variable r0x01 and store in r0x01
                                           ;	.line	154; /home/yeison/Documentos/python/apps/pinguinoIDE/x.4/p8/pinguino/libraries/usb/picUSB.c	outPtr = libstring_descriptor[descriptorIndex];
0061d8   5001     movf    0x1, 0, 0        	MOVF	r0x01, W
0061da   0d03     mullw   0x3              	MULLW	0x03
0061dc   50f4     movf    0xf4, 0, 0       	MOVF	PRODH, W
0061de   6e02     movwf   0x2, 0           	MOVWF	r0x02
0061e0   cff3     movff   0xff3, 0x1       	MOVFF	PRODL, r0x01
0061e2   f001
0061e4   6a03     clrf    0x3, 0           	CLRF	r0x03
0061e6   0ebe     movlw   0xbe             	MOVLW	LOW(_libstring_descriptor)
0061e8   2601     addwf   0x1, 0x1, 0      	ADDWF	r0x01, F
0061ea   0e3e     movlw   0x3e             	MOVLW	HIGH(_libstring_descriptor)
0061ec   2202     addwfc  0x2, 0x1, 0      	ADDWFC	r0x02, F
0061ee   0e00     movlw   0                	MOVLW	UPPER(_libstring_descriptor)
0061f0   2203     addwfc  0x3, 0x1, 0      	ADDWFC	r0x03, F
0061f2   c001     movff   0x1, 0xff6       	MOVFF	r0x01, TBLPTRL
0061f4   fff6
0061f6   c002     movff   0x2, 0xff7       	MOVFF	r0x02, TBLPTRH
0061f8   fff7
0061fa   c003     movff   0x3, 0xff8       	MOVFF	r0x03, TBLPTRU
0061fc   fff8
0061fe   0009     tblrd   *+               	TBLRD*+	
006200   cff5     movff   0xff5, 0x35d     	MOVFF	TABLAT, _outPtr
006202   f35d
006204   0009     tblrd   *+               	TBLRD*+	
006206   cff5     movff   0xff5, 0x35e     	MOVFF	TABLAT, (_outPtr + 1)
006208   f35e
00620a   0009     tblrd   *+               	TBLRD*+	
00620c   cff5     movff   0xff5, 0x35f     	MOVFF	TABLAT, (_outPtr + 2)
00620e   f35f
                                           ;	.line	155; /home/yeison/Documentos/python/apps/pinguinoIDE/x.4/p8/pinguino/libraries/usb/picUSB.c	wCount = *outPtr;
006210   c35d     movff   0x35d, 0x1       	MOVFF	_outPtr, r0x01
006212   f001
006214   c35e     movff   0x35e, 0x2       	MOVFF	(_outPtr + 1), r0x02
006216   f002
006218   c35f     movff   0x35f, 0x3       	MOVFF	(_outPtr + 2), r0x03
00621a   f003
00621c   c001     movff   0x1, 0xfe9       	MOVFF	r0x01, FSR0L
00621e   ffe9
006220   c002     movff   0x2, 0xff3       	MOVFF	r0x02, PRODL
006222   fff3
006224   5003     movf    0x3, 0, 0        	MOVF	r0x03, W
006226   ec29     call    0x52, 0          	CALL	__gptrget1
006228   f000
00622a   6e01     movwf   0x1, 0           	MOVWF	r0x01
00622c   c001     movff   0x1, 0x369       	MOVFF	r0x01, _wCount
00622e   f369
006230   0103     movlb   0x3              	BANKSEL	(_wCount + 1)
006232   6b6a     clrf    0x6a, 0x1        	CLRF	(_wCount + 1), B
006234   d006     bra     0x6242           	BRA	_00138_DS_
                                           _00128_DS_:
                                           ;	.line	158; /home/yeison/Documentos/python/apps/pinguinoIDE/x.4/p8/pinguino/libraries/usb/picUSB.c	else if (descriptorType == DEVICE_QUALIFIER_DESCRIPTOR)
006236   5000     movf    0, 0, 0          	MOVF	r0x00, W
006238   0a06     xorlw   0x6              	XORLW	0x06
00623a   e103     bnz     0x6242           	BNZ	_00138_DS_
                                           ;	.line	164; /home/yeison/Documentos/python/apps/pinguinoIDE/x.4/p8/pinguino/libraries/usb/picUSB.c	requestHandled = 1;
00623c   0e01     movlw   0x1              	MOVLW	0x01
00623e   0103     movlb   0x3              	BANKSEL	_requestHandled
006240   6f78     movwf   0x78, 0x1        	MOVWF	_requestHandled, B
                                           _00138_DS_:
006242   cfe4     movff   0xfe4, 0x3       	MOVFF	PREINC1, r0x03
006244   f003
006246   cfe4     movff   0xfe4, 0x2       	MOVFF	PREINC1, r0x02
006248   f002
00624a   cfe4     movff   0xfe4, 0x1       	MOVFF	PREINC1, r0x01
00624c   f001
00624e   cfe4     movff   0xfe4, 0         	MOVFF	PREINC1, r0x00
006250   f000
006252   0012     return  0                	RETURN	
                                           
                                           ; ; Starting pCode block
                                           S_main__epapout_init	code
                                           _epapout_init:
                                           ;	.line	59; /home/yeison/Documentos/python/apps/pinguinoIDE/x.4/source/main.c	void epapout_init() { return; }
007a84   0012     return  0                	RETURN	
                                           
                                           ; ; Starting pCode block
                                           S_main__epapin_init	code
                                           _epapin_init:
                                           ;	.line	58; /home/yeison/Documentos/python/apps/pinguinoIDE/x.4/source/main.c	void epapin_init()  { return; }
007a86   0012     return  0                	RETURN	
                                           
                                           ; ; Starting pCode block
                                           S_main__epap_out	code
                                           _epap_out:
                                           ;	.line	57; /home/yeison/Documentos/python/apps/pinguinoIDE/x.4/source/main.c	void epap_out()     { return; }
007a88   0012     return  0                	RETURN	
                                           
                                           ; ; Starting pCode block
                                           S_main__epap_in	code
                                           _epap_in:
                                           ;	.line	56; /home/yeison/Documentos/python/apps/pinguinoIDE/x.4/source/main.c	void epap_in()      { return; }
007a8a   0012     return  0                	RETURN	
                                           
                                           ; ; Starting pCode block for Ival
                                           	code
                                           _libdevice_descriptor:
003e3c   0112     movlb   0x12             	DB	0x12, 0x01, 0x00, 0x02, 0x02, 0x00, 0x00, 0x40, 0xd8, 0x04, 0xab, 0xfe
003e3e   0200     mulwf   0, 0             
003e40   0002     dw      0x2              
003e42   4000     rrncf   0, 0, 0          
003e44   04d8     decf    0xd8, 0, 0       
003e46   feab     dw      0xfeab           
003e48   0000     nop                      	DB	0x00, 0x00, 0x01, 0x02, 0x00, 0x01
003e4a   0201     mulwf   0x1, 0           
003e4c   0100     movlb   0                
                                           ; ; Starting pCode block for Ival
                                           _libconfiguration_descriptor:
003e4e   0209     mulwf   0x9, 0           	DB	0x09, 0x02, 0x43, 0x00, 0x02, 0x01, 0x00, 0xc0, 0x14, 0x09, 0x04, 0x00
003e50   0043     dw      0x43             
003e52   0102     movlb   0x2              
003e54   c000     movff   0, 0x914         
003e56   0914
003e58   0004     clrwdt                   
003e5a   0100     movlb   0                	DB	0x00, 0x01, 0x02, 0x02, 0x01, 0x00, 0x05, 0x24, 0x00, 0x10, 0x01, 0x04
003e5c   0202     mulwf   0x2, 0           
003e5e   0001     halt                     
003e60   2405     addwf   0x5, 0, 0        
003e62   1000     iorwf   0, 0, 0          
003e64   0401     decf    0x1, 0, 0        
003e66   0224     mulwf   0x24, 0          	DB	0x24, 0x02, 0x00, 0x05, 0x24, 0x06, 0x00, 0x01, 0x05, 0x24, 0x01, 0x00
003e68   0500     decf    0, 0, 0x1        
003e6a   0624     decf    0x24, 0x1, 0     
003e6c   0100     movlb   0                
003e6e   2405     addwf   0x5, 0, 0        
003e70   0001     halt                     
003e72   0701     decf    0x1, 0x1, 0x1    	DB	0x01, 0x07, 0x05, 0x82, 0x03, 0x10, 0x00, 0x02, 0x09, 0x04, 0x01, 0x00
003e74   8205     bsf     0x5, 0x1, 0      
003e76   1003     iorwf   0x3, 0, 0        
003e78   0200     mulwf   0, 0             
003e7a   0409     decf    0x9, 0, 0        
003e7c   0001     halt                     
003e7e   0a02     xorlw   0x2              	DB	0x02, 0x0a, 0x00, 0x00, 0x00, 0x07, 0x05, 0x03, 0x02, 0x40, 0x00, 0x00
003e80   0000     nop                      
003e82   0700     decf    0, 0x1, 0x1      
003e84   0305     mulwf   0x5, 0x1         
003e86   4002     rrncf   0x2, 0, 0        
003e88   0000     nop                      
003e8a   0507     decf    0x7, 0, 0x1      	DB	0x07, 0x05, 0x83, 0x02, 0x40, 0x00, 0x00
003e8c   0283     mulwf   0x83, 0          
003e8e   0040     dw      0x40             
003e90   0000     nop                      
                                           ; ; Starting pCode block for Ival
                                           _lang:
003e92   0304     mulwf   0x4, 0x1         	DB	0x04, 0x03, 0x09, 0x04
003e94   0409     decf    0x9, 0, 0        
                                           ; ; Starting pCode block for Ival
                                           _manu:
003e96   0316     mulwf   0x16, 0x1        	DB	0x16, 0x03, 0x4a, 0x00, 0x50, 0x00, 0x20, 0x00, 0x4d, 0x00, 0x41, 0x00
003e98   004a     dw      0x4a             
003e9a   0050     dw      0x50             
003e9c   0020     dw      0x20             
003e9e   004d     dw      0x4d             
003ea0   0041     dw      0x41             
003ea2   004e     dw      0x4e             	DB	0x4e, 0x00, 0x44, 0x00, 0x4f, 0x00, 0x4e, 0x00, 0x20, 0x00
003ea4   0044     dw      0x44             
003ea6   004f     dw      0x4f             
003ea8   004e     dw      0x4e             
003eaa   0020     dw      0x20             
                                           ; ; Starting pCode block for Ival
                                           _prod:
003eac   0312     mulwf   0x12, 0x1        	DB	0x12, 0x03, 0x50, 0x00, 0x69, 0x00, 0x6e, 0x00, 0x67, 0x00, 0x75, 0x00
003eae   0050     dw      0x50             
003eb0   0069     dw      0x69             
003eb2   006e     dw      0x6e             
003eb4   0067     dw      0x67             
003eb6   0075     dw      0x75             
003eb8   0069     dw      0x69             	DB	0x69, 0x00, 0x6e, 0x00, 0x6f, 0x00
003eba   006e     dw      0x6e             
003ebc   006f     dw      0x6f             
                                           ; ; Starting pCode block for Ival
                                           _libstring_descriptor:
003ebe   3e92     incfsz  0x92, 0x1, 0     	DB	LOW(_lang), HIGH(_lang), UPPER(_lang), LOW(_manu), HIGH(_manu), UPPER(_manu), LOW(_prod), HIGH(_prod), UPPER(_prod)
003ec0   9600     bcf     0, 0x3, 0        
003ec2   003e     dw      0x3e             
003ec4   3eac     incfsz  0xac, 0x1, 0     
003ec6   0000     nop                      
                                           ; ; Starting pCode block
                                           __str_0:
003ec8   6e28     movwf   0x28, 0          	DB	0x28, 0x6e, 0x75, 0x6c, 0x6c, 0x29, 0x00
003eca   6c75     negf    0x75, 0          
003ecc   296c     incf    0x6c, 0, 0x1     
003ece   0000     nop                      
                                           ; ; Starting pCode block
                                           __str_1:
003ed0   6625     tstfsz  0x25, 0          	DB	0x25, 0x66, 0x00
003ed2   0000     nop                      
                                           ; ; Starting pCode block
                                           __str_2:
003ed4   6425     cpfsgt  0x25, 0          	DB	0x25, 0x64, 0x00
003ed6   0000     nop                      
                                           ; ; Starting pCode block
                                           __str_3:
003ed8   7825     btg     0x25, 0x4, 0     	DB	0x25, 0x78, 0x00
003eda   0000     nop                      
                                           ; ; Starting pCode block
                                           __str_4:
003edc   6f25     movwf   0x25, 0x1        	DB	0x25, 0x6f, 0x00
003ede   0000     nop                      
                                           ; ; Starting pCode block
                                           __str_5:
003ee0   6225     cpfseq  0x25, 0          	DB	0x25, 0x62, 0x00
003ee2   0000     nop                      
                                           ; ; Starting pCode block
                                           __str_6:
003ee4   0d0a     mullw   0xa              	DB	0x0a, 0x0d, 0x00
003ee6   0000     nop                      
                                           ; ; Starting pCode block
                                           __str_7:
003ee8   6325     cpfseq  0x25, 0x1        	DB	0x25, 0x63, 0x00
003eea   0000     nop                      
                                           ; ; Starting pCode block for Ival
                                           _mask:
003eec   0201     mulwf   0x1, 0           	DB	0x01, 0x02, 0x04, 0x08, 0x10, 0x20, 0x40, 0x80, 0x40, 0x80, 0x01, 0x02
003eee   0804     sublw   0x4              
003ef0   2010     addwfc  0x10, 0, 0       
003ef2   8040     bsf     0x40, 0, 0       
003ef4   8040     bsf     0x40, 0, 0       
003ef6   0201     mulwf   0x1, 0           
003ef8   0104     movlb   0x4              	DB	0x04, 0x01, 0x02, 0x04, 0x08, 0x20, 0x10
003efa   0402     decf    0x2, 0, 0        
003efc   2008     addwfc  0x8, 0, 0        
003efe   0010     retfie  0                
                                           ; ; Starting pCode block for Ival
                                           _port:
003f00   0101     movlb   0x1              	DB	0x01, 0x01, 0x01, 0x01, 0x01, 0x01, 0x01, 0x01, 0x02, 0x02, 0x02, 0x02
003f02   0101     movlb   0x1              
003f04   0101     movlb   0x1              
003f06   0101     movlb   0x1              
003f08   0202     mulwf   0x2, 0           
003f0a   0202     mulwf   0x2, 0           
003f0c   0002     dw      0x2              	DB	0x02, 0x00, 0x00, 0x00, 0x00, 0x00, 0x00
003f0e   0000     nop                      
003f10   0000     nop                      
003f12   0000     nop                      
                                           ; ; Starting pCode block for Ival
                                           _cpudiv:
003f14   0201     mulwf   0x1, 0           	DB	0x01, 0x02, 0x03, 0x06
003f16   0603     decf    0x3, 0x1, 0      
                                           ; ; Starting pCode block for Ival
                                           _ircf:
003f18   7a12     btg     0x12, 0x5, 0     	DB	0x12, 0x7a, 0x00, 0x00, 0x48, 0xe8, 0x01, 0x00, 0x90, 0xd0, 0x03, 0x00
003f1a   0000     nop                      
003f1c   e848     dw      0xe848           
003f1e   0001     halt                     
003f20   d090     bra     0x4042           
003f22   0003     sleep                    
003f24   a120     btfss   0x20, 0, 0x1     	DB	0x20, 0xa1, 0x07, 0x00, 0x40, 0x42, 0x0f, 0x00, 0x80, 0x84, 0x1e, 0x00
003f26   0007     daw                      
003f28   4240     rrncf   0x40, 0x1, 0     
003f2a   000f     tblwt   +*               
003f2c   8480     bsf     0x80, 0x2, 0     
003f2e   001e     dw      0x1e             
003f30   0900     iorlw   0                	DB	0x00, 0x09, 0x3d, 0x00, 0x00, 0x12, 0x7a, 0x00
003f32   003d     dw      0x3d             
003f34   1200     iorwf   0, 0x1, 0        
003f36   007a     dw      0x7a             
                                           ; ; Starting pCode block
                                           __str_8:
003f38   6970     setf    0x70, 0x1        	DB	0x70, 0x69, 0x6e, 0x4d, 0x6f, 0x64, 0x65, 0x00
003f3a   4d6e     dcfsnz  0x6e, 0, 0x1     
003f3c   646f     cpfsgt  0x6f, 0          
003f3e   0065     dw      0x65             
                                           ; ; Starting pCode block
                                           __str_9:
003f40   4e49     dcfsnz  0x49, 0x1, 0     	DB	0x49, 0x4e, 0x50, 0x55, 0x54, 0x00
003f42   5550     subfwb  0x50, 0, 0x1     
003f44   0054     dw      0x54             
                                           ; ; Starting pCode block
                                           __str_10:
003f46   554f     subfwb  0x4f, 0, 0x1     	DB	0x4f, 0x55, 0x54, 0x50, 0x55, 0x54, 0x00
003f48   5054     movf    0x54, 0, 0       
003f4a   5455     subfwb  0x55, 0, 0       
003f4c   0000     nop                      
                                           ; ; Starting pCode block
                                           __str_11:
003f4e   0028     dw      0x28             	DB	0x28, 0x00
                                           ; ; Starting pCode block
                                           __str_12:
003f50   002c     dw      0x2c             	DB	0x2c, 0x00
                                           ; ; Starting pCode block
                                           __str_13:
003f52   6964     setf    0x64, 0x1        	DB	0x64, 0x69, 0x67, 0x69, 0x74, 0x61, 0x6c, 0x57, 0x72, 0x69, 0x74, 0x65
003f54   6967     setf    0x67, 0x1        
003f56   6174     cpfslt  0x74, 0x1        
003f58   576c     subfwb  0x6c, 0x1, 0x1   
003f5a   6972     setf    0x72, 0x1        
003f5c   6574     cpfsgt  0x74, 0x1        
003f5e   0000     nop                      	DB	0x00
                                           ; ; Starting pCode block
                                           __str_14:
003f60   4948     infsnz  0x48, 0, 0x1     	DB	0x48, 0x49, 0x47, 0x48, 0x00
003f62   4847     infsnz  0x47, 0, 0       
003f64   0000     nop                      
                                           ; ; Starting pCode block
                                           __str_15:
003f66   4f4c     dcfsnz  0x4c, 0x1, 0x1   	DB	0x4c, 0x4f, 0x57, 0x00
003f68   0057     dw      0x57             
                                           ; ; Starting pCode block
                                           __str_16:
003f6a   6e61     movwf   0x61, 0          	DB	0x61, 0x6e, 0x61, 0x6c, 0x6f, 0x67, 0x57, 0x72, 0x69, 0x74, 0x65, 0x00
003f6c   6c61     negf    0x61, 0          
003f6e   676f     tstfsz  0x6f, 0x1        
003f70   7257     btg     0x57, 0x1, 0     
003f72   7469     btg     0x69, 0x2, 0     
003f74   0065     dw      0x65             
                                           ; ; Starting pCode block
                                           __str_17:
003f76   6964     setf    0x64, 0x1        	DB	0x64, 0x69, 0x67, 0x69, 0x74, 0x61, 0x6c, 0x52, 0x65, 0x61, 0x64, 0x00
003f78   6967     setf    0x67, 0x1        
003f7a   6174     cpfslt  0x74, 0x1        
003f7c   526c     movf    0x6c, 0x1, 0     
003f7e   6165     cpfslt  0x65, 0x1        
003f80   0064     dw      0x64             
                                           ; ; Starting pCode block
                                           __str_18:
003f82   6425     cpfsgt  0x25, 0          	DB	0x25, 0x64, 0x0a, 0x00
003f84   000a     tblrd   *-               
                                           ; ; Starting pCode block
                                           __str_19:
003f86   0029     dw      0x29             	DB	0x29, 0x00
                                           ; ; Starting pCode block
                                           __str_20:
003f88   6e61     movwf   0x61, 0          	DB	0x61, 0x6e, 0x61, 0x6c, 0x6f, 0x67, 0x52, 0x65, 0x61, 0x64, 0x00
003f8a   6c61     negf    0x61, 0          
003f8c   676f     tstfsz  0x6f, 0x1        
003f8e   6552     cpfsgt  0x52, 0x1        
003f90   6461     cpfsgt  0x61, 0          
003f92   0000     nop                      
                                           ; ; Starting pCode block
                                           __str_21:
003f94   6565     cpfsgt  0x65, 0x1        	DB	0x65, 0x65, 0x70, 0x72, 0x6f, 0x6d, 0x52, 0x65, 0x61, 0x64, 0x00
003f96   7270     btg     0x70, 0x1, 0     
003f98   6d6f     negf    0x6f, 0x1        
003f9a   6552     cpfsgt  0x52, 0x1        
003f9c   6461     cpfsgt  0x61, 0          
003f9e   0000     nop                      
                                           ; ; Starting pCode block
                                           __str_22:
003fa0   6565     cpfsgt  0x65, 0x1        	DB	0x65, 0x65, 0x70, 0x72, 0x6f, 0x6d, 0x57, 0x72, 0x69, 0x74, 0x65, 0x00
003fa2   7270     btg     0x70, 0x1, 0     
003fa4   6d6f     negf    0x6f, 0x1        
003fa6   7257     btg     0x57, 0x1, 0     
003fa8   7469     btg     0x69, 0x2, 0     
003faa   0065     dw      0x65             
                                           ; ; Starting pCode block
                                           __str_23:
003fac   6564     cpfsgt  0x64, 0x1        	DB	0x64, 0x65, 0x6c, 0x61, 0x79, 0x00
003fae   616c     cpfslt  0x6c, 0x1        
003fb0   0079     dw      0x79             
                                           ; ; Starting pCode block
                                           __str_24:
003fb2   6564     cpfsgt  0x64, 0x1        	DB	0x64, 0x65, 0x6c, 0x61, 0x79, 0x4d, 0x69, 0x63, 0x72, 0x6f, 0x73, 0x65
003fb4   616c     cpfslt  0x6c, 0x1        
003fb6   4d79     dcfsnz  0x79, 0, 0x1     
003fb8   6369     cpfseq  0x69, 0x1        
003fba   6f72     movwf   0x72, 0x1        
003fbc   6573     cpfsgt  0x73, 0x1        
003fbe   6f63     movwf   0x63, 0x1        	DB	0x63, 0x6f, 0x6e, 0x64, 0x73, 0x00
003fc0   646e     cpfsgt  0x6e, 0          
003fc2   0073     dw      0x73             
                                           ; ; Starting pCode block
                                           __str_25:
003fc4   6f44     movwf   0x44, 0x1        	DB	0x44, 0x6f, 0x6e, 0x65, 0x0a, 0x00
003fc6   656e     cpfsgt  0x6e, 0x1        
003fc8   000a     tblrd   *-               
                                           ; ; Starting pCode block
                                           __str_26:
003fca   6c61     negf    0x61, 0          	DB	0x61, 0x6c, 0x6c, 0x4f, 0x75, 0x74, 0x70, 0x75, 0x74, 0x00
003fcc   4f6c     dcfsnz  0x6c, 0x1, 0x1   
003fce   7475     btg     0x75, 0x2, 0     
003fd0   7570     btg     0x70, 0x2, 0x1   
003fd2   0074     dw      0x74             
                                           ; ; Starting pCode block
                                           __str_27:
003fd4   6c61     negf    0x61, 0          	DB	0x61, 0x6c, 0x6c, 0x49, 0x6e, 0x70, 0x75, 0x74, 0x00
003fd6   496c     infsnz  0x6c, 0, 0x1     
003fd8   706e     btg     0x6e, 0, 0       
003fda   7475     btg     0x75, 0x2, 0     
003fdc   0000     nop                      
                                           ; ; Starting pCode block
                                           __str_28:
003fde   6c61     negf    0x61, 0          	DB	0x61, 0x6c, 0x6c, 0x48, 0x69, 0x67, 0x68, 0x00
003fe0   486c     infsnz  0x6c, 0, 0       
003fe2   6769     tstfsz  0x69, 0x1        
003fe4   0068     dw      0x68             
                                           ; ; Starting pCode block
                                           __str_29:
003fe6   6c61     negf    0x61, 0          	DB	0x61, 0x6c, 0x6c, 0x4c, 0x6f, 0x77, 0x00
003fe8   4c6c     dcfsnz  0x6c, 0, 0       
003fea   776f     btg     0x6f, 0x3, 0x1   
003fec   0000     nop                      
                                           ; ; Starting pCode block
                                           __str_30:
003fee   6572     cpfsgt  0x72, 0x1        	DB	0x72, 0x65, 0x73, 0x65, 0x74, 0x00
003ff0   6573     cpfsgt  0x73, 0x1        
003ff2   0074     dw      0x74             
                                           
                                           
                                           ; Statistics:
                                           ; code size:	19164 (0x4adc) bytes (14.62%)
                                           ;           	 9582 (0x256e) words
                                           ; udata size:	  756 (0x02f4) bytes (42.19%)
                                           ; access size:	   33 (0x0021) bytes
                                           
                                           
                                           	end
