gplink-0.13.7 beta
Copyright (c) 1998-2005 gputils project
Listing File Generated: 12-26-2010  18:23:18
 
 
Address  Value    Disassembly              Source
-------  -----    -----------              ------
                                           ;--------------------------------------------------------
                                           ; File Created by SDCC : free open source ANSI-C Compiler
                                           ; Version 2.9.0 #5416 (Aug  9 2009) (UNIX)
                                           ; This file was generated Sun Dec 26 18:23:18 2010
                                           ;--------------------------------------------------------
                                           ; PIC16 port for the Microchip 16-bit core micros
                                           ;--------------------------------------------------------
                                           	list	p=18f2550
                                           
                                           	radix dec
                                           
                                           ;--------------------------------------------------------
                                           ; public variables in this module
                                           ;--------------------------------------------------------
                                           	global _rx
                                           	global _wpointer
                                           	global _rpointer
                                           	global _caractere
                                           	global _chaine
                                           	global _printf
                                           	global _serial_begin
                                           	global _serial_available
                                           	global _serial_putchar
                                           	global _serial_interrupt
                                           	global _serial_read
                                           	global _serial_flush
                                           	global _serial_getkey
                                           	global _serial_printf
                                           	global _serial_write
                                           	global _epap_in
                                           	global _epap_out
                                           	global _epapin_init
                                           	global _epapout_init
                                           	global _setup
                                           	global _loop
                                           	global _pinguino_main
                                           	global _high_priority_isr
                                           	global _low_priority_isr
                                           
                                           ;--------------------------------------------------------
                                           ; extern variables in this module
                                           ;--------------------------------------------------------
                                           	extern __gptrget3
                                           	extern __gptrput1
                                           	extern __gptrput3
                                           	extern __gptrget1
                                           	extern __gptrget2
                                           	extern _SPPDATAbits
                                           	extern _SPPCFGbits
                                           	extern _SPPEPSbits
                                           	extern _SPPCONbits
                                           	extern _UFRMLbits
                                           	extern _UFRMHbits
                                           	extern _UIRbits
                                           	extern _UIEbits
                                           	extern _UEIRbits
                                           	extern _UEIEbits
                                           	extern _USTATbits
                                           	extern _UCONbits
                                           	extern _UADDRbits
                                           	extern _UCFGbits
                                           	extern _UEP0bits
                                           	extern _UEP1bits
                                           	extern _UEP2bits
                                           	extern _UEP3bits
                                           	extern _UEP4bits
                                           	extern _UEP5bits
                                           	extern _UEP6bits
                                           	extern _UEP7bits
                                           	extern _UEP8bits
                                           	extern _UEP9bits
                                           	extern _UEP10bits
                                           	extern _UEP11bits
                                           	extern _UEP12bits
                                           	extern _UEP13bits
                                           	extern _UEP14bits
                                           	extern _UEP15bits
                                           	extern _PORTAbits
                                           	extern _PORTBbits
                                           	extern _PORTCbits
                                           	extern _PORTDbits
                                           	extern _PORTEbits
                                           	extern _LATAbits
                                           	extern _LATBbits
                                           	extern _LATCbits
                                           	extern _LATDbits
                                           	extern _LATEbits
                                           	extern _TRISAbits
                                           	extern _TRISBbits
                                           	extern _TRISCbits
                                           	extern _TRISDbits
                                           	extern _TRISEbits
                                           	extern _OSCTUNEbits
                                           	extern _PIE1bits
                                           	extern _PIR1bits
                                           	extern _IPR1bits
                                           	extern _PIE2bits
                                           	extern _PIR2bits
                                           	extern _IPR2bits
                                           	extern _EECON1bits
                                           	extern _RCSTAbits
                                           	extern _TXSTAbits
                                           	extern _T3CONbits
                                           	extern _CMCONbits
                                           	extern _CVRCONbits
                                           	extern _ECCP1ASbits
                                           	extern _ECCP1DELbits
                                           	extern _BAUDCONbits
                                           	extern _CCP2CONbits
                                           	extern _CCP1CONbits
                                           	extern _ADCON2bits
                                           	extern _ADCON1bits
                                           	extern _ADCON0bits
                                           	extern _SSPCON2bits
                                           	extern _SSPCON1bits
                                           	extern _SSPSTATbits
                                           	extern _T2CONbits
                                           	extern _T1CONbits
                                           	extern _RCONbits
                                           	extern _WDTCONbits
                                           	extern _HLVDCONbits
                                           	extern _OSCCONbits
                                           	extern _T0CONbits
                                           	extern _STATUSbits
                                           	extern _FSR2Hbits
                                           	extern _BSRbits
                                           	extern _FSR1Hbits
                                           	extern _FSR0Hbits
                                           	extern _INTCON3bits
                                           	extern _INTCON2bits
                                           	extern _INTCONbits
                                           	extern _TBLPTRUbits
                                           	extern _PCLATHbits
                                           	extern _PCLATUbits
                                           	extern _STKPTRbits
                                           	extern _TOSUbits
                                           	extern _usb_device_state
                                           	extern _usb_active_cfg
                                           	extern _usb_active_alt_setting
                                           	extern _SPPDATA
                                           	extern _SPPCFG
                                           	extern _SPPEPS
                                           	extern _SPPCON
                                           	extern _UFRML
                                           	extern _UFRMH
                                           	extern _UIR
                                           	extern _UIE
                                           	extern _UEIR
                                           	extern _UEIE
                                           	extern _USTAT
                                           	extern _UCON
                                           	extern _UADDR
                                           	extern _UCFG
                                           	extern _UEP0
                                           	extern _UEP1
                                           	extern _UEP2
                                           	extern _UEP3
                                           	extern _UEP4
                                           	extern _UEP5
                                           	extern _UEP6
                                           	extern _UEP7
                                           	extern _UEP8
                                           	extern _UEP9
                                           	extern _UEP10
                                           	extern _UEP11
                                           	extern _UEP12
                                           	extern _UEP13
                                           	extern _UEP14
                                           	extern _UEP15
                                           	extern _PORTA
                                           	extern _PORTB
                                           	extern _PORTC
                                           	extern _PORTD
                                           	extern _PORTE
                                           	extern _LATA
                                           	extern _LATB
                                           	extern _LATC
                                           	extern _LATD
                                           	extern _LATE
                                           	extern _TRISA
                                           	extern _TRISB
                                           	extern _TRISC
                                           	extern _TRISD
                                           	extern _TRISE
                                           	extern _OSCTUNE
                                           	extern _PIE1
                                           	extern _PIR1
                                           	extern _IPR1
                                           	extern _PIE2
                                           	extern _PIR2
                                           	extern _IPR2
                                           	extern _EECON1
                                           	extern _EECON2
                                           	extern _EEDATA
                                           	extern _EEADR
                                           	extern _RCSTA
                                           	extern _TXSTA
                                           	extern _TXREG
                                           	extern _RCREG
                                           	extern _SPBRG
                                           	extern _SPBRGH
                                           	extern _T3CON
                                           	extern _TMR3L
                                           	extern _TMR3H
                                           	extern _CMCON
                                           	extern _CVRCON
                                           	extern _ECCP1AS
                                           	extern _ECCP1DEL
                                           	extern _BAUDCON
                                           	extern _CCP2CON
                                           	extern _CCPR2L
                                           	extern _CCPR2H
                                           	extern _CCP1CON
                                           	extern _CCPR1L
                                           	extern _CCPR1H
                                           	extern _ADCON2
                                           	extern _ADCON1
                                           	extern _ADCON0
                                           	extern _ADRESL
                                           	extern _ADRESH
                                           	extern _SSPCON2
                                           	extern _SSPCON1
                                           	extern _SSPSTAT
                                           	extern _SSPADD
                                           	extern _SSPBUF
                                           	extern _T2CON
                                           	extern _PR2
                                           	extern _TMR2
                                           	extern _T1CON
                                           	extern _TMR1L
                                           	extern _TMR1H
                                           	extern _RCON
                                           	extern _WDTCON
                                           	extern _HLVDCON
                                           	extern _OSCCON
                                           	extern _T0CON
                                           	extern _TMR0L
                                           	extern _TMR0H
                                           	extern _STATUS
                                           	extern _FSR2L
                                           	extern _FSR2H
                                           	extern _PLUSW2
                                           	extern _PREINC2
                                           	extern _POSTDEC2
                                           	extern _POSTINC2
                                           	extern _INDF2
                                           	extern _BSR
                                           	extern _FSR1L
                                           	extern _FSR1H
                                           	extern _PLUSW1
                                           	extern _PREINC1
                                           	extern _POSTDEC1
                                           	extern _POSTINC1
                                           	extern _INDF1
                                           	extern _WREG
                                           	extern _FSR0L
                                           	extern _FSR0H
                                           	extern _PLUSW0
                                           	extern _PREINC0
                                           	extern _POSTDEC0
                                           	extern _POSTINC0
                                           	extern _INDF0
                                           	extern _INTCON3
                                           	extern _INTCON2
                                           	extern _INTCON
                                           	extern _PRODL
                                           	extern _PRODH
                                           	extern _TABLAT
                                           	extern _TBLPTRL
                                           	extern _TBLPTRH
                                           	extern _TBLPTRU
                                           	extern _PCL
                                           	extern _PCLATH
                                           	extern _PCLATU
                                           	extern _STKPTR
                                           	extern _TOSL
                                           	extern _TOSH
                                           	extern _TOSU
                                           	extern __moduint
                                           	extern __divuint
                                           	extern __mulint
                                           	extern __mullong
                                           	extern __divulong
                                           ;--------------------------------------------------------
                                           ;	Equates to used internal registers
                                           ;--------------------------------------------------------
                                           STATUS	equ	0xfd8
                                           PCL	equ	0xff9
                                           PCLATH	equ	0xffa
                                           PCLATU	equ	0xffb
                                           INTCON	equ	0xff2
                                           WREG	equ	0xfe8
                                           BSR	equ	0xfe0
                                           TOSL	equ	0xffd
                                           TOSH	equ	0xffe
                                           TOSU	equ	0xfff
                                           TBLPTRL	equ	0xff6
                                           FSR0L	equ	0xfe9
                                           FSR0H	equ	0xfea
                                           FSR1L	equ	0xfe1
                                           FSR1H	equ	0xfe2
                                           FSR2L	equ	0xfd9
                                           FSR2H	equ	0xfda
                                           INDF0	equ	0xfef
                                           POSTINC1	equ	0xfe6
                                           POSTDEC1	equ	0xfe5
                                           PREINC1	equ	0xfe4
                                           PLUSW1	equ	0xfe3
                                           PLUSW2	equ	0xfdb
                                           PRODL	equ	0xff3
                                           PRODH	equ	0xff4
                                           
                                           
                                           	idata
                                           _chaine	db	0x54, 0x45, 0x53, 0x54, 0x00
                                           
                                           
                                           ; Internal registers
                                           .registers	udata_ovr	0x0000
                                           r0x00	res	1
                                           r0x01	res	1
                                           r0x02	res	1
                                           r0x03	res	1
                                           r0x04	res	1
                                           r0x05	res	1
                                           r0x06	res	1
                                           r0x07	res	1
                                           r0x08	res	1
                                           r0x09	res	1
                                           r0x0a	res	1
                                           r0x0b	res	1
                                           r0x0c	res	1
                                           r0x0d	res	1
                                           r0x0e	res	1
                                           r0x0f	res	1
                                           r0x10	res	1
                                           r0x11	res	1
                                           r0x12	res	1
                                           r0x13	res	1
                                           r0x14	res	1
                                           r0x15	res	1
                                           r0x16	res	1
                                           r0x17	res	1
                                           r0x18	res	1
                                           r0x19	res	1
                                           r0x1a	res	1
                                           
                                           udata_main_0	udata
                                           _putchar	res	3
                                           
                                           udata_main_1	udata
                                           _printi_print_buf_1_1	res	12
                                           
                                           udata_main_2	udata
                                           _print_scr_1_1	res	2
                                           
                                           udata_main_3	udata
                                           _wpointer	res	1
                                           
                                           udata_main_4	udata
                                           _rpointer	res	1
                                           
                                           udata_main_5	udata
                                           _rx	res	128
                                           
                                           udata_main_6	udata
                                           _caractere	res	1
                                           
                                           ;--------------------------------------------------------
                                           ; global & static initialisations
                                           ;--------------------------------------------------------
                                           ; ; Starting pCode block
                                           S_main__high_priority_isr	code	0X002020
                                           _high_priority_isr:
                                           ;	.line	96; /home/mandon/programmation/pinguino developpement/pinguino_beta9-05_linux/source/main.c	void high_priority_isr(void) interrupt
002020   cfe8     movff	0xfe8, 0xfe5       	MOVFF	WREG, POSTDEC1
002022   ffe5
002024   cfd8     movff	0xfd8, 0xfe5       	MOVFF	STATUS, POSTDEC1
002026   ffe5
002028   cfe0     movff	0xfe0, 0xfe5       	MOVFF	BSR, POSTDEC1
00202a   ffe5
00202c   cff3     movff	0xff3, 0xfe5       	MOVFF	PRODL, POSTDEC1
00202e   ffe5
002030   cff4     movff	0xff4, 0xfe5       	MOVFF	PRODH, POSTDEC1
002032   ffe5
002034   cfe9     movff	0xfe9, 0xfe5       	MOVFF	FSR0L, POSTDEC1
002036   ffe5
002038   cfea     movff	0xfea, 0xfe5       	MOVFF	FSR0H, POSTDEC1
00203a   ffe5
00203c   cffa     movff	0xffa, 0xfe5       	MOVFF	PCLATH, POSTDEC1
00203e   ffe5
                                           ;	.line	119; /home/mandon/programmation/pinguino developpement/pinguino_beta9-05_linux/source/main.c	if (PIR1bits.RCIF) 
002040   cffb     movff	0xffb, 0xfe5       	MOVFF	PCLATU, POSTDEC1
002042   ffe5
                                           ; #	MOVFF	FSR1L, FSR2L
                                           ; #	BTFSS	_PIR1bits, 5
                                           ; #	GOTO	_00479_DS_
                                           ; #	CALL	_serial_interrupt
                                           ; #	MOVFF	PREINC1, FSR2L
                                           ;	.line	120; /home/mandon/programmation/pinguino developpement/pinguino_beta9-05_linux/source/main.c	serial_interrupt();
002044   ba9e     btfsc	0x9e, 0x5, 0       	BTFSC	_PIR1bits, 5
002046   ec96     call	0x3b2c, 0           	CALL	_serial_interrupt
002048   f01d
00204a   cfe4     movff	0xfe4, 0xffb       	MOVFF	PREINC1, PCLATU
00204c   fffb
00204e   cfe4     movff	0xfe4, 0xffa       	MOVFF	PREINC1, PCLATH
002050   fffa
002052   cfe4     movff	0xfe4, 0xfea       	MOVFF	PREINC1, FSR0H
002054   ffea
002056   cfe4     movff	0xfe4, 0xfe9       	MOVFF	PREINC1, FSR0L
002058   ffe9
00205a   cfe4     movff	0xfe4, 0xff4       	MOVFF	PREINC1, PRODH
00205c   fff4
00205e   cfe4     movff	0xfe4, 0xff3       	MOVFF	PREINC1, PRODL
002060   fff3
002062   cfe4     movff	0xfe4, 0xfe0       	MOVFF	PREINC1, BSR
002064   ffe0
002066   cfe4     movff	0xfe4, 0xfd8       	MOVFF	PREINC1, STATUS
002068   ffd8
00206a   cfe4     movff	0xfe4, 0xfe8       	MOVFF	PREINC1, WREG
00206c   ffe8
00206e   0010     retfie	0                 	RETFIE	
                                           
                                           ; ; Starting pCode block
                                           S_main__low_priority_isr	code	0X004000
                                           _low_priority_isr:
                                           ;	.line	140; /home/mandon/programmation/pinguino developpement/pinguino_beta9-05_linux/source/main.c	void low_priority_isr(void) interrupt
004000   cfe8     movff	0xfe8, 0xfe5       	MOVFF	WREG, POSTDEC1
004002   ffe5
004004   cfd8     movff	0xfd8, 0xfe5       	MOVFF	STATUS, POSTDEC1
004006   ffe5
004008   cfe0     movff	0xfe0, 0xfe5       	MOVFF	BSR, POSTDEC1
00400a   ffe5
00400c   cff3     movff	0xff3, 0xfe5       	MOVFF	PRODL, POSTDEC1
00400e   ffe5
004010   cff4     movff	0xff4, 0xfe5       	MOVFF	PRODH, POSTDEC1
004012   ffe5
004014   cfe9     movff	0xfe9, 0xfe5       	MOVFF	FSR0L, POSTDEC1
004016   ffe5
004018   cfea     movff	0xfea, 0xfe5       	MOVFF	FSR0H, POSTDEC1
00401a   ffe5
00401c   cffa     movff	0xffa, 0xfe5       	MOVFF	PCLATH, POSTDEC1
00401e   ffe5
004020   cffb     movff	0xffb, 0xfe5       	MOVFF	PCLATU, POSTDEC1
004022   ffe5
                                           ;	.line	142; /home/mandon/programmation/pinguino developpement/pinguino_beta9-05_linux/source/main.c	}
004024   cfe4     movff	0xfe4, 0xffb       	MOVFF	PREINC1, PCLATU
004026   fffb
004028   cfe4     movff	0xfe4, 0xffa       	MOVFF	PREINC1, PCLATH
00402a   fffa
00402c   cfe4     movff	0xfe4, 0xfea       	MOVFF	PREINC1, FSR0H
00402e   ffea
004030   cfe4     movff	0xfe4, 0xfe9       	MOVFF	PREINC1, FSR0L
004032   ffe9
004034   cfe4     movff	0xfe4, 0xff4       	MOVFF	PREINC1, PRODH
004036   fff4
004038   cfe4     movff	0xfe4, 0xff3       	MOVFF	PREINC1, PRODL
00403a   fff3
00403c   cfe4     movff	0xfe4, 0xfe0       	MOVFF	PREINC1, BSR
00403e   ffe0
004040   cfe4     movff	0xfe4, 0xfd8       	MOVFF	PREINC1, STATUS
004042   ffd8
004044   cfe4     movff	0xfe4, 0xfe8       	MOVFF	PREINC1, WREG
004046   ffe8
004048   0010     retfie	0                 	RETFIE	
                                           
                                           ; I code from now on!
                                           ; ; Starting pCode block
                                           S_main__pinguino_main	code
                                           _pinguino_main:
                                           ;	.line	52; /home/mandon/programmation/pinguino developpement/pinguino_beta9-05_linux/source/main.c	PIE1=0;
003ccc   6a9d     clrf	0x9d, 0             	CLRF	_PIE1
                                           ;	.line	53; /home/mandon/programmation/pinguino developpement/pinguino_beta9-05_linux/source/main.c	PIE2=0;
003cce   6aa0     clrf	0xa0, 0             	CLRF	_PIE2
                                           ;	.line	54; /home/mandon/programmation/pinguino developpement/pinguino_beta9-05_linux/source/main.c	ADCON1=0x0F;
003cd0   0e0f     movlw	0xf                	MOVLW	0x0f
003cd2   6ec1     movwf	0xc1, 0            	MOVWF	_ADCON1
                                           ;	.line	59; /home/mandon/programmation/pinguino developpement/pinguino_beta9-05_linux/source/main.c	setup();
003cd4   ec72     call	0x3ce4, 0           	CALL	_setup
003cd6   f01e
                                           ;	.line	75; /home/mandon/programmation/pinguino developpement/pinguino_beta9-05_linux/source/main.c	INTCONbits.PEIE=1;
003cd8   8cf2     bsf	0xf2, 0x6, 0         	BSF	_INTCONbits, 6
                                           ;	.line	76; /home/mandon/programmation/pinguino developpement/pinguino_beta9-05_linux/source/main.c	INTCONbits.GIE=1;
003cda   8ef2     bsf	0xf2, 0x7, 0         	BSF	_INTCONbits, 7
                                           _00470_DS_:
                                           ;	.line	89; /home/mandon/programmation/pinguino developpement/pinguino_beta9-05_linux/source/main.c	loop();
003cdc   ec60     call	0x3ac0, 0           	CALL	_loop
003cde   f01d
003ce0   d7fd     bra	0x3cdc               	BRA	_00470_DS_
003ce2   0012     return	0                 	RETURN	
                                           
                                           ; ; Starting pCode block
                                           S_main__loop	code
                                           _loop:
                                           ;	.line	12; /home/mandon/programmation/pinguino developpement/pinguino_beta9-05_linux/source/user.c	void loop()
003ac0   c000     movff	0, 0xfe5           	MOVFF	r0x00, POSTDEC1
003ac2   ffe5
                                           ;	.line	14; /home/mandon/programmation/pinguino developpement/pinguino_beta9-05_linux/source/user.c	serial_write("TEST\n\r");
003ac4   0e00     movlw	0                  	MOVLW	UPPER(__str_4)
003ac6   6ee5     movwf	0xe5, 0            	MOVWF	POSTDEC1
003ac8   0e36     movlw	0x36               	MOVLW	HIGH(__str_4)
003aca   6ee5     movwf	0xe5, 0            	MOVWF	POSTDEC1
003acc   0e16     movlw	0x16               	MOVLW	LOW(__str_4)
003ace   6ee5     movwf	0xe5, 0            	MOVWF	POSTDEC1
003ad0   ece5     call	0x2dca, 0           	CALL	_serial_write
003ad2   f016
003ad4   0e03     movlw	0x3                	MOVLW	0x03
003ad6   26e1     addwf	0xe1, 0x1, 0       	ADDWF	FSR1L, F
                                           ;	.line	15; /home/mandon/programmation/pinguino developpement/pinguino_beta9-05_linux/source/user.c	if (serial_available()) {
003ad8   ec25     call	0x3c4a, 0           	CALL	_serial_available
003ada   f01e
003adc   6e00     movwf	0, 0               	MOVWF	r0x00
003ade   5000     movf	0, 0, 0             	MOVF	r0x00, W
003ae0   e022     bz	0x3b26                	BZ	_00464_DS_
                                           ;	.line	16; /home/mandon/programmation/pinguino developpement/pinguino_beta9-05_linux/source/user.c	serial_write("caractere");
003ae2   0e00     movlw	0                  	MOVLW	UPPER(__str_5)
003ae4   6ee5     movwf	0xe5, 0            	MOVWF	POSTDEC1
003ae6   0e36     movlw	0x36               	MOVLW	HIGH(__str_5)
003ae8   6ee5     movwf	0xe5, 0            	MOVWF	POSTDEC1
003aea   0e1e     movlw	0x1e               	MOVLW	LOW(__str_5)
003aec   6ee5     movwf	0xe5, 0            	MOVWF	POSTDEC1
003aee   ece5     call	0x2dca, 0           	CALL	_serial_write
003af0   f016
003af2   0e03     movlw	0x3                	MOVLW	0x03
003af4   26e1     addwf	0xe1, 0x1, 0       	ADDWF	FSR1L, F
                                           ;	.line	17; /home/mandon/programmation/pinguino developpement/pinguino_beta9-05_linux/source/user.c	caractere=serial_read();
003af6   ecfc     call	0x3bf8, 0           	CALL	_serial_read
003af8   f01d
003afa   0102     movlb	0x2                	BANKSEL	_caractere
003afc   6f99     movwf	0x99, 0x1          	MOVWF	_caractere, B
                                           ;	.line	18; /home/mandon/programmation/pinguino developpement/pinguino_beta9-05_linux/source/user.c	serial_write(chaine);
003afe   0e80     movlw	0x80               	MOVLW	0x80
                                           ; #	MOVWF	r0x02
                                           ; #	MOVF	r0x02, W
003b00   6ee5     movwf	0xe5, 0            	MOVWF	POSTDEC1
003b02   0e02     movlw	0x2                	MOVLW	HIGH(_chaine)
003b04   6ee5     movwf	0xe5, 0            	MOVWF	POSTDEC1
003b06   0e8d     movlw	0x8d               	MOVLW	LOW(_chaine)
003b08   6ee5     movwf	0xe5, 0            	MOVWF	POSTDEC1
003b0a   ece5     call	0x2dca, 0           	CALL	_serial_write
003b0c   f016
003b0e   0e03     movlw	0x3                	MOVLW	0x03
003b10   26e1     addwf	0xe1, 0x1, 0       	ADDWF	FSR1L, F
                                           ;	.line	19; /home/mandon/programmation/pinguino developpement/pinguino_beta9-05_linux/source/user.c	serial_write(&caractere);
003b12   0e80     movlw	0x80               	MOVLW	0x80
                                           ; #	MOVWF	r0x02
                                           ; #	MOVF	r0x02, W
003b14   6ee5     movwf	0xe5, 0            	MOVWF	POSTDEC1
003b16   0e02     movlw	0x2                	MOVLW	HIGH(_caractere)
003b18   6ee5     movwf	0xe5, 0            	MOVWF	POSTDEC1
003b1a   0e99     movlw	0x99               	MOVLW	LOW(_caractere)
003b1c   6ee5     movwf	0xe5, 0            	MOVWF	POSTDEC1
003b1e   ece5     call	0x2dca, 0           	CALL	_serial_write
003b20   f016
003b22   0e03     movlw	0x3                	MOVLW	0x03
003b24   26e1     addwf	0xe1, 0x1, 0       	ADDWF	FSR1L, F
                                           _00464_DS_:
003b26   cfe4     movff	0xfe4, 0           	MOVFF	PREINC1, r0x00
003b28   f000
003b2a   0012     return	0                 	RETURN	
                                           
                                           ; ; Starting pCode block
                                           S_main__setup	code
                                           _setup:
                                           ;	.line	9; /home/mandon/programmation/pinguino developpement/pinguino_beta9-05_linux/source/user.c	serial_begin(9600);
003ce4   6ae5     clrf	0xe5, 0             	CLRF	POSTDEC1
003ce6   6ae5     clrf	0xe5, 0             	CLRF	POSTDEC1
003ce8   0e25     movlw	0x25               	MOVLW	0x25
003cea   6ee5     movwf	0xe5, 0            	MOVWF	POSTDEC1
003cec   0e80     movlw	0x80               	MOVLW	0x80
003cee   6ee5     movwf	0xe5, 0            	MOVWF	POSTDEC1
003cf0   eca1     call	0x3742, 0           	CALL	_serial_begin
003cf2   f01b
003cf4   0e04     movlw	0x4                	MOVLW	0x04
003cf6   26e1     addwf	0xe1, 0x1, 0       	ADDWF	FSR1L, F
003cf8   0012     return	0                 	RETURN	
                                           
                                           ; ; Starting pCode block
                                           S_main__epapout_init	code
                                           _epapout_init:
                                           ;	.line	40; /home/mandon/programmation/pinguino developpement/pinguino_beta9-05_linux/source/main.c	void epapout_init() { return; }
003d1a   0012     return	0                 	RETURN	
                                           
                                           ; ; Starting pCode block
                                           S_main__epapin_init	code
                                           _epapin_init:
                                           ;	.line	39; /home/mandon/programmation/pinguino developpement/pinguino_beta9-05_linux/source/main.c	void epapin_init() { return; }
003d1c   0012     return	0                 	RETURN	
                                           
                                           ; ; Starting pCode block
                                           S_main__epap_out	code
                                           _epap_out:
                                           ;	.line	38; /home/mandon/programmation/pinguino developpement/pinguino_beta9-05_linux/source/main.c	void epap_out() { return; }
003d1e   0012     return	0                 	RETURN	
                                           
                                           ; ; Starting pCode block
                                           S_main__epap_in	code
                                           _epap_in:
                                           ;	.line	37; /home/mandon/programmation/pinguino developpement/pinguino_beta9-05_linux/source/main.c	void epap_in() { return; }
003d20   0012     return	0                 	RETURN	
                                           
                                           ; ; Starting pCode block
                                           S_main__serial_write	code
                                           _serial_write:
                                           ;	.line	173; /home/mandon/programmation/pinguino developpement/pinguino_beta9-05_linux/tools/bin/../share/sdcc/include/pic16/uart18f2550.c	void serial_write(char *fmt,...)
002dca   cfd9     movff	0xfd9, 0xfe5       	MOVFF	FSR2L, POSTDEC1
002dcc   ffe5
002dce   cfe1     movff	0xfe1, 0xfd9       	MOVFF	FSR1L, FSR2L
002dd0   ffd9
002dd2   0e08     movlw	0x8                	MOVLW	0x08
002dd4   5ee1     subwf	0xe1, 0x1, 0       	SUBWF	FSR1L, F
002dd6   a0d8     btfss	0xd8, 0, 0         	BTFSS	STATUS, 0
002dd8   06e2     decf	0xe2, 0x1, 0        	DECF	FSR1H, F
002dda   c000     movff	0, 0xfe5           	MOVFF	r0x00, POSTDEC1
002ddc   ffe5
002dde   c001     movff	0x1, 0xfe5         	MOVFF	r0x01, POSTDEC1
002de0   ffe5
002de2   c002     movff	0x2, 0xfe5         	MOVFF	r0x02, POSTDEC1
002de4   ffe5
002de6   c003     movff	0x3, 0xfe5         	MOVFF	r0x03, POSTDEC1
002de8   ffe5
002dea   c004     movff	0x4, 0xfe5         	MOVFF	r0x04, POSTDEC1
002dec   ffe5
002dee   c005     movff	0x5, 0xfe5         	MOVFF	r0x05, POSTDEC1
002df0   ffe5
                                           ;	.line	179; /home/mandon/programmation/pinguino developpement/pinguino_beta9-05_linux/tools/bin/../share/sdcc/include/pic16/uart18f2550.c	va_start(ap,fmt);
002df2   0e02     movlw	0x2                	MOVLW	0x02
002df4   24d9     addwf	0xd9, 0, 0         	ADDWF	FSR2L, W
002df6   6e00     movwf	0, 0               	MOVWF	r0x00
002df8   0e00     movlw	0                  	MOVLW	0x00
002dfa   20da     addwfc	0xda, 0, 0        	ADDWFC	FSR2H, W
002dfc   6e01     movwf	0x1, 0             	MOVWF	r0x01
002dfe   0e03     movlw	0x3                	MOVLW	0x03
002e00   2600     addwf	0, 0x1, 0          	ADDWF	r0x00, F
002e02   b0d8     btfsc	0xd8, 0, 0         	BTFSC	STATUS, 0
002e04   2a01     incf	0x1, 0x1, 0         	INCF	r0x01, F
                                           ; #	MOVF	r0x01, W
                                           ; #	MOVWF	r0x01
                                           ; #	MOVF	r0x01, W
                                           ; #	MOVF	r0x00, W
                                           ; #	MOVF	r0x00, W
                                           ; #	MOVWF	r0x00
                                           ;	.line	180; /home/mandon/programmation/pinguino developpement/pinguino_beta9-05_linux/tools/bin/../share/sdcc/include/pic16/uart18f2550.c	s=va_start(ap,fmt);
002e06   0e80     movlw	0x80               	MOVLW	0x80
                                           ;	.line	181; /home/mandon/programmation/pinguino developpement/pinguino_beta9-05_linux/tools/bin/../share/sdcc/include/pic16/uart18f2550.c	switch (*s)
002e08   c000     movff	0, 0xfe9           	MOVFF	r0x00, FSR0L
002e0a   ffe9
002e0c   c001     movff	0x1, 0xff3         	MOVFF	r0x01, PRODL
002e0e   fff3
002e10   ec29     call	0x52, 0             	CALL	__gptrget1
002e12   f000
002e14   6e00     movwf	0, 0               	MOVWF	r0x00
002e16   0e01     movlw	0x1                	MOVLW	0x01
002e18   5c00     subwf	0, 0, 0            	SUBWF	r0x00, W
002e1a   a0d8     btfss	0xd8, 0, 0         	BTFSS	STATUS, 0
002e1c   d114     bra	0x3046               	BRA	_00424_DS_
002e1e   0e06     movlw	0x6                	MOVLW	0x06
002e20   5c00     subwf	0, 0, 0            	SUBWF	r0x00, W
002e22   b0d8     btfsc	0xd8, 0, 0         	BTFSC	STATUS, 0
002e24   d110     bra	0x3046               	BRA	_00424_DS_
002e26   0600     decf	0, 0x1, 0           	DECF	r0x00, F
002e28   c007     movff	0x7, 0xfe5         	MOVFF	r0x07, POSTDEC1
002e2a   ffe5
002e2c   c008     movff	0x8, 0xfe5         	MOVFF	r0x08, POSTDEC1
002e2e   ffe5
002e30   6a08     clrf	0x8, 0              	CLRF	r0x08
002e32   3400     rlcf	0, 0, 0             	RLCF	r0x00, W
002e34   3608     rlcf	0x8, 0x1, 0         	RLCF	r0x08, F
002e36   34e8     rlcf	0xe8, 0, 0          	RLCF	WREG, W
002e38   3608     rlcf	0x8, 0x1, 0         	RLCF	r0x08, F
002e3a   0bfc     andlw	0xfc               	ANDLW	0xfc
002e3c   6e07     movwf	0x7, 0             	MOVWF	r0x07
002e3e   0e00     movlw	0                  	MOVLW	UPPER(_00432_DS_)
002e40   6efb     movwf	0xfb, 0            	MOVWF	PCLATU
002e42   0e2e     movlw	0x2e               	MOVLW	HIGH(_00432_DS_)
002e44   6efa     movwf	0xfa, 0            	MOVWF	PCLATH
002e46   0e5e     movlw	0x5e               	MOVLW	LOW(_00432_DS_)
002e48   2607     addwf	0x7, 0x1, 0        	ADDWF	r0x07, F
002e4a   5008     movf	0x8, 0, 0           	MOVF	r0x08, W
002e4c   22fa     addwfc	0xfa, 0x1, 0      	ADDWFC	PCLATH, F
002e4e   b0d8     btfsc	0xd8, 0, 0         	BTFSC	STATUS, 0
002e50   2afb     incf	0xfb, 0x1, 0        	INCF	PCLATU, F
002e52   5007     movf	0x7, 0, 0           	MOVF	r0x07, W
002e54   cfe4     movff	0xfe4, 0x8         	MOVFF	PREINC1, r0x08
002e56   f008
002e58   cfe4     movff	0xfe4, 0x7         	MOVFF	PREINC1, r0x07
002e5a   f007
002e5c   6ef9     movwf	0xf9, 0            	MOVWF	PCL
                                           _00432_DS_:
002e5e   ef39     goto	0x2e72              	GOTO	_00419_DS_
002e60   f017
002e62   ef85     goto	0x2f0a              	GOTO	_00421_DS_
002e64   f017
002e66   ef5f     goto	0x2ebe              	GOTO	_00420_DS_
002e68   f017
002e6a   efa7     goto	0x2f4e              	GOTO	_00422_DS_
002e6c   f017
002e6e   efe5     goto	0x2fca              	GOTO	_00423_DS_
002e70   f017
                                           _00419_DS_:
                                           ;	.line	183; /home/mandon/programmation/pinguino developpement/pinguino_beta9-05_linux/tools/bin/../share/sdcc/include/pic16/uart18f2550.c	case DEC:       serial_printf("%d",(int)fmt);
002e72   c007     movff	0x7, 0xfe5         	MOVFF	r0x07, POSTDEC1
002e74   ffe5
002e76   c008     movff	0x8, 0xfe5         	MOVFF	r0x08, POSTDEC1
002e78   ffe5
002e7a   c009     movff	0x9, 0xfe5         	MOVFF	r0x09, POSTDEC1
002e7c   ffe5
002e7e   0e02     movlw	0x2                	MOVLW	0x02
002e80   cfdb     movff	0xfdb, 0x7         	MOVFF	PLUSW2, r0x07
002e82   f007
002e84   0e03     movlw	0x3                	MOVLW	0x03
002e86   cfdb     movff	0xfdb, 0x8         	MOVFF	PLUSW2, r0x08
002e88   f008
002e8a   0e04     movlw	0x4                	MOVLW	0x04
002e8c   cfdb     movff	0xfdb, 0x9         	MOVFF	PLUSW2, r0x09
002e8e   f009
002e90   5007     movf	0x7, 0, 0           	MOVF	r0x07, W
002e92   6e00     movwf	0, 0               	MOVWF	r0x00
002e94   5008     movf	0x8, 0, 0           	MOVF	r0x08, W
002e96   cfe4     movff	0xfe4, 0x9         	MOVFF	PREINC1, r0x09
002e98   f009
002e9a   cfe4     movff	0xfe4, 0x8         	MOVFF	PREINC1, r0x08
002e9c   f008
002e9e   cfe4     movff	0xfe4, 0x7         	MOVFF	PREINC1, r0x07
002ea0   f007
002ea2   6ee5     movwf	0xe5, 0            	MOVWF	POSTDEC1
002ea4   5000     movf	0, 0, 0             	MOVF	r0x00, W
002ea6   6ee5     movwf	0xe5, 0            	MOVWF	POSTDEC1
002ea8   0e00     movlw	0                  	MOVLW	UPPER(__str_2)
002eaa   6ee5     movwf	0xe5, 0            	MOVWF	POSTDEC1
002eac   0e36     movlw	0x36               	MOVLW	HIGH(__str_2)
002eae   6ee5     movwf	0xe5, 0            	MOVWF	POSTDEC1
002eb0   0e0e     movlw	0xe                	MOVLW	LOW(__str_2)
002eb2   6ee5     movwf	0xe5, 0            	MOVWF	POSTDEC1
002eb4   ecca     call	0x3b94, 0           	CALL	_serial_printf
002eb6   f01d
002eb8   0e05     movlw	0x5                	MOVLW	0x05
002eba   26e1     addwf	0xe1, 0x1, 0       	ADDWF	FSR1L, F
                                           ;	.line	184; /home/mandon/programmation/pinguino developpement/pinguino_beta9-05_linux/tools/bin/../share/sdcc/include/pic16/uart18f2550.c	break;
002ebc   d0f8     bra	0x30ae               	BRA	_00426_DS_
                                           _00420_DS_:
                                           ;	.line	185; /home/mandon/programmation/pinguino developpement/pinguino_beta9-05_linux/tools/bin/../share/sdcc/include/pic16/uart18f2550.c	case HEX: 		serial_printf("%x",(int)fmt);
002ebe   c007     movff	0x7, 0xfe5         	MOVFF	r0x07, POSTDEC1
002ec0   ffe5
002ec2   c008     movff	0x8, 0xfe5         	MOVFF	r0x08, POSTDEC1
002ec4   ffe5
002ec6   c009     movff	0x9, 0xfe5         	MOVFF	r0x09, POSTDEC1
002ec8   ffe5
002eca   0e02     movlw	0x2                	MOVLW	0x02
002ecc   cfdb     movff	0xfdb, 0x7         	MOVFF	PLUSW2, r0x07
002ece   f007
002ed0   0e03     movlw	0x3                	MOVLW	0x03
002ed2   cfdb     movff	0xfdb, 0x8         	MOVFF	PLUSW2, r0x08
002ed4   f008
002ed6   0e04     movlw	0x4                	MOVLW	0x04
002ed8   cfdb     movff	0xfdb, 0x9         	MOVFF	PLUSW2, r0x09
002eda   f009
002edc   5007     movf	0x7, 0, 0           	MOVF	r0x07, W
002ede   6e00     movwf	0, 0               	MOVWF	r0x00
002ee0   5008     movf	0x8, 0, 0           	MOVF	r0x08, W
002ee2   cfe4     movff	0xfe4, 0x9         	MOVFF	PREINC1, r0x09
002ee4   f009
002ee6   cfe4     movff	0xfe4, 0x8         	MOVFF	PREINC1, r0x08
002ee8   f008
002eea   cfe4     movff	0xfe4, 0x7         	MOVFF	PREINC1, r0x07
002eec   f007
002eee   6ee5     movwf	0xe5, 0            	MOVWF	POSTDEC1
002ef0   5000     movf	0, 0, 0             	MOVF	r0x00, W
002ef2   6ee5     movwf	0xe5, 0            	MOVWF	POSTDEC1
002ef4   0e00     movlw	0                  	MOVLW	UPPER(__str_3)
002ef6   6ee5     movwf	0xe5, 0            	MOVWF	POSTDEC1
002ef8   0e36     movlw	0x36               	MOVLW	HIGH(__str_3)
002efa   6ee5     movwf	0xe5, 0            	MOVWF	POSTDEC1
002efc   0e12     movlw	0x12               	MOVLW	LOW(__str_3)
002efe   6ee5     movwf	0xe5, 0            	MOVWF	POSTDEC1
002f00   ecca     call	0x3b94, 0           	CALL	_serial_printf
002f02   f01d
002f04   0e05     movlw	0x5                	MOVLW	0x05
002f06   26e1     addwf	0xe1, 0x1, 0       	ADDWF	FSR1L, F
                                           ;	.line	186; /home/mandon/programmation/pinguino developpement/pinguino_beta9-05_linux/tools/bin/../share/sdcc/include/pic16/uart18f2550.c	break;
002f08   d0d2     bra	0x30ae               	BRA	_00426_DS_
                                           _00421_DS_:
                                           ;	.line	187; /home/mandon/programmation/pinguino developpement/pinguino_beta9-05_linux/tools/bin/../share/sdcc/include/pic16/uart18f2550.c	case BYTE: 		serial_printf("%d",(unsigned char)fmt);
002f0a   c007     movff	0x7, 0xfe5         	MOVFF	r0x07, POSTDEC1
002f0c   ffe5
002f0e   c008     movff	0x8, 0xfe5         	MOVFF	r0x08, POSTDEC1
002f10   ffe5
002f12   c009     movff	0x9, 0xfe5         	MOVFF	r0x09, POSTDEC1
002f14   ffe5
002f16   0e02     movlw	0x2                	MOVLW	0x02
002f18   cfdb     movff	0xfdb, 0x7         	MOVFF	PLUSW2, r0x07
002f1a   f007
002f1c   0e03     movlw	0x3                	MOVLW	0x03
002f1e   cfdb     movff	0xfdb, 0x8         	MOVFF	PLUSW2, r0x08
002f20   f008
002f22   0e04     movlw	0x4                	MOVLW	0x04
002f24   cfdb     movff	0xfdb, 0x9         	MOVFF	PLUSW2, r0x09
002f26   f009
002f28   5007     movf	0x7, 0, 0           	MOVF	r0x07, W
002f2a   cfe4     movff	0xfe4, 0x9         	MOVFF	PREINC1, r0x09
002f2c   f009
002f2e   cfe4     movff	0xfe4, 0x8         	MOVFF	PREINC1, r0x08
002f30   f008
002f32   cfe4     movff	0xfe4, 0x7         	MOVFF	PREINC1, r0x07
002f34   f007
002f36   6ee5     movwf	0xe5, 0            	MOVWF	POSTDEC1
002f38   0e00     movlw	0                  	MOVLW	UPPER(__str_2)
002f3a   6ee5     movwf	0xe5, 0            	MOVWF	POSTDEC1
002f3c   0e36     movlw	0x36               	MOVLW	HIGH(__str_2)
002f3e   6ee5     movwf	0xe5, 0            	MOVWF	POSTDEC1
002f40   0e0e     movlw	0xe                	MOVLW	LOW(__str_2)
002f42   6ee5     movwf	0xe5, 0            	MOVWF	POSTDEC1
002f44   ecca     call	0x3b94, 0           	CALL	_serial_printf
002f46   f01d
002f48   0e04     movlw	0x4                	MOVLW	0x04
002f4a   26e1     addwf	0xe1, 0x1, 0       	ADDWF	FSR1L, F
                                           ;	.line	188; /home/mandon/programmation/pinguino developpement/pinguino_beta9-05_linux/tools/bin/../share/sdcc/include/pic16/uart18f2550.c	break;
002f4c   d0b0     bra	0x30ae               	BRA	_00426_DS_
                                           _00422_DS_:
                                           ;	.line	189; /home/mandon/programmation/pinguino developpement/pinguino_beta9-05_linux/tools/bin/../share/sdcc/include/pic16/uart18f2550.c	case OCTAL:     uitoa((int)fmt,chaine,8);
002f4e   c007     movff	0x7, 0xfe5         	MOVFF	r0x07, POSTDEC1
002f50   ffe5
002f52   c008     movff	0x8, 0xfe5         	MOVFF	r0x08, POSTDEC1
002f54   ffe5
002f56   c009     movff	0x9, 0xfe5         	MOVFF	r0x09, POSTDEC1
002f58   ffe5
002f5a   0e02     movlw	0x2                	MOVLW	0x02
002f5c   cfdb     movff	0xfdb, 0x7         	MOVFF	PLUSW2, r0x07
002f5e   f007
002f60   0e03     movlw	0x3                	MOVLW	0x03
002f62   cfdb     movff	0xfdb, 0x8         	MOVFF	PLUSW2, r0x08
002f64   f008
002f66   0e04     movlw	0x4                	MOVLW	0x04
002f68   cfdb     movff	0xfdb, 0x9         	MOVFF	PLUSW2, r0x09
002f6a   f009
002f6c   5007     movf	0x7, 0, 0           	MOVF	r0x07, W
002f6e   6e00     movwf	0, 0               	MOVWF	r0x00
002f70   5008     movf	0x8, 0, 0           	MOVF	r0x08, W
002f72   6e01     movwf	0x1, 0             	MOVWF	r0x01
002f74   cfe4     movff	0xfe4, 0x9         	MOVFF	PREINC1, r0x09
002f76   f009
002f78   cfe4     movff	0xfe4, 0x8         	MOVFF	PREINC1, r0x08
002f7a   f008
002f7c   cfe4     movff	0xfe4, 0x7         	MOVFF	PREINC1, r0x07
002f7e   f007
002f80   0ef9     movlw	0xf9               	MOVLW	0xf9
002f82   24d9     addwf	0xd9, 0, 0         	ADDWF	FSR2L, W
002f84   6e02     movwf	0x2, 0             	MOVWF	r0x02
002f86   0eff     movlw	0xff               	MOVLW	0xff
002f88   20da     addwfc	0xda, 0, 0        	ADDWFC	FSR2H, W
                                           ; #	MOVWF	r0x03
                                           ; #	MOVF	r0x03, W
002f8a   6e03     movwf	0x3, 0             	MOVWF	r0x03
002f8c   6e05     movwf	0x5, 0             	MOVWF	r0x05
002f8e   5002     movf	0x2, 0, 0           	MOVF	r0x02, W
002f90   6e04     movwf	0x4, 0             	MOVWF	r0x04
002f92   6ae5     clrf	0xe5, 0             	CLRF	POSTDEC1
002f94   0e08     movlw	0x8                	MOVLW	0x08
002f96   6ee5     movwf	0xe5, 0            	MOVWF	POSTDEC1
002f98   0e80     movlw	0x80               	MOVLW	0x80
002f9a   6ee5     movwf	0xe5, 0            	MOVWF	POSTDEC1
002f9c   5005     movf	0x5, 0, 0           	MOVF	r0x05, W
002f9e   6ee5     movwf	0xe5, 0            	MOVWF	POSTDEC1
002fa0   5004     movf	0x4, 0, 0           	MOVF	r0x04, W
002fa2   6ee5     movwf	0xe5, 0            	MOVWF	POSTDEC1
002fa4   5001     movf	0x1, 0, 0           	MOVF	r0x01, W
002fa6   6ee5     movwf	0xe5, 0            	MOVWF	POSTDEC1
002fa8   5000     movf	0, 0, 0             	MOVF	r0x00, W
002faa   6ee5     movwf	0xe5, 0            	MOVWF	POSTDEC1
002fac   ec8d     call	0x331a, 0           	CALL	_uitoa
002fae   f019
002fb0   0e07     movlw	0x7                	MOVLW	0x07
002fb2   26e1     addwf	0xe1, 0x1, 0       	ADDWF	FSR1L, F
                                           ; #	MOVF	r0x03, W
                                           ; #	MOVWF	r0x03
                                           ; #	MOVF	r0x03, W
                                           ; #	MOVF	r0x02, W
                                           ; #	MOVF	r0x02, W
                                           ; #	MOVWF	r0x02
                                           ;	.line	190; /home/mandon/programmation/pinguino developpement/pinguino_beta9-05_linux/tools/bin/../share/sdcc/include/pic16/uart18f2550.c	serial_printf(chaine);
002fb4   0e80     movlw	0x80               	MOVLW	0x80
                                           ; #	MOVWF	r0x00
                                           ; #	MOVF	r0x00, W
002fb6   6ee5     movwf	0xe5, 0            	MOVWF	POSTDEC1
002fb8   5003     movf	0x3, 0, 0           	MOVF	r0x03, W
002fba   6ee5     movwf	0xe5, 0            	MOVWF	POSTDEC1
002fbc   5002     movf	0x2, 0, 0           	MOVF	r0x02, W
002fbe   6ee5     movwf	0xe5, 0            	MOVWF	POSTDEC1
002fc0   ecca     call	0x3b94, 0           	CALL	_serial_printf
002fc2   f01d
002fc4   0e03     movlw	0x3                	MOVLW	0x03
002fc6   26e1     addwf	0xe1, 0x1, 0       	ADDWF	FSR1L, F
                                           ;	.line	191; /home/mandon/programmation/pinguino developpement/pinguino_beta9-05_linux/tools/bin/../share/sdcc/include/pic16/uart18f2550.c	break;
002fc8   d072     bra	0x30ae               	BRA	_00426_DS_
                                           _00423_DS_:
                                           ;	.line	192; /home/mandon/programmation/pinguino developpement/pinguino_beta9-05_linux/tools/bin/../share/sdcc/include/pic16/uart18f2550.c	case BIN:       uitoa((int)fmt,chaine,2);
002fca   c007     movff	0x7, 0xfe5         	MOVFF	r0x07, POSTDEC1
002fcc   ffe5
002fce   c008     movff	0x8, 0xfe5         	MOVFF	r0x08, POSTDEC1
002fd0   ffe5
002fd2   c009     movff	0x9, 0xfe5         	MOVFF	r0x09, POSTDEC1
002fd4   ffe5
002fd6   0e02     movlw	0x2                	MOVLW	0x02
002fd8   cfdb     movff	0xfdb, 0x7         	MOVFF	PLUSW2, r0x07
002fda   f007
002fdc   0e03     movlw	0x3                	MOVLW	0x03
002fde   cfdb     movff	0xfdb, 0x8         	MOVFF	PLUSW2, r0x08
002fe0   f008
002fe2   0e04     movlw	0x4                	MOVLW	0x04
002fe4   cfdb     movff	0xfdb, 0x9         	MOVFF	PLUSW2, r0x09
002fe6   f009
002fe8   5007     movf	0x7, 0, 0           	MOVF	r0x07, W
002fea   6e00     movwf	0, 0               	MOVWF	r0x00
002fec   5008     movf	0x8, 0, 0           	MOVF	r0x08, W
002fee   6e01     movwf	0x1, 0             	MOVWF	r0x01
002ff0   cfe4     movff	0xfe4, 0x9         	MOVFF	PREINC1, r0x09
002ff2   f009
002ff4   cfe4     movff	0xfe4, 0x8         	MOVFF	PREINC1, r0x08
002ff6   f008
002ff8   cfe4     movff	0xfe4, 0x7         	MOVFF	PREINC1, r0x07
002ffa   f007
002ffc   0ef9     movlw	0xf9               	MOVLW	0xf9
002ffe   24d9     addwf	0xd9, 0, 0         	ADDWF	FSR2L, W
003000   6e02     movwf	0x2, 0             	MOVWF	r0x02
003002   0eff     movlw	0xff               	MOVLW	0xff
003004   20da     addwfc	0xda, 0, 0        	ADDWFC	FSR2H, W
                                           ; #	MOVWF	r0x03
                                           ; #	MOVF	r0x03, W
003006   6e03     movwf	0x3, 0             	MOVWF	r0x03
003008   6e05     movwf	0x5, 0             	MOVWF	r0x05
00300a   5002     movf	0x2, 0, 0           	MOVF	r0x02, W
00300c   6e04     movwf	0x4, 0             	MOVWF	r0x04
00300e   6ae5     clrf	0xe5, 0             	CLRF	POSTDEC1
003010   0e02     movlw	0x2                	MOVLW	0x02
003012   6ee5     movwf	0xe5, 0            	MOVWF	POSTDEC1
003014   0e80     movlw	0x80               	MOVLW	0x80
003016   6ee5     movwf	0xe5, 0            	MOVWF	POSTDEC1
003018   5005     movf	0x5, 0, 0           	MOVF	r0x05, W
00301a   6ee5     movwf	0xe5, 0            	MOVWF	POSTDEC1
00301c   5004     movf	0x4, 0, 0           	MOVF	r0x04, W
00301e   6ee5     movwf	0xe5, 0            	MOVWF	POSTDEC1
003020   5001     movf	0x1, 0, 0           	MOVF	r0x01, W
003022   6ee5     movwf	0xe5, 0            	MOVWF	POSTDEC1
003024   5000     movf	0, 0, 0             	MOVF	r0x00, W
003026   6ee5     movwf	0xe5, 0            	MOVWF	POSTDEC1
003028   ec8d     call	0x331a, 0           	CALL	_uitoa
00302a   f019
00302c   0e07     movlw	0x7                	MOVLW	0x07
00302e   26e1     addwf	0xe1, 0x1, 0       	ADDWF	FSR1L, F
                                           ; #	MOVF	r0x03, W
                                           ; #	MOVWF	r0x03
                                           ; #	MOVF	r0x03, W
                                           ; #	MOVF	r0x02, W
                                           ; #	MOVF	r0x02, W
                                           ; #	MOVWF	r0x02
                                           ;	.line	193; /home/mandon/programmation/pinguino developpement/pinguino_beta9-05_linux/tools/bin/../share/sdcc/include/pic16/uart18f2550.c	serial_printf(chaine);
003030   0e80     movlw	0x80               	MOVLW	0x80
                                           ; #	MOVWF	r0x00
                                           ; #	MOVF	r0x00, W
003032   6ee5     movwf	0xe5, 0            	MOVWF	POSTDEC1
003034   5003     movf	0x3, 0, 0           	MOVF	r0x03, W
003036   6ee5     movwf	0xe5, 0            	MOVWF	POSTDEC1
003038   5002     movf	0x2, 0, 0           	MOVF	r0x02, W
00303a   6ee5     movwf	0xe5, 0            	MOVWF	POSTDEC1
00303c   ecca     call	0x3b94, 0           	CALL	_serial_printf
00303e   f01d
003040   0e03     movlw	0x3                	MOVLW	0x03
003042   26e1     addwf	0xe1, 0x1, 0       	ADDWF	FSR1L, F
                                           ;	.line	194; /home/mandon/programmation/pinguino developpement/pinguino_beta9-05_linux/tools/bin/../share/sdcc/include/pic16/uart18f2550.c	break;           
003044   d034     bra	0x30ae               	BRA	_00426_DS_
                                           _00424_DS_:
                                           ;	.line	195; /home/mandon/programmation/pinguino developpement/pinguino_beta9-05_linux/tools/bin/../share/sdcc/include/pic16/uart18f2550.c	default:	serial_printf(fmt);
003046   c007     movff	0x7, 0xfe5         	MOVFF	r0x07, POSTDEC1
003048   ffe5
00304a   c008     movff	0x8, 0xfe5         	MOVFF	r0x08, POSTDEC1
00304c   ffe5
00304e   c009     movff	0x9, 0xfe5         	MOVFF	r0x09, POSTDEC1
003050   ffe5
003052   0e02     movlw	0x2                	MOVLW	0x02
003054   cfdb     movff	0xfdb, 0x7         	MOVFF	PLUSW2, r0x07
003056   f007
003058   0e03     movlw	0x3                	MOVLW	0x03
00305a   cfdb     movff	0xfdb, 0x8         	MOVFF	PLUSW2, r0x08
00305c   f008
00305e   0e04     movlw	0x4                	MOVLW	0x04
003060   cfdb     movff	0xfdb, 0x9         	MOVFF	PLUSW2, r0x09
003062   f009
003064   cfe4     movff	0xfe4, 0x9         	MOVFF	PREINC1, r0x09
003066   f009
003068   cfe4     movff	0xfe4, 0x8         	MOVFF	PREINC1, r0x08
00306a   f008
00306c   cfe4     movff	0xfe4, 0x7         	MOVFF	PREINC1, r0x07
00306e   f007
003070   c007     movff	0x7, 0xfe5         	MOVFF	r0x07, POSTDEC1
003072   ffe5
003074   c008     movff	0x8, 0xfe5         	MOVFF	r0x08, POSTDEC1
003076   ffe5
003078   c009     movff	0x9, 0xfe5         	MOVFF	r0x09, POSTDEC1
00307a   ffe5
00307c   0e02     movlw	0x2                	MOVLW	0x02
00307e   cfdb     movff	0xfdb, 0x7         	MOVFF	PLUSW2, r0x07
003080   f007
003082   0e03     movlw	0x3                	MOVLW	0x03
003084   cfdb     movff	0xfdb, 0x8         	MOVFF	PLUSW2, r0x08
003086   f008
003088   0e04     movlw	0x4                	MOVLW	0x04
00308a   cfdb     movff	0xfdb, 0x9         	MOVFF	PLUSW2, r0x09
00308c   f009
00308e   5009     movf	0x9, 0, 0           	MOVF	r0x09, W
003090   6ee5     movwf	0xe5, 0            	MOVWF	POSTDEC1
003092   5008     movf	0x8, 0, 0           	MOVF	r0x08, W
003094   6ee5     movwf	0xe5, 0            	MOVWF	POSTDEC1
003096   5007     movf	0x7, 0, 0           	MOVF	r0x07, W
003098   6ee5     movwf	0xe5, 0            	MOVWF	POSTDEC1
00309a   cfe4     movff	0xfe4, 0x9         	MOVFF	PREINC1, r0x09
00309c   f009
00309e   cfe4     movff	0xfe4, 0x8         	MOVFF	PREINC1, r0x08
0030a0   f008
0030a2   cfe4     movff	0xfe4, 0x7         	MOVFF	PREINC1, r0x07
0030a4   f007
0030a6   ecca     call	0x3b94, 0           	CALL	_serial_printf
0030a8   f01d
0030aa   0e03     movlw	0x3                	MOVLW	0x03
0030ac   26e1     addwf	0xe1, 0x1, 0       	ADDWF	FSR1L, F
                                           _00426_DS_:
                                           ;	.line	198; /home/mandon/programmation/pinguino developpement/pinguino_beta9-05_linux/tools/bin/../share/sdcc/include/pic16/uart18f2550.c	va_end(ap);
0030ae   cfe4     movff	0xfe4, 0x5         	MOVFF	PREINC1, r0x05
0030b0   f005
0030b2   cfe4     movff	0xfe4, 0x4         	MOVFF	PREINC1, r0x04
0030b4   f004
0030b6   cfe4     movff	0xfe4, 0x3         	MOVFF	PREINC1, r0x03
0030b8   f003
0030ba   cfe4     movff	0xfe4, 0x2         	MOVFF	PREINC1, r0x02
0030bc   f002
0030be   cfe4     movff	0xfe4, 0x1         	MOVFF	PREINC1, r0x01
0030c0   f001
0030c2   cfe4     movff	0xfe4, 0           	MOVFF	PREINC1, r0x00
0030c4   f000
0030c6   6ee6     movwf	0xe6, 0            	MOVWF	POSTINC1
0030c8   0e07     movlw	0x7                	MOVLW	0x07
0030ca   26e1     addwf	0xe1, 0x1, 0       	ADDWF	FSR1L, F
0030cc   b0d8     btfsc	0xd8, 0, 0         	BTFSC	STATUS, 0
0030ce   2ae2     incf	0xe2, 0x1, 0        	INCF	FSR1H, F
0030d0   1ee8     comf	0xe8, 0x1, 0        	COMF	WREG, F
0030d2   50e3     movf	0xe3, 0, 0          	MOVF	PLUSW1, W
0030d4   cfe4     movff	0xfe4, 0xfd9       	MOVFF	PREINC1, FSR2L
0030d6   ffd9
0030d8   0012     return	0                 	RETURN	
                                           
                                           ; ; Starting pCode block
                                           S_main__uitoa	code
                                           _uitoa:
                                           ;	.line	149; /home/mandon/programmation/pinguino developpement/pinguino_beta9-05_linux/tools/bin/../share/sdcc/include/pic16/uart18f2550.c	static void uitoa(unsigned int num, char * bf, unsigned int base)
00331a   cfd9     movff	0xfd9, 0xfe5       	MOVFF	FSR2L, POSTDEC1
00331c   ffe5
00331e   cfe1     movff	0xfe1, 0xfd9       	MOVFF	FSR1L, FSR2L
003320   ffd9
003322   c000     movff	0, 0xfe5           	MOVFF	r0x00, POSTDEC1
003324   ffe5
003326   c001     movff	0x1, 0xfe5         	MOVFF	r0x01, POSTDEC1
003328   ffe5
00332a   c002     movff	0x2, 0xfe5         	MOVFF	r0x02, POSTDEC1
00332c   ffe5
00332e   c003     movff	0x3, 0xfe5         	MOVFF	r0x03, POSTDEC1
003330   ffe5
003332   c004     movff	0x4, 0xfe5         	MOVFF	r0x04, POSTDEC1
003334   ffe5
003336   c005     movff	0x5, 0xfe5         	MOVFF	r0x05, POSTDEC1
003338   ffe5
00333a   c006     movff	0x6, 0xfe5         	MOVFF	r0x06, POSTDEC1
00333c   ffe5
00333e   c007     movff	0x7, 0xfe5         	MOVFF	r0x07, POSTDEC1
003340   ffe5
003342   c008     movff	0x8, 0xfe5         	MOVFF	r0x08, POSTDEC1
003344   ffe5
003346   c009     movff	0x9, 0xfe5         	MOVFF	r0x09, POSTDEC1
003348   ffe5
00334a   c00a     movff	0xa, 0xfe5         	MOVFF	r0x0a, POSTDEC1
00334c   ffe5
00334e   c00b     movff	0xb, 0xfe5         	MOVFF	r0x0b, POSTDEC1
003350   ffe5
003352   c00c     movff	0xc, 0xfe5         	MOVFF	r0x0c, POSTDEC1
003354   ffe5
003356   c00d     movff	0xd, 0xfe5         	MOVFF	r0x0d, POSTDEC1
003358   ffe5
00335a   c00e     movff	0xe, 0xfe5         	MOVFF	r0x0e, POSTDEC1
00335c   ffe5
00335e   c00f     movff	0xf, 0xfe5         	MOVFF	r0x0f, POSTDEC1
003360   ffe5
003362   c010     movff	0x10, 0xfe5        	MOVFF	r0x10, POSTDEC1
003364   ffe5
003366   0e02     movlw	0x2                	MOVLW	0x02
003368   cfdb     movff	0xfdb, 0           	MOVFF	PLUSW2, r0x00
00336a   f000
00336c   0e03     movlw	0x3                	MOVLW	0x03
00336e   cfdb     movff	0xfdb, 0x1         	MOVFF	PLUSW2, r0x01
003370   f001
003372   0e04     movlw	0x4                	MOVLW	0x04
003374   cfdb     movff	0xfdb, 0x2         	MOVFF	PLUSW2, r0x02
003376   f002
003378   0e05     movlw	0x5                	MOVLW	0x05
00337a   cfdb     movff	0xfdb, 0x3         	MOVFF	PLUSW2, r0x03
00337c   f003
00337e   0e06     movlw	0x6                	MOVLW	0x06
003380   cfdb     movff	0xfdb, 0x4         	MOVFF	PLUSW2, r0x04
003382   f004
003384   0e07     movlw	0x7                	MOVLW	0x07
003386   cfdb     movff	0xfdb, 0x5         	MOVFF	PLUSW2, r0x05
003388   f005
00338a   0e08     movlw	0x8                	MOVLW	0x08
00338c   cfdb     movff	0xfdb, 0x6         	MOVFF	PLUSW2, r0x06
00338e   f006
                                           ;	.line	152; /home/mandon/programmation/pinguino developpement/pinguino_beta9-05_linux/tools/bin/../share/sdcc/include/pic16/uart18f2550.c	unsigned int d=1;
003390   0e01     movlw	0x1                	MOVLW	0x01
003392   6e07     movwf	0x7, 0             	MOVWF	r0x07
003394   6a08     clrf	0x8, 0              	CLRF	r0x08
                                           _00390_DS_:
                                           ;	.line	154; /home/mandon/programmation/pinguino developpement/pinguino_beta9-05_linux/tools/bin/../share/sdcc/include/pic16/uart18f2550.c	while (num/d >= base)
003396   5008     movf	0x8, 0, 0           	MOVF	r0x08, W
003398   6ee5     movwf	0xe5, 0            	MOVWF	POSTDEC1
00339a   5007     movf	0x7, 0, 0           	MOVF	r0x07, W
00339c   6ee5     movwf	0xe5, 0            	MOVWF	POSTDEC1
00339e   5001     movf	0x1, 0, 0           	MOVF	r0x01, W
0033a0   6ee5     movwf	0xe5, 0            	MOVWF	POSTDEC1
0033a2   5000     movf	0, 0, 0             	MOVF	r0x00, W
0033a4   6ee5     movwf	0xe5, 0            	MOVWF	POSTDEC1
0033a6   ec6b     call	0x38d6, 0           	CALL	__divuint
0033a8   f01c
0033aa   6e09     movwf	0x9, 0             	MOVWF	r0x09
0033ac   cff3     movff	0xff3, 0xa         	MOVFF	PRODL, r0x0a
0033ae   f00a
0033b0   0e04     movlw	0x4                	MOVLW	0x04
0033b2   26e1     addwf	0xe1, 0x1, 0       	ADDWF	FSR1L, F
0033b4   5006     movf	0x6, 0, 0           	MOVF	r0x06, W
0033b6   5c0a     subwf	0xa, 0, 0          	SUBWF	r0x0a, W
0033b8   e102     bnz	0x33be               	BNZ	_00412_DS_
0033ba   5005     movf	0x5, 0, 0           	MOVF	r0x05, W
0033bc   5c09     subwf	0x9, 0, 0          	SUBWF	r0x09, W
                                           _00412_DS_:
0033be   e310     bnc	0x33e0               	BNC	_00409_DS_
                                           ;	.line	155; /home/mandon/programmation/pinguino developpement/pinguino_beta9-05_linux/tools/bin/../share/sdcc/include/pic16/uart18f2550.c	d*=base;		
0033c0   5006     movf	0x6, 0, 0           	MOVF	r0x06, W
0033c2   6ee5     movwf	0xe5, 0            	MOVWF	POSTDEC1
0033c4   5005     movf	0x5, 0, 0           	MOVF	r0x05, W
0033c6   6ee5     movwf	0xe5, 0            	MOVWF	POSTDEC1
0033c8   5008     movf	0x8, 0, 0           	MOVF	r0x08, W
0033ca   6ee5     movwf	0xe5, 0            	MOVWF	POSTDEC1
0033cc   5007     movf	0x7, 0, 0           	MOVF	r0x07, W
0033ce   6ee5     movwf	0xe5, 0            	MOVWF	POSTDEC1
0033d0   ec27     call	0x4e, 0             	CALL	__mulint
0033d2   f000
0033d4   6e07     movwf	0x7, 0             	MOVWF	r0x07
0033d6   cff3     movff	0xff3, 0x8         	MOVFF	PRODL, r0x08
0033d8   f008
0033da   0e04     movlw	0x4                	MOVLW	0x04
0033dc   26e1     addwf	0xe1, 0x1, 0       	ADDWF	FSR1L, F
0033de   d7db     bra	0x3396               	BRA	_00390_DS_
                                           _00409_DS_:
                                           ;	.line	157; /home/mandon/programmation/pinguino developpement/pinguino_beta9-05_linux/tools/bin/../share/sdcc/include/pic16/uart18f2550.c	while (d!=0)
0033e0   6a09     clrf	0x9, 0              	CLRF	r0x09
0033e2   6a0a     clrf	0xa, 0              	CLRF	r0x0a
                                           _00397_DS_:
0033e4   5007     movf	0x7, 0, 0           	MOVF	r0x07, W
0033e6   1008     iorwf	0x8, 0, 0          	IORWF	r0x08, W
0033e8   b4d8     btfsc	0xd8, 0x2, 0       	BTFSC	STATUS, 2
0033ea   d063     bra	0x34b2               	BRA	_00399_DS_
                                           ;	.line	159; /home/mandon/programmation/pinguino developpement/pinguino_beta9-05_linux/tools/bin/../share/sdcc/include/pic16/uart18f2550.c	int dgt = num / d;
0033ec   5008     movf	0x8, 0, 0           	MOVF	r0x08, W
0033ee   6ee5     movwf	0xe5, 0            	MOVWF	POSTDEC1
0033f0   5007     movf	0x7, 0, 0           	MOVF	r0x07, W
0033f2   6ee5     movwf	0xe5, 0            	MOVWF	POSTDEC1
0033f4   5001     movf	0x1, 0, 0           	MOVF	r0x01, W
0033f6   6ee5     movwf	0xe5, 0            	MOVWF	POSTDEC1
0033f8   5000     movf	0, 0, 0             	MOVF	r0x00, W
0033fa   6ee5     movwf	0xe5, 0            	MOVWF	POSTDEC1
0033fc   ec6b     call	0x38d6, 0           	CALL	__divuint
0033fe   f01c
003400   6e0b     movwf	0xb, 0             	MOVWF	r0x0b
003402   cff3     movff	0xff3, 0xc         	MOVFF	PRODL, r0x0c
003404   f00c
003406   0e04     movlw	0x4                	MOVLW	0x04
003408   26e1     addwf	0xe1, 0x1, 0       	ADDWF	FSR1L, F
                                           ;	.line	160; /home/mandon/programmation/pinguino developpement/pinguino_beta9-05_linux/tools/bin/../share/sdcc/include/pic16/uart18f2550.c	num%= d;
00340a   5008     movf	0x8, 0, 0           	MOVF	r0x08, W
00340c   6ee5     movwf	0xe5, 0            	MOVWF	POSTDEC1
00340e   5007     movf	0x7, 0, 0           	MOVF	r0x07, W
003410   6ee5     movwf	0xe5, 0            	MOVWF	POSTDEC1
003412   5001     movf	0x1, 0, 0           	MOVF	r0x01, W
003414   6ee5     movwf	0xe5, 0            	MOVWF	POSTDEC1
003416   5000     movf	0, 0, 0             	MOVF	r0x00, W
003418   6ee5     movwf	0xe5, 0            	MOVWF	POSTDEC1
00341a   ec0f     call	0x381e, 0           	CALL	__moduint
00341c   f01c
00341e   6e00     movwf	0, 0               	MOVWF	r0x00
003420   cff3     movff	0xff3, 0x1         	MOVFF	PRODL, r0x01
003422   f001
003424   0e04     movlw	0x4                	MOVLW	0x04
003426   26e1     addwf	0xe1, 0x1, 0       	ADDWF	FSR1L, F
                                           ;	.line	161; /home/mandon/programmation/pinguino developpement/pinguino_beta9-05_linux/tools/bin/../share/sdcc/include/pic16/uart18f2550.c	d/=base;
003428   5006     movf	0x6, 0, 0           	MOVF	r0x06, W
00342a   6ee5     movwf	0xe5, 0            	MOVWF	POSTDEC1
00342c   5005     movf	0x5, 0, 0           	MOVF	r0x05, W
00342e   6ee5     movwf	0xe5, 0            	MOVWF	POSTDEC1
003430   5008     movf	0x8, 0, 0           	MOVF	r0x08, W
003432   6ee5     movwf	0xe5, 0            	MOVWF	POSTDEC1
003434   5007     movf	0x7, 0, 0           	MOVF	r0x07, W
003436   6ee5     movwf	0xe5, 0            	MOVWF	POSTDEC1
003438   ec6b     call	0x38d6, 0           	CALL	__divuint
00343a   f01c
00343c   6e07     movwf	0x7, 0             	MOVWF	r0x07
00343e   cff3     movff	0xff3, 0x8         	MOVFF	PRODL, r0x08
003440   f008
003442   0e04     movlw	0x4                	MOVLW	0x04
003444   26e1     addwf	0xe1, 0x1, 0       	ADDWF	FSR1L, F
                                           ;	.line	162; /home/mandon/programmation/pinguino developpement/pinguino_beta9-05_linux/tools/bin/../share/sdcc/include/pic16/uart18f2550.c	if (n || dgt>0 || d==0)
003446   5009     movf	0x9, 0, 0           	MOVF	r0x09, W
003448   100a     iorwf	0xa, 0, 0          	IORWF	r0x0a, W
00344a   e10b     bnz	0x3462               	BNZ	_00393_DS_
00344c   500c     movf	0xc, 0, 0           	MOVF	r0x0c, W
00344e   0f80     addlw	0x80               	ADDLW	0x80
003450   0f80     addlw	0x80               	ADDLW	0x80
003452   e102     bnz	0x3458               	BNZ	_00413_DS_
003454   0e01     movlw	0x1                	MOVLW	0x01
003456   5c0b     subwf	0xb, 0, 0          	SUBWF	r0x0b, W
                                           _00413_DS_:
003458   e204     bc	0x3462                	BC	_00393_DS_
00345a   5007     movf	0x7, 0, 0           	MOVF	r0x07, W
00345c   1008     iorwf	0x8, 0, 0          	IORWF	r0x08, W
00345e   a4d8     btfss	0xd8, 0x2, 0       	BTFSS	STATUS, 2
003460   d7c1     bra	0x33e4               	BRA	_00397_DS_
                                           _00393_DS_:
                                           ;	.line	164; /home/mandon/programmation/pinguino developpement/pinguino_beta9-05_linux/tools/bin/../share/sdcc/include/pic16/uart18f2550.c	*bf++ = dgt+(dgt<10 ? '0' : 'A'-10);
003462   c002     movff	0x2, 0xd           	MOVFF	r0x02, r0x0d
003464   f00d
003466   c003     movff	0x3, 0xe           	MOVFF	r0x03, r0x0e
003468   f00e
00346a   c004     movff	0x4, 0xf           	MOVFF	r0x04, r0x0f
00346c   f00f
00346e   2a02     incf	0x2, 0x1, 0         	INCF	r0x02, F
003470   b0d8     btfsc	0xd8, 0, 0         	BTFSC	STATUS, 0
003472   2a03     incf	0x3, 0x1, 0         	INCF	r0x03, F
003474   b0d8     btfsc	0xd8, 0, 0         	BTFSC	STATUS, 0
003476   2a04     incf	0x4, 0x1, 0         	INCF	r0x04, F
003478   500b     movf	0xb, 0, 0           	MOVF	r0x0b, W
00347a   6e10     movwf	0x10, 0            	MOVWF	r0x10
00347c   500c     movf	0xc, 0, 0           	MOVF	r0x0c, W
00347e   0f80     addlw	0x80               	ADDLW	0x80
003480   0f80     addlw	0x80               	ADDLW	0x80
003482   e102     bnz	0x3488               	BNZ	_00414_DS_
003484   0e0a     movlw	0xa                	MOVLW	0x0a
003486   5c0b     subwf	0xb, 0, 0          	SUBWF	r0x0b, W
                                           _00414_DS_:
003488   e203     bc	0x3490                	BC	_00402_DS_
00348a   0e30     movlw	0x30               	MOVLW	0x30
00348c   6e0b     movwf	0xb, 0             	MOVWF	r0x0b
00348e   d002     bra	0x3494               	BRA	_00403_DS_
                                           _00402_DS_:
003490   0e37     movlw	0x37               	MOVLW	0x37
003492   6e0b     movwf	0xb, 0             	MOVWF	r0x0b
                                           _00403_DS_:
003494   500b     movf	0xb, 0, 0           	MOVF	r0x0b, W
003496   2610     addwf	0x10, 0x1, 0       	ADDWF	r0x10, F
003498   c010     movff	0x10, 0xfe5        	MOVFF	r0x10, POSTDEC1
00349a   ffe5
00349c   c00d     movff	0xd, 0xfe9         	MOVFF	r0x0d, FSR0L
00349e   ffe9
0034a0   c00e     movff	0xe, 0xff3         	MOVFF	r0x0e, PRODL
0034a2   fff3
0034a4   500f     movf	0xf, 0, 0           	MOVF	r0x0f, W
0034a6   ec31     call	0x62, 0             	CALL	__gptrput1
0034a8   f000
                                           ;	.line	165; /home/mandon/programmation/pinguino developpement/pinguino_beta9-05_linux/tools/bin/../share/sdcc/include/pic16/uart18f2550.c	++n;
0034aa   2a09     incf	0x9, 0x1, 0         	INCF	r0x09, F
0034ac   b0d8     btfsc	0xd8, 0, 0         	BTFSC	STATUS, 0
0034ae   2a0a     incf	0xa, 0x1, 0         	INCF	r0x0a, F
0034b0   d799     bra	0x33e4               	BRA	_00397_DS_
                                           _00399_DS_:
                                           ;	.line	168; /home/mandon/programmation/pinguino developpement/pinguino_beta9-05_linux/tools/bin/../share/sdcc/include/pic16/uart18f2550.c	*bf=0;
0034b2   6ae5     clrf	0xe5, 0             	CLRF	POSTDEC1
0034b4   c002     movff	0x2, 0xfe9         	MOVFF	r0x02, FSR0L
0034b6   ffe9
0034b8   c003     movff	0x3, 0xff3         	MOVFF	r0x03, PRODL
0034ba   fff3
0034bc   5004     movf	0x4, 0, 0           	MOVF	r0x04, W
0034be   ec31     call	0x62, 0             	CALL	__gptrput1
0034c0   f000
0034c2   cfe4     movff	0xfe4, 0x10        	MOVFF	PREINC1, r0x10
0034c4   f010
0034c6   cfe4     movff	0xfe4, 0xf         	MOVFF	PREINC1, r0x0f
0034c8   f00f
0034ca   cfe4     movff	0xfe4, 0xe         	MOVFF	PREINC1, r0x0e
0034cc   f00e
0034ce   cfe4     movff	0xfe4, 0xd         	MOVFF	PREINC1, r0x0d
0034d0   f00d
0034d2   cfe4     movff	0xfe4, 0xc         	MOVFF	PREINC1, r0x0c
0034d4   f00c
0034d6   cfe4     movff	0xfe4, 0xb         	MOVFF	PREINC1, r0x0b
0034d8   f00b
0034da   cfe4     movff	0xfe4, 0xa         	MOVFF	PREINC1, r0x0a
0034dc   f00a
0034de   cfe4     movff	0xfe4, 0x9         	MOVFF	PREINC1, r0x09
0034e0   f009
0034e2   cfe4     movff	0xfe4, 0x8         	MOVFF	PREINC1, r0x08
0034e4   f008
0034e6   cfe4     movff	0xfe4, 0x7         	MOVFF	PREINC1, r0x07
0034e8   f007
0034ea   cfe4     movff	0xfe4, 0x6         	MOVFF	PREINC1, r0x06
0034ec   f006
0034ee   cfe4     movff	0xfe4, 0x5         	MOVFF	PREINC1, r0x05
0034f0   f005
0034f2   cfe4     movff	0xfe4, 0x4         	MOVFF	PREINC1, r0x04
0034f4   f004
0034f6   cfe4     movff	0xfe4, 0x3         	MOVFF	PREINC1, r0x03
0034f8   f003
0034fa   cfe4     movff	0xfe4, 0x2         	MOVFF	PREINC1, r0x02
0034fc   f002
0034fe   cfe4     movff	0xfe4, 0x1         	MOVFF	PREINC1, r0x01
003500   f001
003502   cfe4     movff	0xfe4, 0           	MOVFF	PREINC1, r0x00
003504   f000
003506   cfe4     movff	0xfe4, 0xfd9       	MOVFF	PREINC1, FSR2L
003508   ffd9
00350a   0012     return	0                 	RETURN	
                                           
                                           ; ; Starting pCode block
                                           S_main__serial_printf	code
                                           _serial_printf:
                                           ;	.line	136; /home/mandon/programmation/pinguino developpement/pinguino_beta9-05_linux/tools/bin/../share/sdcc/include/pic16/uart18f2550.c	void serial_printf(char *fmt, ...)
003b94   cfd9     movff	0xfd9, 0xfe5       	MOVFF	FSR2L, POSTDEC1
003b96   ffe5
003b98   cfe1     movff	0xfe1, 0xfd9       	MOVFF	FSR1L, FSR2L
003b9a   ffd9
003b9c   c000     movff	0, 0xfe5           	MOVFF	r0x00, POSTDEC1
003b9e   ffe5
003ba0   c001     movff	0x1, 0xfe5         	MOVFF	r0x01, POSTDEC1
003ba2   ffe5
                                           ;	.line	140; /home/mandon/programmation/pinguino developpement/pinguino_beta9-05_linux/tools/bin/../share/sdcc/include/pic16/uart18f2550.c	va_start(args, fmt);
003ba4   0e02     movlw	0x2                	MOVLW	0x02
003ba6   24d9     addwf	0xd9, 0, 0         	ADDWF	FSR2L, W
003ba8   6e00     movwf	0, 0               	MOVWF	r0x00
003baa   0e00     movlw	0                  	MOVLW	0x00
003bac   20da     addwfc	0xda, 0, 0        	ADDWFC	FSR2H, W
003bae   6e01     movwf	0x1, 0             	MOVWF	r0x01
003bb0   0e03     movlw	0x3                	MOVLW	0x03
003bb2   2600     addwf	0, 0x1, 0          	ADDWF	r0x00, F
003bb4   b0d8     btfsc	0xd8, 0, 0         	BTFSC	STATUS, 0
003bb6   2a01     incf	0x1, 0x1, 0         	INCF	r0x01, F
                                           ; #	MOVF	r0x01, W
                                           ; #	MOVWF	r0x01
                                           ; #	MOVF	r0x01, W
                                           ; #	MOVF	r0x00, W
                                           ; #	MOVF	r0x00, W
                                           ; #	MOVWF	r0x00
003bb8   0e80     movlw	0x80               	MOVLW	0x80
                                           ; #	MOVWF	r0x02
                                           ; #	MOVF	r0x02, W
                                           ;	.line	141; /home/mandon/programmation/pinguino developpement/pinguino_beta9-05_linux/tools/bin/../share/sdcc/include/pic16/uart18f2550.c	printf(serial_putchar, fmt, args);
003bba   6ee5     movwf	0xe5, 0            	MOVWF	POSTDEC1
003bbc   5001     movf	0x1, 0, 0           	MOVF	r0x01, W
003bbe   6ee5     movwf	0xe5, 0            	MOVWF	POSTDEC1
003bc0   5000     movf	0, 0, 0             	MOVF	r0x00, W
003bc2   6ee5     movwf	0xe5, 0            	MOVWF	POSTDEC1
003bc4   0e04     movlw	0x4                	MOVLW	0x04
003bc6   cfdb     movff	0xfdb, 0xfe5       	MOVFF	PLUSW2, POSTDEC1
003bc8   ffe5
003bca   0e03     movlw	0x3                	MOVLW	0x03
003bcc   cfdb     movff	0xfdb, 0xfe5       	MOVFF	PLUSW2, POSTDEC1
003bce   ffe5
003bd0   0e02     movlw	0x2                	MOVLW	0x02
003bd2   cfdb     movff	0xfdb, 0xfe5       	MOVFF	PLUSW2, POSTDEC1
003bd4   ffe5
003bd6   0e00     movlw	0                  	MOVLW	UPPER(_serial_putchar)
003bd8   6ee5     movwf	0xe5, 0            	MOVWF	POSTDEC1
003bda   0e3c     movlw	0x3c               	MOVLW	HIGH(_serial_putchar)
003bdc   6ee5     movwf	0xe5, 0            	MOVWF	POSTDEC1
003bde   0e70     movlw	0x70               	MOVLW	LOW(_serial_putchar)
003be0   6ee5     movwf	0xe5, 0            	MOVWF	POSTDEC1
003be2   ecc0     call	0x3980, 0           	CALL	_printf
003be4   f01c
003be6   0e09     movlw	0x9                	MOVLW	0x09
003be8   26e1     addwf	0xe1, 0x1, 0       	ADDWF	FSR1L, F
                                           ;	.line	142; /home/mandon/programmation/pinguino developpement/pinguino_beta9-05_linux/tools/bin/../share/sdcc/include/pic16/uart18f2550.c	va_end(args);
003bea   cfe4     movff	0xfe4, 0x1         	MOVFF	PREINC1, r0x01
003bec   f001
003bee   cfe4     movff	0xfe4, 0           	MOVFF	PREINC1, r0x00
003bf0   f000
003bf2   cfe4     movff	0xfe4, 0xfd9       	MOVFF	PREINC1, FSR2L
003bf4   ffd9
003bf6   0012     return	0                 	RETURN	
                                           
                                           ; ; Starting pCode block
                                           S_main__serial_getkey	code
                                           _serial_getkey:
                                           ;	.line	126; /home/mandon/programmation/pinguino developpement/pinguino_beta9-05_linux/tools/bin/../share/sdcc/include/pic16/uart18f2550.c	unsigned char serial_getkey()
003c94   c000     movff	0, 0xfe5           	MOVFF	r0x00, POSTDEC1
003c96   ffe5
                                           _00377_DS_:
                                           ;	.line	129; /home/mandon/programmation/pinguino developpement/pinguino_beta9-05_linux/tools/bin/../share/sdcc/include/pic16/uart18f2550.c	while (!(serial_available()));
003c98   ec25     call	0x3c4a, 0           	CALL	_serial_available
003c9a   f01e
003c9c   6e00     movwf	0, 0               	MOVWF	r0x00
003c9e   5000     movf	0, 0, 0             	MOVF	r0x00, W
003ca0   e0fb     bz	0x3c98                	BZ	_00377_DS_
                                           ;	.line	130; /home/mandon/programmation/pinguino developpement/pinguino_beta9-05_linux/tools/bin/../share/sdcc/include/pic16/uart18f2550.c	c = serial_read();
003ca2   ecfc     call	0x3bf8, 0           	CALL	_serial_read
003ca4   f01d
003ca6   6e00     movwf	0, 0               	MOVWF	r0x00
                                           ;	.line	131; /home/mandon/programmation/pinguino developpement/pinguino_beta9-05_linux/tools/bin/../share/sdcc/include/pic16/uart18f2550.c	serial_flush();
003ca8   ec84     call	0x3d08, 0           	CALL	_serial_flush
003caa   f01e
                                           ;	.line	132; /home/mandon/programmation/pinguino developpement/pinguino_beta9-05_linux/tools/bin/../share/sdcc/include/pic16/uart18f2550.c	return (c);
003cac   5000     movf	0, 0, 0             	MOVF	r0x00, W
003cae   cfe4     movff	0xfe4, 0           	MOVFF	PREINC1, r0x00
003cb0   f000
003cb2   0012     return	0                 	RETURN	
                                           
                                           ; ; Starting pCode block
                                           S_main__serial_flush	code
                                           _serial_flush:
                                           ; #	MOVLW	0x01
                                           ; #	MOVWF	_wpointer, B
                                           ; #	MOVLW	0x01
                                           ;	.line	120; /home/mandon/programmation/pinguino developpement/pinguino_beta9-05_linux/tools/bin/../share/sdcc/include/pic16/uart18f2550.c	wpointer=1;
003d08   0e01     movlw	0x1                	MOVLW	0x01
003d0a   0102     movlb	0x2                	BANKSEL	_wpointer
                                           ;	.line	121; /home/mandon/programmation/pinguino developpement/pinguino_beta9-05_linux/tools/bin/../share/sdcc/include/pic16/uart18f2550.c	rpointer=1;
003d0c   6f97     movwf	0x97, 0x1          	MOVWF	_wpointer, B
003d0e   0102     movlb	0x2                	BANKSEL	_rpointer
003d10   6f98     movwf	0x98, 0x1          	MOVWF	_rpointer, B
003d12   0012     return	0                 	RETURN	
                                           
                                           ; ; Starting pCode block
                                           S_main__serial_read	code
                                           _serial_read:
                                           ;	.line	104; /home/mandon/programmation/pinguino developpement/pinguino_beta9-05_linux/tools/bin/../share/sdcc/include/pic16/uart18f2550.c	unsigned char serial_read()
003bf8   c000     movff	0, 0xfe5           	MOVFF	r0x00, POSTDEC1
003bfa   ffe5
003bfc   c001     movff	0x1, 0xfe5         	MOVFF	r0x01, POSTDEC1
003bfe   ffe5
003c00   c002     movff	0x2, 0xfe5         	MOVFF	r0x02, POSTDEC1
003c02   ffe5
                                           ;	.line	106; /home/mandon/programmation/pinguino developpement/pinguino_beta9-05_linux/tools/bin/../share/sdcc/include/pic16/uart18f2550.c	unsigned char caractere=0;
003c04   6a00     clrf	0, 0                	CLRF	r0x00
                                           ;	.line	108; /home/mandon/programmation/pinguino developpement/pinguino_beta9-05_linux/tools/bin/../share/sdcc/include/pic16/uart18f2550.c	if (serial_available())
003c06   ec25     call	0x3c4a, 0           	CALL	_serial_available
003c08   f01e
003c0a   6e01     movwf	0x1, 0             	MOVWF	r0x01
003c0c   5001     movf	0x1, 0, 0           	MOVF	r0x01, W
003c0e   e015     bz	0x3c3a                	BZ	_00361_DS_
                                           ;	.line	110; /home/mandon/programmation/pinguino developpement/pinguino_beta9-05_linux/tools/bin/../share/sdcc/include/pic16/uart18f2550.c	caractere=rx[rpointer++];
003c10   c298     movff	0x298, 0x1         	MOVFF	_rpointer, r0x01
003c12   f001
003c14   0102     movlb	0x2                	BANKSEL	_rpointer
003c16   2b98     incf	0x98, 0x1, 0x1      	INCF	_rpointer, F, B
003c18   6a02     clrf	0x2, 0              	CLRF	r0x02
003c1a   0e00     movlw	0                  	MOVLW	LOW(_rx)
003c1c   2601     addwf	0x1, 0x1, 0        	ADDWF	r0x01, F
003c1e   0e02     movlw	0x2                	MOVLW	HIGH(_rx)
003c20   2202     addwfc	0x2, 0x1, 0       	ADDWFC	r0x02, F
003c22   c001     movff	0x1, 0xfe9         	MOVFF	r0x01, FSR0L
003c24   ffe9
003c26   c002     movff	0x2, 0xfea         	MOVFF	r0x02, FSR0H
003c28   ffea
003c2a   cfef     movff	0xfef, 0           	MOVFF	INDF0, r0x00
003c2c   f000
                                           ; removed redundant BANKSEL
                                           ;	.line	111; /home/mandon/programmation/pinguino developpement/pinguino_beta9-05_linux/tools/bin/../share/sdcc/include/pic16/uart18f2550.c	if (rpointer==RXBUFFERLENGTH)
003c2e   5198     movf	0x98, 0, 0x1        	MOVF	_rpointer, W, B
003c30   0a80     xorlw	0x80               	XORLW	0x80
003c32   e103     bnz	0x3c3a               	BNZ	_00361_DS_
                                           ;	.line	112; /home/mandon/programmation/pinguino developpement/pinguino_beta9-05_linux/tools/bin/../share/sdcc/include/pic16/uart18f2550.c	rpointer=1;
003c34   0e01     movlw	0x1                	MOVLW	0x01
003c36   0102     movlb	0x2                	BANKSEL	_rpointer
003c38   6f98     movwf	0x98, 0x1          	MOVWF	_rpointer, B
                                           _00361_DS_:
                                           ;	.line	114; /home/mandon/programmation/pinguino developpement/pinguino_beta9-05_linux/tools/bin/../share/sdcc/include/pic16/uart18f2550.c	return(caractere);
003c3a   5000     movf	0, 0, 0             	MOVF	r0x00, W
003c3c   cfe4     movff	0xfe4, 0x2         	MOVFF	PREINC1, r0x02
003c3e   f002
003c40   cfe4     movff	0xfe4, 0x1         	MOVFF	PREINC1, r0x01
003c42   f001
003c44   cfe4     movff	0xfe4, 0           	MOVFF	PREINC1, r0x00
003c46   f000
003c48   0012     return	0                 	RETURN	
                                           
                                           ; ; Starting pCode block
                                           S_main__serial_interrupt	code
                                           _serial_interrupt:
                                           ;	.line	84; /home/mandon/programmation/pinguino developpement/pinguino_beta9-05_linux/tools/bin/../share/sdcc/include/pic16/uart18f2550.c	void serial_interrupt(void)
003b2c   c000     movff	0, 0xfe5           	MOVFF	r0x00, POSTDEC1
003b2e   ffe5
003b30   c001     movff	0x1, 0xfe5         	MOVFF	r0x01, POSTDEC1
003b32   ffe5
003b34   c002     movff	0x2, 0xfe5         	MOVFF	r0x02, POSTDEC1
003b36   ffe5
                                           ;	.line	89; /home/mandon/programmation/pinguino developpement/pinguino_beta9-05_linux/tools/bin/../share/sdcc/include/pic16/uart18f2550.c	PIR1bits.RCIF=0;				// clear RX interrupt flag
003b38   9a9e     bcf	0x9e, 0x5, 0         	BCF	_PIR1bits, 5
                                           ;	.line	90; /home/mandon/programmation/pinguino developpement/pinguino_beta9-05_linux/tools/bin/../share/sdcc/include/pic16/uart18f2550.c	caractere=RCREG;				// take received char
003b3a   cfae     movff	0xfae, 0           	MOVFF	_RCREG, r0x00
003b3c   f000
003b3e   0102     movlb	0x2                	BANKSEL	_wpointer
                                           ;	.line	91; /home/mandon/programmation/pinguino developpement/pinguino_beta9-05_linux/tools/bin/../share/sdcc/include/pic16/uart18f2550.c	if (wpointer!=RXBUFFERLENGTH-1)	// if not last place in buffer
003b40   5197     movf	0x97, 0, 0x1        	MOVF	_wpointer, W, B
003b42   0a7f     xorlw	0x7f               	XORLW	0x7f
003b44   e004     bz	0x3b4e                	BZ	_00337_DS_
                                           _00349_DS_:
003b46   0102     movlb	0x2                	BANKSEL	_wpointer
                                           ;	.line	92; /home/mandon/programmation/pinguino developpement/pinguino_beta9-05_linux/tools/bin/../share/sdcc/include/pic16/uart18f2550.c	newwp=wpointer+1;			// place=place+1
003b48   2997     incf	0x97, 0, 0x1        	INCF	_wpointer, W, B
003b4a   6e01     movwf	0x1, 0             	MOVWF	r0x01
003b4c   d002     bra	0x3b52               	BRA	_00338_DS_
                                           _00337_DS_:
                                           ;	.line	94; /home/mandon/programmation/pinguino developpement/pinguino_beta9-05_linux/tools/bin/../share/sdcc/include/pic16/uart18f2550.c	newwp=1;					// else place=1
003b4e   0e01     movlw	0x1                	MOVLW	0x01
003b50   6e01     movwf	0x1, 0             	MOVWF	r0x01
                                           _00338_DS_:
003b52   0102     movlb	0x2                	BANKSEL	_rpointer
                                           ;	.line	96; /home/mandon/programmation/pinguino developpement/pinguino_beta9-05_linux/tools/bin/../share/sdcc/include/pic16/uart18f2550.c	if (rpointer!=newwp)			// if read pointer!=write pointer
003b54   5198     movf	0x98, 0, 0x1        	MOVF	_rpointer, W, B
003b56   1801     xorwf	0x1, 0, 0          	XORWF	r0x01, W
003b58   e00f     bz	0x3b78                	BZ	_00340_DS_
                                           ;	.line	97; /home/mandon/programmation/pinguino developpement/pinguino_beta9-05_linux/tools/bin/../share/sdcc/include/pic16/uart18f2550.c	rx[wpointer++]=caractere;	// store received char
003b5a   c297     movff	0x297, 0x1         	MOVFF	_wpointer, r0x01
003b5c   f001
003b5e   0102     movlb	0x2                	BANKSEL	_wpointer
003b60   2b97     incf	0x97, 0x1, 0x1      	INCF	_wpointer, F, B
003b62   6a02     clrf	0x2, 0              	CLRF	r0x02
003b64   0e00     movlw	0                  	MOVLW	LOW(_rx)
003b66   2601     addwf	0x1, 0x1, 0        	ADDWF	r0x01, F
003b68   0e02     movlw	0x2                	MOVLW	HIGH(_rx)
003b6a   2202     addwfc	0x2, 0x1, 0       	ADDWFC	r0x02, F
003b6c   c001     movff	0x1, 0xfe9         	MOVFF	r0x01, FSR0L
003b6e   ffe9
003b70   c002     movff	0x2, 0xfea         	MOVFF	r0x02, FSR0H
003b72   ffea
003b74   c000     movff	0, 0xfef           	MOVFF	r0x00, INDF0
003b76   ffef
                                           _00340_DS_:
003b78   0102     movlb	0x2                	BANKSEL	_wpointer
                                           ;	.line	99; /home/mandon/programmation/pinguino developpement/pinguino_beta9-05_linux/tools/bin/../share/sdcc/include/pic16/uart18f2550.c	if (wpointer==RXBUFFERLENGTH)	// if write pointer=length buffer
003b7a   5197     movf	0x97, 0, 0x1        	MOVF	_wpointer, W, B
003b7c   0a80     xorlw	0x80               	XORLW	0x80
003b7e   e103     bnz	0x3b86               	BNZ	_00343_DS_
                                           ;	.line	100; /home/mandon/programmation/pinguino developpement/pinguino_beta9-05_linux/tools/bin/../share/sdcc/include/pic16/uart18f2550.c	wpointer=1;					// write pointer = 1
003b80   0e01     movlw	0x1                	MOVLW	0x01
003b82   0102     movlb	0x2                	BANKSEL	_wpointer
003b84   6f97     movwf	0x97, 0x1          	MOVWF	_wpointer, B
                                           _00343_DS_:
003b86   cfe4     movff	0xfe4, 0x2         	MOVFF	PREINC1, r0x02
003b88   f002
003b8a   cfe4     movff	0xfe4, 0x1         	MOVFF	PREINC1, r0x01
003b8c   f001
003b8e   cfe4     movff	0xfe4, 0           	MOVFF	PREINC1, r0x00
003b90   f000
003b92   0012     return	0                 	RETURN	
                                           
                                           ; ; Starting pCode block
                                           S_main__serial_putchar	code
                                           _serial_putchar:
                                           ;	.line	77; /home/mandon/programmation/pinguino developpement/pinguino_beta9-05_linux/tools/bin/../share/sdcc/include/pic16/uart18f2550.c	void serial_putchar(unsigned char caractere)
003c70   cfd9     movff	0xfd9, 0xfe5       	MOVFF	FSR2L, POSTDEC1
003c72   ffe5
003c74   cfe1     movff	0xfe1, 0xfd9       	MOVFF	FSR1L, FSR2L
003c76   ffd9
003c78   c000     movff	0, 0xfe5           	MOVFF	r0x00, POSTDEC1
003c7a   ffe5
003c7c   0e02     movlw	0x2                	MOVLW	0x02
003c7e   cfdb     movff	0xfdb, 0           	MOVFF	PLUSW2, r0x00
003c80   f000
                                           _00328_DS_:
                                           ;	.line	79; /home/mandon/programmation/pinguino developpement/pinguino_beta9-05_linux/tools/bin/../share/sdcc/include/pic16/uart18f2550.c	while (!TXSTAbits.TRMT);
003c82   a2ac     btfss	0xac, 0x1, 0       	BTFSS	_TXSTAbits, 1
003c84   d7fe     bra	0x3c82               	BRA	_00328_DS_
                                           ;	.line	80; /home/mandon/programmation/pinguino developpement/pinguino_beta9-05_linux/tools/bin/../share/sdcc/include/pic16/uart18f2550.c	TXREG=caractere;		        // yes, send char
003c86   c000     movff	0, 0xfad           	MOVFF	r0x00, _TXREG
003c88   ffad
003c8a   cfe4     movff	0xfe4, 0           	MOVFF	PREINC1, r0x00
003c8c   f000
003c8e   cfe4     movff	0xfe4, 0xfd9       	MOVFF	PREINC1, FSR2L
003c90   ffd9
003c92   0012     return	0                 	RETURN	
                                           
                                           ; ; Starting pCode block
                                           S_main__serial_available	code
                                           _serial_available:
                                           ;	.line	71; /home/mandon/programmation/pinguino developpement/pinguino_beta9-05_linux/tools/bin/../share/sdcc/include/pic16/uart18f2550.c	unsigned char serial_available()
003c4a   c000     movff	0, 0xfe5           	MOVFF	r0x00, POSTDEC1
003c4c   ffe5
                                           ;	.line	73; /home/mandon/programmation/pinguino developpement/pinguino_beta9-05_linux/tools/bin/../share/sdcc/include/pic16/uart18f2550.c	return(wpointer!=rpointer);
003c4e   6a00     clrf	0, 0                	CLRF	r0x00
003c50   0102     movlb	0x2                	BANKSEL	_wpointer
003c52   5197     movf	0x97, 0, 0x1        	MOVF	_wpointer, W, B
003c54   0102     movlb	0x2                	BANKSEL	_rpointer
003c56   1998     xorwf	0x98, 0, 0x1       	XORWF	_rpointer, W, B
003c58   e101     bnz	0x3c5c               	BNZ	_00323_DS_
003c5a   2a00     incf	0, 0x1, 0           	INCF	r0x00, F
                                           _00323_DS_:
003c5c   5000     movf	0, 0, 0             	MOVF	r0x00, W
003c5e   80d8     bsf	0xd8, 0, 0           	BSF	STATUS, 0
003c60   66e8     tstfsz	0xe8, 0           	TSTFSZ	WREG
003c62   90d8     bcf	0xd8, 0, 0           	BCF	STATUS, 0
003c64   6a00     clrf	0, 0                	CLRF	r0x00
003c66   3600     rlcf	0, 0x1, 0           	RLCF	r0x00, F
003c68   5000     movf	0, 0, 0             	MOVF	r0x00, W
003c6a   cfe4     movff	0xfe4, 0           	MOVFF	PREINC1, r0x00
003c6c   f000
003c6e   0012     return	0                 	RETURN	
                                           
                                           ; ; Starting pCode block
                                           S_main__serial_begin	code
                                           _serial_begin:
                                           ;	.line	47; /home/mandon/programmation/pinguino developpement/pinguino_beta9-05_linux/tools/bin/../share/sdcc/include/pic16/uart18f2550.c	void serial_begin(unsigned long baudrate)
003742   cfd9     movff	0xfd9, 0xfe5       	MOVFF	FSR2L, POSTDEC1
003744   ffe5
003746   cfe1     movff	0xfe1, 0xfd9       	MOVFF	FSR1L, FSR2L
003748   ffd9
00374a   c000     movff	0, 0xfe5           	MOVFF	r0x00, POSTDEC1
00374c   ffe5
00374e   c001     movff	0x1, 0xfe5         	MOVFF	r0x01, POSTDEC1
003750   ffe5
003752   c002     movff	0x2, 0xfe5         	MOVFF	r0x02, POSTDEC1
003754   ffe5
003756   c003     movff	0x3, 0xfe5         	MOVFF	r0x03, POSTDEC1
003758   ffe5
00375a   c004     movff	0x4, 0xfe5         	MOVFF	r0x04, POSTDEC1
00375c   ffe5
00375e   0e02     movlw	0x2                	MOVLW	0x02
003760   cfdb     movff	0xfdb, 0           	MOVFF	PLUSW2, r0x00
003762   f000
003764   0e03     movlw	0x3                	MOVLW	0x03
003766   cfdb     movff	0xfdb, 0x1         	MOVFF	PLUSW2, r0x01
003768   f001
00376a   0e04     movlw	0x4                	MOVLW	0x04
00376c   cfdb     movff	0xfdb, 0x2         	MOVFF	PLUSW2, r0x02
00376e   f002
003770   0e05     movlw	0x5                	MOVLW	0x05
003772   cfdb     movff	0xfdb, 0x3         	MOVFF	PLUSW2, r0x03
003774   f003
                                           ;	.line	52; /home/mandon/programmation/pinguino developpement/pinguino_beta9-05_linux/tools/bin/../share/sdcc/include/pic16/uart18f2550.c	spbrg=(48000000/(4*baudrate))-1;
003776   5003     movf	0x3, 0, 0           	MOVF	r0x03, W
003778   6ee5     movwf	0xe5, 0            	MOVWF	POSTDEC1
00377a   5002     movf	0x2, 0, 0           	MOVF	r0x02, W
00377c   6ee5     movwf	0xe5, 0            	MOVWF	POSTDEC1
00377e   5001     movf	0x1, 0, 0           	MOVF	r0x01, W
003780   6ee5     movwf	0xe5, 0            	MOVWF	POSTDEC1
003782   5000     movf	0, 0, 0             	MOVF	r0x00, W
003784   6ee5     movwf	0xe5, 0            	MOVWF	POSTDEC1
003786   6ae5     clrf	0xe5, 0             	CLRF	POSTDEC1
003788   6ae5     clrf	0xe5, 0             	CLRF	POSTDEC1
00378a   6ae5     clrf	0xe5, 0             	CLRF	POSTDEC1
00378c   0e04     movlw	0x4                	MOVLW	0x04
00378e   6ee5     movwf	0xe5, 0            	MOVWF	POSTDEC1
003790   ec25     call	0x4a, 0             	CALL	__mullong
003792   f000
003794   6e00     movwf	0, 0               	MOVWF	r0x00
003796   cff3     movff	0xff3, 0x1         	MOVFF	PRODL, r0x01
003798   f001
00379a   cff4     movff	0xff4, 0x2         	MOVFF	PRODH, r0x02
00379c   f002
00379e   cfe9     movff	0xfe9, 0x3         	MOVFF	FSR0L, r0x03
0037a0   f003
0037a2   0e08     movlw	0x8                	MOVLW	0x08
0037a4   26e1     addwf	0xe1, 0x1, 0       	ADDWF	FSR1L, F
0037a6   5003     movf	0x3, 0, 0           	MOVF	r0x03, W
0037a8   6ee5     movwf	0xe5, 0            	MOVWF	POSTDEC1
0037aa   5002     movf	0x2, 0, 0           	MOVF	r0x02, W
0037ac   6ee5     movwf	0xe5, 0            	MOVWF	POSTDEC1
0037ae   5001     movf	0x1, 0, 0           	MOVF	r0x01, W
0037b0   6ee5     movwf	0xe5, 0            	MOVWF	POSTDEC1
0037b2   5000     movf	0, 0, 0             	MOVF	r0x00, W
0037b4   6ee5     movwf	0xe5, 0            	MOVWF	POSTDEC1
0037b6   0e02     movlw	0x2                	MOVLW	0x02
0037b8   6ee5     movwf	0xe5, 0            	MOVWF	POSTDEC1
0037ba   0edc     movlw	0xdc               	MOVLW	0xdc
0037bc   6ee5     movwf	0xe5, 0            	MOVWF	POSTDEC1
0037be   0e6c     movlw	0x6c               	MOVLW	0x6c
0037c0   6ee5     movwf	0xe5, 0            	MOVWF	POSTDEC1
0037c2   0e00     movlw	0                  	MOVLW	0x00
0037c4   6ae5     clrf	0xe5, 0             	CLRF	POSTDEC1
0037c6   ec14     call	0x3628, 0           	CALL	__divulong
0037c8   f01b
0037ca   6e00     movwf	0, 0               	MOVWF	r0x00
0037cc   cff3     movff	0xff3, 0x1         	MOVFF	PRODL, r0x01
0037ce   f001
0037d0   0e08     movlw	0x8                	MOVLW	0x08
0037d2   26e1     addwf	0xe1, 0x1, 0       	ADDWF	FSR1L, F
0037d4   0eff     movlw	0xff               	MOVLW	0xff
0037d6   2600     addwf	0, 0x1, 0          	ADDWF	r0x00, F
0037d8   2201     addwfc	0x1, 0x1, 0       	ADDWFC	r0x01, F
                                           ;	.line	53; /home/mandon/programmation/pinguino developpement/pinguino_beta9-05_linux/tools/bin/../share/sdcc/include/pic16/uart18f2550.c	highbyte=spbrg/256;
0037da   5001     movf	0x1, 0, 0           	MOVF	r0x01, W
                                           ;	.line	54; /home/mandon/programmation/pinguino developpement/pinguino_beta9-05_linux/tools/bin/../share/sdcc/include/pic16/uart18f2550.c	lowbyte=spbrg%256;
0037dc   6e04     movwf	0x4, 0             	MOVWF	r0x04
                                           ;	.line	55; /home/mandon/programmation/pinguino developpement/pinguino_beta9-05_linux/tools/bin/../share/sdcc/include/pic16/uart18f2550.c	TXSTAbits.BRGH=1;               	  	// set BRGH bit
0037de   84ac     bsf	0xac, 0x2, 0         	BSF	_TXSTAbits, 2
                                           ;	.line	56; /home/mandon/programmation/pinguino developpement/pinguino_beta9-05_linux/tools/bin/../share/sdcc/include/pic16/uart18f2550.c	BAUDCONbits.BRG16=1;					// set 16 bits SPBRG
0037e0   86b8     bsf	0xb8, 0x3, 0         	BSF	_BAUDCONbits, 3
                                           ;	.line	57; /home/mandon/programmation/pinguino developpement/pinguino_beta9-05_linux/tools/bin/../share/sdcc/include/pic16/uart18f2550.c	SPBRGH=highbyte;                        // set UART speed SPBRGH
0037e2   c004     movff	0x4, 0xfb0         	MOVFF	r0x04, _SPBRGH
0037e4   ffb0
                                           ;	.line	58; /home/mandon/programmation/pinguino developpement/pinguino_beta9-05_linux/tools/bin/../share/sdcc/include/pic16/uart18f2550.c	SPBRG=lowbyte;   						// set UART speed SPBRGL
0037e6   c000     movff	0, 0xfaf           	MOVFF	r0x00, _SPBRG
0037e8   ffaf
                                           ;	.line	59; /home/mandon/programmation/pinguino developpement/pinguino_beta9-05_linux/tools/bin/../share/sdcc/include/pic16/uart18f2550.c	RCSTA=0x90;                             // set RCEN and SPEN
0037ea   0e90     movlw	0x90               	MOVLW	0x90
0037ec   6eab     movwf	0xab, 0            	MOVWF	_RCSTA
                                           ;	.line	60; /home/mandon/programmation/pinguino developpement/pinguino_beta9-05_linux/tools/bin/../share/sdcc/include/pic16/uart18f2550.c	BAUDCONbits.RCIDL=1;			// set receive active
0037ee   8cb8     bsf	0xb8, 0x6, 0         	BSF	_BAUDCONbits, 6
                                           ;	.line	61; /home/mandon/programmation/pinguino developpement/pinguino_beta9-05_linux/tools/bin/../share/sdcc/include/pic16/uart18f2550.c	PIE1bits.RCIE=1;                        // enable interrupt on RX
0037f0   8a9d     bsf	0x9d, 0x5, 0         	BSF	_PIE1bits, 5
                                           ;	.line	62; /home/mandon/programmation/pinguino developpement/pinguino_beta9-05_linux/tools/bin/../share/sdcc/include/pic16/uart18f2550.c	INTCONbits.PEIE=1;                      // enable peripheral interrupts
0037f2   8cf2     bsf	0xf2, 0x6, 0         	BSF	_INTCONbits, 6
                                           ;	.line	63; /home/mandon/programmation/pinguino developpement/pinguino_beta9-05_linux/tools/bin/../share/sdcc/include/pic16/uart18f2550.c	IPR1bits.RCIP=1;                        // define high priority for RX interrupt
0037f4   8a9f     bsf	0x9f, 0x5, 0         	BSF	_IPR1bits, 5
                                           ; #	MOVLW	0x01
                                           ; #	MOVWF	_wpointer, B
                                           ; #	MOVLW	0x01
                                           ;	.line	64; /home/mandon/programmation/pinguino developpement/pinguino_beta9-05_linux/tools/bin/../share/sdcc/include/pic16/uart18f2550.c	wpointer=1;                             // initialize write pointer
0037f6   0e01     movlw	0x1                	MOVLW	0x01
0037f8   0102     movlb	0x2                	BANKSEL	_wpointer
                                           ;	.line	65; /home/mandon/programmation/pinguino developpement/pinguino_beta9-05_linux/tools/bin/../share/sdcc/include/pic16/uart18f2550.c	rpointer=1;                             // initialize read pointer
0037fa   6f97     movwf	0x97, 0x1          	MOVWF	_wpointer, B
0037fc   0102     movlb	0x2                	BANKSEL	_rpointer
0037fe   6f98     movwf	0x98, 0x1          	MOVWF	_rpointer, B
                                           ;	.line	66; /home/mandon/programmation/pinguino developpement/pinguino_beta9-05_linux/tools/bin/../share/sdcc/include/pic16/uart18f2550.c	TXSTAbits.TXEN=1;                       // enable TX
003800   8aac     bsf	0xac, 0x5, 0         	BSF	_TXSTAbits, 5
                                           ;	.line	67; /home/mandon/programmation/pinguino developpement/pinguino_beta9-05_linux/tools/bin/../share/sdcc/include/pic16/uart18f2550.c	INTCONbits.GIE=1;
003802   8ef2     bsf	0xf2, 0x7, 0         	BSF	_INTCONbits, 7
003804   cfe4     movff	0xfe4, 0x4         	MOVFF	PREINC1, r0x04
003806   f004
003808   cfe4     movff	0xfe4, 0x3         	MOVFF	PREINC1, r0x03
00380a   f003
00380c   cfe4     movff	0xfe4, 0x2         	MOVFF	PREINC1, r0x02
00380e   f002
003810   cfe4     movff	0xfe4, 0x1         	MOVFF	PREINC1, r0x01
003812   f001
003814   cfe4     movff	0xfe4, 0           	MOVFF	PREINC1, r0x00
003816   f000
003818   cfe4     movff	0xfe4, 0xfd9       	MOVFF	PREINC1, FSR2L
00381a   ffd9
00381c   0012     return	0                 	RETURN	
                                           
                                           ; ; Starting pCode block
                                           S_main__printf	code
                                           _printf:
                                           ;	.line	245; /home/mandon/programmation/pinguino developpement/pinguino_beta9-05_linux/tools/bin/../share/sdcc/include/pic16/stdlib.c	int printf(stdout func, const char *format, va_list args)
003980   cfd9     movff	0xfd9, 0xfe5       	MOVFF	FSR2L, POSTDEC1
003982   ffe5
003984   cfe1     movff	0xfe1, 0xfd9       	MOVFF	FSR1L, FSR2L
003986   ffd9
003988   c000     movff	0, 0xfe5           	MOVFF	r0x00, POSTDEC1
00398a   ffe5
00398c   c001     movff	0x1, 0xfe5         	MOVFF	r0x01, POSTDEC1
00398e   ffe5
003990   c002     movff	0x2, 0xfe5         	MOVFF	r0x02, POSTDEC1
003992   ffe5
003994   c003     movff	0x3, 0xfe5         	MOVFF	r0x03, POSTDEC1
003996   ffe5
003998   c004     movff	0x4, 0xfe5         	MOVFF	r0x04, POSTDEC1
00399a   ffe5
00399c   c005     movff	0x5, 0xfe5         	MOVFF	r0x05, POSTDEC1
00399e   ffe5
0039a0   0e02     movlw	0x2                	MOVLW	0x02
0039a2   cfdb     movff	0xfdb, 0x292       	MOVFF	PLUSW2, _putchar
0039a4   f292
0039a6   0e03     movlw	0x3                	MOVLW	0x03
0039a8   cfdb     movff	0xfdb, 0x293       	MOVFF	PLUSW2, (_putchar + 1)
0039aa   f293
0039ac   0e04     movlw	0x4                	MOVLW	0x04
0039ae   cfdb     movff	0xfdb, 0x294       	MOVFF	PLUSW2, (_putchar + 2)
0039b0   f294
0039b2   0e05     movlw	0x5                	MOVLW	0x05
0039b4   cfdb     movff	0xfdb, 0           	MOVFF	PLUSW2, r0x00
0039b6   f000
0039b8   0e06     movlw	0x6                	MOVLW	0x06
0039ba   cfdb     movff	0xfdb, 0x1         	MOVFF	PLUSW2, r0x01
0039bc   f001
0039be   0e07     movlw	0x7                	MOVLW	0x07
0039c0   cfdb     movff	0xfdb, 0x2         	MOVFF	PLUSW2, r0x02
0039c2   f002
0039c4   0e08     movlw	0x8                	MOVLW	0x08
0039c6   cfdb     movff	0xfdb, 0x3         	MOVFF	PLUSW2, r0x03
0039c8   f003
0039ca   0e09     movlw	0x9                	MOVLW	0x09
0039cc   cfdb     movff	0xfdb, 0x4         	MOVFF	PLUSW2, r0x04
0039ce   f004
0039d0   0e0a     movlw	0xa                	MOVLW	0x0a
0039d2   cfdb     movff	0xfdb, 0x5         	MOVFF	PLUSW2, r0x05
0039d4   f005
                                           ;	.line	251; /home/mandon/programmation/pinguino developpement/pinguino_beta9-05_linux/tools/bin/../share/sdcc/include/pic16/stdlib.c	return print(0, format, args );
0039d6   5005     movf	0x5, 0, 0           	MOVF	r0x05, W
0039d8   6ee5     movwf	0xe5, 0            	MOVWF	POSTDEC1
0039da   5004     movf	0x4, 0, 0           	MOVF	r0x04, W
0039dc   6ee5     movwf	0xe5, 0            	MOVWF	POSTDEC1
0039de   5003     movf	0x3, 0, 0           	MOVF	r0x03, W
0039e0   6ee5     movwf	0xe5, 0            	MOVWF	POSTDEC1
0039e2   5002     movf	0x2, 0, 0           	MOVF	r0x02, W
0039e4   6ee5     movwf	0xe5, 0            	MOVWF	POSTDEC1
0039e6   5001     movf	0x1, 0, 0           	MOVF	r0x01, W
0039e8   6ee5     movwf	0xe5, 0            	MOVWF	POSTDEC1
0039ea   5000     movf	0, 0, 0             	MOVF	r0x00, W
0039ec   6ee5     movwf	0xe5, 0            	MOVWF	POSTDEC1
0039ee   0e00     movlw	0                  	MOVLW	0x00
0039f0   6ae5     clrf	0xe5, 0             	CLRF	POSTDEC1
0039f2   6ae5     clrf	0xe5, 0             	CLRF	POSTDEC1
0039f4   6ae5     clrf	0xe5, 0             	CLRF	POSTDEC1
0039f6   ec38     call	0x2070, 0           	CALL	_print
0039f8   f010
0039fa   6e00     movwf	0, 0               	MOVWF	r0x00
0039fc   cff3     movff	0xff3, 0x1         	MOVFF	PRODL, r0x01
0039fe   f001
003a00   0e09     movlw	0x9                	MOVLW	0x09
003a02   26e1     addwf	0xe1, 0x1, 0       	ADDWF	FSR1L, F
003a04   c001     movff	0x1, 0xff3         	MOVFF	r0x01, PRODL
003a06   fff3
003a08   5000     movf	0, 0, 0             	MOVF	r0x00, W
003a0a   cfe4     movff	0xfe4, 0x5         	MOVFF	PREINC1, r0x05
003a0c   f005
003a0e   cfe4     movff	0xfe4, 0x4         	MOVFF	PREINC1, r0x04
003a10   f004
003a12   cfe4     movff	0xfe4, 0x3         	MOVFF	PREINC1, r0x03
003a14   f003
003a16   cfe4     movff	0xfe4, 0x2         	MOVFF	PREINC1, r0x02
003a18   f002
003a1a   cfe4     movff	0xfe4, 0x1         	MOVFF	PREINC1, r0x01
003a1c   f001
003a1e   cfe4     movff	0xfe4, 0           	MOVFF	PREINC1, r0x00
003a20   f000
003a22   cfe4     movff	0xfe4, 0xfd9       	MOVFF	PREINC1, FSR2L
003a24   ffd9
003a26   0012     return	0                 	RETURN	
                                           
                                           ; ; Starting pCode block
                                           S_main__print	code
                                           _print:
                                           ;	.line	141; /home/mandon/programmation/pinguino developpement/pinguino_beta9-05_linux/tools/bin/../share/sdcc/include/pic16/stdlib.c	static int print(char **out, const char *format, va_list args )
002070   cfd9     movff	0xfd9, 0xfe5       	MOVFF	FSR2L, POSTDEC1
002072   ffe5
002074   cfe1     movff	0xfe1, 0xfd9       	MOVFF	FSR1L, FSR2L
002076   ffd9
002078   c000     movff	0, 0xfe5           	MOVFF	r0x00, POSTDEC1
00207a   ffe5
00207c   c001     movff	0x1, 0xfe5         	MOVFF	r0x01, POSTDEC1
00207e   ffe5
002080   c002     movff	0x2, 0xfe5         	MOVFF	r0x02, POSTDEC1
002082   ffe5
002084   c003     movff	0x3, 0xfe5         	MOVFF	r0x03, POSTDEC1
002086   ffe5
002088   c004     movff	0x4, 0xfe5         	MOVFF	r0x04, POSTDEC1
00208a   ffe5
00208c   c005     movff	0x5, 0xfe5         	MOVFF	r0x05, POSTDEC1
00208e   ffe5
002090   c006     movff	0x6, 0xfe5         	MOVFF	r0x06, POSTDEC1
002092   ffe5
002094   c007     movff	0x7, 0xfe5         	MOVFF	r0x07, POSTDEC1
002096   ffe5
002098   c008     movff	0x8, 0xfe5         	MOVFF	r0x08, POSTDEC1
00209a   ffe5
00209c   c009     movff	0x9, 0xfe5         	MOVFF	r0x09, POSTDEC1
00209e   ffe5
0020a0   c00a     movff	0xa, 0xfe5         	MOVFF	r0x0a, POSTDEC1
0020a2   ffe5
0020a4   c00b     movff	0xb, 0xfe5         	MOVFF	r0x0b, POSTDEC1
0020a6   ffe5
0020a8   c00c     movff	0xc, 0xfe5         	MOVFF	r0x0c, POSTDEC1
0020aa   ffe5
0020ac   c00d     movff	0xd, 0xfe5         	MOVFF	r0x0d, POSTDEC1
0020ae   ffe5
0020b0   c00e     movff	0xe, 0xfe5         	MOVFF	r0x0e, POSTDEC1
0020b2   ffe5
0020b4   c00f     movff	0xf, 0xfe5         	MOVFF	r0x0f, POSTDEC1
0020b6   ffe5
0020b8   c010     movff	0x10, 0xfe5        	MOVFF	r0x10, POSTDEC1
0020ba   ffe5
0020bc   c011     movff	0x11, 0xfe5        	MOVFF	r0x11, POSTDEC1
0020be   ffe5
0020c0   c012     movff	0x12, 0xfe5        	MOVFF	r0x12, POSTDEC1
0020c2   ffe5
0020c4   c013     movff	0x13, 0xfe5        	MOVFF	r0x13, POSTDEC1
0020c6   ffe5
0020c8   0e02     movlw	0x2                	MOVLW	0x02
0020ca   cfdb     movff	0xfdb, 0           	MOVFF	PLUSW2, r0x00
0020cc   f000
0020ce   0e03     movlw	0x3                	MOVLW	0x03
0020d0   cfdb     movff	0xfdb, 0x1         	MOVFF	PLUSW2, r0x01
0020d2   f001
0020d4   0e04     movlw	0x4                	MOVLW	0x04
0020d6   cfdb     movff	0xfdb, 0x2         	MOVFF	PLUSW2, r0x02
0020d8   f002
0020da   0e05     movlw	0x5                	MOVLW	0x05
0020dc   cfdb     movff	0xfdb, 0x3         	MOVFF	PLUSW2, r0x03
0020de   f003
0020e0   0e06     movlw	0x6                	MOVLW	0x06
0020e2   cfdb     movff	0xfdb, 0x4         	MOVFF	PLUSW2, r0x04
0020e4   f004
0020e6   0e07     movlw	0x7                	MOVLW	0x07
0020e8   cfdb     movff	0xfdb, 0x5         	MOVFF	PLUSW2, r0x05
0020ea   f005
0020ec   0e08     movlw	0x8                	MOVLW	0x08
0020ee   cfdb     movff	0xfdb, 0x6         	MOVFF	PLUSW2, r0x06
0020f0   f006
0020f2   0e09     movlw	0x9                	MOVLW	0x09
0020f4   cfdb     movff	0xfdb, 0x7         	MOVFF	PLUSW2, r0x07
0020f6   f007
0020f8   0e0a     movlw	0xa                	MOVLW	0x0a
0020fa   cfdb     movff	0xfdb, 0x8         	MOVFF	PLUSW2, r0x08
0020fc   f008
                                           ;	.line	144; /home/mandon/programmation/pinguino developpement/pinguino_beta9-05_linux/tools/bin/../share/sdcc/include/pic16/stdlib.c	int pc = 0;
0020fe   6a09     clrf	0x9, 0              	CLRF	r0x09
002100   6a0a     clrf	0xa, 0              	CLRF	r0x0a
                                           _00238_DS_:
                                           ;	.line	148; /home/mandon/programmation/pinguino developpement/pinguino_beta9-05_linux/tools/bin/../share/sdcc/include/pic16/stdlib.c	for (; *format != 0; ++format)
002102   c003     movff	0x3, 0xfe9         	MOVFF	r0x03, FSR0L
002104   ffe9
002106   c004     movff	0x4, 0xff3         	MOVFF	r0x04, PRODL
002108   fff3
00210a   5005     movf	0x5, 0, 0           	MOVF	r0x05, W
00210c   ec29     call	0x52, 0             	CALL	__gptrget1
00210e   f000
002110   6e0b     movwf	0xb, 0             	MOVWF	r0x0b
002112   500b     movf	0xb, 0, 0           	MOVF	r0x0b, W
002114   b4d8     btfsc	0xd8, 0x2, 0       	BTFSC	STATUS, 2
002116   ef88     goto	0x2710              	GOTO	_00241_DS_
002118   f013
                                           ;	.line	150; /home/mandon/programmation/pinguino developpement/pinguino_beta9-05_linux/tools/bin/../share/sdcc/include/pic16/stdlib.c	if (*format == '%')
00211a   500b     movf	0xb, 0, 0           	MOVF	r0x0b, W
00211c   0a25     xorlw	0x25               	XORLW	0x25
00211e   e002     bz	0x2124                	BZ	_00278_DS_
002120   ef6c     goto	0x26d8              	GOTO	_00234_DS_
002122   f013
                                           _00278_DS_:
                                           ;	.line	152; /home/mandon/programmation/pinguino developpement/pinguino_beta9-05_linux/tools/bin/../share/sdcc/include/pic16/stdlib.c	++format;
002124   2a03     incf	0x3, 0x1, 0         	INCF	r0x03, F
002126   b0d8     btfsc	0xd8, 0, 0         	BTFSC	STATUS, 0
002128   2a04     incf	0x4, 0x1, 0         	INCF	r0x04, F
00212a   b0d8     btfsc	0xd8, 0, 0         	BTFSC	STATUS, 0
00212c   2a05     incf	0x5, 0x1, 0         	INCF	r0x05, F
                                           ;	.line	153; /home/mandon/programmation/pinguino developpement/pinguino_beta9-05_linux/tools/bin/../share/sdcc/include/pic16/stdlib.c	width = pad = 0;
00212e   6a0b     clrf	0xb, 0              	CLRF	r0x0b
002130   6a0c     clrf	0xc, 0              	CLRF	r0x0c
002132   6a0d     clrf	0xd, 0              	CLRF	r0x0d
002134   6a0e     clrf	0xe, 0              	CLRF	r0x0e
                                           ;	.line	154; /home/mandon/programmation/pinguino developpement/pinguino_beta9-05_linux/tools/bin/../share/sdcc/include/pic16/stdlib.c	if (*format == '\0') break;
002136   c003     movff	0x3, 0xfe9         	MOVFF	r0x03, FSR0L
002138   ffe9
00213a   c004     movff	0x4, 0xff3         	MOVFF	r0x04, PRODL
00213c   fff3
00213e   5005     movf	0x5, 0, 0           	MOVF	r0x05, W
002140   ec29     call	0x52, 0             	CALL	__gptrget1
002142   f000
002144   6e0f     movwf	0xf, 0             	MOVWF	r0x0f
002146   500f     movf	0xf, 0, 0           	MOVF	r0x0f, W
002148   b4d8     btfsc	0xd8, 0x2, 0       	BTFSC	STATUS, 2
00214a   ef88     goto	0x2710              	GOTO	_00241_DS_
00214c   f013
                                           ;	.line	155; /home/mandon/programmation/pinguino developpement/pinguino_beta9-05_linux/tools/bin/../share/sdcc/include/pic16/stdlib.c	if (*format == '%') goto out;
00214e   500f     movf	0xf, 0, 0           	MOVF	r0x0f, W
002150   0a25     xorlw	0x25               	XORLW	0x25
002152   e102     bnz	0x2158               	BNZ	_00280_DS_
002154   ef6c     goto	0x26d8              	GOTO	_00234_DS_
002156   f013
                                           _00280_DS_:
                                           ;	.line	156; /home/mandon/programmation/pinguino developpement/pinguino_beta9-05_linux/tools/bin/../share/sdcc/include/pic16/stdlib.c	if (*format == '-')
002158   500f     movf	0xf, 0, 0           	MOVF	r0x0f, W
00215a   0a2d     xorlw	0x2d               	XORLW	0x2d
00215c   e108     bnz	0x216e               	BNZ	_00259_DS_
                                           ;	.line	158; /home/mandon/programmation/pinguino developpement/pinguino_beta9-05_linux/tools/bin/../share/sdcc/include/pic16/stdlib.c	++format;
00215e   2a03     incf	0x3, 0x1, 0         	INCF	r0x03, F
002160   b0d8     btfsc	0xd8, 0, 0         	BTFSC	STATUS, 0
002162   2a04     incf	0x4, 0x1, 0         	INCF	r0x04, F
002164   b0d8     btfsc	0xd8, 0, 0         	BTFSC	STATUS, 0
002166   2a05     incf	0x5, 0x1, 0         	INCF	r0x05, F
                                           ;	.line	159; /home/mandon/programmation/pinguino developpement/pinguino_beta9-05_linux/tools/bin/../share/sdcc/include/pic16/stdlib.c	pad = PAD_RIGHT;
002168   0e01     movlw	0x1                	MOVLW	0x01
00216a   6e0b     movwf	0xb, 0             	MOVWF	r0x0b
00216c   6a0c     clrf	0xc, 0              	CLRF	r0x0c
                                           _00259_DS_:
                                           ;	.line	161; /home/mandon/programmation/pinguino developpement/pinguino_beta9-05_linux/tools/bin/../share/sdcc/include/pic16/stdlib.c	while (*format == '0')
00216e   c003     movff	0x3, 0xf           	MOVFF	r0x03, r0x0f
002170   f00f
002172   c004     movff	0x4, 0x10          	MOVFF	r0x04, r0x10
002174   f010
002176   c005     movff	0x5, 0x11          	MOVFF	r0x05, r0x11
002178   f011
                                           _00213_DS_:
00217a   c00f     movff	0xf, 0xfe9         	MOVFF	r0x0f, FSR0L
00217c   ffe9
00217e   c010     movff	0x10, 0xff3        	MOVFF	r0x10, PRODL
002180   fff3
002182   5011     movf	0x11, 0, 0          	MOVF	r0x11, W
002184   ec29     call	0x52, 0             	CALL	__gptrget1
002186   f000
                                           ; #	MOVWF	r0x12
                                           ; #	MOVF	r0x12, W
002188   0a30     xorlw	0x30               	XORLW	0x30
00218a   e107     bnz	0x219a               	BNZ	_00245_DS_
                                           ;	.line	163; /home/mandon/programmation/pinguino developpement/pinguino_beta9-05_linux/tools/bin/../share/sdcc/include/pic16/stdlib.c	++format;
00218c   2a0f     incf	0xf, 0x1, 0         	INCF	r0x0f, F
00218e   b0d8     btfsc	0xd8, 0, 0         	BTFSC	STATUS, 0
002190   2a10     incf	0x10, 0x1, 0        	INCF	r0x10, F
002192   b0d8     btfsc	0xd8, 0, 0         	BTFSC	STATUS, 0
002194   2a11     incf	0x11, 0x1, 0        	INCF	r0x11, F
                                           ;	.line	164; /home/mandon/programmation/pinguino developpement/pinguino_beta9-05_linux/tools/bin/../share/sdcc/include/pic16/stdlib.c	pad |= PAD_ZERO;
002196   820b     bsf	0xb, 0x1, 0          	BSF	r0x0b, 1
002198   d7f0     bra	0x217a               	BRA	_00213_DS_
                                           _00245_DS_:
                                           ;	.line	166; /home/mandon/programmation/pinguino developpement/pinguino_beta9-05_linux/tools/bin/../share/sdcc/include/pic16/stdlib.c	for ( ; *format >= '0' && *format <= '9'; ++format)
00219a   c00f     movff	0xf, 0xfe9         	MOVFF	r0x0f, FSR0L
00219c   ffe9
00219e   c010     movff	0x10, 0xff3        	MOVFF	r0x10, PRODL
0021a0   fff3
0021a2   5011     movf	0x11, 0, 0          	MOVF	r0x11, W
0021a4   ec29     call	0x52, 0             	CALL	__gptrget1
0021a6   f000
                                           ; #	MOVWF	r0x12
                                           ; #	MOVF	r0x12, W
0021a8   6e12     movwf	0x12, 0            	MOVWF	r0x12
0021aa   0f80     addlw	0x80               	ADDLW	0x80
0021ac   0f50     addlw	0x50               	ADDLW	0x50
0021ae   e323     bnc	0x21f6               	BNC	_00276_DS_
0021b0   5012     movf	0x12, 0, 0          	MOVF	r0x12, W
0021b2   0f80     addlw	0x80               	ADDLW	0x80
0021b4   0f46     addlw	0x46               	ADDLW	0x46
0021b6   e21f     bc	0x21f6                	BC	_00276_DS_
                                           ;	.line	168; /home/mandon/programmation/pinguino developpement/pinguino_beta9-05_linux/tools/bin/../share/sdcc/include/pic16/stdlib.c	width *= 10;
0021b8   500e     movf	0xe, 0, 0           	MOVF	r0x0e, W
0021ba   6ee5     movwf	0xe5, 0            	MOVWF	POSTDEC1
0021bc   500d     movf	0xd, 0, 0           	MOVF	r0x0d, W
0021be   6ee5     movwf	0xe5, 0            	MOVWF	POSTDEC1
0021c0   6ae5     clrf	0xe5, 0             	CLRF	POSTDEC1
0021c2   0e0a     movlw	0xa                	MOVLW	0x0a
0021c4   6ee5     movwf	0xe5, 0            	MOVWF	POSTDEC1
0021c6   ec27     call	0x4e, 0             	CALL	__mulint
0021c8   f000
0021ca   6e0d     movwf	0xd, 0             	MOVWF	r0x0d
0021cc   cff3     movff	0xff3, 0xe         	MOVFF	PRODL, r0x0e
0021ce   f00e
0021d0   0e04     movlw	0x4                	MOVLW	0x04
0021d2   26e1     addwf	0xe1, 0x1, 0       	ADDWF	FSR1L, F
                                           ;	.line	169; /home/mandon/programmation/pinguino developpement/pinguino_beta9-05_linux/tools/bin/../share/sdcc/include/pic16/stdlib.c	width += *format - '0';
0021d4   6a13     clrf	0x13, 0             	CLRF	r0x13
0021d6   be12     btfsc	0x12, 0x7, 0       	BTFSC	r0x12, 7
0021d8   6813     setf	0x13, 0             	SETF	r0x13
0021da   0ed0     movlw	0xd0               	MOVLW	0xd0
0021dc   2612     addwf	0x12, 0x1, 0       	ADDWF	r0x12, F
0021de   a0d8     btfss	0xd8, 0, 0         	BTFSS	STATUS, 0
0021e0   0613     decf	0x13, 0x1, 0        	DECF	r0x13, F
0021e2   5012     movf	0x12, 0, 0          	MOVF	r0x12, W
0021e4   260d     addwf	0xd, 0x1, 0        	ADDWF	r0x0d, F
0021e6   5013     movf	0x13, 0, 0          	MOVF	r0x13, W
0021e8   220e     addwfc	0xe, 0x1, 0       	ADDWFC	r0x0e, F
                                           ;	.line	166; /home/mandon/programmation/pinguino developpement/pinguino_beta9-05_linux/tools/bin/../share/sdcc/include/pic16/stdlib.c	for ( ; *format >= '0' && *format <= '9'; ++format)
0021ea   2a0f     incf	0xf, 0x1, 0         	INCF	r0x0f, F
0021ec   b0d8     btfsc	0xd8, 0, 0         	BTFSC	STATUS, 0
0021ee   2a10     incf	0x10, 0x1, 0        	INCF	r0x10, F
0021f0   b0d8     btfsc	0xd8, 0, 0         	BTFSC	STATUS, 0
0021f2   2a11     incf	0x11, 0x1, 0        	INCF	r0x11, F
0021f4   d7d2     bra	0x219a               	BRA	_00245_DS_
                                           _00276_DS_:
0021f6   c00f     movff	0xf, 0x3           	MOVFF	r0x0f, r0x03
0021f8   f003
0021fa   c010     movff	0x10, 0x4          	MOVFF	r0x10, r0x04
0021fc   f004
0021fe   c011     movff	0x11, 0x5          	MOVFF	r0x11, r0x05
002200   f005
                                           ;	.line	171; /home/mandon/programmation/pinguino developpement/pinguino_beta9-05_linux/tools/bin/../share/sdcc/include/pic16/stdlib.c	if( *format == 's' )
002202   c00f     movff	0xf, 0xfe9         	MOVFF	r0x0f, FSR0L
002204   ffe9
002206   c010     movff	0x10, 0xff3        	MOVFF	r0x10, PRODL
002208   fff3
00220a   5011     movf	0x11, 0, 0          	MOVF	r0x11, W
00220c   ec29     call	0x52, 0             	CALL	__gptrget1
00220e   f000
                                           ; #	MOVWF	r0x0f
                                           ; #	MOVF	r0x0f, W
002210   6e0f     movwf	0xf, 0             	MOVWF	r0x0f
002212   0a73     xorlw	0x73               	XORLW	0x73
002214   e001     bz	0x2218                	BZ	_00289_DS_
002216   d04a     bra	0x22ac               	BRA	_00217_DS_
                                           _00289_DS_:
                                           ;	.line	174; /home/mandon/programmation/pinguino developpement/pinguino_beta9-05_linux/tools/bin/../share/sdcc/include/pic16/stdlib.c	char *s = va_arg(args, char*);
002218   5006     movf	0x6, 0, 0           	MOVF	r0x06, W
00221a   0f03     addlw	0x3                	ADDLW	0x03
00221c   6e10     movwf	0x10, 0            	MOVWF	r0x10
00221e   0e00     movlw	0                  	MOVLW	0x00
002220   2007     addwfc	0x7, 0, 0         	ADDWFC	r0x07, W
002222   6e11     movwf	0x11, 0            	MOVWF	r0x11
002224   0e00     movlw	0                  	MOVLW	0x00
002226   2008     addwfc	0x8, 0, 0         	ADDWFC	r0x08, W
002228   6e12     movwf	0x12, 0            	MOVWF	r0x12
00222a   c010     movff	0x10, 0x6          	MOVFF	r0x10, r0x06
00222c   f006
00222e   c011     movff	0x11, 0x7          	MOVFF	r0x11, r0x07
002230   f007
002232   c012     movff	0x12, 0x8          	MOVFF	r0x12, r0x08
002234   f008
002236   0efd     movlw	0xfd               	MOVLW	0xfd
002238   2610     addwf	0x10, 0x1, 0       	ADDWF	r0x10, F
00223a   0eff     movlw	0xff               	MOVLW	0xff
00223c   2211     addwfc	0x11, 0x1, 0      	ADDWFC	r0x11, F
00223e   2212     addwfc	0x12, 0x1, 0      	ADDWFC	r0x12, F
002240   c010     movff	0x10, 0xfe9        	MOVFF	r0x10, FSR0L
002242   ffe9
002244   c011     movff	0x11, 0xff3        	MOVFF	r0x11, PRODL
002246   fff3
002248   5012     movf	0x12, 0, 0          	MOVF	r0x12, W
00224a   ec2d     call	0x5a, 0             	CALL	__gptrget3
00224c   f000
00224e   6e10     movwf	0x10, 0            	MOVWF	r0x10
002250   cff3     movff	0xff3, 0x11        	MOVFF	PRODL, r0x11
002252   f011
002254   cff4     movff	0xff4, 0x12        	MOVFF	PRODH, r0x12
002256   f012
                                           ;	.line	176; /home/mandon/programmation/pinguino developpement/pinguino_beta9-05_linux/tools/bin/../share/sdcc/include/pic16/stdlib.c	pc += prints (out, s?s:"(null)", width, pad);
002258   1011     iorwf	0x11, 0, 0         	IORWF	r0x11, W
                                           ; #	IORWF	r0x12, W
                                           ; #	BTFSC	STATUS, 2
                                           ; #	GOTO	_00251_DS_
                                           ; #	GOTO	_00252_DS_
                                           ; #	MOVLW	LOW(__str_0)
00225a   1012     iorwf	0x12, 0, 0         	IORWF	r0x12, W
00225c   e106     bnz	0x226a               	BNZ	_00252_DS_
00225e   0ef0     movlw	0xf0               	MOVLW	LOW(__str_0)
002260   6e10     movwf	0x10, 0            	MOVWF	r0x10
002262   0e35     movlw	0x35               	MOVLW	HIGH(__str_0)
002264   6e11     movwf	0x11, 0            	MOVWF	r0x11
002266   0e00     movlw	0                  	MOVLW	UPPER(__str_0)
002268   6e12     movwf	0x12, 0            	MOVWF	r0x12
                                           _00252_DS_:
00226a   500c     movf	0xc, 0, 0           	MOVF	r0x0c, W
00226c   6ee5     movwf	0xe5, 0            	MOVWF	POSTDEC1
00226e   500b     movf	0xb, 0, 0           	MOVF	r0x0b, W
002270   6ee5     movwf	0xe5, 0            	MOVWF	POSTDEC1
002272   500e     movf	0xe, 0, 0           	MOVF	r0x0e, W
002274   6ee5     movwf	0xe5, 0            	MOVWF	POSTDEC1
002276   500d     movf	0xd, 0, 0           	MOVF	r0x0d, W
002278   6ee5     movwf	0xe5, 0            	MOVWF	POSTDEC1
00227a   5012     movf	0x12, 0, 0          	MOVF	r0x12, W
00227c   6ee5     movwf	0xe5, 0            	MOVWF	POSTDEC1
00227e   5011     movf	0x11, 0, 0          	MOVF	r0x11, W
002280   6ee5     movwf	0xe5, 0            	MOVWF	POSTDEC1
002282   5010     movf	0x10, 0, 0          	MOVF	r0x10, W
002284   6ee5     movwf	0xe5, 0            	MOVWF	POSTDEC1
002286   5002     movf	0x2, 0, 0           	MOVF	r0x02, W
002288   6ee5     movwf	0xe5, 0            	MOVWF	POSTDEC1
00228a   5001     movf	0x1, 0, 0           	MOVF	r0x01, W
00228c   6ee5     movwf	0xe5, 0            	MOVWF	POSTDEC1
00228e   5000     movf	0, 0, 0             	MOVF	r0x00, W
002290   6ee5     movwf	0xe5, 0            	MOVWF	POSTDEC1
002292   ec6d     call	0x30da, 0           	CALL	_prints
002294   f018
002296   6e10     movwf	0x10, 0            	MOVWF	r0x10
002298   cff3     movff	0xff3, 0x11        	MOVFF	PRODL, r0x11
00229a   f011
00229c   0e0a     movlw	0xa                	MOVLW	0x0a
00229e   26e1     addwf	0xe1, 0x1, 0       	ADDWF	FSR1L, F
0022a0   5010     movf	0x10, 0, 0          	MOVF	r0x10, W
0022a2   2609     addwf	0x9, 0x1, 0        	ADDWF	r0x09, F
0022a4   5011     movf	0x11, 0, 0          	MOVF	r0x11, W
0022a6   220a     addwfc	0xa, 0x1, 0       	ADDWFC	r0x0a, F
                                           ;	.line	177; /home/mandon/programmation/pinguino developpement/pinguino_beta9-05_linux/tools/bin/../share/sdcc/include/pic16/stdlib.c	continue;
0022a8   ef81     goto	0x2702              	GOTO	_00240_DS_
0022aa   f013
                                           _00217_DS_:
                                           ;	.line	179; /home/mandon/programmation/pinguino developpement/pinguino_beta9-05_linux/tools/bin/../share/sdcc/include/pic16/stdlib.c	if( *format == 'd' )
0022ac   500f     movf	0xf, 0, 0           	MOVF	r0x0f, W
0022ae   0a64     xorlw	0x64               	XORLW	0x64
0022b0   e001     bz	0x22b4                	BZ	_00291_DS_
0022b2   d045     bra	0x233e               	BRA	_00219_DS_
                                           _00291_DS_:
                                           ;	.line	181; /home/mandon/programmation/pinguino developpement/pinguino_beta9-05_linux/tools/bin/../share/sdcc/include/pic16/stdlib.c	pc += printi (out, va_arg(args, int), 10, 1, width, pad, 'a');
0022b4   5006     movf	0x6, 0, 0           	MOVF	r0x06, W
0022b6   0f02     addlw	0x2                	ADDLW	0x02
0022b8   6e10     movwf	0x10, 0            	MOVWF	r0x10
0022ba   0e00     movlw	0                  	MOVLW	0x00
0022bc   2007     addwfc	0x7, 0, 0         	ADDWFC	r0x07, W
0022be   6e11     movwf	0x11, 0            	MOVWF	r0x11
0022c0   0e00     movlw	0                  	MOVLW	0x00
0022c2   2008     addwfc	0x8, 0, 0         	ADDWFC	r0x08, W
0022c4   6e12     movwf	0x12, 0            	MOVWF	r0x12
0022c6   c010     movff	0x10, 0x6          	MOVFF	r0x10, r0x06
0022c8   f006
0022ca   c011     movff	0x11, 0x7          	MOVFF	r0x11, r0x07
0022cc   f007
0022ce   c012     movff	0x12, 0x8          	MOVFF	r0x12, r0x08
0022d0   f008
0022d2   0efe     movlw	0xfe               	MOVLW	0xfe
0022d4   2610     addwf	0x10, 0x1, 0       	ADDWF	r0x10, F
0022d6   0eff     movlw	0xff               	MOVLW	0xff
0022d8   2211     addwfc	0x11, 0x1, 0      	ADDWFC	r0x11, F
0022da   2212     addwfc	0x12, 0x1, 0      	ADDWFC	r0x12, F
0022dc   c010     movff	0x10, 0xfe9        	MOVFF	r0x10, FSR0L
0022de   ffe9
0022e0   c011     movff	0x11, 0xff3        	MOVFF	r0x11, PRODL
0022e2   fff3
0022e4   5012     movf	0x12, 0, 0          	MOVF	r0x12, W
0022e6   ec2b     call	0x56, 0             	CALL	__gptrget2
0022e8   f000
0022ea   6e10     movwf	0x10, 0            	MOVWF	r0x10
0022ec   cff3     movff	0xff3, 0x11        	MOVFF	PRODL, r0x11
0022ee   f011
0022f0   6ae5     clrf	0xe5, 0             	CLRF	POSTDEC1
0022f2   0e61     movlw	0x61               	MOVLW	0x61
0022f4   6ee5     movwf	0xe5, 0            	MOVWF	POSTDEC1
0022f6   500c     movf	0xc, 0, 0           	MOVF	r0x0c, W
0022f8   6ee5     movwf	0xe5, 0            	MOVWF	POSTDEC1
0022fa   500b     movf	0xb, 0, 0           	MOVF	r0x0b, W
0022fc   6ee5     movwf	0xe5, 0            	MOVWF	POSTDEC1
0022fe   500e     movf	0xe, 0, 0           	MOVF	r0x0e, W
002300   6ee5     movwf	0xe5, 0            	MOVWF	POSTDEC1
002302   500d     movf	0xd, 0, 0           	MOVF	r0x0d, W
002304   6ee5     movwf	0xe5, 0            	MOVWF	POSTDEC1
002306   6ae5     clrf	0xe5, 0             	CLRF	POSTDEC1
002308   0e01     movlw	0x1                	MOVLW	0x01
00230a   6ee5     movwf	0xe5, 0            	MOVWF	POSTDEC1
00230c   6ae5     clrf	0xe5, 0             	CLRF	POSTDEC1
00230e   0e0a     movlw	0xa                	MOVLW	0x0a
002310   6ee5     movwf	0xe5, 0            	MOVWF	POSTDEC1
002312   5011     movf	0x11, 0, 0          	MOVF	r0x11, W
002314   6ee5     movwf	0xe5, 0            	MOVWF	POSTDEC1
002316   5010     movf	0x10, 0, 0          	MOVF	r0x10, W
002318   6ee5     movwf	0xe5, 0            	MOVWF	POSTDEC1
00231a   5002     movf	0x2, 0, 0           	MOVF	r0x02, W
00231c   6ee5     movwf	0xe5, 0            	MOVWF	POSTDEC1
00231e   5001     movf	0x1, 0, 0           	MOVF	r0x01, W
002320   6ee5     movwf	0xe5, 0            	MOVWF	POSTDEC1
002322   5000     movf	0, 0, 0             	MOVF	r0x00, W
002324   6ee5     movwf	0xe5, 0            	MOVWF	POSTDEC1
002326   ec5c     call	0x2ab8, 0           	CALL	_printi
002328   f015
00232a   6e10     movwf	0x10, 0            	MOVWF	r0x10
00232c   cff3     movff	0xff3, 0x11        	MOVFF	PRODL, r0x11
00232e   f011
002330   0e0f     movlw	0xf                	MOVLW	0x0f
002332   26e1     addwf	0xe1, 0x1, 0       	ADDWF	FSR1L, F
002334   5010     movf	0x10, 0, 0          	MOVF	r0x10, W
002336   2609     addwf	0x9, 0x1, 0        	ADDWF	r0x09, F
002338   5011     movf	0x11, 0, 0          	MOVF	r0x11, W
00233a   220a     addwfc	0xa, 0x1, 0       	ADDWFC	r0x0a, F
                                           ;	.line	182; /home/mandon/programmation/pinguino developpement/pinguino_beta9-05_linux/tools/bin/../share/sdcc/include/pic16/stdlib.c	continue;
00233c   d1e2     bra	0x2702               	BRA	_00240_DS_
                                           _00219_DS_:
                                           ;	.line	184; /home/mandon/programmation/pinguino developpement/pinguino_beta9-05_linux/tools/bin/../share/sdcc/include/pic16/stdlib.c	if( *format == 'x' )
00233e   500f     movf	0xf, 0, 0           	MOVF	r0x0f, W
002340   0a78     xorlw	0x78               	XORLW	0x78
002342   e001     bz	0x2346                	BZ	_00293_DS_
002344   d044     bra	0x23ce               	BRA	_00221_DS_
                                           _00293_DS_:
                                           ;	.line	186; /home/mandon/programmation/pinguino developpement/pinguino_beta9-05_linux/tools/bin/../share/sdcc/include/pic16/stdlib.c	pc += printi (out, va_arg(args, int), 16, 0, width, pad, 'a');
002346   5006     movf	0x6, 0, 0           	MOVF	r0x06, W
002348   0f02     addlw	0x2                	ADDLW	0x02
00234a   6e10     movwf	0x10, 0            	MOVWF	r0x10
00234c   0e00     movlw	0                  	MOVLW	0x00
00234e   2007     addwfc	0x7, 0, 0         	ADDWFC	r0x07, W
002350   6e11     movwf	0x11, 0            	MOVWF	r0x11
002352   0e00     movlw	0                  	MOVLW	0x00
002354   2008     addwfc	0x8, 0, 0         	ADDWFC	r0x08, W
002356   6e12     movwf	0x12, 0            	MOVWF	r0x12
002358   c010     movff	0x10, 0x6          	MOVFF	r0x10, r0x06
00235a   f006
00235c   c011     movff	0x11, 0x7          	MOVFF	r0x11, r0x07
00235e   f007
002360   c012     movff	0x12, 0x8          	MOVFF	r0x12, r0x08
002362   f008
002364   0efe     movlw	0xfe               	MOVLW	0xfe
002366   2610     addwf	0x10, 0x1, 0       	ADDWF	r0x10, F
002368   0eff     movlw	0xff               	MOVLW	0xff
00236a   2211     addwfc	0x11, 0x1, 0      	ADDWFC	r0x11, F
00236c   2212     addwfc	0x12, 0x1, 0      	ADDWFC	r0x12, F
00236e   c010     movff	0x10, 0xfe9        	MOVFF	r0x10, FSR0L
002370   ffe9
002372   c011     movff	0x11, 0xff3        	MOVFF	r0x11, PRODL
002374   fff3
002376   5012     movf	0x12, 0, 0          	MOVF	r0x12, W
002378   ec2b     call	0x56, 0             	CALL	__gptrget2
00237a   f000
00237c   6e10     movwf	0x10, 0            	MOVWF	r0x10
00237e   cff3     movff	0xff3, 0x11        	MOVFF	PRODL, r0x11
002380   f011
002382   6ae5     clrf	0xe5, 0             	CLRF	POSTDEC1
002384   0e61     movlw	0x61               	MOVLW	0x61
002386   6ee5     movwf	0xe5, 0            	MOVWF	POSTDEC1
002388   500c     movf	0xc, 0, 0           	MOVF	r0x0c, W
00238a   6ee5     movwf	0xe5, 0            	MOVWF	POSTDEC1
00238c   500b     movf	0xb, 0, 0           	MOVF	r0x0b, W
00238e   6ee5     movwf	0xe5, 0            	MOVWF	POSTDEC1
002390   500e     movf	0xe, 0, 0           	MOVF	r0x0e, W
002392   6ee5     movwf	0xe5, 0            	MOVWF	POSTDEC1
002394   500d     movf	0xd, 0, 0           	MOVF	r0x0d, W
002396   6ee5     movwf	0xe5, 0            	MOVWF	POSTDEC1
002398   6ae5     clrf	0xe5, 0             	CLRF	POSTDEC1
00239a   6ae5     clrf	0xe5, 0             	CLRF	POSTDEC1
00239c   6ae5     clrf	0xe5, 0             	CLRF	POSTDEC1
00239e   0e10     movlw	0x10               	MOVLW	0x10
0023a0   6ee5     movwf	0xe5, 0            	MOVWF	POSTDEC1
0023a2   5011     movf	0x11, 0, 0          	MOVF	r0x11, W
0023a4   6ee5     movwf	0xe5, 0            	MOVWF	POSTDEC1
0023a6   5010     movf	0x10, 0, 0          	MOVF	r0x10, W
0023a8   6ee5     movwf	0xe5, 0            	MOVWF	POSTDEC1
0023aa   5002     movf	0x2, 0, 0           	MOVF	r0x02, W
0023ac   6ee5     movwf	0xe5, 0            	MOVWF	POSTDEC1
0023ae   5001     movf	0x1, 0, 0           	MOVF	r0x01, W
0023b0   6ee5     movwf	0xe5, 0            	MOVWF	POSTDEC1
0023b2   5000     movf	0, 0, 0             	MOVF	r0x00, W
0023b4   6ee5     movwf	0xe5, 0            	MOVWF	POSTDEC1
0023b6   ec5c     call	0x2ab8, 0           	CALL	_printi
0023b8   f015
0023ba   6e10     movwf	0x10, 0            	MOVWF	r0x10
0023bc   cff3     movff	0xff3, 0x11        	MOVFF	PRODL, r0x11
0023be   f011
0023c0   0e0f     movlw	0xf                	MOVLW	0x0f
0023c2   26e1     addwf	0xe1, 0x1, 0       	ADDWF	FSR1L, F
0023c4   5010     movf	0x10, 0, 0          	MOVF	r0x10, W
0023c6   2609     addwf	0x9, 0x1, 0        	ADDWF	r0x09, F
0023c8   5011     movf	0x11, 0, 0          	MOVF	r0x11, W
0023ca   220a     addwfc	0xa, 0x1, 0       	ADDWFC	r0x0a, F
                                           ;	.line	187; /home/mandon/programmation/pinguino developpement/pinguino_beta9-05_linux/tools/bin/../share/sdcc/include/pic16/stdlib.c	continue;
0023cc   d19a     bra	0x2702               	BRA	_00240_DS_
                                           _00221_DS_:
                                           ;	.line	189; /home/mandon/programmation/pinguino developpement/pinguino_beta9-05_linux/tools/bin/../share/sdcc/include/pic16/stdlib.c	if( *format == 'X' )
0023ce   500f     movf	0xf, 0, 0           	MOVF	r0x0f, W
0023d0   0a58     xorlw	0x58               	XORLW	0x58
0023d2   e001     bz	0x23d6                	BZ	_00295_DS_
0023d4   d044     bra	0x245e               	BRA	_00223_DS_
                                           _00295_DS_:
                                           ;	.line	191; /home/mandon/programmation/pinguino developpement/pinguino_beta9-05_linux/tools/bin/../share/sdcc/include/pic16/stdlib.c	pc += printi (out, va_arg(args, int), 16, 0, width, pad, 'A');
0023d6   5006     movf	0x6, 0, 0           	MOVF	r0x06, W
0023d8   0f02     addlw	0x2                	ADDLW	0x02
0023da   6e10     movwf	0x10, 0            	MOVWF	r0x10
0023dc   0e00     movlw	0                  	MOVLW	0x00
0023de   2007     addwfc	0x7, 0, 0         	ADDWFC	r0x07, W
0023e0   6e11     movwf	0x11, 0            	MOVWF	r0x11
0023e2   0e00     movlw	0                  	MOVLW	0x00
0023e4   2008     addwfc	0x8, 0, 0         	ADDWFC	r0x08, W
0023e6   6e12     movwf	0x12, 0            	MOVWF	r0x12
0023e8   c010     movff	0x10, 0x6          	MOVFF	r0x10, r0x06
0023ea   f006
0023ec   c011     movff	0x11, 0x7          	MOVFF	r0x11, r0x07
0023ee   f007
0023f0   c012     movff	0x12, 0x8          	MOVFF	r0x12, r0x08
0023f2   f008
0023f4   0efe     movlw	0xfe               	MOVLW	0xfe
0023f6   2610     addwf	0x10, 0x1, 0       	ADDWF	r0x10, F
0023f8   0eff     movlw	0xff               	MOVLW	0xff
0023fa   2211     addwfc	0x11, 0x1, 0      	ADDWFC	r0x11, F
0023fc   2212     addwfc	0x12, 0x1, 0      	ADDWFC	r0x12, F
0023fe   c010     movff	0x10, 0xfe9        	MOVFF	r0x10, FSR0L
002400   ffe9
002402   c011     movff	0x11, 0xff3        	MOVFF	r0x11, PRODL
002404   fff3
002406   5012     movf	0x12, 0, 0          	MOVF	r0x12, W
002408   ec2b     call	0x56, 0             	CALL	__gptrget2
00240a   f000
00240c   6e10     movwf	0x10, 0            	MOVWF	r0x10
00240e   cff3     movff	0xff3, 0x11        	MOVFF	PRODL, r0x11
002410   f011
002412   6ae5     clrf	0xe5, 0             	CLRF	POSTDEC1
002414   0e41     movlw	0x41               	MOVLW	0x41
002416   6ee5     movwf	0xe5, 0            	MOVWF	POSTDEC1
002418   500c     movf	0xc, 0, 0           	MOVF	r0x0c, W
00241a   6ee5     movwf	0xe5, 0            	MOVWF	POSTDEC1
00241c   500b     movf	0xb, 0, 0           	MOVF	r0x0b, W
00241e   6ee5     movwf	0xe5, 0            	MOVWF	POSTDEC1
002420   500e     movf	0xe, 0, 0           	MOVF	r0x0e, W
002422   6ee5     movwf	0xe5, 0            	MOVWF	POSTDEC1
002424   500d     movf	0xd, 0, 0           	MOVF	r0x0d, W
002426   6ee5     movwf	0xe5, 0            	MOVWF	POSTDEC1
002428   6ae5     clrf	0xe5, 0             	CLRF	POSTDEC1
00242a   6ae5     clrf	0xe5, 0             	CLRF	POSTDEC1
00242c   6ae5     clrf	0xe5, 0             	CLRF	POSTDEC1
00242e   0e10     movlw	0x10               	MOVLW	0x10
002430   6ee5     movwf	0xe5, 0            	MOVWF	POSTDEC1
002432   5011     movf	0x11, 0, 0          	MOVF	r0x11, W
002434   6ee5     movwf	0xe5, 0            	MOVWF	POSTDEC1
002436   5010     movf	0x10, 0, 0          	MOVF	r0x10, W
002438   6ee5     movwf	0xe5, 0            	MOVWF	POSTDEC1
00243a   5002     movf	0x2, 0, 0           	MOVF	r0x02, W
00243c   6ee5     movwf	0xe5, 0            	MOVWF	POSTDEC1
00243e   5001     movf	0x1, 0, 0           	MOVF	r0x01, W
002440   6ee5     movwf	0xe5, 0            	MOVWF	POSTDEC1
002442   5000     movf	0, 0, 0             	MOVF	r0x00, W
002444   6ee5     movwf	0xe5, 0            	MOVWF	POSTDEC1
002446   ec5c     call	0x2ab8, 0           	CALL	_printi
002448   f015
00244a   6e10     movwf	0x10, 0            	MOVWF	r0x10
00244c   cff3     movff	0xff3, 0x11        	MOVFF	PRODL, r0x11
00244e   f011
002450   0e0f     movlw	0xf                	MOVLW	0x0f
002452   26e1     addwf	0xe1, 0x1, 0       	ADDWF	FSR1L, F
002454   5010     movf	0x10, 0, 0          	MOVF	r0x10, W
002456   2609     addwf	0x9, 0x1, 0        	ADDWF	r0x09, F
002458   5011     movf	0x11, 0, 0          	MOVF	r0x11, W
00245a   220a     addwfc	0xa, 0x1, 0       	ADDWFC	r0x0a, F
                                           ;	.line	192; /home/mandon/programmation/pinguino developpement/pinguino_beta9-05_linux/tools/bin/../share/sdcc/include/pic16/stdlib.c	continue;
00245c   d152     bra	0x2702               	BRA	_00240_DS_
                                           _00223_DS_:
                                           ;	.line	194; /home/mandon/programmation/pinguino developpement/pinguino_beta9-05_linux/tools/bin/../share/sdcc/include/pic16/stdlib.c	if( *format == 'b' )
00245e   500f     movf	0xf, 0, 0           	MOVF	r0x0f, W
002460   0a62     xorlw	0x62               	XORLW	0x62
002462   e001     bz	0x2466                	BZ	_00297_DS_
002464   d044     bra	0x24ee               	BRA	_00225_DS_
                                           _00297_DS_:
                                           ;	.line	196; /home/mandon/programmation/pinguino developpement/pinguino_beta9-05_linux/tools/bin/../share/sdcc/include/pic16/stdlib.c	pc += printi (out, va_arg(args, int), 2, 0, width, pad, 'a');
002466   5006     movf	0x6, 0, 0           	MOVF	r0x06, W
002468   0f02     addlw	0x2                	ADDLW	0x02
00246a   6e10     movwf	0x10, 0            	MOVWF	r0x10
00246c   0e00     movlw	0                  	MOVLW	0x00
00246e   2007     addwfc	0x7, 0, 0         	ADDWFC	r0x07, W
002470   6e11     movwf	0x11, 0            	MOVWF	r0x11
002472   0e00     movlw	0                  	MOVLW	0x00
002474   2008     addwfc	0x8, 0, 0         	ADDWFC	r0x08, W
002476   6e12     movwf	0x12, 0            	MOVWF	r0x12
002478   c010     movff	0x10, 0x6          	MOVFF	r0x10, r0x06
00247a   f006
00247c   c011     movff	0x11, 0x7          	MOVFF	r0x11, r0x07
00247e   f007
002480   c012     movff	0x12, 0x8          	MOVFF	r0x12, r0x08
002482   f008
002484   0efe     movlw	0xfe               	MOVLW	0xfe
002486   2610     addwf	0x10, 0x1, 0       	ADDWF	r0x10, F
002488   0eff     movlw	0xff               	MOVLW	0xff
00248a   2211     addwfc	0x11, 0x1, 0      	ADDWFC	r0x11, F
00248c   2212     addwfc	0x12, 0x1, 0      	ADDWFC	r0x12, F
00248e   c010     movff	0x10, 0xfe9        	MOVFF	r0x10, FSR0L
002490   ffe9
002492   c011     movff	0x11, 0xff3        	MOVFF	r0x11, PRODL
002494   fff3
002496   5012     movf	0x12, 0, 0          	MOVF	r0x12, W
002498   ec2b     call	0x56, 0             	CALL	__gptrget2
00249a   f000
00249c   6e10     movwf	0x10, 0            	MOVWF	r0x10
00249e   cff3     movff	0xff3, 0x11        	MOVFF	PRODL, r0x11
0024a0   f011
0024a2   6ae5     clrf	0xe5, 0             	CLRF	POSTDEC1
0024a4   0e61     movlw	0x61               	MOVLW	0x61
0024a6   6ee5     movwf	0xe5, 0            	MOVWF	POSTDEC1
0024a8   500c     movf	0xc, 0, 0           	MOVF	r0x0c, W
0024aa   6ee5     movwf	0xe5, 0            	MOVWF	POSTDEC1
0024ac   500b     movf	0xb, 0, 0           	MOVF	r0x0b, W
0024ae   6ee5     movwf	0xe5, 0            	MOVWF	POSTDEC1
0024b0   500e     movf	0xe, 0, 0           	MOVF	r0x0e, W
0024b2   6ee5     movwf	0xe5, 0            	MOVWF	POSTDEC1
0024b4   500d     movf	0xd, 0, 0           	MOVF	r0x0d, W
0024b6   6ee5     movwf	0xe5, 0            	MOVWF	POSTDEC1
0024b8   6ae5     clrf	0xe5, 0             	CLRF	POSTDEC1
0024ba   6ae5     clrf	0xe5, 0             	CLRF	POSTDEC1
0024bc   6ae5     clrf	0xe5, 0             	CLRF	POSTDEC1
0024be   0e02     movlw	0x2                	MOVLW	0x02
0024c0   6ee5     movwf	0xe5, 0            	MOVWF	POSTDEC1
0024c2   5011     movf	0x11, 0, 0          	MOVF	r0x11, W
0024c4   6ee5     movwf	0xe5, 0            	MOVWF	POSTDEC1
0024c6   5010     movf	0x10, 0, 0          	MOVF	r0x10, W
0024c8   6ee5     movwf	0xe5, 0            	MOVWF	POSTDEC1
0024ca   5002     movf	0x2, 0, 0           	MOVF	r0x02, W
0024cc   6ee5     movwf	0xe5, 0            	MOVWF	POSTDEC1
0024ce   5001     movf	0x1, 0, 0           	MOVF	r0x01, W
0024d0   6ee5     movwf	0xe5, 0            	MOVWF	POSTDEC1
0024d2   5000     movf	0, 0, 0             	MOVF	r0x00, W
0024d4   6ee5     movwf	0xe5, 0            	MOVWF	POSTDEC1
0024d6   ec5c     call	0x2ab8, 0           	CALL	_printi
0024d8   f015
0024da   6e10     movwf	0x10, 0            	MOVWF	r0x10
0024dc   cff3     movff	0xff3, 0x11        	MOVFF	PRODL, r0x11
0024de   f011
0024e0   0e0f     movlw	0xf                	MOVLW	0x0f
0024e2   26e1     addwf	0xe1, 0x1, 0       	ADDWF	FSR1L, F
0024e4   5010     movf	0x10, 0, 0          	MOVF	r0x10, W
0024e6   2609     addwf	0x9, 0x1, 0        	ADDWF	r0x09, F
0024e8   5011     movf	0x11, 0, 0          	MOVF	r0x11, W
0024ea   220a     addwfc	0xa, 0x1, 0       	ADDWFC	r0x0a, F
                                           ;	.line	197; /home/mandon/programmation/pinguino developpement/pinguino_beta9-05_linux/tools/bin/../share/sdcc/include/pic16/stdlib.c	continue;
0024ec   d10a     bra	0x2702               	BRA	_00240_DS_
                                           _00225_DS_:
                                           ;	.line	199; /home/mandon/programmation/pinguino developpement/pinguino_beta9-05_linux/tools/bin/../share/sdcc/include/pic16/stdlib.c	if( *format == 'o' )
0024ee   500f     movf	0xf, 0, 0           	MOVF	r0x0f, W
0024f0   0a6f     xorlw	0x6f               	XORLW	0x6f
0024f2   e001     bz	0x24f6                	BZ	_00299_DS_
0024f4   d044     bra	0x257e               	BRA	_00227_DS_
                                           _00299_DS_:
                                           ;	.line	201; /home/mandon/programmation/pinguino developpement/pinguino_beta9-05_linux/tools/bin/../share/sdcc/include/pic16/stdlib.c	pc += printi (out, va_arg(args, int), 8, 0, width, pad, 'a');
0024f6   5006     movf	0x6, 0, 0           	MOVF	r0x06, W
0024f8   0f02     addlw	0x2                	ADDLW	0x02
0024fa   6e10     movwf	0x10, 0            	MOVWF	r0x10
0024fc   0e00     movlw	0                  	MOVLW	0x00
0024fe   2007     addwfc	0x7, 0, 0         	ADDWFC	r0x07, W
002500   6e11     movwf	0x11, 0            	MOVWF	r0x11
002502   0e00     movlw	0                  	MOVLW	0x00
002504   2008     addwfc	0x8, 0, 0         	ADDWFC	r0x08, W
002506   6e12     movwf	0x12, 0            	MOVWF	r0x12
002508   c010     movff	0x10, 0x6          	MOVFF	r0x10, r0x06
00250a   f006
00250c   c011     movff	0x11, 0x7          	MOVFF	r0x11, r0x07
00250e   f007
002510   c012     movff	0x12, 0x8          	MOVFF	r0x12, r0x08
002512   f008
002514   0efe     movlw	0xfe               	MOVLW	0xfe
002516   2610     addwf	0x10, 0x1, 0       	ADDWF	r0x10, F
002518   0eff     movlw	0xff               	MOVLW	0xff
00251a   2211     addwfc	0x11, 0x1, 0      	ADDWFC	r0x11, F
00251c   2212     addwfc	0x12, 0x1, 0      	ADDWFC	r0x12, F
00251e   c010     movff	0x10, 0xfe9        	MOVFF	r0x10, FSR0L
002520   ffe9
002522   c011     movff	0x11, 0xff3        	MOVFF	r0x11, PRODL
002524   fff3
002526   5012     movf	0x12, 0, 0          	MOVF	r0x12, W
002528   ec2b     call	0x56, 0             	CALL	__gptrget2
00252a   f000
00252c   6e10     movwf	0x10, 0            	MOVWF	r0x10
00252e   cff3     movff	0xff3, 0x11        	MOVFF	PRODL, r0x11
002530   f011
002532   6ae5     clrf	0xe5, 0             	CLRF	POSTDEC1
002534   0e61     movlw	0x61               	MOVLW	0x61
002536   6ee5     movwf	0xe5, 0            	MOVWF	POSTDEC1
002538   500c     movf	0xc, 0, 0           	MOVF	r0x0c, W
00253a   6ee5     movwf	0xe5, 0            	MOVWF	POSTDEC1
00253c   500b     movf	0xb, 0, 0           	MOVF	r0x0b, W
00253e   6ee5     movwf	0xe5, 0            	MOVWF	POSTDEC1
002540   500e     movf	0xe, 0, 0           	MOVF	r0x0e, W
002542   6ee5     movwf	0xe5, 0            	MOVWF	POSTDEC1
002544   500d     movf	0xd, 0, 0           	MOVF	r0x0d, W
002546   6ee5     movwf	0xe5, 0            	MOVWF	POSTDEC1
002548   6ae5     clrf	0xe5, 0             	CLRF	POSTDEC1
00254a   6ae5     clrf	0xe5, 0             	CLRF	POSTDEC1
00254c   6ae5     clrf	0xe5, 0             	CLRF	POSTDEC1
00254e   0e08     movlw	0x8                	MOVLW	0x08
002550   6ee5     movwf	0xe5, 0            	MOVWF	POSTDEC1
002552   5011     movf	0x11, 0, 0          	MOVF	r0x11, W
002554   6ee5     movwf	0xe5, 0            	MOVWF	POSTDEC1
002556   5010     movf	0x10, 0, 0          	MOVF	r0x10, W
002558   6ee5     movwf	0xe5, 0            	MOVWF	POSTDEC1
00255a   5002     movf	0x2, 0, 0           	MOVF	r0x02, W
00255c   6ee5     movwf	0xe5, 0            	MOVWF	POSTDEC1
00255e   5001     movf	0x1, 0, 0           	MOVF	r0x01, W
002560   6ee5     movwf	0xe5, 0            	MOVWF	POSTDEC1
002562   5000     movf	0, 0, 0             	MOVF	r0x00, W
002564   6ee5     movwf	0xe5, 0            	MOVWF	POSTDEC1
002566   ec5c     call	0x2ab8, 0           	CALL	_printi
002568   f015
00256a   6e10     movwf	0x10, 0            	MOVWF	r0x10
00256c   cff3     movff	0xff3, 0x11        	MOVFF	PRODL, r0x11
00256e   f011
002570   0e0f     movlw	0xf                	MOVLW	0x0f
002572   26e1     addwf	0xe1, 0x1, 0       	ADDWF	FSR1L, F
002574   5010     movf	0x10, 0, 0          	MOVF	r0x10, W
002576   2609     addwf	0x9, 0x1, 0        	ADDWF	r0x09, F
002578   5011     movf	0x11, 0, 0          	MOVF	r0x11, W
00257a   220a     addwfc	0xa, 0x1, 0       	ADDWFC	r0x0a, F
                                           ;	.line	202; /home/mandon/programmation/pinguino developpement/pinguino_beta9-05_linux/tools/bin/../share/sdcc/include/pic16/stdlib.c	continue;
00257c   d0c2     bra	0x2702               	BRA	_00240_DS_
                                           _00227_DS_:
                                           ;	.line	204; /home/mandon/programmation/pinguino developpement/pinguino_beta9-05_linux/tools/bin/../share/sdcc/include/pic16/stdlib.c	if( *format == 'u' )
00257e   500f     movf	0xf, 0, 0           	MOVF	r0x0f, W
002580   0a75     xorlw	0x75               	XORLW	0x75
002582   e001     bz	0x2586                	BZ	_00301_DS_
002584   d044     bra	0x260e               	BRA	_00229_DS_
                                           _00301_DS_:
                                           ;	.line	206; /home/mandon/programmation/pinguino developpement/pinguino_beta9-05_linux/tools/bin/../share/sdcc/include/pic16/stdlib.c	pc += printi (out, va_arg(args, int), 10, 0, width, pad, 'a');
002586   5006     movf	0x6, 0, 0           	MOVF	r0x06, W
002588   0f02     addlw	0x2                	ADDLW	0x02
00258a   6e10     movwf	0x10, 0            	MOVWF	r0x10
00258c   0e00     movlw	0                  	MOVLW	0x00
00258e   2007     addwfc	0x7, 0, 0         	ADDWFC	r0x07, W
002590   6e11     movwf	0x11, 0            	MOVWF	r0x11
002592   0e00     movlw	0                  	MOVLW	0x00
002594   2008     addwfc	0x8, 0, 0         	ADDWFC	r0x08, W
002596   6e12     movwf	0x12, 0            	MOVWF	r0x12
002598   c010     movff	0x10, 0x6          	MOVFF	r0x10, r0x06
00259a   f006
00259c   c011     movff	0x11, 0x7          	MOVFF	r0x11, r0x07
00259e   f007
0025a0   c012     movff	0x12, 0x8          	MOVFF	r0x12, r0x08
0025a2   f008
0025a4   0efe     movlw	0xfe               	MOVLW	0xfe
0025a6   2610     addwf	0x10, 0x1, 0       	ADDWF	r0x10, F
0025a8   0eff     movlw	0xff               	MOVLW	0xff
0025aa   2211     addwfc	0x11, 0x1, 0      	ADDWFC	r0x11, F
0025ac   2212     addwfc	0x12, 0x1, 0      	ADDWFC	r0x12, F
0025ae   c010     movff	0x10, 0xfe9        	MOVFF	r0x10, FSR0L
0025b0   ffe9
0025b2   c011     movff	0x11, 0xff3        	MOVFF	r0x11, PRODL
0025b4   fff3
0025b6   5012     movf	0x12, 0, 0          	MOVF	r0x12, W
0025b8   ec2b     call	0x56, 0             	CALL	__gptrget2
0025ba   f000
0025bc   6e10     movwf	0x10, 0            	MOVWF	r0x10
0025be   cff3     movff	0xff3, 0x11        	MOVFF	PRODL, r0x11
0025c0   f011
0025c2   6ae5     clrf	0xe5, 0             	CLRF	POSTDEC1
0025c4   0e61     movlw	0x61               	MOVLW	0x61
0025c6   6ee5     movwf	0xe5, 0            	MOVWF	POSTDEC1
0025c8   500c     movf	0xc, 0, 0           	MOVF	r0x0c, W
0025ca   6ee5     movwf	0xe5, 0            	MOVWF	POSTDEC1
0025cc   500b     movf	0xb, 0, 0           	MOVF	r0x0b, W
0025ce   6ee5     movwf	0xe5, 0            	MOVWF	POSTDEC1
0025d0   500e     movf	0xe, 0, 0           	MOVF	r0x0e, W
0025d2   6ee5     movwf	0xe5, 0            	MOVWF	POSTDEC1
0025d4   500d     movf	0xd, 0, 0           	MOVF	r0x0d, W
0025d6   6ee5     movwf	0xe5, 0            	MOVWF	POSTDEC1
0025d8   6ae5     clrf	0xe5, 0             	CLRF	POSTDEC1
0025da   6ae5     clrf	0xe5, 0             	CLRF	POSTDEC1
0025dc   6ae5     clrf	0xe5, 0             	CLRF	POSTDEC1
0025de   0e0a     movlw	0xa                	MOVLW	0x0a
0025e0   6ee5     movwf	0xe5, 0            	MOVWF	POSTDEC1
0025e2   5011     movf	0x11, 0, 0          	MOVF	r0x11, W
0025e4   6ee5     movwf	0xe5, 0            	MOVWF	POSTDEC1
0025e6   5010     movf	0x10, 0, 0          	MOVF	r0x10, W
0025e8   6ee5     movwf	0xe5, 0            	MOVWF	POSTDEC1
0025ea   5002     movf	0x2, 0, 0           	MOVF	r0x02, W
0025ec   6ee5     movwf	0xe5, 0            	MOVWF	POSTDEC1
0025ee   5001     movf	0x1, 0, 0           	MOVF	r0x01, W
0025f0   6ee5     movwf	0xe5, 0            	MOVWF	POSTDEC1
0025f2   5000     movf	0, 0, 0             	MOVF	r0x00, W
0025f4   6ee5     movwf	0xe5, 0            	MOVWF	POSTDEC1
0025f6   ec5c     call	0x2ab8, 0           	CALL	_printi
0025f8   f015
0025fa   6e10     movwf	0x10, 0            	MOVWF	r0x10
0025fc   cff3     movff	0xff3, 0x11        	MOVFF	PRODL, r0x11
0025fe   f011
002600   0e0f     movlw	0xf                	MOVLW	0x0f
002602   26e1     addwf	0xe1, 0x1, 0       	ADDWF	FSR1L, F
002604   5010     movf	0x10, 0, 0          	MOVF	r0x10, W
002606   2609     addwf	0x9, 0x1, 0        	ADDWF	r0x09, F
002608   5011     movf	0x11, 0, 0          	MOVF	r0x11, W
00260a   220a     addwfc	0xa, 0x1, 0       	ADDWFC	r0x0a, F
                                           ;	.line	207; /home/mandon/programmation/pinguino developpement/pinguino_beta9-05_linux/tools/bin/../share/sdcc/include/pic16/stdlib.c	continue;
00260c   d07a     bra	0x2702               	BRA	_00240_DS_
                                           _00229_DS_:
                                           ;	.line	209; /home/mandon/programmation/pinguino developpement/pinguino_beta9-05_linux/tools/bin/../share/sdcc/include/pic16/stdlib.c	if( *format == 'c' )
00260e   500f     movf	0xf, 0, 0           	MOVF	r0x0f, W
002610   0a63     xorlw	0x63               	XORLW	0x63
002612   e001     bz	0x2616                	BZ	_00303_DS_
002614   d03e     bra	0x2692               	BRA	_00231_DS_
                                           _00303_DS_:
                                           ;	.line	212; /home/mandon/programmation/pinguino developpement/pinguino_beta9-05_linux/tools/bin/../share/sdcc/include/pic16/stdlib.c	scr[0] = (char)va_arg( args, int);
002616   5006     movf	0x6, 0, 0           	MOVF	r0x06, W
002618   0f02     addlw	0x2                	ADDLW	0x02
00261a   6e10     movwf	0x10, 0            	MOVWF	r0x10
00261c   0e00     movlw	0                  	MOVLW	0x00
00261e   2007     addwfc	0x7, 0, 0         	ADDWFC	r0x07, W
002620   6e11     movwf	0x11, 0            	MOVWF	r0x11
002622   0e00     movlw	0                  	MOVLW	0x00
002624   2008     addwfc	0x8, 0, 0         	ADDWFC	r0x08, W
002626   6e12     movwf	0x12, 0            	MOVWF	r0x12
002628   c010     movff	0x10, 0x6          	MOVFF	r0x10, r0x06
00262a   f006
00262c   c011     movff	0x11, 0x7          	MOVFF	r0x11, r0x07
00262e   f007
002630   c012     movff	0x12, 0x8          	MOVFF	r0x12, r0x08
002632   f008
002634   0efe     movlw	0xfe               	MOVLW	0xfe
002636   2610     addwf	0x10, 0x1, 0       	ADDWF	r0x10, F
002638   0eff     movlw	0xff               	MOVLW	0xff
00263a   2211     addwfc	0x11, 0x1, 0      	ADDWFC	r0x11, F
00263c   2212     addwfc	0x12, 0x1, 0      	ADDWFC	r0x12, F
00263e   c010     movff	0x10, 0xfe9        	MOVFF	r0x10, FSR0L
002640   ffe9
002642   c011     movff	0x11, 0xff3        	MOVFF	r0x11, PRODL
002644   fff3
002646   5012     movf	0x12, 0, 0          	MOVF	r0x12, W
002648   ec2b     call	0x56, 0             	CALL	__gptrget2
00264a   f000
00264c   0102     movlb	0x2                	BANKSEL	_print_scr_1_1
00264e   6f95     movwf	0x95, 0x1          	MOVWF	_print_scr_1_1, B
                                           ; removed redundant BANKSEL
                                           ;	.line	214; /home/mandon/programmation/pinguino developpement/pinguino_beta9-05_linux/tools/bin/../share/sdcc/include/pic16/stdlib.c	scr[1] = '\0';
002650   6b96     clrf	0x96, 0x1           	CLRF	(_print_scr_1_1 + 1), B
                                           ;	.line	215; /home/mandon/programmation/pinguino developpement/pinguino_beta9-05_linux/tools/bin/../share/sdcc/include/pic16/stdlib.c	pc += prints (out, scr, width, pad);
002652   500c     movf	0xc, 0, 0           	MOVF	r0x0c, W
002654   6ee5     movwf	0xe5, 0            	MOVWF	POSTDEC1
002656   500b     movf	0xb, 0, 0           	MOVF	r0x0b, W
002658   6ee5     movwf	0xe5, 0            	MOVWF	POSTDEC1
00265a   500e     movf	0xe, 0, 0           	MOVF	r0x0e, W
00265c   6ee5     movwf	0xe5, 0            	MOVWF	POSTDEC1
00265e   500d     movf	0xd, 0, 0           	MOVF	r0x0d, W
002660   6ee5     movwf	0xe5, 0            	MOVWF	POSTDEC1
002662   0e80     movlw	0x80               	MOVLW	0x80
002664   6ee5     movwf	0xe5, 0            	MOVWF	POSTDEC1
002666   0e02     movlw	0x2                	MOVLW	HIGH(_print_scr_1_1)
002668   6ee5     movwf	0xe5, 0            	MOVWF	POSTDEC1
00266a   0e95     movlw	0x95               	MOVLW	LOW(_print_scr_1_1)
00266c   6ee5     movwf	0xe5, 0            	MOVWF	POSTDEC1
00266e   5002     movf	0x2, 0, 0           	MOVF	r0x02, W
002670   6ee5     movwf	0xe5, 0            	MOVWF	POSTDEC1
002672   5001     movf	0x1, 0, 0           	MOVF	r0x01, W
002674   6ee5     movwf	0xe5, 0            	MOVWF	POSTDEC1
002676   5000     movf	0, 0, 0             	MOVF	r0x00, W
002678   6ee5     movwf	0xe5, 0            	MOVWF	POSTDEC1
00267a   ec6d     call	0x30da, 0           	CALL	_prints
00267c   f018
00267e   6e10     movwf	0x10, 0            	MOVWF	r0x10
002680   cff3     movff	0xff3, 0x11        	MOVFF	PRODL, r0x11
002682   f011
002684   0e0a     movlw	0xa                	MOVLW	0x0a
002686   26e1     addwf	0xe1, 0x1, 0       	ADDWF	FSR1L, F
002688   5010     movf	0x10, 0, 0          	MOVF	r0x10, W
00268a   2609     addwf	0x9, 0x1, 0        	ADDWF	r0x09, F
00268c   5011     movf	0x11, 0, 0          	MOVF	r0x11, W
00268e   220a     addwfc	0xa, 0x1, 0       	ADDWFC	r0x0a, F
                                           ;	.line	216; /home/mandon/programmation/pinguino developpement/pinguino_beta9-05_linux/tools/bin/../share/sdcc/include/pic16/stdlib.c	continue;
002690   d038     bra	0x2702               	BRA	_00240_DS_
                                           _00231_DS_:
                                           ;	.line	218; /home/mandon/programmation/pinguino developpement/pinguino_beta9-05_linux/tools/bin/../share/sdcc/include/pic16/stdlib.c	if( *format == 'f' )
002692   500f     movf	0xf, 0, 0           	MOVF	r0x0f, W
002694   0a66     xorlw	0x66               	XORLW	0x66
002696   e135     bnz	0x2702               	BNZ	_00240_DS_
                                           ;	.line	220; /home/mandon/programmation/pinguino developpement/pinguino_beta9-05_linux/tools/bin/../share/sdcc/include/pic16/stdlib.c	pc += prints (out, "not yet implemented\0", width, pad);
002698   500c     movf	0xc, 0, 0           	MOVF	r0x0c, W
00269a   6ee5     movwf	0xe5, 0            	MOVWF	POSTDEC1
00269c   500b     movf	0xb, 0, 0           	MOVF	r0x0b, W
00269e   6ee5     movwf	0xe5, 0            	MOVWF	POSTDEC1
0026a0   500e     movf	0xe, 0, 0           	MOVF	r0x0e, W
0026a2   6ee5     movwf	0xe5, 0            	MOVWF	POSTDEC1
0026a4   500d     movf	0xd, 0, 0           	MOVF	r0x0d, W
0026a6   6ee5     movwf	0xe5, 0            	MOVWF	POSTDEC1
0026a8   0e00     movlw	0                  	MOVLW	UPPER(__str_1)
0026aa   6ee5     movwf	0xe5, 0            	MOVWF	POSTDEC1
0026ac   0e35     movlw	0x35               	MOVLW	HIGH(__str_1)
0026ae   6ee5     movwf	0xe5, 0            	MOVWF	POSTDEC1
0026b0   0ef8     movlw	0xf8               	MOVLW	LOW(__str_1)
0026b2   6ee5     movwf	0xe5, 0            	MOVWF	POSTDEC1
0026b4   5002     movf	0x2, 0, 0           	MOVF	r0x02, W
0026b6   6ee5     movwf	0xe5, 0            	MOVWF	POSTDEC1
0026b8   5001     movf	0x1, 0, 0           	MOVF	r0x01, W
0026ba   6ee5     movwf	0xe5, 0            	MOVWF	POSTDEC1
0026bc   5000     movf	0, 0, 0             	MOVF	r0x00, W
0026be   6ee5     movwf	0xe5, 0            	MOVWF	POSTDEC1
0026c0   ec6d     call	0x30da, 0           	CALL	_prints
0026c2   f018
0026c4   6e0b     movwf	0xb, 0             	MOVWF	r0x0b
0026c6   cff3     movff	0xff3, 0xc         	MOVFF	PRODL, r0x0c
0026c8   f00c
0026ca   0e0a     movlw	0xa                	MOVLW	0x0a
0026cc   26e1     addwf	0xe1, 0x1, 0       	ADDWF	FSR1L, F
0026ce   500b     movf	0xb, 0, 0           	MOVF	r0x0b, W
0026d0   2609     addwf	0x9, 0x1, 0        	ADDWF	r0x09, F
0026d2   500c     movf	0xc, 0, 0           	MOVF	r0x0c, W
0026d4   220a     addwfc	0xa, 0x1, 0       	ADDWFC	r0x0a, F
                                           ;	.line	221; /home/mandon/programmation/pinguino developpement/pinguino_beta9-05_linux/tools/bin/../share/sdcc/include/pic16/stdlib.c	continue;
0026d6   d015     bra	0x2702               	BRA	_00240_DS_
                                           _00234_DS_:
                                           ;	.line	227; /home/mandon/programmation/pinguino developpement/pinguino_beta9-05_linux/tools/bin/../share/sdcc/include/pic16/stdlib.c	printchar (out, *format);
0026d8   c003     movff	0x3, 0xfe9         	MOVFF	r0x03, FSR0L
0026da   ffe9
0026dc   c004     movff	0x4, 0xff3         	MOVFF	r0x04, PRODL
0026de   fff3
0026e0   5005     movf	0x5, 0, 0           	MOVF	r0x05, W
0026e2   ec29     call	0x52, 0             	CALL	__gptrget1
0026e4   f000
                                           ; #	MOVWF	r0x0b
                                           ; #	MOVF	r0x0b, W
0026e6   6ee5     movwf	0xe5, 0            	MOVWF	POSTDEC1
0026e8   5002     movf	0x2, 0, 0           	MOVF	r0x02, W
0026ea   6ee5     movwf	0xe5, 0            	MOVWF	POSTDEC1
0026ec   5001     movf	0x1, 0, 0           	MOVF	r0x01, W
0026ee   6ee5     movwf	0xe5, 0            	MOVWF	POSTDEC1
0026f0   5000     movf	0, 0, 0             	MOVF	r0x00, W
0026f2   6ee5     movwf	0xe5, 0            	MOVWF	POSTDEC1
0026f4   ec86     call	0x350c, 0           	CALL	_printchar
0026f6   f01a
0026f8   0e04     movlw	0x4                	MOVLW	0x04
0026fa   26e1     addwf	0xe1, 0x1, 0       	ADDWF	FSR1L, F
                                           ;	.line	228; /home/mandon/programmation/pinguino developpement/pinguino_beta9-05_linux/tools/bin/../share/sdcc/include/pic16/stdlib.c	++pc;
0026fc   2a09     incf	0x9, 0x1, 0         	INCF	r0x09, F
0026fe   b0d8     btfsc	0xd8, 0, 0         	BTFSC	STATUS, 0
002700   2a0a     incf	0xa, 0x1, 0         	INCF	r0x0a, F
                                           _00240_DS_:
                                           ;	.line	148; /home/mandon/programmation/pinguino developpement/pinguino_beta9-05_linux/tools/bin/../share/sdcc/include/pic16/stdlib.c	for (; *format != 0; ++format)
002702   2a03     incf	0x3, 0x1, 0         	INCF	r0x03, F
002704   b0d8     btfsc	0xd8, 0, 0         	BTFSC	STATUS, 0
002706   2a04     incf	0x4, 0x1, 0         	INCF	r0x04, F
002708   b0d8     btfsc	0xd8, 0, 0         	BTFSC	STATUS, 0
00270a   2a05     incf	0x5, 0x1, 0         	INCF	r0x05, F
00270c   ef81     goto	0x2102              	GOTO	_00238_DS_
00270e   f010
                                           _00241_DS_:
                                           ;	.line	231; /home/mandon/programmation/pinguino developpement/pinguino_beta9-05_linux/tools/bin/../share/sdcc/include/pic16/stdlib.c	if (out) **out = '\0';
002710   5000     movf	0, 0, 0             	MOVF	r0x00, W
002712   1001     iorwf	0x1, 0, 0          	IORWF	r0x01, W
002714   1002     iorwf	0x2, 0, 0          	IORWF	r0x02, W
002716   e014     bz	0x2740                	BZ	_00243_DS_
002718   c000     movff	0, 0xfe9           	MOVFF	r0x00, FSR0L
00271a   ffe9
00271c   c001     movff	0x1, 0xff3         	MOVFF	r0x01, PRODL
00271e   fff3
002720   5002     movf	0x2, 0, 0           	MOVF	r0x02, W
002722   ec2d     call	0x5a, 0             	CALL	__gptrget3
002724   f000
002726   6e00     movwf	0, 0               	MOVWF	r0x00
002728   cff3     movff	0xff3, 0x1         	MOVFF	PRODL, r0x01
00272a   f001
00272c   cff4     movff	0xff4, 0x2         	MOVFF	PRODH, r0x02
00272e   f002
002730   6ae5     clrf	0xe5, 0             	CLRF	POSTDEC1
002732   c000     movff	0, 0xfe9           	MOVFF	r0x00, FSR0L
002734   ffe9
002736   c001     movff	0x1, 0xff3         	MOVFF	r0x01, PRODL
002738   fff3
00273a   5002     movf	0x2, 0, 0           	MOVF	r0x02, W
00273c   ec31     call	0x62, 0             	CALL	__gptrput1
00273e   f000
                                           _00243_DS_:
                                           ;	.line	233; /home/mandon/programmation/pinguino developpement/pinguino_beta9-05_linux/tools/bin/../share/sdcc/include/pic16/stdlib.c	return pc;
002740   c00a     movff	0xa, 0xff3         	MOVFF	r0x0a, PRODL
002742   fff3
002744   5009     movf	0x9, 0, 0           	MOVF	r0x09, W
002746   cfe4     movff	0xfe4, 0x13        	MOVFF	PREINC1, r0x13
002748   f013
00274a   cfe4     movff	0xfe4, 0x12        	MOVFF	PREINC1, r0x12
00274c   f012
00274e   cfe4     movff	0xfe4, 0x11        	MOVFF	PREINC1, r0x11
002750   f011
002752   cfe4     movff	0xfe4, 0x10        	MOVFF	PREINC1, r0x10
002754   f010
002756   cfe4     movff	0xfe4, 0xf         	MOVFF	PREINC1, r0x0f
002758   f00f
00275a   cfe4     movff	0xfe4, 0xe         	MOVFF	PREINC1, r0x0e
00275c   f00e
00275e   cfe4     movff	0xfe4, 0xd         	MOVFF	PREINC1, r0x0d
002760   f00d
002762   cfe4     movff	0xfe4, 0xc         	MOVFF	PREINC1, r0x0c
002764   f00c
002766   cfe4     movff	0xfe4, 0xb         	MOVFF	PREINC1, r0x0b
002768   f00b
00276a   cfe4     movff	0xfe4, 0xa         	MOVFF	PREINC1, r0x0a
00276c   f00a
00276e   cfe4     movff	0xfe4, 0x9         	MOVFF	PREINC1, r0x09
002770   f009
002772   cfe4     movff	0xfe4, 0x8         	MOVFF	PREINC1, r0x08
002774   f008
002776   cfe4     movff	0xfe4, 0x7         	MOVFF	PREINC1, r0x07
002778   f007
00277a   cfe4     movff	0xfe4, 0x6         	MOVFF	PREINC1, r0x06
00277c   f006
00277e   cfe4     movff	0xfe4, 0x5         	MOVFF	PREINC1, r0x05
002780   f005
002782   cfe4     movff	0xfe4, 0x4         	MOVFF	PREINC1, r0x04
002784   f004
002786   cfe4     movff	0xfe4, 0x3         	MOVFF	PREINC1, r0x03
002788   f003
00278a   cfe4     movff	0xfe4, 0x2         	MOVFF	PREINC1, r0x02
00278c   f002
00278e   cfe4     movff	0xfe4, 0x1         	MOVFF	PREINC1, r0x01
002790   f001
002792   cfe4     movff	0xfe4, 0           	MOVFF	PREINC1, r0x00
002794   f000
002796   cfe4     movff	0xfe4, 0xfd9       	MOVFF	PREINC1, FSR2L
002798   ffd9
00279a   0012     return	0                 	RETURN	
                                           
                                           ; ; Starting pCode block
                                           S_main__printi	code
                                           _printi:
                                           ;	.line	92; /home/mandon/programmation/pinguino developpement/pinguino_beta9-05_linux/tools/bin/../share/sdcc/include/pic16/stdlib.c	static int printi(char **out, int i, int b, int sg, int width, int pad, int letbase)
002ab8   cfd9     movff	0xfd9, 0xfe5       	MOVFF	FSR2L, POSTDEC1
002aba   ffe5
002abc   cfe1     movff	0xfe1, 0xfd9       	MOVFF	FSR1L, FSR2L
002abe   ffd9
002ac0   c000     movff	0, 0xfe5           	MOVFF	r0x00, POSTDEC1
002ac2   ffe5
002ac4   c001     movff	0x1, 0xfe5         	MOVFF	r0x01, POSTDEC1
002ac6   ffe5
002ac8   c002     movff	0x2, 0xfe5         	MOVFF	r0x02, POSTDEC1
002aca   ffe5
002acc   c003     movff	0x3, 0xfe5         	MOVFF	r0x03, POSTDEC1
002ace   ffe5
002ad0   c004     movff	0x4, 0xfe5         	MOVFF	r0x04, POSTDEC1
002ad2   ffe5
002ad4   c005     movff	0x5, 0xfe5         	MOVFF	r0x05, POSTDEC1
002ad6   ffe5
002ad8   c006     movff	0x6, 0xfe5         	MOVFF	r0x06, POSTDEC1
002ada   ffe5
002adc   c007     movff	0x7, 0xfe5         	MOVFF	r0x07, POSTDEC1
002ade   ffe5
002ae0   c008     movff	0x8, 0xfe5         	MOVFF	r0x08, POSTDEC1
002ae2   ffe5
002ae4   c009     movff	0x9, 0xfe5         	MOVFF	r0x09, POSTDEC1
002ae6   ffe5
002ae8   c00a     movff	0xa, 0xfe5         	MOVFF	r0x0a, POSTDEC1
002aea   ffe5
002aec   c00b     movff	0xb, 0xfe5         	MOVFF	r0x0b, POSTDEC1
002aee   ffe5
002af0   c00c     movff	0xc, 0xfe5         	MOVFF	r0x0c, POSTDEC1
002af2   ffe5
002af4   c00d     movff	0xd, 0xfe5         	MOVFF	r0x0d, POSTDEC1
002af6   ffe5
002af8   c00e     movff	0xe, 0xfe5         	MOVFF	r0x0e, POSTDEC1
002afa   ffe5
002afc   c00f     movff	0xf, 0xfe5         	MOVFF	r0x0f, POSTDEC1
002afe   ffe5
002b00   c010     movff	0x10, 0xfe5        	MOVFF	r0x10, POSTDEC1
002b02   ffe5
002b04   c011     movff	0x11, 0xfe5        	MOVFF	r0x11, POSTDEC1
002b06   ffe5
002b08   c012     movff	0x12, 0xfe5        	MOVFF	r0x12, POSTDEC1
002b0a   ffe5
002b0c   c013     movff	0x13, 0xfe5        	MOVFF	r0x13, POSTDEC1
002b0e   ffe5
002b10   c014     movff	0x14, 0xfe5        	MOVFF	r0x14, POSTDEC1
002b12   ffe5
002b14   c015     movff	0x15, 0xfe5        	MOVFF	r0x15, POSTDEC1
002b16   ffe5
002b18   c016     movff	0x16, 0xfe5        	MOVFF	r0x16, POSTDEC1
002b1a   ffe5
002b1c   c017     movff	0x17, 0xfe5        	MOVFF	r0x17, POSTDEC1
002b1e   ffe5
002b20   c018     movff	0x18, 0xfe5        	MOVFF	r0x18, POSTDEC1
002b22   ffe5
002b24   c019     movff	0x19, 0xfe5        	MOVFF	r0x19, POSTDEC1
002b26   ffe5
002b28   c01a     movff	0x1a, 0xfe5        	MOVFF	r0x1a, POSTDEC1
002b2a   ffe5
002b2c   0e02     movlw	0x2                	MOVLW	0x02
002b2e   cfdb     movff	0xfdb, 0           	MOVFF	PLUSW2, r0x00
002b30   f000
002b32   0e03     movlw	0x3                	MOVLW	0x03
002b34   cfdb     movff	0xfdb, 0x1         	MOVFF	PLUSW2, r0x01
002b36   f001
002b38   0e04     movlw	0x4                	MOVLW	0x04
002b3a   cfdb     movff	0xfdb, 0x2         	MOVFF	PLUSW2, r0x02
002b3c   f002
002b3e   0e05     movlw	0x5                	MOVLW	0x05
002b40   cfdb     movff	0xfdb, 0x3         	MOVFF	PLUSW2, r0x03
002b42   f003
002b44   0e06     movlw	0x6                	MOVLW	0x06
002b46   cfdb     movff	0xfdb, 0x4         	MOVFF	PLUSW2, r0x04
002b48   f004
002b4a   0e07     movlw	0x7                	MOVLW	0x07
002b4c   cfdb     movff	0xfdb, 0x5         	MOVFF	PLUSW2, r0x05
002b4e   f005
002b50   0e08     movlw	0x8                	MOVLW	0x08
002b52   cfdb     movff	0xfdb, 0x6         	MOVFF	PLUSW2, r0x06
002b54   f006
002b56   0e09     movlw	0x9                	MOVLW	0x09
002b58   cfdb     movff	0xfdb, 0x7         	MOVFF	PLUSW2, r0x07
002b5a   f007
002b5c   0e0a     movlw	0xa                	MOVLW	0x0a
002b5e   cfdb     movff	0xfdb, 0x8         	MOVFF	PLUSW2, r0x08
002b60   f008
002b62   0e0b     movlw	0xb                	MOVLW	0x0b
002b64   cfdb     movff	0xfdb, 0x9         	MOVFF	PLUSW2, r0x09
002b66   f009
002b68   0e0c     movlw	0xc                	MOVLW	0x0c
002b6a   cfdb     movff	0xfdb, 0xa         	MOVFF	PLUSW2, r0x0a
002b6c   f00a
002b6e   0e0d     movlw	0xd                	MOVLW	0x0d
002b70   cfdb     movff	0xfdb, 0xb         	MOVFF	PLUSW2, r0x0b
002b72   f00b
002b74   0e0e     movlw	0xe                	MOVLW	0x0e
002b76   cfdb     movff	0xfdb, 0xc         	MOVFF	PLUSW2, r0x0c
002b78   f00c
002b7a   0e0f     movlw	0xf                	MOVLW	0x0f
002b7c   cfdb     movff	0xfdb, 0xd         	MOVFF	PLUSW2, r0x0d
002b7e   f00d
002b80   0e10     movlw	0x10               	MOVLW	0x10
002b82   cfdb     movff	0xfdb, 0xe         	MOVFF	PLUSW2, r0x0e
002b84   f00e
                                           ;	.line	96; /home/mandon/programmation/pinguino developpement/pinguino_beta9-05_linux/tools/bin/../share/sdcc/include/pic16/stdlib.c	int t, neg = 0, pc = 0;
002b86   6a0f     clrf	0xf, 0              	CLRF	r0x0f
002b88   6a10     clrf	0x10, 0             	CLRF	r0x10
002b8a   6a11     clrf	0x11, 0             	CLRF	r0x11
002b8c   6a12     clrf	0x12, 0             	CLRF	r0x12
                                           ;	.line	97; /home/mandon/programmation/pinguino developpement/pinguino_beta9-05_linux/tools/bin/../share/sdcc/include/pic16/stdlib.c	unsigned int u = i;
002b8e   c003     movff	0x3, 0x13          	MOVFF	r0x03, r0x13
002b90   f013
002b92   c004     movff	0x4, 0x14          	MOVFF	r0x04, r0x14
002b94   f014
                                           ;	.line	99; /home/mandon/programmation/pinguino developpement/pinguino_beta9-05_linux/tools/bin/../share/sdcc/include/pic16/stdlib.c	if (i == 0)
002b96   5003     movf	0x3, 0, 0           	MOVF	r0x03, W
002b98   1004     iorwf	0x4, 0, 0          	IORWF	r0x04, W
002b9a   e123     bnz	0x2be2               	BNZ	_00169_DS_
                                           ;	.line	101; /home/mandon/programmation/pinguino developpement/pinguino_beta9-05_linux/tools/bin/../share/sdcc/include/pic16/stdlib.c	print_buf[0] = '0';
002b9c   0e30     movlw	0x30               	MOVLW	0x30
002b9e   0102     movlb	0x2                	BANKSEL	_printi_print_buf_1_1
002ba0   6f80     movwf	0x80, 0x1          	MOVWF	_printi_print_buf_1_1, B
                                           ; removed redundant BANKSEL
                                           ;	.line	102; /home/mandon/programmation/pinguino developpement/pinguino_beta9-05_linux/tools/bin/../share/sdcc/include/pic16/stdlib.c	print_buf[1] = '\0';
002ba2   6b81     clrf	0x81, 0x1           	CLRF	(_printi_print_buf_1_1 + 1), B
                                           ;	.line	103; /home/mandon/programmation/pinguino developpement/pinguino_beta9-05_linux/tools/bin/../share/sdcc/include/pic16/stdlib.c	return prints (out, print_buf, width, pad);
002ba4   500c     movf	0xc, 0, 0           	MOVF	r0x0c, W
002ba6   6ee5     movwf	0xe5, 0            	MOVWF	POSTDEC1
002ba8   500b     movf	0xb, 0, 0           	MOVF	r0x0b, W
002baa   6ee5     movwf	0xe5, 0            	MOVWF	POSTDEC1
002bac   500a     movf	0xa, 0, 0           	MOVF	r0x0a, W
002bae   6ee5     movwf	0xe5, 0            	MOVWF	POSTDEC1
002bb0   5009     movf	0x9, 0, 0           	MOVF	r0x09, W
002bb2   6ee5     movwf	0xe5, 0            	MOVWF	POSTDEC1
002bb4   0e80     movlw	0x80               	MOVLW	0x80
002bb6   6ee5     movwf	0xe5, 0            	MOVWF	POSTDEC1
002bb8   0e02     movlw	0x2                	MOVLW	HIGH(_printi_print_buf_1_1)
002bba   6ee5     movwf	0xe5, 0            	MOVWF	POSTDEC1
002bbc   0e80     movlw	0x80               	MOVLW	LOW(_printi_print_buf_1_1)
002bbe   6ee5     movwf	0xe5, 0            	MOVWF	POSTDEC1
002bc0   5002     movf	0x2, 0, 0           	MOVF	r0x02, W
002bc2   6ee5     movwf	0xe5, 0            	MOVWF	POSTDEC1
002bc4   5001     movf	0x1, 0, 0           	MOVF	r0x01, W
002bc6   6ee5     movwf	0xe5, 0            	MOVWF	POSTDEC1
002bc8   5000     movf	0, 0, 0             	MOVF	r0x00, W
002bca   6ee5     movwf	0xe5, 0            	MOVWF	POSTDEC1
002bcc   ec6d     call	0x30da, 0           	CALL	_prints
002bce   f018
002bd0   6e15     movwf	0x15, 0            	MOVWF	r0x15
002bd2   cff3     movff	0xff3, 0x16        	MOVFF	PRODL, r0x16
002bd4   f016
002bd6   0e0a     movlw	0xa                	MOVLW	0x0a
002bd8   26e1     addwf	0xe1, 0x1, 0       	ADDWF	FSR1L, F
002bda   c016     movff	0x16, 0xff3        	MOVFF	r0x16, PRODL
002bdc   fff3
002bde   5015     movf	0x15, 0, 0          	MOVF	r0x15, W
002be0   d0bb     bra	0x2d58               	BRA	_00185_DS_
                                           _00169_DS_:
                                           ;	.line	106; /home/mandon/programmation/pinguino developpement/pinguino_beta9-05_linux/tools/bin/../share/sdcc/include/pic16/stdlib.c	if (sg && b == 10 && i < 0)
002be2   5007     movf	0x7, 0, 0           	MOVF	r0x07, W
002be4   1008     iorwf	0x8, 0, 0          	IORWF	r0x08, W
002be6   e013     bz	0x2c0e                	BZ	_00171_DS_
002be8   5005     movf	0x5, 0, 0           	MOVF	r0x05, W
002bea   0a0a     xorlw	0xa                	XORLW	0x0a
002bec   e102     bnz	0x2bf2               	BNZ	_00198_DS_
002bee   5006     movf	0x6, 0, 0           	MOVF	r0x06, W
002bf0   e001     bz	0x2bf4                	BZ	_00199_DS_
                                           _00198_DS_:
002bf2   d00d     bra	0x2c0e               	BRA	_00171_DS_
                                           _00199_DS_:
002bf4   80d8     bsf	0xd8, 0, 0           	BSF	STATUS, 0
002bf6   ae04     btfss	0x4, 0x7, 0        	BTFSS	r0x04, 7
002bf8   90d8     bcf	0xd8, 0, 0           	BCF	STATUS, 0
002bfa   e309     bnc	0x2c0e               	BNC	_00171_DS_
                                           ;	.line	108; /home/mandon/programmation/pinguino developpement/pinguino_beta9-05_linux/tools/bin/../share/sdcc/include/pic16/stdlib.c	neg = 1;
002bfc   0e01     movlw	0x1                	MOVLW	0x01
002bfe   6e0f     movwf	0xf, 0             	MOVWF	r0x0f
002c00   6a10     clrf	0x10, 0             	CLRF	r0x10
                                           ;	.line	109; /home/mandon/programmation/pinguino developpement/pinguino_beta9-05_linux/tools/bin/../share/sdcc/include/pic16/stdlib.c	u = -i;
002c02   1c04     comf	0x4, 0, 0           	COMF	r0x04, W
002c04   6e14     movwf	0x14, 0            	MOVWF	r0x14
002c06   1c03     comf	0x3, 0, 0           	COMF	r0x03, W
002c08   6e13     movwf	0x13, 0            	MOVWF	r0x13
002c0a   4a13     infsnz	0x13, 0x1, 0      	INFSNZ	r0x13, F
002c0c   2a14     incf	0x14, 0x1, 0        	INCF	r0x14, F
                                           _00171_DS_:
                                           ;	.line	112; /home/mandon/programmation/pinguino developpement/pinguino_beta9-05_linux/tools/bin/../share/sdcc/include/pic16/stdlib.c	s = print_buf + PRINT_BUF_LEN-1;
002c0e   0e02     movlw	0x2                	MOVLW	HIGH(_printi_print_buf_1_1 + 11)
002c10   6e04     movwf	0x4, 0             	MOVWF	r0x04
002c12   0e8b     movlw	0x8b               	MOVLW	LOW(_printi_print_buf_1_1 + 11)
002c14   6e03     movwf	0x3, 0             	MOVWF	r0x03
002c16   0e80     movlw	0x80               	MOVLW	0x80
002c18   6e07     movwf	0x7, 0             	MOVWF	r0x07
                                           ;	.line	113; /home/mandon/programmation/pinguino developpement/pinguino_beta9-05_linux/tools/bin/../share/sdcc/include/pic16/stdlib.c	*s = '\0';
002c1a   6ae5     clrf	0xe5, 0             	CLRF	POSTDEC1
002c1c   c003     movff	0x3, 0xfe9         	MOVFF	r0x03, FSR0L
002c1e   ffe9
002c20   c004     movff	0x4, 0xff3         	MOVFF	r0x04, PRODL
002c22   fff3
002c24   ec31     call	0x62, 0             	CALL	__gptrput1
002c26   f000
                                           ;	.line	115; /home/mandon/programmation/pinguino developpement/pinguino_beta9-05_linux/tools/bin/../share/sdcc/include/pic16/stdlib.c	while (u)
002c28   500d     movf	0xd, 0, 0           	MOVF	r0x0d, W
002c2a   0fc6     addlw	0xc6               	ADDLW	0xc6
002c2c   6e0d     movwf	0xd, 0             	MOVWF	r0x0d
002c2e   c005     movff	0x5, 0xe           	MOVFF	r0x05, r0x0e
002c30   f00e
002c32   c006     movff	0x6, 0x15          	MOVFF	r0x06, r0x15
002c34   f015
002c36   c003     movff	0x3, 0x16          	MOVFF	r0x03, r0x16
002c38   f016
002c3a   c004     movff	0x4, 0x17          	MOVFF	r0x04, r0x17
002c3c   f017
002c3e   c007     movff	0x7, 0x18          	MOVFF	r0x07, r0x18
002c40   f018
                                           _00176_DS_:
002c42   5013     movf	0x13, 0, 0          	MOVF	r0x13, W
002c44   1014     iorwf	0x14, 0, 0         	IORWF	r0x14, W
002c46   e037     bz	0x2cb6                	BZ	_00197_DS_
                                           ;	.line	117; /home/mandon/programmation/pinguino developpement/pinguino_beta9-05_linux/tools/bin/../share/sdcc/include/pic16/stdlib.c	t = u % b;
002c48   5015     movf	0x15, 0, 0          	MOVF	r0x15, W
002c4a   6ee5     movwf	0xe5, 0            	MOVWF	POSTDEC1
002c4c   500e     movf	0xe, 0, 0           	MOVF	r0x0e, W
002c4e   6ee5     movwf	0xe5, 0            	MOVWF	POSTDEC1
002c50   5014     movf	0x14, 0, 0          	MOVF	r0x14, W
002c52   6ee5     movwf	0xe5, 0            	MOVWF	POSTDEC1
002c54   5013     movf	0x13, 0, 0          	MOVF	r0x13, W
002c56   6ee5     movwf	0xe5, 0            	MOVWF	POSTDEC1
002c58   ec0f     call	0x381e, 0           	CALL	__moduint
002c5a   f01c
002c5c   6e19     movwf	0x19, 0            	MOVWF	r0x19
002c5e   cff3     movff	0xff3, 0x1a        	MOVFF	PRODL, r0x1a
002c60   f01a
002c62   0e04     movlw	0x4                	MOVLW	0x04
002c64   26e1     addwf	0xe1, 0x1, 0       	ADDWF	FSR1L, F
                                           ;	.line	118; /home/mandon/programmation/pinguino developpement/pinguino_beta9-05_linux/tools/bin/../share/sdcc/include/pic16/stdlib.c	if( t >= 10 )
002c66   501a     movf	0x1a, 0, 0          	MOVF	r0x1a, W
002c68   0f80     addlw	0x80               	ADDLW	0x80
002c6a   0f80     addlw	0x80               	ADDLW	0x80
002c6c   e102     bnz	0x2c72               	BNZ	_00201_DS_
002c6e   0e0a     movlw	0xa                	MOVLW	0x0a
002c70   5c19     subwf	0x19, 0, 0         	SUBWF	r0x19, W
                                           _00201_DS_:
002c72   e302     bnc	0x2c78               	BNC	_00175_DS_
                                           ;	.line	119; /home/mandon/programmation/pinguino developpement/pinguino_beta9-05_linux/tools/bin/../share/sdcc/include/pic16/stdlib.c	t += letbase - '0' - 10;
002c74   500d     movf	0xd, 0, 0           	MOVF	r0x0d, W
002c76   2619     addwf	0x19, 0x1, 0       	ADDWF	r0x19, F
                                           _00175_DS_:
                                           ;	.line	120; /home/mandon/programmation/pinguino developpement/pinguino_beta9-05_linux/tools/bin/../share/sdcc/include/pic16/stdlib.c	*--s = t + '0';
002c78   0eff     movlw	0xff               	MOVLW	0xff
002c7a   2616     addwf	0x16, 0x1, 0       	ADDWF	r0x16, F
002c7c   2217     addwfc	0x17, 0x1, 0      	ADDWFC	r0x17, F
002c7e   2218     addwfc	0x18, 0x1, 0      	ADDWFC	r0x18, F
002c80   0e30     movlw	0x30               	MOVLW	0x30
002c82   2619     addwf	0x19, 0x1, 0       	ADDWF	r0x19, F
002c84   c019     movff	0x19, 0xfe5        	MOVFF	r0x19, POSTDEC1
002c86   ffe5
002c88   c016     movff	0x16, 0xfe9        	MOVFF	r0x16, FSR0L
002c8a   ffe9
002c8c   c017     movff	0x17, 0xff3        	MOVFF	r0x17, PRODL
002c8e   fff3
002c90   5018     movf	0x18, 0, 0          	MOVF	r0x18, W
002c92   ec31     call	0x62, 0             	CALL	__gptrput1
002c94   f000
                                           ;	.line	121; /home/mandon/programmation/pinguino developpement/pinguino_beta9-05_linux/tools/bin/../share/sdcc/include/pic16/stdlib.c	u /= b;
002c96   5006     movf	0x6, 0, 0           	MOVF	r0x06, W
002c98   6ee5     movwf	0xe5, 0            	MOVWF	POSTDEC1
002c9a   5005     movf	0x5, 0, 0           	MOVF	r0x05, W
002c9c   6ee5     movwf	0xe5, 0            	MOVWF	POSTDEC1
002c9e   5014     movf	0x14, 0, 0          	MOVF	r0x14, W
002ca0   6ee5     movwf	0xe5, 0            	MOVWF	POSTDEC1
002ca2   5013     movf	0x13, 0, 0          	MOVF	r0x13, W
002ca4   6ee5     movwf	0xe5, 0            	MOVWF	POSTDEC1
002ca6   ec6b     call	0x38d6, 0           	CALL	__divuint
002ca8   f01c
002caa   6e13     movwf	0x13, 0            	MOVWF	r0x13
002cac   cff3     movff	0xff3, 0x14        	MOVFF	PRODL, r0x14
002cae   f014
002cb0   0e04     movlw	0x4                	MOVLW	0x04
002cb2   26e1     addwf	0xe1, 0x1, 0       	ADDWF	FSR1L, F
002cb4   d7c6     bra	0x2c42               	BRA	_00176_DS_
                                           _00197_DS_:
002cb6   c016     movff	0x16, 0x3          	MOVFF	r0x16, r0x03
002cb8   f003
002cba   c017     movff	0x17, 0x4          	MOVFF	r0x17, r0x04
002cbc   f004
002cbe   c018     movff	0x18, 0x7          	MOVFF	r0x18, r0x07
002cc0   f007
                                           ;	.line	124; /home/mandon/programmation/pinguino developpement/pinguino_beta9-05_linux/tools/bin/../share/sdcc/include/pic16/stdlib.c	if (neg)
002cc2   500f     movf	0xf, 0, 0           	MOVF	r0x0f, W
002cc4   1010     iorwf	0x10, 0, 0         	IORWF	r0x10, W
002cc6   e026     bz	0x2d14                	BZ	_00184_DS_
                                           ;	.line	126; /home/mandon/programmation/pinguino developpement/pinguino_beta9-05_linux/tools/bin/../share/sdcc/include/pic16/stdlib.c	if( width && (pad & PAD_ZERO) )
002cc8   5009     movf	0x9, 0, 0           	MOVF	r0x09, W
002cca   100a     iorwf	0xa, 0, 0          	IORWF	r0x0a, W
002ccc   e016     bz	0x2cfa                	BZ	_00180_DS_
002cce   a20b     btfss	0xb, 0x1, 0        	BTFSS	r0x0b, 1
002cd0   d014     bra	0x2cfa               	BRA	_00180_DS_
                                           ;	.line	128; /home/mandon/programmation/pinguino developpement/pinguino_beta9-05_linux/tools/bin/../share/sdcc/include/pic16/stdlib.c	printchar (out, '-');
002cd2   0e2d     movlw	0x2d               	MOVLW	0x2d
002cd4   6ee5     movwf	0xe5, 0            	MOVWF	POSTDEC1
002cd6   5002     movf	0x2, 0, 0           	MOVF	r0x02, W
002cd8   6ee5     movwf	0xe5, 0            	MOVWF	POSTDEC1
002cda   5001     movf	0x1, 0, 0           	MOVF	r0x01, W
002cdc   6ee5     movwf	0xe5, 0            	MOVWF	POSTDEC1
002cde   5000     movf	0, 0, 0             	MOVF	r0x00, W
002ce0   6ee5     movwf	0xe5, 0            	MOVWF	POSTDEC1
002ce2   ec86     call	0x350c, 0           	CALL	_printchar
002ce4   f01a
002ce6   0e04     movlw	0x4                	MOVLW	0x04
002ce8   26e1     addwf	0xe1, 0x1, 0       	ADDWF	FSR1L, F
                                           ;	.line	129; /home/mandon/programmation/pinguino developpement/pinguino_beta9-05_linux/tools/bin/../share/sdcc/include/pic16/stdlib.c	++pc;
002cea   0e01     movlw	0x1                	MOVLW	0x01
002cec   6e11     movwf	0x11, 0            	MOVWF	r0x11
002cee   6a12     clrf	0x12, 0             	CLRF	r0x12
                                           ;	.line	130; /home/mandon/programmation/pinguino developpement/pinguino_beta9-05_linux/tools/bin/../share/sdcc/include/pic16/stdlib.c	--width;
002cf0   0eff     movlw	0xff               	MOVLW	0xff
002cf2   2609     addwf	0x9, 0x1, 0        	ADDWF	r0x09, F
002cf4   a0d8     btfss	0xd8, 0, 0         	BTFSS	STATUS, 0
002cf6   060a     decf	0xa, 0x1, 0         	DECF	r0x0a, F
002cf8   d00d     bra	0x2d14               	BRA	_00184_DS_
                                           _00180_DS_:
                                           ;	.line	134; /home/mandon/programmation/pinguino developpement/pinguino_beta9-05_linux/tools/bin/../share/sdcc/include/pic16/stdlib.c	*--s = '-';
002cfa   0eff     movlw	0xff               	MOVLW	0xff
002cfc   2603     addwf	0x3, 0x1, 0        	ADDWF	r0x03, F
002cfe   2204     addwfc	0x4, 0x1, 0       	ADDWFC	r0x04, F
002d00   2207     addwfc	0x7, 0x1, 0       	ADDWFC	r0x07, F
002d02   0e2d     movlw	0x2d               	MOVLW	0x2d
002d04   6ee5     movwf	0xe5, 0            	MOVWF	POSTDEC1
002d06   c003     movff	0x3, 0xfe9         	MOVFF	r0x03, FSR0L
002d08   ffe9
002d0a   c004     movff	0x4, 0xff3         	MOVFF	r0x04, PRODL
002d0c   fff3
002d0e   5007     movf	0x7, 0, 0           	MOVF	r0x07, W
002d10   ec31     call	0x62, 0             	CALL	__gptrput1
002d12   f000
                                           _00184_DS_:
                                           ;	.line	138; /home/mandon/programmation/pinguino developpement/pinguino_beta9-05_linux/tools/bin/../share/sdcc/include/pic16/stdlib.c	return pc + prints (out, s, width, pad);
002d14   500c     movf	0xc, 0, 0           	MOVF	r0x0c, W
002d16   6ee5     movwf	0xe5, 0            	MOVWF	POSTDEC1
002d18   500b     movf	0xb, 0, 0           	MOVF	r0x0b, W
002d1a   6ee5     movwf	0xe5, 0            	MOVWF	POSTDEC1
002d1c   500a     movf	0xa, 0, 0           	MOVF	r0x0a, W
002d1e   6ee5     movwf	0xe5, 0            	MOVWF	POSTDEC1
002d20   5009     movf	0x9, 0, 0           	MOVF	r0x09, W
002d22   6ee5     movwf	0xe5, 0            	MOVWF	POSTDEC1
002d24   5007     movf	0x7, 0, 0           	MOVF	r0x07, W
002d26   6ee5     movwf	0xe5, 0            	MOVWF	POSTDEC1
002d28   5004     movf	0x4, 0, 0           	MOVF	r0x04, W
002d2a   6ee5     movwf	0xe5, 0            	MOVWF	POSTDEC1
002d2c   5003     movf	0x3, 0, 0           	MOVF	r0x03, W
002d2e   6ee5     movwf	0xe5, 0            	MOVWF	POSTDEC1
002d30   5002     movf	0x2, 0, 0           	MOVF	r0x02, W
002d32   6ee5     movwf	0xe5, 0            	MOVWF	POSTDEC1
002d34   5001     movf	0x1, 0, 0           	MOVF	r0x01, W
002d36   6ee5     movwf	0xe5, 0            	MOVWF	POSTDEC1
002d38   5000     movf	0, 0, 0             	MOVF	r0x00, W
002d3a   6ee5     movwf	0xe5, 0            	MOVWF	POSTDEC1
002d3c   ec6d     call	0x30da, 0           	CALL	_prints
002d3e   f018
002d40   6e00     movwf	0, 0               	MOVWF	r0x00
002d42   cff3     movff	0xff3, 0x1         	MOVFF	PRODL, r0x01
002d44   f001
002d46   0e0a     movlw	0xa                	MOVLW	0x0a
002d48   26e1     addwf	0xe1, 0x1, 0       	ADDWF	FSR1L, F
002d4a   5000     movf	0, 0, 0             	MOVF	r0x00, W
002d4c   2611     addwf	0x11, 0x1, 0       	ADDWF	r0x11, F
002d4e   5001     movf	0x1, 0, 0           	MOVF	r0x01, W
002d50   2212     addwfc	0x12, 0x1, 0      	ADDWFC	r0x12, F
002d52   c012     movff	0x12, 0xff3        	MOVFF	r0x12, PRODL
002d54   fff3
002d56   5011     movf	0x11, 0, 0          	MOVF	r0x11, W
                                           _00185_DS_:
002d58   cfe4     movff	0xfe4, 0x1a        	MOVFF	PREINC1, r0x1a
002d5a   f01a
002d5c   cfe4     movff	0xfe4, 0x19        	MOVFF	PREINC1, r0x19
002d5e   f019
002d60   cfe4     movff	0xfe4, 0x18        	MOVFF	PREINC1, r0x18
002d62   f018
002d64   cfe4     movff	0xfe4, 0x17        	MOVFF	PREINC1, r0x17
002d66   f017
002d68   cfe4     movff	0xfe4, 0x16        	MOVFF	PREINC1, r0x16
002d6a   f016
002d6c   cfe4     movff	0xfe4, 0x15        	MOVFF	PREINC1, r0x15
002d6e   f015
002d70   cfe4     movff	0xfe4, 0x14        	MOVFF	PREINC1, r0x14
002d72   f014
002d74   cfe4     movff	0xfe4, 0x13        	MOVFF	PREINC1, r0x13
002d76   f013
002d78   cfe4     movff	0xfe4, 0x12        	MOVFF	PREINC1, r0x12
002d7a   f012
002d7c   cfe4     movff	0xfe4, 0x11        	MOVFF	PREINC1, r0x11
002d7e   f011
002d80   cfe4     movff	0xfe4, 0x10        	MOVFF	PREINC1, r0x10
002d82   f010
002d84   cfe4     movff	0xfe4, 0xf         	MOVFF	PREINC1, r0x0f
002d86   f00f
002d88   cfe4     movff	0xfe4, 0xe         	MOVFF	PREINC1, r0x0e
002d8a   f00e
002d8c   cfe4     movff	0xfe4, 0xd         	MOVFF	PREINC1, r0x0d
002d8e   f00d
002d90   cfe4     movff	0xfe4, 0xc         	MOVFF	PREINC1, r0x0c
002d92   f00c
002d94   cfe4     movff	0xfe4, 0xb         	MOVFF	PREINC1, r0x0b
002d96   f00b
002d98   cfe4     movff	0xfe4, 0xa         	MOVFF	PREINC1, r0x0a
002d9a   f00a
002d9c   cfe4     movff	0xfe4, 0x9         	MOVFF	PREINC1, r0x09
002d9e   f009
002da0   cfe4     movff	0xfe4, 0x8         	MOVFF	PREINC1, r0x08
002da2   f008
002da4   cfe4     movff	0xfe4, 0x7         	MOVFF	PREINC1, r0x07
002da6   f007
002da8   cfe4     movff	0xfe4, 0x6         	MOVFF	PREINC1, r0x06
002daa   f006
002dac   cfe4     movff	0xfe4, 0x5         	MOVFF	PREINC1, r0x05
002dae   f005
002db0   cfe4     movff	0xfe4, 0x4         	MOVFF	PREINC1, r0x04
002db2   f004
002db4   cfe4     movff	0xfe4, 0x3         	MOVFF	PREINC1, r0x03
002db6   f003
002db8   cfe4     movff	0xfe4, 0x2         	MOVFF	PREINC1, r0x02
002dba   f002
002dbc   cfe4     movff	0xfe4, 0x1         	MOVFF	PREINC1, r0x01
002dbe   f001
002dc0   cfe4     movff	0xfe4, 0           	MOVFF	PREINC1, r0x00
002dc2   f000
002dc4   cfe4     movff	0xfe4, 0xfd9       	MOVFF	PREINC1, FSR2L
002dc6   ffd9
002dc8   0012     return	0                 	RETURN	
                                           
                                           ; ; Starting pCode block
                                           S_main__prints	code
                                           _prints:
                                           ;	.line	53; /home/mandon/programmation/pinguino developpement/pinguino_beta9-05_linux/tools/bin/../share/sdcc/include/pic16/stdlib.c	static int prints(char **out, const char *string, int width, int pad)
0030da   cfd9     movff	0xfd9, 0xfe5       	MOVFF	FSR2L, POSTDEC1
0030dc   ffe5
0030de   cfe1     movff	0xfe1, 0xfd9       	MOVFF	FSR1L, FSR2L
0030e0   ffd9
0030e2   c000     movff	0, 0xfe5           	MOVFF	r0x00, POSTDEC1
0030e4   ffe5
0030e6   c001     movff	0x1, 0xfe5         	MOVFF	r0x01, POSTDEC1
0030e8   ffe5
0030ea   c002     movff	0x2, 0xfe5         	MOVFF	r0x02, POSTDEC1
0030ec   ffe5
0030ee   c003     movff	0x3, 0xfe5         	MOVFF	r0x03, POSTDEC1
0030f0   ffe5
0030f2   c004     movff	0x4, 0xfe5         	MOVFF	r0x04, POSTDEC1
0030f4   ffe5
0030f6   c005     movff	0x5, 0xfe5         	MOVFF	r0x05, POSTDEC1
0030f8   ffe5
0030fa   c006     movff	0x6, 0xfe5         	MOVFF	r0x06, POSTDEC1
0030fc   ffe5
0030fe   c007     movff	0x7, 0xfe5         	MOVFF	r0x07, POSTDEC1
003100   ffe5
003102   c008     movff	0x8, 0xfe5         	MOVFF	r0x08, POSTDEC1
003104   ffe5
003106   c009     movff	0x9, 0xfe5         	MOVFF	r0x09, POSTDEC1
003108   ffe5
00310a   c00a     movff	0xa, 0xfe5         	MOVFF	r0x0a, POSTDEC1
00310c   ffe5
00310e   c00b     movff	0xb, 0xfe5         	MOVFF	r0x0b, POSTDEC1
003110   ffe5
003112   c00c     movff	0xc, 0xfe5         	MOVFF	r0x0c, POSTDEC1
003114   ffe5
003116   c00e     movff	0xe, 0xfe5         	MOVFF	r0x0e, POSTDEC1
003118   ffe5
00311a   c00f     movff	0xf, 0xfe5         	MOVFF	r0x0f, POSTDEC1
00311c   ffe5
00311e   c010     movff	0x10, 0xfe5        	MOVFF	r0x10, POSTDEC1
003120   ffe5
003122   c011     movff	0x11, 0xfe5        	MOVFF	r0x11, POSTDEC1
003124   ffe5
003126   c012     movff	0x12, 0xfe5        	MOVFF	r0x12, POSTDEC1
003128   ffe5
00312a   c013     movff	0x13, 0xfe5        	MOVFF	r0x13, POSTDEC1
00312c   ffe5
00312e   0e02     movlw	0x2                	MOVLW	0x02
003130   cfdb     movff	0xfdb, 0           	MOVFF	PLUSW2, r0x00
003132   f000
003134   0e03     movlw	0x3                	MOVLW	0x03
003136   cfdb     movff	0xfdb, 0x1         	MOVFF	PLUSW2, r0x01
003138   f001
00313a   0e04     movlw	0x4                	MOVLW	0x04
00313c   cfdb     movff	0xfdb, 0x2         	MOVFF	PLUSW2, r0x02
00313e   f002
003140   0e05     movlw	0x5                	MOVLW	0x05
003142   cfdb     movff	0xfdb, 0x3         	MOVFF	PLUSW2, r0x03
003144   f003
003146   0e06     movlw	0x6                	MOVLW	0x06
003148   cfdb     movff	0xfdb, 0x4         	MOVFF	PLUSW2, r0x04
00314a   f004
00314c   0e07     movlw	0x7                	MOVLW	0x07
00314e   cfdb     movff	0xfdb, 0x5         	MOVFF	PLUSW2, r0x05
003150   f005
003152   0e08     movlw	0x8                	MOVLW	0x08
003154   cfdb     movff	0xfdb, 0x6         	MOVFF	PLUSW2, r0x06
003156   f006
003158   0e09     movlw	0x9                	MOVLW	0x09
00315a   cfdb     movff	0xfdb, 0x7         	MOVFF	PLUSW2, r0x07
00315c   f007
00315e   0e0a     movlw	0xa                	MOVLW	0x0a
003160   cfdb     movff	0xfdb, 0x8         	MOVFF	PLUSW2, r0x08
003162   f008
003164   0e0b     movlw	0xb                	MOVLW	0x0b
003166   cfdb     movff	0xfdb, 0x9         	MOVFF	PLUSW2, r0x09
003168   f009
                                           ;	.line	55; /home/mandon/programmation/pinguino developpement/pinguino_beta9-05_linux/tools/bin/../share/sdcc/include/pic16/stdlib.c	int pc = 0;
00316a   6a0a     clrf	0xa, 0              	CLRF	r0x0a
00316c   6a0b     clrf	0xb, 0              	CLRF	r0x0b
                                           ;	.line	56; /home/mandon/programmation/pinguino developpement/pinguino_beta9-05_linux/tools/bin/../share/sdcc/include/pic16/stdlib.c	int padchar = ' ';
00316e   0e20     movlw	0x20               	MOVLW	0x20
003170   6e0c     movwf	0xc, 0             	MOVWF	r0x0c
                                           ;	.line	60; /home/mandon/programmation/pinguino developpement/pinguino_beta9-05_linux/tools/bin/../share/sdcc/include/pic16/stdlib.c	if (width > 0)
003172   5007     movf	0x7, 0, 0           	MOVF	r0x07, W
003174   0f80     addlw	0x80               	ADDLW	0x80
003176   0f80     addlw	0x80               	ADDLW	0x80
003178   e102     bnz	0x317e               	BNZ	_00158_DS_
00317a   0e01     movlw	0x1                	MOVLW	0x01
00317c   5c06     subwf	0x6, 0, 0          	SUBWF	r0x06, W
                                           _00158_DS_:
00317e   e330     bnc	0x31e0               	BNC	_00122_DS_
                                           ;	.line	62; /home/mandon/programmation/pinguino developpement/pinguino_beta9-05_linux/tools/bin/../share/sdcc/include/pic16/stdlib.c	for (ptr = string; *ptr; ++ptr) ++len;
003180   6a0e     clrf	0xe, 0              	CLRF	r0x0e
003182   6a0f     clrf	0xf, 0              	CLRF	r0x0f
003184   c003     movff	0x3, 0x10          	MOVFF	r0x03, r0x10
003186   f010
003188   c004     movff	0x4, 0x11          	MOVFF	r0x04, r0x11
00318a   f011
00318c   c005     movff	0x5, 0x12          	MOVFF	r0x05, r0x12
00318e   f012
                                           _00125_DS_:
003190   c010     movff	0x10, 0xfe9        	MOVFF	r0x10, FSR0L
003192   ffe9
003194   c011     movff	0x11, 0xff3        	MOVFF	r0x11, PRODL
003196   fff3
003198   5012     movf	0x12, 0, 0          	MOVF	r0x12, W
00319a   ec29     call	0x52, 0             	CALL	__gptrget1
00319c   f000
00319e   6e13     movwf	0x13, 0            	MOVWF	r0x13
0031a0   5013     movf	0x13, 0, 0          	MOVF	r0x13, W
0031a2   e009     bz	0x31b6                	BZ	_00128_DS_
0031a4   2a0e     incf	0xe, 0x1, 0         	INCF	r0x0e, F
0031a6   b0d8     btfsc	0xd8, 0, 0         	BTFSC	STATUS, 0
0031a8   2a0f     incf	0xf, 0x1, 0         	INCF	r0x0f, F
0031aa   2a10     incf	0x10, 0x1, 0        	INCF	r0x10, F
0031ac   b0d8     btfsc	0xd8, 0, 0         	BTFSC	STATUS, 0
0031ae   2a11     incf	0x11, 0x1, 0        	INCF	r0x11, F
0031b0   b0d8     btfsc	0xd8, 0, 0         	BTFSC	STATUS, 0
0031b2   2a12     incf	0x12, 0x1, 0        	INCF	r0x12, F
0031b4   d7ed     bra	0x3190               	BRA	_00125_DS_
                                           _00128_DS_:
                                           ;	.line	63; /home/mandon/programmation/pinguino developpement/pinguino_beta9-05_linux/tools/bin/../share/sdcc/include/pic16/stdlib.c	if (len >= width) width = 0;
0031b6   500f     movf	0xf, 0, 0           	MOVF	r0x0f, W
0031b8   0f80     addlw	0x80               	ADDLW	0x80
0031ba   6ef3     movwf	0xf3, 0            	MOVWF	PRODL
0031bc   5007     movf	0x7, 0, 0           	MOVF	r0x07, W
0031be   0f80     addlw	0x80               	ADDLW	0x80
0031c0   5cf3     subwf	0xf3, 0, 0         	SUBWF	PRODL, W
0031c2   e102     bnz	0x31c8               	BNZ	_00159_DS_
0031c4   5006     movf	0x6, 0, 0           	MOVF	r0x06, W
0031c6   5c0e     subwf	0xe, 0, 0          	SUBWF	r0x0e, W
                                           _00159_DS_:
0031c8   e303     bnc	0x31d0               	BNC	_00117_DS_
0031ca   6a06     clrf	0x6, 0              	CLRF	r0x06
0031cc   6a07     clrf	0x7, 0              	CLRF	r0x07
0031ce   d004     bra	0x31d8               	BRA	_00118_DS_
                                           _00117_DS_:
                                           ;	.line	64; /home/mandon/programmation/pinguino developpement/pinguino_beta9-05_linux/tools/bin/../share/sdcc/include/pic16/stdlib.c	else width -= len;
0031d0   500e     movf	0xe, 0, 0           	MOVF	r0x0e, W
0031d2   5e06     subwf	0x6, 0x1, 0        	SUBWF	r0x06, F
0031d4   500f     movf	0xf, 0, 0           	MOVF	r0x0f, W
0031d6   5a07     subwfb	0x7, 0x1, 0       	SUBWFB	r0x07, F
                                           _00118_DS_:
                                           ;	.line	65; /home/mandon/programmation/pinguino developpement/pinguino_beta9-05_linux/tools/bin/../share/sdcc/include/pic16/stdlib.c	if (pad & PAD_ZERO) padchar = '0';
0031d8   a208     btfss	0x8, 0x1, 0        	BTFSS	r0x08, 1
0031da   d002     bra	0x31e0               	BRA	_00122_DS_
0031dc   0e30     movlw	0x30               	MOVLW	0x30
0031de   6e0c     movwf	0xc, 0             	MOVWF	r0x0c
                                           _00122_DS_:
                                           ;	.line	67; /home/mandon/programmation/pinguino developpement/pinguino_beta9-05_linux/tools/bin/../share/sdcc/include/pic16/stdlib.c	if (!(pad & PAD_RIGHT))
0031e0   b008     btfsc	0x8, 0, 0          	BTFSC	r0x08, 0
0031e2   d029     bra	0x3236               	BRA	_00151_DS_
0031e4   6a08     clrf	0x8, 0              	CLRF	r0x08
0031e6   6a09     clrf	0x9, 0              	CLRF	r0x09
0031e8   c006     movff	0x6, 0xe           	MOVFF	r0x06, r0x0e
0031ea   f00e
0031ec   c007     movff	0x7, 0xf           	MOVFF	r0x07, r0x0f
0031ee   f00f
                                           _00129_DS_:
                                           ;	.line	69; /home/mandon/programmation/pinguino developpement/pinguino_beta9-05_linux/tools/bin/../share/sdcc/include/pic16/stdlib.c	for ( ; width > 0; --width)
0031f0   500f     movf	0xf, 0, 0           	MOVF	r0x0f, W
0031f2   0f80     addlw	0x80               	ADDLW	0x80
0031f4   0f80     addlw	0x80               	ADDLW	0x80
0031f6   e102     bnz	0x31fc               	BNZ	_00162_DS_
0031f8   0e01     movlw	0x1                	MOVLW	0x01
0031fa   5c0e     subwf	0xe, 0, 0          	SUBWF	r0x0e, W
                                           _00162_DS_:
0031fc   e314     bnc	0x3226               	BNC	_00155_DS_
                                           ; #	MOVF	r0x0c, W
                                           ; #	MOVWF	r0x10
                                           ; #	MOVF	r0x10, W
                                           ;	.line	71; /home/mandon/programmation/pinguino developpement/pinguino_beta9-05_linux/tools/bin/../share/sdcc/include/pic16/stdlib.c	printchar (out, padchar);
0031fe   500c     movf	0xc, 0, 0           	MOVF	r0x0c, W
003200   6ee5     movwf	0xe5, 0            	MOVWF	POSTDEC1
003202   5002     movf	0x2, 0, 0           	MOVF	r0x02, W
003204   6ee5     movwf	0xe5, 0            	MOVWF	POSTDEC1
003206   5001     movf	0x1, 0, 0           	MOVF	r0x01, W
003208   6ee5     movwf	0xe5, 0            	MOVWF	POSTDEC1
00320a   5000     movf	0, 0, 0             	MOVF	r0x00, W
00320c   6ee5     movwf	0xe5, 0            	MOVWF	POSTDEC1
00320e   ec86     call	0x350c, 0           	CALL	_printchar
003210   f01a
003212   0e04     movlw	0x4                	MOVLW	0x04
003214   26e1     addwf	0xe1, 0x1, 0       	ADDWF	FSR1L, F
                                           ;	.line	72; /home/mandon/programmation/pinguino developpement/pinguino_beta9-05_linux/tools/bin/../share/sdcc/include/pic16/stdlib.c	++pc;
003216   2a08     incf	0x8, 0x1, 0         	INCF	r0x08, F
003218   b0d8     btfsc	0xd8, 0, 0         	BTFSC	STATUS, 0
00321a   2a09     incf	0x9, 0x1, 0         	INCF	r0x09, F
                                           ;	.line	69; /home/mandon/programmation/pinguino developpement/pinguino_beta9-05_linux/tools/bin/../share/sdcc/include/pic16/stdlib.c	for ( ; width > 0; --width)
00321c   0eff     movlw	0xff               	MOVLW	0xff
00321e   260e     addwf	0xe, 0x1, 0        	ADDWF	r0x0e, F
003220   a0d8     btfss	0xd8, 0, 0         	BTFSS	STATUS, 0
003222   060f     decf	0xf, 0x1, 0         	DECF	r0x0f, F
003224   d7e5     bra	0x31f0               	BRA	_00129_DS_
                                           _00155_DS_:
003226   c008     movff	0x8, 0xa           	MOVFF	r0x08, r0x0a
003228   f00a
00322a   c009     movff	0x9, 0xb           	MOVFF	r0x09, r0x0b
00322c   f00b
00322e   c00e     movff	0xe, 0x6           	MOVFF	r0x0e, r0x06
003230   f006
003232   c00f     movff	0xf, 0x7           	MOVFF	r0x0f, r0x07
003234   f007
                                           _00151_DS_:
003236   c00a     movff	0xa, 0x8           	MOVFF	r0x0a, r0x08
003238   f008
00323a   c00b     movff	0xb, 0x9           	MOVFF	r0x0b, r0x09
00323c   f009
                                           _00133_DS_:
                                           ;	.line	75; /home/mandon/programmation/pinguino developpement/pinguino_beta9-05_linux/tools/bin/../share/sdcc/include/pic16/stdlib.c	for ( ; *string ; ++string)
00323e   c003     movff	0x3, 0xfe9         	MOVFF	r0x03, FSR0L
003240   ffe9
003242   c004     movff	0x4, 0xff3         	MOVFF	r0x04, PRODL
003244   fff3
003246   5005     movf	0x5, 0, 0           	MOVF	r0x05, W
003248   ec29     call	0x52, 0             	CALL	__gptrget1
00324a   f000
00324c   6e0a     movwf	0xa, 0             	MOVWF	r0x0a
00324e   500a     movf	0xa, 0, 0           	MOVF	r0x0a, W
003250   e015     bz	0x327c                	BZ	_00153_DS_
                                           ;	.line	77; /home/mandon/programmation/pinguino developpement/pinguino_beta9-05_linux/tools/bin/../share/sdcc/include/pic16/stdlib.c	printchar (out, *string);
003252   500a     movf	0xa, 0, 0           	MOVF	r0x0a, W
003254   6ee5     movwf	0xe5, 0            	MOVWF	POSTDEC1
003256   5002     movf	0x2, 0, 0           	MOVF	r0x02, W
003258   6ee5     movwf	0xe5, 0            	MOVWF	POSTDEC1
00325a   5001     movf	0x1, 0, 0           	MOVF	r0x01, W
00325c   6ee5     movwf	0xe5, 0            	MOVWF	POSTDEC1
00325e   5000     movf	0, 0, 0             	MOVF	r0x00, W
003260   6ee5     movwf	0xe5, 0            	MOVWF	POSTDEC1
003262   ec86     call	0x350c, 0           	CALL	_printchar
003264   f01a
003266   0e04     movlw	0x4                	MOVLW	0x04
003268   26e1     addwf	0xe1, 0x1, 0       	ADDWF	FSR1L, F
                                           ;	.line	78; /home/mandon/programmation/pinguino developpement/pinguino_beta9-05_linux/tools/bin/../share/sdcc/include/pic16/stdlib.c	++pc;
00326a   2a08     incf	0x8, 0x1, 0         	INCF	r0x08, F
00326c   b0d8     btfsc	0xd8, 0, 0         	BTFSC	STATUS, 0
00326e   2a09     incf	0x9, 0x1, 0         	INCF	r0x09, F
                                           ;	.line	75; /home/mandon/programmation/pinguino developpement/pinguino_beta9-05_linux/tools/bin/../share/sdcc/include/pic16/stdlib.c	for ( ; *string ; ++string)
003270   2a03     incf	0x3, 0x1, 0         	INCF	r0x03, F
003272   b0d8     btfsc	0xd8, 0, 0         	BTFSC	STATUS, 0
003274   2a04     incf	0x4, 0x1, 0         	INCF	r0x04, F
003276   b0d8     btfsc	0xd8, 0, 0         	BTFSC	STATUS, 0
003278   2a05     incf	0x5, 0x1, 0         	INCF	r0x05, F
00327a   d7e1     bra	0x323e               	BRA	_00133_DS_
                                           _00153_DS_:
00327c   c008     movff	0x8, 0x3           	MOVFF	r0x08, r0x03
00327e   f003
003280   c009     movff	0x9, 0x4           	MOVFF	r0x09, r0x04
003282   f004
003284   c006     movff	0x6, 0x5           	MOVFF	r0x06, r0x05
003286   f005
003288   c007     movff	0x7, 0x6           	MOVFF	r0x07, r0x06
00328a   f006
                                           _00137_DS_:
                                           ;	.line	80; /home/mandon/programmation/pinguino developpement/pinguino_beta9-05_linux/tools/bin/../share/sdcc/include/pic16/stdlib.c	for ( ; width > 0; --width)
00328c   5006     movf	0x6, 0, 0           	MOVF	r0x06, W
00328e   0f80     addlw	0x80               	ADDLW	0x80
003290   0f80     addlw	0x80               	ADDLW	0x80
003292   e102     bnz	0x3298               	BNZ	_00163_DS_
003294   0e01     movlw	0x1                	MOVLW	0x01
003296   5c05     subwf	0x5, 0, 0          	SUBWF	r0x05, W
                                           _00163_DS_:
003298   e314     bnc	0x32c2               	BNC	_00140_DS_
                                           ; #	MOVF	r0x0c, W
                                           ; #	MOVWF	r0x07
                                           ; #	MOVF	r0x07, W
                                           ;	.line	82; /home/mandon/programmation/pinguino developpement/pinguino_beta9-05_linux/tools/bin/../share/sdcc/include/pic16/stdlib.c	printchar (out, padchar);
00329a   500c     movf	0xc, 0, 0           	MOVF	r0x0c, W
00329c   6ee5     movwf	0xe5, 0            	MOVWF	POSTDEC1
00329e   5002     movf	0x2, 0, 0           	MOVF	r0x02, W
0032a0   6ee5     movwf	0xe5, 0            	MOVWF	POSTDEC1
0032a2   5001     movf	0x1, 0, 0           	MOVF	r0x01, W
0032a4   6ee5     movwf	0xe5, 0            	MOVWF	POSTDEC1
0032a6   5000     movf	0, 0, 0             	MOVF	r0x00, W
0032a8   6ee5     movwf	0xe5, 0            	MOVWF	POSTDEC1
0032aa   ec86     call	0x350c, 0           	CALL	_printchar
0032ac   f01a
0032ae   0e04     movlw	0x4                	MOVLW	0x04
0032b0   26e1     addwf	0xe1, 0x1, 0       	ADDWF	FSR1L, F
                                           ;	.line	83; /home/mandon/programmation/pinguino developpement/pinguino_beta9-05_linux/tools/bin/../share/sdcc/include/pic16/stdlib.c	++pc;
0032b2   2a03     incf	0x3, 0x1, 0         	INCF	r0x03, F
0032b4   b0d8     btfsc	0xd8, 0, 0         	BTFSC	STATUS, 0
0032b6   2a04     incf	0x4, 0x1, 0         	INCF	r0x04, F
                                           ;	.line	80; /home/mandon/programmation/pinguino developpement/pinguino_beta9-05_linux/tools/bin/../share/sdcc/include/pic16/stdlib.c	for ( ; width > 0; --width)
0032b8   0eff     movlw	0xff               	MOVLW	0xff
0032ba   2605     addwf	0x5, 0x1, 0        	ADDWF	r0x05, F
0032bc   a0d8     btfss	0xd8, 0, 0         	BTFSS	STATUS, 0
0032be   0606     decf	0x6, 0x1, 0         	DECF	r0x06, F
0032c0   d7e5     bra	0x328c               	BRA	_00137_DS_
                                           _00140_DS_:
                                           ;	.line	86; /home/mandon/programmation/pinguino developpement/pinguino_beta9-05_linux/tools/bin/../share/sdcc/include/pic16/stdlib.c	return pc;
0032c2   c004     movff	0x4, 0xff3         	MOVFF	r0x04, PRODL
0032c4   fff3
0032c6   5003     movf	0x3, 0, 0           	MOVF	r0x03, W
0032c8   cfe4     movff	0xfe4, 0x13        	MOVFF	PREINC1, r0x13
0032ca   f013
0032cc   cfe4     movff	0xfe4, 0x12        	MOVFF	PREINC1, r0x12
0032ce   f012
0032d0   cfe4     movff	0xfe4, 0x11        	MOVFF	PREINC1, r0x11
0032d2   f011
0032d4   cfe4     movff	0xfe4, 0x10        	MOVFF	PREINC1, r0x10
0032d6   f010
0032d8   cfe4     movff	0xfe4, 0xf         	MOVFF	PREINC1, r0x0f
0032da   f00f
0032dc   cfe4     movff	0xfe4, 0xe         	MOVFF	PREINC1, r0x0e
0032de   f00e
0032e0   cfe4     movff	0xfe4, 0xc         	MOVFF	PREINC1, r0x0c
0032e2   f00c
0032e4   cfe4     movff	0xfe4, 0xb         	MOVFF	PREINC1, r0x0b
0032e6   f00b
0032e8   cfe4     movff	0xfe4, 0xa         	MOVFF	PREINC1, r0x0a
0032ea   f00a
0032ec   cfe4     movff	0xfe4, 0x9         	MOVFF	PREINC1, r0x09
0032ee   f009
0032f0   cfe4     movff	0xfe4, 0x8         	MOVFF	PREINC1, r0x08
0032f2   f008
0032f4   cfe4     movff	0xfe4, 0x7         	MOVFF	PREINC1, r0x07
0032f6   f007
0032f8   cfe4     movff	0xfe4, 0x6         	MOVFF	PREINC1, r0x06
0032fa   f006
0032fc   cfe4     movff	0xfe4, 0x5         	MOVFF	PREINC1, r0x05
0032fe   f005
003300   cfe4     movff	0xfe4, 0x4         	MOVFF	PREINC1, r0x04
003302   f004
003304   cfe4     movff	0xfe4, 0x3         	MOVFF	PREINC1, r0x03
003306   f003
003308   cfe4     movff	0xfe4, 0x2         	MOVFF	PREINC1, r0x02
00330a   f002
00330c   cfe4     movff	0xfe4, 0x1         	MOVFF	PREINC1, r0x01
00330e   f001
003310   cfe4     movff	0xfe4, 0           	MOVFF	PREINC1, r0x00
003312   f000
003314   cfe4     movff	0xfe4, 0xfd9       	MOVFF	PREINC1, FSR2L
003316   ffd9
003318   0012     return	0                 	RETURN	
                                           
                                           ; ; Starting pCode block
                                           S_main__printchar	code
                                           _printchar:
                                           ;	.line	34; /home/mandon/programmation/pinguino developpement/pinguino_beta9-05_linux/tools/bin/../share/sdcc/include/pic16/stdlib.c	static void printchar(char **str, char c)
00350c   cfd9     movff	0xfd9, 0xfe5       	MOVFF	FSR2L, POSTDEC1
00350e   ffe5
003510   cfe1     movff	0xfe1, 0xfd9       	MOVFF	FSR1L, FSR2L
003512   ffd9
003514   c000     movff	0, 0xfe5           	MOVFF	r0x00, POSTDEC1
003516   ffe5
003518   c001     movff	0x1, 0xfe5         	MOVFF	r0x01, POSTDEC1
00351a   ffe5
00351c   c002     movff	0x2, 0xfe5         	MOVFF	r0x02, POSTDEC1
00351e   ffe5
003520   c003     movff	0x3, 0xfe5         	MOVFF	r0x03, POSTDEC1
003522   ffe5
003524   c004     movff	0x4, 0xfe5         	MOVFF	r0x04, POSTDEC1
003526   ffe5
003528   c005     movff	0x5, 0xfe5         	MOVFF	r0x05, POSTDEC1
00352a   ffe5
00352c   c006     movff	0x6, 0xfe5         	MOVFF	r0x06, POSTDEC1
00352e   ffe5
003530   0e02     movlw	0x2                	MOVLW	0x02
003532   cfdb     movff	0xfdb, 0           	MOVFF	PLUSW2, r0x00
003534   f000
003536   0e03     movlw	0x3                	MOVLW	0x03
003538   cfdb     movff	0xfdb, 0x1         	MOVFF	PLUSW2, r0x01
00353a   f001
00353c   0e04     movlw	0x4                	MOVLW	0x04
00353e   cfdb     movff	0xfdb, 0x2         	MOVFF	PLUSW2, r0x02
003540   f002
003542   0e05     movlw	0x5                	MOVLW	0x05
003544   cfdb     movff	0xfdb, 0x3         	MOVFF	PLUSW2, r0x03
003546   f003
                                           ;	.line	38; /home/mandon/programmation/pinguino developpement/pinguino_beta9-05_linux/tools/bin/../share/sdcc/include/pic16/stdlib.c	if (str)
003548   5000     movf	0, 0, 0             	MOVF	r0x00, W
00354a   1001     iorwf	0x1, 0, 0          	IORWF	r0x01, W
00354c   1002     iorwf	0x2, 0, 0          	IORWF	r0x02, W
00354e   e028     bz	0x35a0                	BZ	_00106_DS_
                                           ;	.line	40; /home/mandon/programmation/pinguino developpement/pinguino_beta9-05_linux/tools/bin/../share/sdcc/include/pic16/stdlib.c	**str = c;
003550   c000     movff	0, 0xfe9           	MOVFF	r0x00, FSR0L
003552   ffe9
003554   c001     movff	0x1, 0xff3         	MOVFF	r0x01, PRODL
003556   fff3
003558   5002     movf	0x2, 0, 0           	MOVF	r0x02, W
00355a   ec2d     call	0x5a, 0             	CALL	__gptrget3
00355c   f000
00355e   6e04     movwf	0x4, 0             	MOVWF	r0x04
003560   cff3     movff	0xff3, 0x5         	MOVFF	PRODL, r0x05
003562   f005
003564   cff4     movff	0xff4, 0x6         	MOVFF	PRODH, r0x06
003566   f006
003568   c003     movff	0x3, 0xfe5         	MOVFF	r0x03, POSTDEC1
00356a   ffe5
00356c   c004     movff	0x4, 0xfe9         	MOVFF	r0x04, FSR0L
00356e   ffe9
003570   c005     movff	0x5, 0xff3         	MOVFF	r0x05, PRODL
003572   fff3
003574   5006     movf	0x6, 0, 0           	MOVF	r0x06, W
003576   ec31     call	0x62, 0             	CALL	__gptrput1
003578   f000
                                           ;	.line	41; /home/mandon/programmation/pinguino developpement/pinguino_beta9-05_linux/tools/bin/../share/sdcc/include/pic16/stdlib.c	++(*str);
00357a   2a04     incf	0x4, 0x1, 0         	INCF	r0x04, F
00357c   b0d8     btfsc	0xd8, 0, 0         	BTFSC	STATUS, 0
00357e   2a05     incf	0x5, 0x1, 0         	INCF	r0x05, F
003580   b0d8     btfsc	0xd8, 0, 0         	BTFSC	STATUS, 0
003582   2a06     incf	0x6, 0x1, 0         	INCF	r0x06, F
003584   c004     movff	0x4, 0xfe5         	MOVFF	r0x04, POSTDEC1
003586   ffe5
003588   c005     movff	0x5, 0xff4         	MOVFF	r0x05, PRODH
00358a   fff4
00358c   c006     movff	0x6, 0xff6         	MOVFF	r0x06, TBLPTRL
00358e   fff6
003590   c000     movff	0, 0xfe9           	MOVFF	r0x00, FSR0L
003592   ffe9
003594   c001     movff	0x1, 0xff3         	MOVFF	r0x01, PRODL
003596   fff3
003598   5002     movf	0x2, 0, 0           	MOVF	r0x02, W
00359a   ec35     call	0x6a, 0             	CALL	__gptrput3
00359c   f000
00359e   d017     bra	0x35ce               	BRA	_00108_DS_
                                           _00106_DS_:
                                           ;	.line	46; /home/mandon/programmation/pinguino developpement/pinguino_beta9-05_linux/tools/bin/../share/sdcc/include/pic16/stdlib.c	putchar(c);
0035a0   5003     movf	0x3, 0, 0           	MOVF	r0x03, W
0035a2   6ee5     movwf	0xe5, 0            	MOVWF	POSTDEC1
0035a4   cff2     movff	0xff2, 0xfe5       	MOVFF	INTCON, POSTDEC1
0035a6   ffe5
0035a8   9ef2     bcf	0xf2, 0x7, 0         	BCF	INTCON, 7
0035aa   0005     push                     	PUSH	
0035ac   0eca     movlw	0xca               	MOVLW	LOW(_00111_DS_)
0035ae   6efd     movwf	0xfd, 0            	MOVWF	TOSL
0035b0   0e35     movlw	0x35               	MOVLW	HIGH(_00111_DS_)
0035b2   6efe     movwf	0xfe, 0            	MOVWF	TOSH
0035b4   0e00     movlw	0                  	MOVLW	UPPER(_00111_DS_)
0035b6   6eff     movwf	0xff, 0            	MOVWF	TOSU
0035b8   50e4     movf	0xe4, 0, 0          	MOVF	PREINC1, W
0035ba   6ef2     movwf	0xf2, 0            	MOVWF	INTCON
0035bc   c294     movff	0x294, 0xffb       	MOVFF	(_putchar + 2), PCLATU
0035be   fffb
0035c0   c293     movff	0x293, 0xffa       	MOVFF	(_putchar + 1), PCLATH
0035c2   fffa
0035c4   0102     movlb	0x2                	BANKSEL	_putchar
0035c6   5192     movf	0x92, 0, 0x1        	MOVF	_putchar, W, B
0035c8   6ef9     movwf	0xf9, 0            	MOVWF	PCL
                                           _00111_DS_:
0035ca   0e01     movlw	0x1                	MOVLW	0x01
0035cc   26e1     addwf	0xe1, 0x1, 0       	ADDWF	FSR1L, F
                                           _00108_DS_:
0035ce   cfe4     movff	0xfe4, 0x6         	MOVFF	PREINC1, r0x06
0035d0   f006
0035d2   cfe4     movff	0xfe4, 0x5         	MOVFF	PREINC1, r0x05
0035d4   f005
0035d6   cfe4     movff	0xfe4, 0x4         	MOVFF	PREINC1, r0x04
0035d8   f004
0035da   cfe4     movff	0xfe4, 0x3         	MOVFF	PREINC1, r0x03
0035dc   f003
0035de   cfe4     movff	0xfe4, 0x2         	MOVFF	PREINC1, r0x02
0035e0   f002
0035e2   cfe4     movff	0xfe4, 0x1         	MOVFF	PREINC1, r0x01
0035e4   f001
0035e6   cfe4     movff	0xfe4, 0           	MOVFF	PREINC1, r0x00
0035e8   f000
0035ea   cfe4     movff	0xfe4, 0xfd9       	MOVFF	PREINC1, FSR2L
0035ec   ffd9
0035ee   0012     return	0                 	RETURN	
                                           
                                           ; ; Starting pCode block
                                           __str_0:
0035f0   6e28     movwf	0x28, 0            	DB	0x28, 0x6e, 0x75, 0x6c, 0x6c, 0x29, 0x00
0035f2   6c75     negf	0x75, 0             
0035f4   296c     incf	0x6c, 0, 0x1        
0035f6   0000     nop                      
                                           ; ; Starting pCode block
                                           __str_1:
0035f8   6f6e     movwf	0x6e, 0x1          	DB	0x6e, 0x6f, 0x74, 0x20, 0x79, 0x65, 0x74, 0x20, 0x69, 0x6d, 0x70, 0x6c
0035fa   2074     addwfc	0x74, 0, 0        
0035fc   6579     cpfsgt	0x79, 0x1         
0035fe   2074     addwfc	0x74, 0, 0        
003600   6d69     negf	0x69, 0x1           
003602   6c70     negf	0x70, 0             
003604   6d65     negf	0x65, 0x1           	DB	0x65, 0x6d, 0x65, 0x6e, 0x74, 0x65, 0x64, 0x00, 0x00
003606   6e65     movwf	0x65, 0            
003608   6574     cpfsgt	0x74, 0x1         
00360a   0064     dw	0x64  ;unknown opcode 
00360c   0000     nop                      
                                           ; ; Starting pCode block
                                           __str_2:
00360e   6425     cpfsgt	0x25, 0           	DB	0x25, 0x64, 0x00
003610   0000     nop                      
                                           ; ; Starting pCode block
                                           __str_3:
003612   7825     btg	0x25, 0x4, 0         	DB	0x25, 0x78, 0x00
003614   0000     nop                      
                                           ; ; Starting pCode block
                                           __str_4:
003616   4554     rlncf	0x54, 0, 0x1       	DB	0x54, 0x45, 0x53, 0x54, 0x0a, 0x0d, 0x00
003618   5453     subfwb	0x53, 0, 0        
00361a   0d0a     mullw	0xa                
00361c   0000     nop                      
                                           ; ; Starting pCode block
                                           __str_5:
00361e   6163     cpfslt	0x63, 0x1         	DB	0x63, 0x61, 0x72, 0x61, 0x63, 0x74, 0x65, 0x72, 0x65, 0x00
003620   6172     cpfslt	0x72, 0x1         
003622   7463     btg	0x63, 0x2, 0         
003624   7265     btg	0x65, 0x1, 0         
003626   0065     dw	0x65  ;unknown opcode 
                                           
                                           
                                           ; Statistics:
                                           ; code size:	 5830 (0x16c6) bytes ( 4.45%)
                                           ;           	 2915 (0x0b63) words
                                           ; udata size:	  148 (0x0094) bytes ( 8.26%)
                                           ; access size:	   27 (0x001b) bytes
                                           
                                           
                                           	end
