;--------------------------------------------------------
; File Created by SDCC : free open source ANSI-C Compiler
; Version 2.9.7 #5938 (Aug 21 2010) (MINGW32)
; This file was generated Thu May 26 09:55:39 2011
;--------------------------------------------------------
; PIC16 port for the Microchip 16-bit core micros
;--------------------------------------------------------
	list	p=18f2550

	radix dec

;--------------------------------------------------------
; public variables in this module
;--------------------------------------------------------
	global _digitalwrite
	global _digitalread
	global _pinmode
	global _toggle
	global _Delayms
	global _epap_in
	global _epap_out
	global _epapin_init
	global _epapout_init
	global _setup
	global _loop
	global _pinguino_main
	global _high_priority_isr
	global _low_priority_isr
	global _mask
	global _port

;--------------------------------------------------------
; extern variables in this module
;--------------------------------------------------------
	extern _SPPDATAbits
	extern _SPPCFGbits
	extern _SPPEPSbits
	extern _SPPCONbits
	extern _UFRMLbits
	extern _UFRMHbits
	extern _UIRbits
	extern _UIEbits
	extern _UEIRbits
	extern _UEIEbits
	extern _USTATbits
	extern _UCONbits
	extern _UADDRbits
	extern _UCFGbits
	extern _UEP0bits
	extern _UEP1bits
	extern _UEP2bits
	extern _UEP3bits
	extern _UEP4bits
	extern _UEP5bits
	extern _UEP6bits
	extern _UEP7bits
	extern _UEP8bits
	extern _UEP9bits
	extern _UEP10bits
	extern _UEP11bits
	extern _UEP12bits
	extern _UEP13bits
	extern _UEP14bits
	extern _UEP15bits
	extern _PORTAbits
	extern _PORTBbits
	extern _PORTCbits
	extern _PORTDbits
	extern _PORTEbits
	extern _LATAbits
	extern _LATBbits
	extern _LATCbits
	extern _LATDbits
	extern _LATEbits
	extern _TRISAbits
	extern _TRISBbits
	extern _TRISCbits
	extern _TRISDbits
	extern _TRISEbits
	extern _OSCTUNEbits
	extern _PIE1bits
	extern _PIR1bits
	extern _IPR1bits
	extern _PIE2bits
	extern _PIR2bits
	extern _IPR2bits
	extern _EECON1bits
	extern _RCSTAbits
	extern _TXSTAbits
	extern _T3CONbits
	extern _CMCONbits
	extern _CVRCONbits
	extern _ECCP1ASbits
	extern _ECCP1DELbits
	extern _BAUDCONbits
	extern _CCP2CONbits
	extern _CCP1CONbits
	extern _ADCON2bits
	extern _ADCON1bits
	extern _ADCON0bits
	extern _SSPCON2bits
	extern _SSPCON1bits
	extern _SSPSTATbits
	extern _T2CONbits
	extern _T1CONbits
	extern _RCONbits
	extern _WDTCONbits
	extern _HLVDCONbits
	extern _OSCCONbits
	extern _T0CONbits
	extern _STATUSbits
	extern _FSR2Hbits
	extern _BSRbits
	extern _FSR1Hbits
	extern _FSR0Hbits
	extern _INTCON3bits
	extern _INTCON2bits
	extern _INTCONbits
	extern _TBLPTRUbits
	extern _PCLATHbits
	extern _PCLATUbits
	extern _STKPTRbits
	extern _TOSUbits
	extern _usb_device_state
	extern _usb_active_cfg
	extern _usb_active_alt_setting
	extern _microsecs
	extern _SPPDATA
	extern _SPPCFG
	extern _SPPEPS
	extern _SPPCON
	extern _UFRML
	extern _UFRMH
	extern _UIR
	extern _UIE
	extern _UEIR
	extern _UEIE
	extern _USTAT
	extern _UCON
	extern _UADDR
	extern _UCFG
	extern _UEP0
	extern _UEP1
	extern _UEP2
	extern _UEP3
	extern _UEP4
	extern _UEP5
	extern _UEP6
	extern _UEP7
	extern _UEP8
	extern _UEP9
	extern _UEP10
	extern _UEP11
	extern _UEP12
	extern _UEP13
	extern _UEP14
	extern _UEP15
	extern _PORTA
	extern _PORTB
	extern _PORTC
	extern _PORTD
	extern _PORTE
	extern _LATA
	extern _LATB
	extern _LATC
	extern _LATD
	extern _LATE
	extern _TRISA
	extern _TRISB
	extern _TRISC
	extern _TRISD
	extern _TRISE
	extern _OSCTUNE
	extern _PIE1
	extern _PIR1
	extern _IPR1
	extern _PIE2
	extern _PIR2
	extern _IPR2
	extern _EECON1
	extern _EECON2
	extern _EEDATA
	extern _EEADR
	extern _RCSTA
	extern _TXSTA
	extern _TXREG
	extern _RCREG
	extern _SPBRG
	extern _SPBRGH
	extern _T3CON
	extern _TMR3L
	extern _TMR3H
	extern _CMCON
	extern _CVRCON
	extern _ECCP1AS
	extern _ECCP1DEL
	extern _BAUDCON
	extern _CCP2CON
	extern _CCPR2L
	extern _CCPR2H
	extern _CCP1CON
	extern _CCPR1L
	extern _CCPR1H
	extern _ADCON2
	extern _ADCON1
	extern _ADCON0
	extern _ADRESL
	extern _ADRESH
	extern _SSPCON2
	extern _SSPCON1
	extern _SSPSTAT
	extern _SSPADD
	extern _SSPBUF
	extern _T2CON
	extern _PR2
	extern _TMR2
	extern _T1CON
	extern _TMR1L
	extern _TMR1H
	extern _RCON
	extern _WDTCON
	extern _HLVDCON
	extern _OSCCON
	extern _T0CON
	extern _TMR0L
	extern _TMR0H
	extern _STATUS
	extern _FSR2L
	extern _FSR2H
	extern _PLUSW2
	extern _PREINC2
	extern _POSTDEC2
	extern _POSTINC2
	extern _INDF2
	extern _BSR
	extern _FSR1L
	extern _FSR1H
	extern _PLUSW1
	extern _PREINC1
	extern _POSTDEC1
	extern _POSTINC1
	extern _INDF1
	extern _WREG
	extern _FSR0L
	extern _FSR0H
	extern _PLUSW0
	extern _PREINC0
	extern _POSTDEC0
	extern _POSTINC0
	extern _INDF0
	extern _INTCON3
	extern _INTCON2
	extern _INTCON
	extern _PRODL
	extern _PRODH
	extern _TABLAT
	extern _TBLPTRL
	extern _TBLPTRH
	extern _TBLPTRU
	extern _PCL
	extern _PCLATH
	extern _PCLATU
	extern _STKPTR
	extern _TOSL
	extern _TOSH
	extern _TOSU
	extern _delay120tcy
;--------------------------------------------------------
;	Equates to used internal registers
;--------------------------------------------------------
STATUS	equ	0xfd8
PCL	equ	0xff9
PCLATH	equ	0xffa
PCLATU	equ	0xffb
WREG	equ	0xfe8
BSR	equ	0xfe0
TBLPTRL	equ	0xff6
TBLPTRH	equ	0xff7
TBLPTRU	equ	0xff8
TABLAT	equ	0xff5
FSR0L	equ	0xfe9
FSR0H	equ	0xfea
FSR1L	equ	0xfe1
FSR2L	equ	0xfd9
POSTDEC1	equ	0xfe5
PREINC1	equ	0xfe4
PLUSW2	equ	0xfdb
PRODL	equ	0xff3
PRODH	equ	0xff4


; Internal registers
.registers	udata_ovr	0x0000
r0x00	res	1
r0x01	res	1
r0x02	res	1
r0x03	res	1
r0x04	res	1
r0x05	res	1
r0x06	res	1
r0x07	res	1
r0x08	res	1

;--------------------------------------------------------
; global & static initialisations
;--------------------------------------------------------
; ; Starting pCode block
S_main__high_priority_isr	code	0X002020
_high_priority_isr:
;	.line	121; C:\Users\jpm\Documents\pinguino32x_windows\source\main.c	void high_priority_isr(void) interrupt
	MOVFF	WREG, POSTDEC1
	MOVFF	STATUS, POSTDEC1
	MOVFF	BSR, POSTDEC1
	MOVFF	PRODL, POSTDEC1
	MOVFF	PRODH, POSTDEC1
	MOVFF	FSR0L, POSTDEC1
	MOVFF	FSR0H, POSTDEC1
	MOVFF	PCLATH, POSTDEC1
	MOVFF	PCLATU, POSTDEC1
;	.line	182; C:\Users\jpm\Documents\pinguino32x_windows\source\main.c	}
	MOVFF	PREINC1, PCLATU
	MOVFF	PREINC1, PCLATH
	MOVFF	PREINC1, FSR0H
	MOVFF	PREINC1, FSR0L
	MOVFF	PREINC1, PRODH
	MOVFF	PREINC1, PRODL
	MOVFF	PREINC1, BSR
	MOVFF	PREINC1, STATUS
	MOVFF	PREINC1, WREG
	RETFIE	

; ; Starting pCode block
S_main__low_priority_isr	code	0X004000
_low_priority_isr:
;	.line	185; C:\Users\jpm\Documents\pinguino32x_windows\source\main.c	void low_priority_isr(void) interrupt
	MOVFF	WREG, POSTDEC1
	MOVFF	STATUS, POSTDEC1
	MOVFF	BSR, POSTDEC1
	MOVFF	PRODL, POSTDEC1
	MOVFF	PRODH, POSTDEC1
	MOVFF	FSR0L, POSTDEC1
	MOVFF	FSR0H, POSTDEC1
	MOVFF	PCLATH, POSTDEC1
	MOVFF	PCLATU, POSTDEC1
;	.line	190; C:\Users\jpm\Documents\pinguino32x_windows\source\main.c	}
	MOVFF	PREINC1, PCLATU
	MOVFF	PREINC1, PCLATH
	MOVFF	PREINC1, FSR0H
	MOVFF	PREINC1, FSR0L
	MOVFF	PREINC1, PRODH
	MOVFF	PREINC1, PRODL
	MOVFF	PREINC1, BSR
	MOVFF	PREINC1, STATUS
	MOVFF	PREINC1, WREG
	RETFIE	

; I code from now on!
; ; Starting pCode block
S_main__pinguino_main	code
_pinguino_main:
;	.line	53; C:\Users\jpm\Documents\pinguino32x_windows\source\main.c	PIE1 = 0;
	CLRF	_PIE1
;	.line	54; C:\Users\jpm\Documents\pinguino32x_windows\source\main.c	PIE2 = 0;
	CLRF	_PIE2
;	.line	55; C:\Users\jpm\Documents\pinguino32x_windows\source\main.c	ADCON1 = 0b00001111;				// AN0 to AN12 Digital I/O
	MOVLW	0x0f
	MOVWF	_ADCON1
;	.line	67; C:\Users\jpm\Documents\pinguino32x_windows\source\main.c	setup();
	CALL	_setup
_00230_DS_:
;	.line	115; C:\Users\jpm\Documents\pinguino32x_windows\source\main.c	loop();
	CALL	_loop
	BRA	_00230_DS_
	RETURN	

; ; Starting pCode block
S_main__loop	code
_loop:
;	.line	13; C:\Users\jpm\Documents\pinguino32x_windows\source\/user.c	digitalwrite(13,LOW);
	CLRF	POSTDEC1
	MOVLW	0x01
	MOVWF	POSTDEC1
	CLRF	POSTDEC1
	MOVLW	0x0d
	MOVWF	POSTDEC1
	CALL	_digitalwrite
	MOVLW	0x04
	ADDWF	FSR1L, F
;	.line	14; C:\Users\jpm\Documents\pinguino32x_windows\source\/user.c	Delayms(500);
	CLRF	POSTDEC1
	CLRF	POSTDEC1
	MOVLW	0x01
	MOVWF	POSTDEC1
	MOVLW	0xf4
	MOVWF	POSTDEC1
	CALL	_Delayms
	MOVLW	0x04
	ADDWF	FSR1L, F
;	.line	15; C:\Users\jpm\Documents\pinguino32x_windows\source\/user.c	}
	CLRF	POSTDEC1
	CLRF	POSTDEC1
	CLRF	POSTDEC1
	MOVLW	0x0d
	MOVWF	POSTDEC1
	CALL	_digitalwrite
	MOVLW	0x04
	ADDWF	FSR1L, F
;	.line	16; C:\Users\jpm\Documents\pinguino32x_windows\source\/user.c	
	CLRF	POSTDEC1
	CLRF	POSTDEC1
	MOVLW	0x01
	MOVWF	POSTDEC1
	MOVLW	0xf4
	MOVWF	POSTDEC1
	CALL	_Delayms
	MOVLW	0x04
	ADDWF	FSR1L, F
	RETURN	

; ; Starting pCode block
S_main__setup	code
_setup:
;	.line	8; C:\Users\jpm\Documents\pinguino32x_windows\source\/user.c	
	CLRF	POSTDEC1
	CLRF	POSTDEC1
	CLRF	POSTDEC1
	MOVLW	0x0d
	MOVWF	POSTDEC1
	CALL	_pinmode
	MOVLW	0x04
	ADDWF	FSR1L, F
	RETURN	

; ; Starting pCode block
S_main__epapout_init	code
_epapout_init:
;	.line	41; C:\Users\jpm\Documents\pinguino32x_windows\source\main.c	void epapout_init() { return; }
	RETURN	

; ; Starting pCode block
S_main__epapin_init	code
_epapin_init:
;	.line	40; C:\Users\jpm\Documents\pinguino32x_windows\source\main.c	void epapin_init() { return; }
	RETURN	

; ; Starting pCode block
S_main__epap_out	code
_epap_out:
;	.line	39; C:\Users\jpm\Documents\pinguino32x_windows\source\main.c	void epap_out() { return; }
	RETURN	

; ; Starting pCode block
S_main__epap_in	code
_epap_in:
;	.line	38; C:\Users\jpm\Documents\pinguino32x_windows\source\main.c	void epap_in() { return; }
	RETURN	

; ; Starting pCode block
S_main__Delayms	code
_Delayms:
;	.line	10; C:/Users/jpm/Documents/pinguino32x_windows/tools/bin/../include/pic16/pinguinodelay.c	void Delayms(unsigned long milliseconde)
	MOVFF	FSR2L, POSTDEC1
	MOVFF	FSR1L, FSR2L
	MOVFF	r0x00, POSTDEC1
	MOVFF	r0x01, POSTDEC1
	MOVFF	r0x02, POSTDEC1
	MOVFF	r0x03, POSTDEC1
	MOVFF	r0x04, POSTDEC1
	MOVFF	r0x05, POSTDEC1
	MOVFF	r0x06, POSTDEC1
	MOVFF	r0x07, POSTDEC1
	MOVLW	0x02
	MOVFF	PLUSW2, r0x00
	MOVLW	0x03
	MOVFF	PLUSW2, r0x01
	MOVLW	0x04
	MOVFF	PLUSW2, r0x02
	MOVLW	0x05
	MOVFF	PLUSW2, r0x03
;	.line	14; C:/Users/jpm/Documents/pinguino32x_windows/tools/bin/../include/pic16/pinguinodelay.c	for (i=0;i<milliseconde;i++) delay120tcy(100);
	CLRF	r0x04
	CLRF	r0x05
	CLRF	r0x06
	CLRF	r0x07
_00185_DS_:
	MOVF	r0x03, W
	SUBWF	r0x07, W
	BNZ	_00194_DS_
	MOVF	r0x02, W
	SUBWF	r0x06, W
	BNZ	_00194_DS_
	MOVF	r0x01, W
	SUBWF	r0x05, W
	BNZ	_00194_DS_
	MOVF	r0x00, W
	SUBWF	r0x04, W
_00194_DS_:
	BC	_00189_DS_
	MOVLW	0x64
	CALL	_delay120tcy
	INCF	r0x04, F
	BTFSC	STATUS, 0
	INCF	r0x05, F
	BTFSC	STATUS, 0
	INCF	r0x06, F
	BTFSC	STATUS, 0
	INCF	r0x07, F
	BRA	_00185_DS_
_00189_DS_:
	MOVFF	PREINC1, r0x07
	MOVFF	PREINC1, r0x06
	MOVFF	PREINC1, r0x05
	MOVFF	PREINC1, r0x04
	MOVFF	PREINC1, r0x03
	MOVFF	PREINC1, r0x02
	MOVFF	PREINC1, r0x01
	MOVFF	PREINC1, r0x00
	MOVFF	PREINC1, FSR2L
	RETURN	

; ; Starting pCode block
S_main__toggle	code
_toggle:
;	.line	93; C:/Users/jpm/Documents/pinguino32x_windows/tools/bin/../include/pic16/digitalw.c	void toggle(u8 pin)
	MOVFF	FSR2L, POSTDEC1
	MOVFF	FSR1L, FSR2L
	MOVFF	r0x00, POSTDEC1
	MOVFF	r0x01, POSTDEC1
	MOVFF	r0x02, POSTDEC1
	MOVLW	0x02
	MOVFF	PLUSW2, r0x00
;	.line	96; C:/Users/jpm/Documents/pinguino32x_windows/tools/bin/../include/pic16/digitalw.c	val = digitalread(pin);
	CLRF	r0x01
	CLRF	POSTDEC1
	MOVF	r0x00, W
	MOVWF	POSTDEC1
	CALL	_digitalread
	MOVWF	r0x02
	MOVLW	0x02
	ADDWF	FSR1L, F
;	.line	97; C:/Users/jpm/Documents/pinguino32x_windows/tools/bin/../include/pic16/digitalw.c	digitalwrite(pin, val^1);
	MOVLW	0x01
	XORWF	r0x02, F
	CLRF	POSTDEC1
	MOVF	r0x02, W
	MOVWF	POSTDEC1
	MOVF	r0x01, W
	MOVWF	POSTDEC1
	MOVF	r0x00, W
	MOVWF	POSTDEC1
	CALL	_digitalwrite
	MOVLW	0x04
	ADDWF	FSR1L, F
	MOVFF	PREINC1, r0x02
	MOVFF	PREINC1, r0x01
	MOVFF	PREINC1, r0x00
	MOVFF	PREINC1, FSR2L
	RETURN	

; ; Starting pCode block
S_main__pinmode	code
_pinmode:
;	.line	69; C:/Users/jpm/Documents/pinguino32x_windows/tools/bin/../include/pic16/digitalw.c	void pinmode(int input, int state)
	MOVFF	FSR2L, POSTDEC1
	MOVFF	FSR1L, FSR2L
	MOVFF	r0x00, POSTDEC1
	MOVFF	r0x01, POSTDEC1
	MOVFF	r0x02, POSTDEC1
	MOVFF	r0x03, POSTDEC1
	MOVFF	r0x04, POSTDEC1
	MOVFF	r0x05, POSTDEC1
	MOVFF	r0x06, POSTDEC1
	MOVLW	0x02
	MOVFF	PLUSW2, r0x00
	MOVLW	0x03
	MOVFF	PLUSW2, r0x01
	MOVLW	0x04
	MOVFF	PLUSW2, r0x02
	MOVLW	0x05
	MOVFF	PLUSW2, r0x03
;	.line	71; C:/Users/jpm/Documents/pinguino32x_windows/tools/bin/../include/pic16/digitalw.c	switch (port[input])
	MOVLW	LOW(_port)
	ADDWF	r0x00, W
	MOVWF	r0x04
	MOVLW	HIGH(_port)
	ADDWFC	r0x01, W
	MOVWF	r0x05
	CLRF	r0x06
	BTFSC	r0x01, 7
	SETF	r0x06
	MOVLW	UPPER(_port)
	ADDWFC	r0x06, F
	MOVFF	r0x04, TBLPTRL
	MOVFF	r0x05, TBLPTRH
	MOVFF	r0x06, TBLPTRU
	TBLRD*+	
	MOVFF	TABLAT, r0x04
	MOVLW	0x03
	SUBWF	r0x04, W
	BTFSC	STATUS, 0
	BRA	_00168_DS_
	MOVFF	r0x07, POSTDEC1
	MOVFF	r0x08, POSTDEC1
	CLRF	r0x08
	RLCF	r0x04, W
	RLCF	r0x08, F
	RLCF	WREG, W
	RLCF	r0x08, F
	ANDLW	0xfc
	MOVWF	r0x07
	MOVLW	UPPER(_00175_DS_)
	MOVWF	PCLATU
	MOVLW	HIGH(_00175_DS_)
	MOVWF	PCLATH
	MOVLW	LOW(_00175_DS_)
	ADDWF	r0x07, F
	MOVF	r0x08, W
	ADDWFC	PCLATH, F
	BTFSC	STATUS, 0
	INCF	PCLATU, F
	MOVF	r0x07, W
	MOVFF	PREINC1, r0x08
	MOVFF	PREINC1, r0x07
	MOVWF	PCL
_00175_DS_:
	GOTO	_00155_DS_
	GOTO	_00159_DS_
	GOTO	_00163_DS_
_00155_DS_:
;	.line	73; C:/Users/jpm/Documents/pinguino32x_windows/tools/bin/../include/pic16/digitalw.c	case 0: if (state) TRISB=TRISB | mask[input];
	MOVF	r0x02, W
	IORWF	r0x03, W
	BZ	_00157_DS_
	MOVLW	LOW(_mask)
	ADDWF	r0x00, W
	MOVWF	r0x04
	MOVLW	HIGH(_mask)
	ADDWFC	r0x01, W
	MOVWF	r0x05
	CLRF	r0x06
	BTFSC	r0x01, 7
	SETF	r0x06
	MOVLW	UPPER(_mask)
	ADDWFC	r0x06, F
	MOVFF	r0x04, TBLPTRL
	MOVFF	r0x05, TBLPTRH
	MOVFF	r0x06, TBLPTRU
	TBLRD*+	
	MOVFF	TABLAT, r0x04
	MOVF	r0x04, W
	IORWF	_TRISB, F
	BRA	_00168_DS_
_00157_DS_:
;	.line	74; C:/Users/jpm/Documents/pinguino32x_windows/tools/bin/../include/pic16/digitalw.c	else TRISB=TRISB & (255-mask[input]);
	MOVLW	LOW(_mask)
	ADDWF	r0x00, W
	MOVWF	r0x04
	MOVLW	HIGH(_mask)
	ADDWFC	r0x01, W
	MOVWF	r0x05
	CLRF	r0x06
	BTFSC	r0x01, 7
	SETF	r0x06
	MOVLW	UPPER(_mask)
	ADDWFC	r0x06, F
	MOVFF	r0x04, TBLPTRL
	MOVFF	r0x05, TBLPTRH
	MOVFF	r0x06, TBLPTRU
	TBLRD*+	
	MOVFF	TABLAT, r0x04
	MOVF	r0x04, W
	SUBLW	0xff
; #	MOVWF	r0x04
; #	MOVF	r0x04, W
	ANDWF	_TRISB, F
;	.line	75; C:/Users/jpm/Documents/pinguino32x_windows/tools/bin/../include/pic16/digitalw.c	break;
	BRA	_00168_DS_
_00159_DS_:
;	.line	76; C:/Users/jpm/Documents/pinguino32x_windows/tools/bin/../include/pic16/digitalw.c	case 1: if (state) TRISC=TRISC | mask[input];
	MOVF	r0x02, W
	IORWF	r0x03, W
	BZ	_00161_DS_
	MOVLW	LOW(_mask)
	ADDWF	r0x00, W
	MOVWF	r0x04
	MOVLW	HIGH(_mask)
	ADDWFC	r0x01, W
	MOVWF	r0x05
	CLRF	r0x06
	BTFSC	r0x01, 7
	SETF	r0x06
	MOVLW	UPPER(_mask)
	ADDWFC	r0x06, F
	MOVFF	r0x04, TBLPTRL
	MOVFF	r0x05, TBLPTRH
	MOVFF	r0x06, TBLPTRU
	TBLRD*+	
	MOVFF	TABLAT, r0x04
	MOVF	r0x04, W
	IORWF	_TRISC, F
	BRA	_00168_DS_
_00161_DS_:
;	.line	77; C:/Users/jpm/Documents/pinguino32x_windows/tools/bin/../include/pic16/digitalw.c	else TRISC=TRISC & (255-mask[input]);
	MOVLW	LOW(_mask)
	ADDWF	r0x00, W
	MOVWF	r0x04
	MOVLW	HIGH(_mask)
	ADDWFC	r0x01, W
	MOVWF	r0x05
	CLRF	r0x06
	BTFSC	r0x01, 7
	SETF	r0x06
	MOVLW	UPPER(_mask)
	ADDWFC	r0x06, F
	MOVFF	r0x04, TBLPTRL
	MOVFF	r0x05, TBLPTRH
	MOVFF	r0x06, TBLPTRU
	TBLRD*+	
	MOVFF	TABLAT, r0x04
	MOVF	r0x04, W
	SUBLW	0xff
; #	MOVWF	r0x04
; #	MOVF	r0x04, W
	ANDWF	_TRISC, F
;	.line	78; C:/Users/jpm/Documents/pinguino32x_windows/tools/bin/../include/pic16/digitalw.c	break;
	BRA	_00168_DS_
_00163_DS_:
;	.line	79; C:/Users/jpm/Documents/pinguino32x_windows/tools/bin/../include/pic16/digitalw.c	case 2: if (state) TRISA=TRISA | mask[input];
	MOVF	r0x02, W
	IORWF	r0x03, W
	BZ	_00165_DS_
	MOVLW	LOW(_mask)
	ADDWF	r0x00, W
	MOVWF	r0x02
	MOVLW	HIGH(_mask)
	ADDWFC	r0x01, W
	MOVWF	r0x03
	CLRF	r0x04
	BTFSC	r0x01, 7
	SETF	r0x04
	MOVLW	UPPER(_mask)
	ADDWFC	r0x04, F
	MOVFF	r0x02, TBLPTRL
	MOVFF	r0x03, TBLPTRH
	MOVFF	r0x04, TBLPTRU
	TBLRD*+	
	MOVFF	TABLAT, r0x02
	MOVF	r0x02, W
	IORWF	_TRISA, F
	BRA	_00168_DS_
_00165_DS_:
;	.line	80; C:/Users/jpm/Documents/pinguino32x_windows/tools/bin/../include/pic16/digitalw.c	else TRISA=TRISA & (255-mask[input]);
	CLRF	r0x02
	BTFSC	r0x01, 7
	SETF	r0x02
	MOVLW	LOW(_mask)
	ADDWF	r0x00, F
	MOVLW	HIGH(_mask)
	ADDWFC	r0x01, F
	MOVLW	UPPER(_mask)
	ADDWFC	r0x02, F
	MOVFF	r0x00, TBLPTRL
	MOVFF	r0x01, TBLPTRH
	MOVFF	r0x02, TBLPTRU
	TBLRD*+	
	MOVFF	TABLAT, r0x00
	MOVF	r0x00, W
	SUBLW	0xff
; #	MOVWF	r0x00
; #	MOVF	r0x00, W
	ANDWF	_TRISA, F
_00168_DS_:
;	.line	90; C:/Users/jpm/Documents/pinguino32x_windows/tools/bin/../include/pic16/digitalw.c	}
	MOVFF	PREINC1, r0x06
	MOVFF	PREINC1, r0x05
	MOVFF	PREINC1, r0x04
	MOVFF	PREINC1, r0x03
	MOVFF	PREINC1, r0x02
	MOVFF	PREINC1, r0x01
	MOVFF	PREINC1, r0x00
	MOVFF	PREINC1, FSR2L
	RETURN	

; ; Starting pCode block
S_main__digitalread	code
_digitalread:
;	.line	44; C:/Users/jpm/Documents/pinguino32x_windows/tools/bin/../include/pic16/digitalw.c	int digitalread(int input)
	MOVFF	FSR2L, POSTDEC1
	MOVFF	FSR1L, FSR2L
	MOVFF	r0x00, POSTDEC1
	MOVFF	r0x01, POSTDEC1
	MOVFF	r0x02, POSTDEC1
	MOVFF	r0x03, POSTDEC1
	MOVFF	r0x04, POSTDEC1
	MOVLW	0x02
	MOVFF	PLUSW2, r0x00
	MOVLW	0x03
	MOVFF	PLUSW2, r0x01
;	.line	46; C:/Users/jpm/Documents/pinguino32x_windows/tools/bin/../include/pic16/digitalw.c	switch (port[input])
	MOVLW	LOW(_port)
	ADDWF	r0x00, W
	MOVWF	r0x02
	MOVLW	HIGH(_port)
	ADDWFC	r0x01, W
	MOVWF	r0x03
	CLRF	r0x04
	BTFSC	r0x01, 7
	SETF	r0x04
	MOVLW	UPPER(_port)
	ADDWFC	r0x04, F
	MOVFF	r0x02, TBLPTRL
	MOVFF	r0x03, TBLPTRH
	MOVFF	r0x04, TBLPTRU
	TBLRD*+	
	MOVFF	TABLAT, r0x02
	MOVLW	0x03
	SUBWF	r0x02, W
	BTFSC	STATUS, 0
	BRA	_00142_DS_
	MOVFF	r0x05, POSTDEC1
	MOVFF	r0x06, POSTDEC1
	CLRF	r0x06
	RLCF	r0x02, W
	RLCF	r0x06, F
	RLCF	WREG, W
	RLCF	r0x06, F
	ANDLW	0xfc
	MOVWF	r0x05
	MOVLW	UPPER(_00150_DS_)
	MOVWF	PCLATU
	MOVLW	HIGH(_00150_DS_)
	MOVWF	PCLATH
	MOVLW	LOW(_00150_DS_)
	ADDWF	r0x05, F
	MOVF	r0x06, W
	ADDWFC	PCLATH, F
	BTFSC	STATUS, 0
	INCF	PCLATU, F
	MOVF	r0x05, W
	MOVFF	PREINC1, r0x06
	MOVFF	PREINC1, r0x05
	MOVWF	PCL
_00150_DS_:
	GOTO	_00130_DS_
	GOTO	_00134_DS_
	GOTO	_00138_DS_
_00130_DS_:
;	.line	48; C:/Users/jpm/Documents/pinguino32x_windows/tools/bin/../include/pic16/digitalw.c	case 0: if ((PORTB & mask[input])!=0) return (1);
	MOVLW	LOW(_mask)
	ADDWF	r0x00, W
	MOVWF	r0x02
	MOVLW	HIGH(_mask)
	ADDWFC	r0x01, W
	MOVWF	r0x03
	CLRF	r0x04
	BTFSC	r0x01, 7
	SETF	r0x04
	MOVLW	UPPER(_mask)
	ADDWFC	r0x04, F
	MOVFF	r0x02, TBLPTRL
	MOVFF	r0x03, TBLPTRH
	MOVFF	r0x04, TBLPTRU
	TBLRD*+	
	MOVFF	TABLAT, r0x02
	MOVF	_PORTB, W
	ANDWF	r0x02, F
	MOVF	r0x02, W
	BZ	_00132_DS_
	CLRF	PRODL
	MOVLW	0x01
	BRA	_00143_DS_
_00132_DS_:
;	.line	49; C:/Users/jpm/Documents/pinguino32x_windows/tools/bin/../include/pic16/digitalw.c	else return (0);
	CLRF	PRODL
	CLRF	WREG
	BRA	_00143_DS_
_00134_DS_:
;	.line	51; C:/Users/jpm/Documents/pinguino32x_windows/tools/bin/../include/pic16/digitalw.c	case 1: if ((PORTC & mask[input])!=0) return (1);
	MOVLW	LOW(_mask)
	ADDWF	r0x00, W
	MOVWF	r0x02
	MOVLW	HIGH(_mask)
	ADDWFC	r0x01, W
	MOVWF	r0x03
	CLRF	r0x04
	BTFSC	r0x01, 7
	SETF	r0x04
	MOVLW	UPPER(_mask)
	ADDWFC	r0x04, F
	MOVFF	r0x02, TBLPTRL
	MOVFF	r0x03, TBLPTRH
	MOVFF	r0x04, TBLPTRU
	TBLRD*+	
	MOVFF	TABLAT, r0x02
	MOVF	_PORTC, W
	ANDWF	r0x02, F
	MOVF	r0x02, W
	BZ	_00136_DS_
	CLRF	PRODL
	MOVLW	0x01
	BRA	_00143_DS_
_00136_DS_:
;	.line	52; C:/Users/jpm/Documents/pinguino32x_windows/tools/bin/../include/pic16/digitalw.c	else return (0);
	CLRF	PRODL
	CLRF	WREG
	BRA	_00143_DS_
_00138_DS_:
;	.line	54; C:/Users/jpm/Documents/pinguino32x_windows/tools/bin/../include/pic16/digitalw.c	case 2: if ((PORTA & mask[input])!=0) return (1);
	CLRF	r0x02
	BTFSC	r0x01, 7
	SETF	r0x02
	MOVLW	LOW(_mask)
	ADDWF	r0x00, F
	MOVLW	HIGH(_mask)
	ADDWFC	r0x01, F
	MOVLW	UPPER(_mask)
	ADDWFC	r0x02, F
	MOVFF	r0x00, TBLPTRL
	MOVFF	r0x01, TBLPTRH
	MOVFF	r0x02, TBLPTRU
	TBLRD*+	
	MOVFF	TABLAT, r0x00
	MOVF	_PORTA, W
	ANDWF	r0x00, F
	MOVF	r0x00, W
	BZ	_00140_DS_
	CLRF	PRODL
	MOVLW	0x01
	BRA	_00143_DS_
_00140_DS_:
;	.line	55; C:/Users/jpm/Documents/pinguino32x_windows/tools/bin/../include/pic16/digitalw.c	else return (0);
	CLRF	PRODL
	CLRF	WREG
	BRA	_00143_DS_
_00142_DS_:
;	.line	66; C:/Users/jpm/Documents/pinguino32x_windows/tools/bin/../include/pic16/digitalw.c	return (0);
	CLRF	PRODL
	CLRF	WREG
_00143_DS_:
	MOVFF	PREINC1, r0x04
	MOVFF	PREINC1, r0x03
	MOVFF	PREINC1, r0x02
	MOVFF	PREINC1, r0x01
	MOVFF	PREINC1, r0x00
	MOVFF	PREINC1, FSR2L
	RETURN	

; ; Starting pCode block
S_main__digitalwrite	code
_digitalwrite:
;	.line	20; C:/Users/jpm/Documents/pinguino32x_windows/tools/bin/../include/pic16/digitalw.c	void digitalwrite(int output,int state)
	MOVFF	FSR2L, POSTDEC1
	MOVFF	FSR1L, FSR2L
	MOVFF	r0x00, POSTDEC1
	MOVFF	r0x01, POSTDEC1
	MOVFF	r0x02, POSTDEC1
	MOVFF	r0x03, POSTDEC1
	MOVFF	r0x04, POSTDEC1
	MOVFF	r0x05, POSTDEC1
	MOVFF	r0x06, POSTDEC1
	MOVLW	0x02
	MOVFF	PLUSW2, r0x00
	MOVLW	0x03
	MOVFF	PLUSW2, r0x01
	MOVLW	0x04
	MOVFF	PLUSW2, r0x02
	MOVLW	0x05
	MOVFF	PLUSW2, r0x03
;	.line	22; C:/Users/jpm/Documents/pinguino32x_windows/tools/bin/../include/pic16/digitalw.c	switch (port[output])
	MOVLW	LOW(_port)
	ADDWF	r0x00, W
	MOVWF	r0x04
	MOVLW	HIGH(_port)
	ADDWFC	r0x01, W
	MOVWF	r0x05
	CLRF	r0x06
	BTFSC	r0x01, 7
	SETF	r0x06
	MOVLW	UPPER(_port)
	ADDWFC	r0x06, F
	MOVFF	r0x04, TBLPTRL
	MOVFF	r0x05, TBLPTRH
	MOVFF	r0x06, TBLPTRU
	TBLRD*+	
	MOVFF	TABLAT, r0x04
	MOVLW	0x03
	SUBWF	r0x04, W
	BTFSC	STATUS, 0
	BRA	_00118_DS_
	MOVFF	r0x07, POSTDEC1
	MOVFF	r0x08, POSTDEC1
	CLRF	r0x08
	RLCF	r0x04, W
	RLCF	r0x08, F
	RLCF	WREG, W
	RLCF	r0x08, F
	ANDLW	0xfc
	MOVWF	r0x07
	MOVLW	UPPER(_00125_DS_)
	MOVWF	PCLATU
	MOVLW	HIGH(_00125_DS_)
	MOVWF	PCLATH
	MOVLW	LOW(_00125_DS_)
	ADDWF	r0x07, F
	MOVF	r0x08, W
	ADDWFC	PCLATH, F
	BTFSC	STATUS, 0
	INCF	PCLATU, F
	MOVF	r0x07, W
	MOVFF	PREINC1, r0x08
	MOVFF	PREINC1, r0x07
	MOVWF	PCL
_00125_DS_:
	GOTO	_00105_DS_
	GOTO	_00109_DS_
	GOTO	_00113_DS_
_00105_DS_:
;	.line	24; C:/Users/jpm/Documents/pinguino32x_windows/tools/bin/../include/pic16/digitalw.c	case 0: if (state) PORTB=PORTB | mask[output]; 
	MOVF	r0x02, W
	IORWF	r0x03, W
	BZ	_00107_DS_
	MOVLW	LOW(_mask)
	ADDWF	r0x00, W
	MOVWF	r0x04
	MOVLW	HIGH(_mask)
	ADDWFC	r0x01, W
	MOVWF	r0x05
	CLRF	r0x06
	BTFSC	r0x01, 7
	SETF	r0x06
	MOVLW	UPPER(_mask)
	ADDWFC	r0x06, F
	MOVFF	r0x04, TBLPTRL
	MOVFF	r0x05, TBLPTRH
	MOVFF	r0x06, TBLPTRU
	TBLRD*+	
	MOVFF	TABLAT, r0x04
	MOVF	r0x04, W
	IORWF	_PORTB, F
	BRA	_00118_DS_
_00107_DS_:
;	.line	25; C:/Users/jpm/Documents/pinguino32x_windows/tools/bin/../include/pic16/digitalw.c	else PORTB=PORTB & (255-mask[output]);
	MOVLW	LOW(_mask)
	ADDWF	r0x00, W
	MOVWF	r0x04
	MOVLW	HIGH(_mask)
	ADDWFC	r0x01, W
	MOVWF	r0x05
	CLRF	r0x06
	BTFSC	r0x01, 7
	SETF	r0x06
	MOVLW	UPPER(_mask)
	ADDWFC	r0x06, F
	MOVFF	r0x04, TBLPTRL
	MOVFF	r0x05, TBLPTRH
	MOVFF	r0x06, TBLPTRU
	TBLRD*+	
	MOVFF	TABLAT, r0x04
	MOVF	r0x04, W
	SUBLW	0xff
; #	MOVWF	r0x04
; #	MOVF	r0x04, W
	ANDWF	_PORTB, F
;	.line	26; C:/Users/jpm/Documents/pinguino32x_windows/tools/bin/../include/pic16/digitalw.c	break;
	BRA	_00118_DS_
_00109_DS_:
;	.line	27; C:/Users/jpm/Documents/pinguino32x_windows/tools/bin/../include/pic16/digitalw.c	case 1: if (state) PORTC=PORTC | mask[output];
	MOVF	r0x02, W
	IORWF	r0x03, W
	BZ	_00111_DS_
	MOVLW	LOW(_mask)
	ADDWF	r0x00, W
	MOVWF	r0x04
	MOVLW	HIGH(_mask)
	ADDWFC	r0x01, W
	MOVWF	r0x05
	CLRF	r0x06
	BTFSC	r0x01, 7
	SETF	r0x06
	MOVLW	UPPER(_mask)
	ADDWFC	r0x06, F
	MOVFF	r0x04, TBLPTRL
	MOVFF	r0x05, TBLPTRH
	MOVFF	r0x06, TBLPTRU
	TBLRD*+	
	MOVFF	TABLAT, r0x04
	MOVF	r0x04, W
	IORWF	_PORTC, F
	BRA	_00118_DS_
_00111_DS_:
;	.line	28; C:/Users/jpm/Documents/pinguino32x_windows/tools/bin/../include/pic16/digitalw.c	else PORTC=PORTC & (255-mask[output]);
	MOVLW	LOW(_mask)
	ADDWF	r0x00, W
	MOVWF	r0x04
	MOVLW	HIGH(_mask)
	ADDWFC	r0x01, W
	MOVWF	r0x05
	CLRF	r0x06
	BTFSC	r0x01, 7
	SETF	r0x06
	MOVLW	UPPER(_mask)
	ADDWFC	r0x06, F
	MOVFF	r0x04, TBLPTRL
	MOVFF	r0x05, TBLPTRH
	MOVFF	r0x06, TBLPTRU
	TBLRD*+	
	MOVFF	TABLAT, r0x04
	MOVF	r0x04, W
	SUBLW	0xff
; #	MOVWF	r0x04
; #	MOVF	r0x04, W
	ANDWF	_PORTC, F
;	.line	29; C:/Users/jpm/Documents/pinguino32x_windows/tools/bin/../include/pic16/digitalw.c	break;
	BRA	_00118_DS_
_00113_DS_:
;	.line	30; C:/Users/jpm/Documents/pinguino32x_windows/tools/bin/../include/pic16/digitalw.c	case 2: if (state) PORTA=PORTA | mask[output];
	MOVF	r0x02, W
	IORWF	r0x03, W
	BZ	_00115_DS_
	MOVLW	LOW(_mask)
	ADDWF	r0x00, W
	MOVWF	r0x02
	MOVLW	HIGH(_mask)
	ADDWFC	r0x01, W
	MOVWF	r0x03
	CLRF	r0x04
	BTFSC	r0x01, 7
	SETF	r0x04
	MOVLW	UPPER(_mask)
	ADDWFC	r0x04, F
	MOVFF	r0x02, TBLPTRL
	MOVFF	r0x03, TBLPTRH
	MOVFF	r0x04, TBLPTRU
	TBLRD*+	
	MOVFF	TABLAT, r0x02
	MOVF	r0x02, W
	IORWF	_PORTA, F
	BRA	_00118_DS_
_00115_DS_:
;	.line	31; C:/Users/jpm/Documents/pinguino32x_windows/tools/bin/../include/pic16/digitalw.c	else PORTA=PORTA & (255-mask[output]);
	CLRF	r0x02
	BTFSC	r0x01, 7
	SETF	r0x02
	MOVLW	LOW(_mask)
	ADDWF	r0x00, F
	MOVLW	HIGH(_mask)
	ADDWFC	r0x01, F
	MOVLW	UPPER(_mask)
	ADDWFC	r0x02, F
	MOVFF	r0x00, TBLPTRL
	MOVFF	r0x01, TBLPTRH
	MOVFF	r0x02, TBLPTRU
	TBLRD*+	
	MOVFF	TABLAT, r0x00
	MOVF	r0x00, W
	SUBLW	0xff
; #	MOVWF	r0x00
; #	MOVF	r0x00, W
	ANDWF	_PORTA, F
_00118_DS_:
;	.line	41; C:/Users/jpm/Documents/pinguino32x_windows/tools/bin/../include/pic16/digitalw.c	}
	MOVFF	PREINC1, r0x06
	MOVFF	PREINC1, r0x05
	MOVFF	PREINC1, r0x04
	MOVFF	PREINC1, r0x03
	MOVFF	PREINC1, r0x02
	MOVFF	PREINC1, r0x01
	MOVFF	PREINC1, r0x00
	MOVFF	PREINC1, FSR2L
	RETURN	

; ; Starting pCode block for Ival
	code
_mask:
	DB	0x01, 0x02, 0x04, 0x08, 0x10, 0x20, 0x40, 0x80, 0x40, 0x80, 0x01, 0x02
	DB	0x04, 0x01, 0x02, 0x04, 0x08, 0x20
; ; Starting pCode block for Ival
_port:
	DB	0x00, 0x00, 0x00, 0x00, 0x00, 0x00, 0x00, 0x00, 0x01, 0x01, 0x01, 0x01
	DB	0x01, 0x02, 0x02, 0x02, 0x02, 0x02


; Statistics:
; code size:	 1894 (0x0766) bytes ( 1.45%)
;           	  947 (0x03b3) words
; udata size:	    0 (0x0000) bytes ( 0.00%)
; access size:	    9 (0x0009) bytes


	end
