gpasm-0.13.7 beta               /home/mandon/pinguino32/copie courante/linux/source/main.asm5-29-2011  20:37:50          PAGE  1


LOC  OBJECT CODE     LINE SOURCE TEXT
  VALUE
 
               00001 ;--------------------------------------------------------
               00002 ; File Created by SDCC : free open source ANSI-C Compiler
               00003 ; Version 2.9.0 #5416 (Aug  9 2009) (UNIX)
               00004 ; This file was generated Sun May 29 20:37:50 2011
               00005 ;--------------------------------------------------------
               00006 ; PIC16 port for the Microchip 16-bit core micros
               00007 ;--------------------------------------------------------
               00008         list    p=18f2550
               00009 
               00010         radix dec
               00011 
               00012 ;--------------------------------------------------------
               00013 ; public variables in this module
               00014 ;--------------------------------------------------------
               00015         global _opp_king_pos
               00016         global _val_empty
               00017         global _val_pawn
               00018         global _val_bishop
               00019         global _val_knight
               00020         global _val_rook
               00021         global _val_queen
               00022         global _val_king
               00023         global _val_north
               00024         global _val_south
               00025         global _val_east
               00026         global _val_west
               00027         global _val_northwest
               00028         global _val_northeast
               00029         global _val_southeast
               00030         global _val_southwest
               00031         global _getbestpiecemove
               00032         global _test_singlemove
               00033         global _rate_move
               00034         global _draw_move
               00035         global _updatekingpos
               00036         global _init_board
               00037         global _draw_chessboard
               00038         global _read_movement
               00039         global _rx
               00040         global _wpointer
               00041         global _rpointer
Error [113] : Symbol not previously defined (_board).
               00042         global _board
Error [113] : Symbol not previously defined (_validmovemask).
               00043         global _validmovemask
Error [113] : Symbol not previously defined (_capturemask).
               00044         global _capturemask
               00045         global _movecount
               00046         global _movetype
               00047         global _rate
               00048         global _piecerate
               00049         global _lastmove
Error [113] : Symbol not previously defined (_wh_king_pos).
               00050         global _wh_king_pos
gpasm-0.13.7 beta               /home/mandon/pinguino32/copie courante/linux/source/main.asm5-29-2011  20:37:50          PAGE  2


LOC  OBJECT CODE     LINE SOURCE TEXT
  VALUE
 
Error [113] : Symbol not previously defined (_bl_king_pos).
               00051         global _bl_king_pos
Error [113] : Symbol not previously defined (_kingcapture).
               00052         global _kingcapture
Error [113] : Symbol not previously defined (_wh_base_cont).
               00053         global _wh_base_cont
Error [113] : Symbol not previously defined (_bl_base_cont).
               00054         global _bl_base_cont
               00055         global _currcapturemask
               00056         global _currmovemask
               00057         global _validate
               00058         global _pprintf
               00059         global _psprintf
               00060         global _serial_begin
               00061         global _serial_available
               00062         global _serial_putchar
               00063         global _serial_interrupt
               00064         global _serial_read
               00065         global _serial_flush
               00066         global _serial_printf
               00067         global _serial_getkey
               00068         global _serial_getstring
               00069         global _serial_write
               00070         global _epap_in
               00071         global _epap_out
               00072         global _epapin_init
               00073         global _epapout_init
               00074         global _setup
               00075         global _loop
               00076         global _pinguino_main
               00077         global _high_priority_isr
               00078         global _low_priority_isr
               00079         global _ligne
               00080 
               00081 ;--------------------------------------------------------
               00082 ; extern variables in this module
               00083 ;--------------------------------------------------------
               00084         extern __gptrget1
               00085         extern __gptrget3
               00086         extern __gptrput1
               00087         extern __gptrput3
               00088         extern __gptrget2
               00089         extern _SPPDATAbits
               00090         extern _SPPCFGbits
               00091         extern _SPPEPSbits
               00092         extern _SPPCONbits
               00093         extern _UFRMLbits
               00094         extern _UFRMHbits
               00095         extern _UIRbits
               00096         extern _UIEbits
               00097         extern _UEIRbits
               00098         extern _UEIEbits
               00099         extern _USTATbits
               00100         extern _UCONbits
gpasm-0.13.7 beta               /home/mandon/pinguino32/copie courante/linux/source/main.asm5-29-2011  20:37:50          PAGE  3


LOC  OBJECT CODE     LINE SOURCE TEXT
  VALUE
 
               00101         extern _UADDRbits
               00102         extern _UCFGbits
               00103         extern _UEP0bits
               00104         extern _UEP1bits
               00105         extern _UEP2bits
               00106         extern _UEP3bits
               00107         extern _UEP4bits
               00108         extern _UEP5bits
               00109         extern _UEP6bits
               00110         extern _UEP7bits
               00111         extern _UEP8bits
               00112         extern _UEP9bits
               00113         extern _UEP10bits
               00114         extern _UEP11bits
               00115         extern _UEP12bits
               00116         extern _UEP13bits
               00117         extern _UEP14bits
               00118         extern _UEP15bits
               00119         extern _PORTAbits
               00120         extern _PORTBbits
               00121         extern _PORTCbits
               00122         extern _PORTDbits
               00123         extern _PORTEbits
               00124         extern _LATAbits
               00125         extern _LATBbits
               00126         extern _LATCbits
               00127         extern _LATDbits
               00128         extern _LATEbits
               00129         extern _TRISAbits
               00130         extern _TRISBbits
               00131         extern _TRISCbits
               00132         extern _TRISDbits
               00133         extern _TRISEbits
               00134         extern _OSCTUNEbits
               00135         extern _PIE1bits
               00136         extern _PIR1bits
               00137         extern _IPR1bits
               00138         extern _PIE2bits
               00139         extern _PIR2bits
               00140         extern _IPR2bits
               00141         extern _EECON1bits
               00142         extern _RCSTAbits
               00143         extern _TXSTAbits
               00144         extern _T3CONbits
               00145         extern _CMCONbits
               00146         extern _CVRCONbits
               00147         extern _ECCP1ASbits
               00148         extern _ECCP1DELbits
               00149         extern _BAUDCONbits
               00150         extern _CCP2CONbits
               00151         extern _CCP1CONbits
               00152         extern _ADCON2bits
               00153         extern _ADCON1bits
               00154         extern _ADCON0bits
gpasm-0.13.7 beta               /home/mandon/pinguino32/copie courante/linux/source/main.asm5-29-2011  20:37:50          PAGE  4


LOC  OBJECT CODE     LINE SOURCE TEXT
  VALUE
 
               00155         extern _SSPCON2bits
               00156         extern _SSPCON1bits
               00157         extern _SSPSTATbits
               00158         extern _T2CONbits
               00159         extern _T1CONbits
               00160         extern _RCONbits
               00161         extern _WDTCONbits
               00162         extern _HLVDCONbits
               00163         extern _OSCCONbits
               00164         extern _T0CONbits
               00165         extern _STATUSbits
               00166         extern _FSR2Hbits
               00167         extern _BSRbits
               00168         extern _FSR1Hbits
               00169         extern _FSR0Hbits
               00170         extern _INTCON3bits
               00171         extern _INTCON2bits
               00172         extern _INTCONbits
               00173         extern _TBLPTRUbits
               00174         extern _PCLATHbits
               00175         extern _PCLATUbits
               00176         extern _STKPTRbits
               00177         extern _TOSUbits
               00178         extern _usb_device_state
               00179         extern _usb_active_cfg
               00180         extern _usb_active_alt_setting
               00181         extern _SPPDATA
               00182         extern _SPPCFG
               00183         extern _SPPEPS
               00184         extern _SPPCON
               00185         extern _UFRML
               00186         extern _UFRMH
               00187         extern _UIR
               00188         extern _UIE
               00189         extern _UEIR
               00190         extern _UEIE
               00191         extern _USTAT
               00192         extern _UCON
               00193         extern _UADDR
               00194         extern _UCFG
               00195         extern _UEP0
               00196         extern _UEP1
               00197         extern _UEP2
               00198         extern _UEP3
               00199         extern _UEP4
               00200         extern _UEP5
               00201         extern _UEP6
               00202         extern _UEP7
               00203         extern _UEP8
               00204         extern _UEP9
               00205         extern _UEP10
               00206         extern _UEP11
               00207         extern _UEP12
               00208         extern _UEP13
gpasm-0.13.7 beta               /home/mandon/pinguino32/copie courante/linux/source/main.asm5-29-2011  20:37:50          PAGE  5


LOC  OBJECT CODE     LINE SOURCE TEXT
  VALUE
 
               00209         extern _UEP14
               00210         extern _UEP15
               00211         extern _PORTA
               00212         extern _PORTB
               00213         extern _PORTC
               00214         extern _PORTD
               00215         extern _PORTE
               00216         extern _LATA
               00217         extern _LATB
               00218         extern _LATC
               00219         extern _LATD
               00220         extern _LATE
               00221         extern _TRISA
               00222         extern _TRISB
               00223         extern _TRISC
               00224         extern _TRISD
               00225         extern _TRISE
               00226         extern _OSCTUNE
               00227         extern _PIE1
               00228         extern _PIR1
               00229         extern _IPR1
               00230         extern _PIE2
               00231         extern _PIR2
               00232         extern _IPR2
               00233         extern _EECON1
               00234         extern _EECON2
               00235         extern _EEDATA
               00236         extern _EEADR
               00237         extern _RCSTA
               00238         extern _TXSTA
               00239         extern _TXREG
               00240         extern _RCREG
               00241         extern _SPBRG
               00242         extern _SPBRGH
               00243         extern _T3CON
               00244         extern _TMR3L
               00245         extern _TMR3H
               00246         extern _CMCON
               00247         extern _CVRCON
               00248         extern _ECCP1AS
               00249         extern _ECCP1DEL
               00250         extern _BAUDCON
               00251         extern _CCP2CON
               00252         extern _CCPR2L
               00253         extern _CCPR2H
               00254         extern _CCP1CON
               00255         extern _CCPR1L
               00256         extern _CCPR1H
               00257         extern _ADCON2
               00258         extern _ADCON1
               00259         extern _ADCON0
               00260         extern _ADRESL
               00261         extern _ADRESH
               00262         extern _SSPCON2
gpasm-0.13.7 beta               /home/mandon/pinguino32/copie courante/linux/source/main.asm5-29-2011  20:37:50          PAGE  6


LOC  OBJECT CODE     LINE SOURCE TEXT
  VALUE
 
               00263         extern _SSPCON1
               00264         extern _SSPSTAT
               00265         extern _SSPADD
               00266         extern _SSPBUF
               00267         extern _T2CON
               00268         extern _PR2
               00269         extern _TMR2
               00270         extern _T1CON
               00271         extern _TMR1L
               00272         extern _TMR1H
               00273         extern _RCON
               00274         extern _WDTCON
               00275         extern _HLVDCON
               00276         extern _OSCCON
               00277         extern _T0CON
               00278         extern _TMR0L
               00279         extern _TMR0H
               00280         extern _STATUS
               00281         extern _FSR2L
               00282         extern _FSR2H
               00283         extern _PLUSW2
               00284         extern _PREINC2
               00285         extern _POSTDEC2
               00286         extern _POSTINC2
               00287         extern _INDF2
               00288         extern _BSR
               00289         extern _FSR1L
               00290         extern _FSR1H
               00291         extern _PLUSW1
               00292         extern _PREINC1
               00293         extern _POSTDEC1
               00294         extern _POSTINC1
               00295         extern _INDF1
               00296         extern _WREG
               00297         extern _FSR0L
               00298         extern _FSR0H
               00299         extern _PLUSW0
               00300         extern _PREINC0
               00301         extern _POSTDEC0
               00302         extern _POSTINC0
               00303         extern _INDF0
               00304         extern _INTCON3
               00305         extern _INTCON2
               00306         extern _INTCON
               00307         extern _PRODL
               00308         extern _PRODH
               00309         extern _TABLAT
               00310         extern _TBLPTRL
               00311         extern _TBLPTRH
               00312         extern _TBLPTRU
               00313         extern _PCL
               00314         extern _PCLATH
               00315         extern _PCLATU
               00316         extern _STKPTR
gpasm-0.13.7 beta               /home/mandon/pinguino32/copie courante/linux/source/main.asm5-29-2011  20:37:50          PAGE  7


LOC  OBJECT CODE     LINE SOURCE TEXT
  VALUE
 
               00317         extern _TOSL
               00318         extern _TOSH
               00319         extern _TOSU
               00320         extern _uitoa
               00321         extern __moduint
               00322         extern __divuint
               00323         extern __mulint
               00324         extern __mullong
               00325         extern __divulong
               00326         extern __modsint
               00327 ;--------------------------------------------------------
               00328 ;       Equates to used internal registers
               00329 ;--------------------------------------------------------
  00000FD8     00330 STATUS  equ     0xfd8
  00000FF9     00331 PCL     equ     0xff9
  00000FFA     00332 PCLATH  equ     0xffa
  00000FFB     00333 PCLATU  equ     0xffb
  00000FF2     00334 INTCON  equ     0xff2
  00000FE8     00335 WREG    equ     0xfe8
  00000FE0     00336 BSR     equ     0xfe0
  00000FFD     00337 TOSL    equ     0xffd
  00000FFE     00338 TOSH    equ     0xffe
  00000FFF     00339 TOSU    equ     0xfff
  00000FF6     00340 TBLPTRL equ     0xff6
  00000FE9     00341 FSR0L   equ     0xfe9
  00000FEA     00342 FSR0H   equ     0xfea
  00000FE1     00343 FSR1L   equ     0xfe1
  00000FE2     00344 FSR1H   equ     0xfe2
  00000FD9     00345 FSR2L   equ     0xfd9
  00000FDA     00346 FSR2H   equ     0xfda
  00000FEF     00347 INDF0   equ     0xfef
  00000FEE     00348 POSTINC0        equ     0xfee
  00000FE6     00349 POSTINC1        equ     0xfe6
  00000FE5     00350 POSTDEC1        equ     0xfe5
  00000FE4     00351 PREINC1 equ     0xfe4
  00000FE3     00352 PLUSW1  equ     0xfe3
  00000FDB     00353 PLUSW2  equ     0xfdb
  00000FF3     00354 PRODL   equ     0xff3
  00000FF4     00355 PRODH   equ     0xff4
               00356 
               00357 
               00358         idata
               00359 _validate       db      LOW(_val_empty), HIGH(_val_empty), UPPER(_val_empty), LOW(_val_pawn), HIGH(_val_pawn), UPPER(_val_pawn), LOW(_val_rook), HIGH(_val_rook), UPPER(_val_rook), LOW(_val_knight), HIGH(_val_knight), UPPER(_val_knight)
               00360         db      LOW(_val_bishop), HIGH(_val_bishop), UPPER(_val_bishop), LOW(_val_queen), HIGH(_val_queen), UPPER(_val_queen), LOW(_val_king), HIGH(_val_king), UPPER(_val_king)
               00361 
               00362 
               00363 ; Internal registers
               00364 .registers      udata_ovr       0x0000
               00365 r0x00   res     1
               00366 r0x01   res     1
               00367 r0x02   res     1
               00368 r0x03   res     1
               00369 r0x04   res     1
               00370 r0x05   res     1
gpasm-0.13.7 beta               /home/mandon/pinguino32/copie courante/linux/source/main.asm5-29-2011  20:37:50          PAGE  8


LOC  OBJECT CODE     LINE SOURCE TEXT
  VALUE
 
               00371 r0x06   res     1
               00372 r0x07   res     1
               00373 r0x08   res     1
               00374 r0x09   res     1
               00375 r0x0a   res     1
               00376 r0x0b   res     1
               00377 r0x0c   res     1
               00378 r0x0d   res     1
               00379 r0x0e   res     1
               00380 r0x0f   res     1
               00381 r0x10   res     1
               00382 r0x11   res     1
               00383 r0x12   res     1
               00384 r0x13   res     1
               00385 r0x14   res     1
               00386 r0x15   res     1
               00387 r0x16   res     1
               00388 r0x17   res     1
               00389 r0x18   res     1
               00390 r0x19   res     1
               00391 r0x1a   res     1
               00392 r0x1b   res     1
               00393 r0x1c   res     1
               00394 r0x1d   res     1
               00395 r0x1e   res     1
               00396 
               00397 udata_main_0    udata
               00398 _pputchar       res     3
               00399 
               00400 udata_main_1    udata
               00401 _opp_king_pos   res     2
               00402 
               00403 udata_main_2    udata
               00404 _val_knight_move_1_1    res     48
               00405 
               00406 udata_main_3    udata
               00407 _pprinti_print_buf_1_1  res     12
               00408 
               00409 udata_main_4    udata
               00410 _pprint_scr_1_1 res     2
               00411 
               00412 udata_main_5    udata
               00413 _psprintf_out_1_1       res     3
               00414 
               00415 udata_main_6    udata
               00416 _wpointer       res     1
               00417 
               00418 udata_main_7    udata
               00419 _rpointer       res     1
               00420 
               00421 udata_main_8    udata
               00422 _rx     res     128
               00423 
               00424 udata_main_9    udata
gpasm-0.13.7 beta               /home/mandon/pinguino32/copie courante/linux/source/main.asm5-29-2011  20:37:50          PAGE  9


LOC  OBJECT CODE     LINE SOURCE TEXT
  VALUE
 
               00425 _serial_getstring_buffer_1_1    res     80
               00426 
               00427 udata_main_10   udata
               00428 _movecount      res     2
               00429 
               00430 udata_main_11   udata
               00431 _movetype       res     1
               00432 
               00433 udata_main_12   udata
               00434 _piecerate      res     1
               00435 
               00436 udata_main_13   udata
               00437 _rate   res     1
               00438 
               00439 udata_main_14   udata
               00440 _lastmove       res     1
               00441 
               00442 udata_main_15   udata
               00443 _loop_from_1_1  res     2
               00444 
               00445 udata_main_16   udata
               00446 _loop_to_1_1    res     2
               00447 
               00448 udata_main_17   udata
               00449 _loop_cpufrom_1_1       res     2
               00450 
               00451 udata_main_18   udata
               00452 _loop_cputo_1_1 res     2
               00453 
               00454 udata_main_19   udata
               00455 _currmovemask   res     8
               00456 
               00457 udata_main_20   udata
               00458 _currcapturemask        res     8
               00459 
               00460 udata_main_21   udata
               00461 _getbestpiecemove_to_1_1        res     2
               00462 
               00463 udata_main_22   udata
               00464 _test_singlemove_opp_pos_1_1    res     2
               00465 
               00466 ;--------------------------------------------------------
               00467 ; global & static initialisations
               00468 ;--------------------------------------------------------
               00469 ; ; Starting pCode block
               00470 S_main__high_priority_isr       code    0X002020
2020 00471 _high_priority_isr:
               00472 ;       .line   121; /home/mandon/pinguino32/copie courante/linux/source/main.c void high_priority_isr(void) interrupt
2020 CFE8 FFE5 00473         MOVFF   WREG, POSTDEC1
2024 CFD8 FFE5 00474         MOVFF   STATUS, POSTDEC1
2028 CFE0 FFE5 00475         MOVFF   BSR, POSTDEC1
202C CFF3 FFE5 00476         MOVFF   PRODL, POSTDEC1
2030 CFF4 FFE5 00477         MOVFF   PRODH, POSTDEC1
2034 CFE9 FFE5 00478         MOVFF   FSR0L, POSTDEC1
gpasm-0.13.7 beta               /home/mandon/pinguino32/copie courante/linux/source/main.asm5-29-2011  20:37:50          PAGE 10


LOC  OBJECT CODE     LINE SOURCE TEXT
  VALUE
 
2038 CFEA FFE5 00479         MOVFF   FSR0H, POSTDEC1
203C CFFA FFE5 00480         MOVFF   PCLATH, POSTDEC1
               00481 ;       .line   157; /home/mandon/pinguino32/copie courante/linux/source/main.c if (PIR1bits.RCIF) 
2040 CFFB FFE5 00482         MOVFF   PCLATU, POSTDEC1
               00483 ; #     MOVFF   FSR1L, FSR2L
               00484 ; #     BTFSS   _PIR1bits, 5
               00485 ; #     GOTO    _01486_DS_
               00486 ; #     CALL    _serial_interrupt
               00487 ; #     MOVFF   PREINC1, FSR2L
               00488 ;       .line   158; /home/mandon/pinguino32/copie courante/linux/source/main.c serial_interrupt();
2044 BA00      00489         BTFSC   _PIR1bits, 5
2046 EC00 F000 00490         CALL    _serial_interrupt
204A CFE4 FFFB 00491         MOVFF   PREINC1, PCLATU
204E CFE4 FFFA 00492         MOVFF   PREINC1, PCLATH
2052 CFE4 FFEA 00493         MOVFF   PREINC1, FSR0H
2056 CFE4 FFE9 00494         MOVFF   PREINC1, FSR0L
205A CFE4 FFF4 00495         MOVFF   PREINC1, PRODH
205E CFE4 FFF3 00496         MOVFF   PREINC1, PRODL
2062 CFE4 FFE0 00497         MOVFF   PREINC1, BSR
2066 CFE4 FFD8 00498         MOVFF   PREINC1, STATUS
206A CFE4 FFE8 00499         MOVFF   PREINC1, WREG
206E 0010      00500         RETFIE  
               00501 
               00502 ; ; Starting pCode block
               00503 S_main__low_priority_isr        code    0X004000
4000 00504 _low_priority_isr:
               00505 ;       .line   185; /home/mandon/pinguino32/copie courante/linux/source/main.c void low_priority_isr(void) interrupt
4000 CFE8 FFE5 00506         MOVFF   WREG, POSTDEC1
4004 CFD8 FFE5 00507         MOVFF   STATUS, POSTDEC1
4008 CFE0 FFE5 00508         MOVFF   BSR, POSTDEC1
400C CFF3 FFE5 00509         MOVFF   PRODL, POSTDEC1
4010 CFF4 FFE5 00510         MOVFF   PRODH, POSTDEC1
4014 CFE9 FFE5 00511         MOVFF   FSR0L, POSTDEC1
4018 CFEA FFE5 00512         MOVFF   FSR0H, POSTDEC1
401C CFFA FFE5 00513         MOVFF   PCLATH, POSTDEC1
4020 CFFB FFE5 00514         MOVFF   PCLATU, POSTDEC1
               00515 ;       .line   190; /home/mandon/pinguino32/copie courante/linux/source/main.c }
4024 CFE4 FFFB 00516         MOVFF   PREINC1, PCLATU
4028 CFE4 FFFA 00517         MOVFF   PREINC1, PCLATH
402C CFE4 FFEA 00518         MOVFF   PREINC1, FSR0H
4030 CFE4 FFE9 00519         MOVFF   PREINC1, FSR0L
4034 CFE4 FFF4 00520         MOVFF   PREINC1, PRODH
4038 CFE4 FFF3 00521         MOVFF   PREINC1, PRODL
403C CFE4 FFE0 00522         MOVFF   PREINC1, BSR
4040 CFE4 FFD8 00523         MOVFF   PREINC1, STATUS
4044 CFE4 FFE8 00524         MOVFF   PREINC1, WREG
4048 0010      00525         RETFIE  
               00526 
               00527 ; I code from now on!
               00528 ; ; Starting pCode block
               00529 S_main__pinguino_main   code
0000 00530 _pinguino_main:
               00531 ;       .line   53; /home/mandon/pinguino32/copie courante/linux/source/main.c  PIE1 = 0;
0000 6A00      00532         CLRF    _PIE1
gpasm-0.13.7 beta               /home/mandon/pinguino32/copie courante/linux/source/main.asm5-29-2011  20:37:50          PAGE 11


LOC  OBJECT CODE     LINE SOURCE TEXT
  VALUE
 
               00533 ;       .line   54; /home/mandon/pinguino32/copie courante/linux/source/main.c  PIE2 = 0;
0002 6A00      00534         CLRF    _PIE2
               00535 ;       .line   55; /home/mandon/pinguino32/copie courante/linux/source/main.c  ADCON1 = 0b00001111;                            // AN0 to AN12 Digital I/O
0004 0E0F      00536         MOVLW   0x0f
0006 6E00      00537         MOVWF   _ADCON1
               00538 ;       .line   67; /home/mandon/pinguino32/copie courante/linux/source/main.c  setup();
0008 EC00 F000 00539         CALL    _setup
               00540 ;       .line   100; /home/mandon/pinguino32/copie courante/linux/source/main.c INTCONbits.PEIE = 1;
000C 8C00      00541         BSF     _INTCONbits, 6
               00542 ;       .line   101; /home/mandon/pinguino32/copie courante/linux/source/main.c INTCONbits.GIE  = 1;
000E 8E00      00543         BSF     _INTCONbits, 7
0010 00544 _01477_DS_:
               00545 ;       .line   115; /home/mandon/pinguino32/copie courante/linux/source/main.c loop();
0010 EC00 F000 00546         CALL    _loop
0014 D000      00547         BRA     _01477_DS_
0016 0012      00548         RETURN  
               00549 
               00550 ; ; Starting pCode block
               00551 S_main__read_movement   code
0000 00552 _read_movement:
               00553 ;       .line   548; /home/mandon/pinguino32/copie courante/linux/source/user.c BOOL read_movement (LOC from, LOC to)
0000 CFD9 FFE5 00554         MOVFF   FSR2L, POSTDEC1
0004 CFE1 FFD9 00555         MOVFF   FSR1L, FSR2L
0008 C000 FFE5 00556         MOVFF   r0x00, POSTDEC1
000C C000 FFE5 00557         MOVFF   r0x01, POSTDEC1
0010 C000 FFE5 00558         MOVFF   r0x02, POSTDEC1
0014 C000 FFE5 00559         MOVFF   r0x03, POSTDEC1
0018 C000 FFE5 00560         MOVFF   r0x04, POSTDEC1
001C C000 FFE5 00561         MOVFF   r0x05, POSTDEC1
0020 C000 FFE5 00562         MOVFF   r0x06, POSTDEC1
0024 C000 FFE5 00563         MOVFF   r0x07, POSTDEC1
0028 C000 FFE5 00564         MOVFF   r0x08, POSTDEC1
002C C000 FFE5 00565         MOVFF   r0x09, POSTDEC1
0030 C000 FFE5 00566         MOVFF   r0x0a, POSTDEC1
0034 C000 FFE5 00567         MOVFF   r0x0b, POSTDEC1
0038 C000 FFE5 00568         MOVFF   r0x0c, POSTDEC1
003C C000 FFE5 00569         MOVFF   r0x0d, POSTDEC1
0040 C000 FFE5 00570         MOVFF   r0x0e, POSTDEC1
0044 C000 FFE5 00571         MOVFF   r0x0f, POSTDEC1
0048 C000 FFE5 00572         MOVFF   r0x10, POSTDEC1
004C 0E02      00573         MOVLW   0x02
004E CFDB F000 00574         MOVFF   PLUSW2, r0x00
0052 0E03      00575         MOVLW   0x03
0054 CFDB F000 00576         MOVFF   PLUSW2, r0x01
0058 0E04      00577         MOVLW   0x04
005A CFDB F000 00578         MOVFF   PLUSW2, r0x02
005E 0E05      00579         MOVLW   0x05
0060 CFDB F000 00580         MOVFF   PLUSW2, r0x03
0064 0E06      00581         MOVLW   0x06
0066 CFDB F000 00582         MOVFF   PLUSW2, r0x04
006A 0E07      00583         MOVLW   0x07
006C CFDB F000 00584         MOVFF   PLUSW2, r0x05
               00585 ;       .line   554; /home/mandon/pinguino32/copie courante/linux/source/user.c chaine = serial_getstring(); // recupere le coup jour de la forme e2e4
0070 EC00 F000 00586         CALL    _serial_getstring
gpasm-0.13.7 beta               /home/mandon/pinguino32/copie courante/linux/source/main.asm5-29-2011  20:37:50          PAGE 12


LOC  OBJECT CODE     LINE SOURCE TEXT
  VALUE
 
0074 6E00      00587         MOVWF   r0x06
0076 CFF3 F000 00588         MOVFF   PRODL, r0x07
007A CFF4 F000 00589         MOVFF   PRODH, r0x08
               00590 ;       .line   557; /home/mandon/pinguino32/copie courante/linux/source/user.c from[1] = chaine[0]-'a';
007E 5000      00591         MOVF    r0x00, W
0080 0F01      00592         ADDLW   0x01
0082 6E00      00593         MOVWF   r0x09
0084 0E00      00594         MOVLW   0x00
0086 2000      00595         ADDWFC  r0x01, W
0088 6E00      00596         MOVWF   r0x0a
008A 0E00      00597         MOVLW   0x00
008C 2000      00598         ADDWFC  r0x02, W
008E 6E00      00599         MOVWF   r0x0b
0090 C000 FFE9 00600         MOVFF   r0x06, FSR0L
0094 C000 FFF3 00601         MOVFF   r0x07, PRODL
0098 5000      00602         MOVF    r0x08, W
009A EC00 F000 00603         CALL    __gptrget1
009E 6E00      00604         MOVWF   r0x0c
00A0 0E9F      00605         MOVLW   0x9f
00A2 2600      00606         ADDWF   r0x0c, F
00A4 C000 FFE5 00607         MOVFF   r0x0c, POSTDEC1
00A8 C000 FFE9 00608         MOVFF   r0x09, FSR0L
00AC C000 FFF3 00609         MOVFF   r0x0a, PRODL
00B0 5000      00610         MOVF    r0x0b, W
00B2 EC00 F000 00611         CALL    __gptrput1
               00612 ;       .line   558; /home/mandon/pinguino32/copie courante/linux/source/user.c from[0] = chaine[1]-'1';
00B6 5000      00613         MOVF    r0x06, W
00B8 0F01      00614         ADDLW   0x01
00BA 6E00      00615         MOVWF   r0x0c
00BC 0E00      00616         MOVLW   0x00
00BE 2000      00617         ADDWFC  r0x07, W
00C0 6E00      00618         MOVWF   r0x0d
00C2 0E00      00619         MOVLW   0x00
00C4 2000      00620         ADDWFC  r0x08, W
00C6 C000 FFE9 00621         MOVFF   r0x0c, FSR0L
00CA C000 FFF3 00622         MOVFF   r0x0d, PRODL
00CE EC00 F000 00623         CALL    __gptrget1
00D2 6E00      00624         MOVWF   r0x0c
00D4 0ECF      00625         MOVLW   0xcf
00D6 2600      00626         ADDWF   r0x0c, F
00D8 C000 FFE5 00627         MOVFF   r0x0c, POSTDEC1
00DC C000 FFE9 00628         MOVFF   r0x00, FSR0L
00E0 C000 FFF3 00629         MOVFF   r0x01, PRODL
00E4 5000      00630         MOVF    r0x02, W
00E6 EC00 F000 00631         CALL    __gptrput1
               00632 ;       .line   562; /home/mandon/pinguino32/copie courante/linux/source/user.c p = board[from[0]][from[1]];
00EA C000 FFE9 00633         MOVFF   r0x00, FSR0L
00EE C000 FFF3 00634         MOVFF   r0x01, PRODL
00F2 5000      00635         MOVF    r0x02, W
00F4 EC00 F000 00636         CALL    __gptrget1
               00637 ; #     MOVWF   r0x0c
               00638 ; #;;multiply lit val:0x08 by variable r0x0c and store in r0x0c
               00639 ; #;;Unrolled 8 X 8 multiplication
               00640 ; #;;FIXME: the function does not support result==WREG
gpasm-0.13.7 beta               /home/mandon/pinguino32/copie courante/linux/source/main.asm5-29-2011  20:37:50          PAGE 13


LOC  OBJECT CODE     LINE SOURCE TEXT
  VALUE
 
               00641 ; #     MOVF    r0x0c, W
00F8 0D08      00642         MULLW   0x08
00FA CFF3 F000 00643         MOVFF   PRODL, r0x0c
00FE 6A00      00644         CLRF    r0x0d
Error [113] : Symbol not previously defined (_board).
0100 0E00      00645         MOVLW   LOW(_board)
0102 2600      00646         ADDWF   r0x0c, F
Error [113] : Symbol not previously defined (_board).
0104 0E00      00647         MOVLW   HIGH(_board)
0106 2200      00648         ADDWFC  r0x0d, F
0108 C000 FFE9 00649         MOVFF   r0x09, FSR0L
010C C000 FFF3 00650         MOVFF   r0x0a, PRODL
0110 5000      00651         MOVF    r0x0b, W
0112 EC00 F000 00652         CALL    __gptrget1
               00653 ; #     MOVWF   r0x0e
               00654 ; #     MOVF    r0x0e, W
0116 2600      00655         ADDWF   r0x0c, F
0118 6AE8      00656         CLRF    WREG
011A 2200      00657         ADDWFC  r0x0d, F
011C C000 FFE9 00658         MOVFF   r0x0c, FSR0L
0120 C000 FFEA 00659         MOVFF   r0x0d, FSR0H
0124 CFEF F000 00660         MOVFF   INDF0, r0x0c
               00661 ;       .line   563; /home/mandon/pinguino32/copie courante/linux/source/user.c if (p == EMPTY || p & BLACK)
0128 5000      00662         MOVF    r0x0c, W
012A E000      00663         BZ      _01456_DS_
012C A600      00664         BTFSS   r0x0c, 3
012E D000      00665         BRA     _01457_DS_
0130 00666 _01456_DS_:
               00667 ;       .line   565; /home/mandon/pinguino32/copie courante/linux/source/user.c serial_printf("\r\nillegal move!\r\n");
0130 0E00      00668         MOVLW   UPPER(__str_21)
0132 6EE5      00669         MOVWF   POSTDEC1
0134 0E00      00670         MOVLW   HIGH(__str_21)
0136 6EE5      00671         MOVWF   POSTDEC1
0138 0E00      00672         MOVLW   LOW(__str_21)
013A 6EE5      00673         MOVWF   POSTDEC1
013C EC00 F000 00674         CALL    _serial_printf
0140 0E03      00675         MOVLW   0x03
0142 26E1      00676         ADDWF   FSR1L, F
               00677 ;       .line   566; /home/mandon/pinguino32/copie courante/linux/source/user.c return FALSE;
0144 6AE8      00678         CLRF    WREG
0146 D000      00679         BRA     _01459_DS_
0148 00680 _01457_DS_:
               00681 ;       .line   569; /home/mandon/pinguino32/copie courante/linux/source/user.c to[1] = chaine[2]-'a';
0148 5000      00682         MOVF    r0x03, W
014A 0F01      00683         ADDLW   0x01
014C 6E00      00684         MOVWF   r0x0c
014E 0E00      00685         MOVLW   0x00
0150 2000      00686         ADDWFC  r0x04, W
0152 6E00      00687         MOVWF   r0x0d
0154 0E00      00688         MOVLW   0x00
0156 2000      00689         ADDWFC  r0x05, W
0158 6E00      00690         MOVWF   r0x0e
015A 5000      00691         MOVF    r0x06, W
015C 0F02      00692         ADDLW   0x02
gpasm-0.13.7 beta               /home/mandon/pinguino32/copie courante/linux/source/main.asm5-29-2011  20:37:50          PAGE 14


LOC  OBJECT CODE     LINE SOURCE TEXT
  VALUE
 
015E 6E00      00693         MOVWF   r0x0f
0160 0E00      00694         MOVLW   0x00
0162 2000      00695         ADDWFC  r0x07, W
0164 6E00      00696         MOVWF   r0x10
0166 0E00      00697         MOVLW   0x00
0168 2000      00698         ADDWFC  r0x08, W
016A C000 FFE9 00699         MOVFF   r0x0f, FSR0L
016E C000 FFF3 00700         MOVFF   r0x10, PRODL
0172 EC00 F000 00701         CALL    __gptrget1
0176 6E00      00702         MOVWF   r0x0f
0178 0E9F      00703         MOVLW   0x9f
017A 2600      00704         ADDWF   r0x0f, F
017C C000 FFE5 00705         MOVFF   r0x0f, POSTDEC1
0180 C000 FFE9 00706         MOVFF   r0x0c, FSR0L
0184 C000 FFF3 00707         MOVFF   r0x0d, PRODL
0188 5000      00708         MOVF    r0x0e, W
018A EC00 F000 00709         CALL    __gptrput1
               00710 ;       .line   570; /home/mandon/pinguino32/copie courante/linux/source/user.c to[0] = chaine[3]-'1'; 
018E 0E03      00711         MOVLW   0x03
0190 2600      00712         ADDWF   r0x06, F
0192 0E00      00713         MOVLW   0x00
0194 2200      00714         ADDWFC  r0x07, F
0196 2200      00715         ADDWFC  r0x08, F
0198 C000 FFE9 00716         MOVFF   r0x06, FSR0L
019C C000 FFF3 00717         MOVFF   r0x07, PRODL
01A0 5000      00718         MOVF    r0x08, W
01A2 EC00 F000 00719         CALL    __gptrget1
01A6 6E00      00720         MOVWF   r0x06
01A8 0ECF      00721         MOVLW   0xcf
01AA 2600      00722         ADDWF   r0x06, F
01AC C000 FFE5 00723         MOVFF   r0x06, POSTDEC1
01B0 C000 FFE9 00724         MOVFF   r0x03, FSR0L
01B4 C000 FFF3 00725         MOVFF   r0x04, PRODL
01B8 5000      00726         MOVF    r0x05, W
01BA EC00 F000 00727         CALL    __gptrput1
               00728 ;       .line   572; /home/mandon/pinguino32/copie courante/linux/source/user.c return from[0] != to[0] || from[1] != to[1];
01BE C000 FFE9 00729         MOVFF   r0x00, FSR0L
01C2 C000 FFF3 00730         MOVFF   r0x01, PRODL
01C6 5000      00731         MOVF    r0x02, W
01C8 EC00 F000 00732         CALL    __gptrget1
01CC 6E00      00733         MOVWF   r0x00
01CE C000 FFE9 00734         MOVFF   r0x03, FSR0L
01D2 C000 FFF3 00735         MOVFF   r0x04, PRODL
01D6 5000      00736         MOVF    r0x05, W
01D8 EC00 F000 00737         CALL    __gptrget1
               00738 ; #     MOVWF   r0x03
               00739 ; #     MOVF    r0x00, W
               00740 ; #     XORWF   r0x03, W
01DC 1800      00741         XORWF   r0x00, W
01DE E100      00742         BNZ     _01468_DS_
01E0 6A00      00743         CLRF    r0x00
01E2 2A00      00744         INCF    r0x00, F
01E4 D000      00745         BRA     _01469_DS_
01E6 00746 _01468_DS_:
gpasm-0.13.7 beta               /home/mandon/pinguino32/copie courante/linux/source/main.asm5-29-2011  20:37:50          PAGE 15


LOC  OBJECT CODE     LINE SOURCE TEXT
  VALUE
 
01E6 6A00      00747         CLRF    r0x00
01E8 00748 _01469_DS_:
01E8 5000      00749         MOVF    r0x00, W
01EA 80D8      00750         BSF     STATUS, 0
01EC 66E8      00751         TSTFSZ  WREG
01EE 90D8      00752         BCF     STATUS, 0
01F0 6A00      00753         CLRF    r0x00
01F2 3600      00754         RLCF    r0x00, F
01F4 5000      00755         MOVF    r0x00, W
01F6 E100      00756         BNZ     _01462_DS_
01F8 C000 FFE9 00757         MOVFF   r0x09, FSR0L
01FC C000 FFF3 00758         MOVFF   r0x0a, PRODL
0200 5000      00759         MOVF    r0x0b, W
0202 EC00 F000 00760         CALL    __gptrget1
0206 6E00      00761         MOVWF   r0x09
0208 C000 FFE9 00762         MOVFF   r0x0c, FSR0L
020C C000 FFF3 00763         MOVFF   r0x0d, PRODL
0210 5000      00764         MOVF    r0x0e, W
0212 EC00 F000 00765         CALL    __gptrget1
               00766 ; #     MOVWF   r0x0c
               00767 ; #     MOVF    r0x09, W
               00768 ; #     XORWF   r0x0c, W
0216 1800      00769         XORWF   r0x09, W
0218 E100      00770         BNZ     _01470_DS_
021A 6A00      00771         CLRF    r0x09
021C 2A00      00772         INCF    r0x09, F
021E D000      00773         BRA     _01471_DS_
0220 00774 _01470_DS_:
0220 6A00      00775         CLRF    r0x09
0222 00776 _01471_DS_:
0222 5000      00777         MOVF    r0x09, W
0224 80D8      00778         BSF     STATUS, 0
0226 66E8      00779         TSTFSZ  WREG
0228 90D8      00780         BCF     STATUS, 0
022A 6A00      00781         CLRF    r0x09
022C 3600      00782         RLCF    r0x09, F
022E 5000      00783         MOVF    r0x09, W
0230 E100      00784         BNZ     _01462_DS_
0232 6A00      00785         CLRF    r0x00
0234 D000      00786         BRA     _01463_DS_
0236 00787 _01462_DS_:
0236 0E01      00788         MOVLW   0x01
0238 6E00      00789         MOVWF   r0x00
023A 00790 _01463_DS_:
023A 5000      00791         MOVF    r0x00, W
023C 00792 _01459_DS_:
023C CFE4 F000 00793         MOVFF   PREINC1, r0x10
0240 CFE4 F000 00794         MOVFF   PREINC1, r0x0f
0244 CFE4 F000 00795         MOVFF   PREINC1, r0x0e
0248 CFE4 F000 00796         MOVFF   PREINC1, r0x0d
024C CFE4 F000 00797         MOVFF   PREINC1, r0x0c
0250 CFE4 F000 00798         MOVFF   PREINC1, r0x0b
0254 CFE4 F000 00799         MOVFF   PREINC1, r0x0a
0258 CFE4 F000 00800         MOVFF   PREINC1, r0x09
gpasm-0.13.7 beta               /home/mandon/pinguino32/copie courante/linux/source/main.asm5-29-2011  20:37:50          PAGE 16


LOC  OBJECT CODE     LINE SOURCE TEXT
  VALUE
 
025C CFE4 F000 00801         MOVFF   PREINC1, r0x08
0260 CFE4 F000 00802         MOVFF   PREINC1, r0x07
0264 CFE4 F000 00803         MOVFF   PREINC1, r0x06
0268 CFE4 F000 00804         MOVFF   PREINC1, r0x05
026C CFE4 F000 00805         MOVFF   PREINC1, r0x04
0270 CFE4 F000 00806         MOVFF   PREINC1, r0x03
0274 CFE4 F000 00807         MOVFF   PREINC1, r0x02
0278 CFE4 F000 00808         MOVFF   PREINC1, r0x01
027C CFE4 F000 00809         MOVFF   PREINC1, r0x00
0280 CFE4 FFD9 00810         MOVFF   PREINC1, FSR2L
0284 0012      00811         RETURN  
               00812 
               00813 ; ; Starting pCode block
               00814 S_main__draw_chessboard code
0000 00815 _draw_chessboard:
               00816 ;       .line   511; /home/mandon/pinguino32/copie courante/linux/source/user.c void draw_chessboard(void)
0000 C000 FFE5 00817         MOVFF   r0x00, POSTDEC1
0004 C000 FFE5 00818         MOVFF   r0x01, POSTDEC1
0008 C000 FFE5 00819         MOVFF   r0x02, POSTDEC1
000C C000 FFE5 00820         MOVFF   r0x03, POSTDEC1
0010 C000 FFE5 00821         MOVFF   r0x04, POSTDEC1
0014 C000 FFE5 00822         MOVFF   r0x05, POSTDEC1
0018 C000 FFE5 00823         MOVFF   r0x06, POSTDEC1
               00824 ;       .line   515; /home/mandon/pinguino32/copie courante/linux/source/user.c serial_printf("\r\n%s\r\n", ligne);
001C 0E00      00825         MOVLW   UPPER(_ligne)
001E 6EE5      00826         MOVWF   POSTDEC1
0020 0E00      00827         MOVLW   HIGH(_ligne)
0022 6EE5      00828         MOVWF   POSTDEC1
0024 0E00      00829         MOVLW   LOW(_ligne)
0026 6EE5      00830         MOVWF   POSTDEC1
0028 0E00      00831         MOVLW   UPPER(__str_19)
002A 6EE5      00832         MOVWF   POSTDEC1
002C 0E00      00833         MOVLW   HIGH(__str_19)
002E 6EE5      00834         MOVWF   POSTDEC1
0030 0E00      00835         MOVLW   LOW(__str_19)
0032 6EE5      00836         MOVWF   POSTDEC1
0034 EC00 F000 00837         CALL    _serial_printf
0038 0E06      00838         MOVLW   0x06
003A 26E1      00839         ADDWF   FSR1L, F
               00840 ;       .line   516; /home/mandon/pinguino32/copie courante/linux/source/user.c for (i=7;i>=0;i--)
003C 0E07      00841         MOVLW   0x07
003E 6E00      00842         MOVWF   r0x00
0040 0E38      00843         MOVLW   0x38
0042 6E00      00844         MOVWF   r0x01
0044 00845 _01436_DS_:
0044 80D8      00846         BSF     STATUS, 0
0046 AE00      00847         BTFSS   r0x00, 7
0048 90D8      00848         BCF     STATUS, 0
004A B0D8      00849         BTFSC   STATUS, 0
004C D000      00850         BRA     _01439_DS_
               00851 ;       .line   518; /home/mandon/pinguino32/copie courante/linux/source/user.c serial_putchar(' ');
004E 0E20      00852         MOVLW   0x20
0050 6EE5      00853         MOVWF   POSTDEC1
0052 EC00 F000 00854         CALL    _serial_putchar
gpasm-0.13.7 beta               /home/mandon/pinguino32/copie courante/linux/source/main.asm5-29-2011  20:37:50          PAGE 17


LOC  OBJECT CODE     LINE SOURCE TEXT
  VALUE
 
0056 2AE1      00855         INCF    FSR1L, F
               00856 ;       .line   519; /home/mandon/pinguino32/copie courante/linux/source/user.c serial_putchar('|');
0058 0E7C      00857         MOVLW   0x7c
005A 6EE5      00858         MOVWF   POSTDEC1
005C EC00 F000 00859         CALL    _serial_putchar
0060 2AE1      00860         INCF    FSR1L, F
               00861 ;       .line   520; /home/mandon/pinguino32/copie courante/linux/source/user.c for(j=0;j<8;j++)
Error [113] : Symbol not previously defined (_board).
0062 0E00      00862         MOVLW   LOW(_board)
0064 2400      00863         ADDWF   r0x01, W
0066 6E00      00864         MOVWF   r0x02
0068 6A00      00865         CLRF    r0x03
006A BE00      00866         BTFSC   r0x01, 7
006C 6800      00867         SETF    r0x03
Error [113] : Symbol not previously defined (_board).
006E 0E00      00868         MOVLW   HIGH(_board)
0070 2200      00869         ADDWFC  r0x03, F
0072 6A00      00870         CLRF    r0x04
0074 00871 _01432_DS_:
0074 5000      00872         MOVF    r0x04, W
0076 0F80      00873         ADDLW   0x80
0078 0F78      00874         ADDLW   0x78
007A B0D8      00875         BTFSC   STATUS, 0
007C D000      00876         BRA     _01435_DS_
               00877 ;       .line   522; /home/mandon/pinguino32/copie courante/linux/source/user.c switch (board[i][j])
007E 5000      00878         MOVF    r0x04, W
0080 2400      00879         ADDWF   r0x02, W
0082 6E00      00880         MOVWF   r0x05
0084 6AE8      00881         CLRF    WREG
0086 BE00      00882         BTFSC   r0x04, 7
0088 68E8      00883         SETF    WREG
008A 2000      00884         ADDWFC  r0x03, W
008C 6E00      00885         MOVWF   r0x06
008E C000 FFE9 00886         MOVFF   r0x05, FSR0L
0092 C000 FFEA 00887         MOVFF   r0x06, FSR0H
0096 CFEF F000 00888         MOVFF   INDF0, r0x05
009A 0E0F      00889         MOVLW   0x0f
009C 5C00      00890         SUBWF   r0x05, W
009E B0D8      00891         BTFSC   STATUS, 0
00A0 D000      00892         BRA     _01431_DS_
00A2 C000 FFE5 00893         MOVFF   r0x07, POSTDEC1
00A6 C000 FFE5 00894         MOVFF   r0x08, POSTDEC1
00AA 6A00      00895         CLRF    r0x08
00AC 3400      00896         RLCF    r0x05, W
00AE 3600      00897         RLCF    r0x08, F
00B0 34E8      00898         RLCF    WREG, W
00B2 3600      00899         RLCF    r0x08, F
00B4 0BFC      00900         ANDLW   0xfc
00B6 6E00      00901         MOVWF   r0x07
00B8 0E00      00902         MOVLW   UPPER(_01451_DS_)
00BA 6EFB      00903         MOVWF   PCLATU
00BC 0E00      00904         MOVLW   HIGH(_01451_DS_)
00BE 6EFA      00905         MOVWF   PCLATH
00C0 0E00      00906         MOVLW   LOW(_01451_DS_)
gpasm-0.13.7 beta               /home/mandon/pinguino32/copie courante/linux/source/main.asm5-29-2011  20:37:50          PAGE 18


LOC  OBJECT CODE     LINE SOURCE TEXT
  VALUE
 
00C2 2600      00907         ADDWF   r0x07, F
00C4 5000      00908         MOVF    r0x08, W
00C6 22FA      00909         ADDWFC  PCLATH, F
00C8 B0D8      00910         BTFSC   STATUS, 0
00CA 2AFB      00911         INCF    PCLATU, F
00CC 5000      00912         MOVF    r0x07, W
00CE CFE4 F000 00913         MOVFF   PREINC1, r0x08
00D2 CFE4 F000 00914         MOVFF   PREINC1, r0x07
00D6 6EF9      00915         MOVWF   PCL
00D8 00916 _01451_DS_:
00D8 EF00 F000 00917         GOTO    _01418_DS_
00DC EF00 F000 00918         GOTO    _01420_DS_
00E0 EF00 F000 00919         GOTO    _01422_DS_
00E4 EF00 F000 00920         GOTO    _01424_DS_
00E8 EF00 F000 00921         GOTO    _01426_DS_
00EC EF00 F000 00922         GOTO    _01428_DS_
00F0 EF00 F000 00923         GOTO    _01430_DS_
00F4 EF00 F000 00924         GOTO    _01431_DS_
00F8 EF00 F000 00925         GOTO    _01431_DS_
00FC EF00 F000 00926         GOTO    _01419_DS_
0100 EF00 F000 00927         GOTO    _01421_DS_
0104 EF00 F000 00928         GOTO    _01423_DS_
0108 EF00 F000 00929         GOTO    _01425_DS_
010C EF00 F000 00930         GOTO    _01427_DS_
0110 EF00 F000 00931         GOTO    _01429_DS_
0114 00932 _01418_DS_:
               00933 ;       .line   524; /home/mandon/pinguino32/copie courante/linux/source/user.c case 0 : serial_putchar(' ');break;
0114 0E20      00934         MOVLW   0x20
0116 6EE5      00935         MOVWF   POSTDEC1
0118 EC00 F000 00936         CALL    _serial_putchar
011C 2AE1      00937         INCF    FSR1L, F
011E D000      00938         BRA     _01431_DS_
0120 00939 _01419_DS_:
               00940 ;       .line   525; /home/mandon/pinguino32/copie courante/linux/source/user.c case BLACK|PAWN : serial_putchar('p');break;
0120 0E70      00941         MOVLW   0x70
0122 6EE5      00942         MOVWF   POSTDEC1
0124 EC00 F000 00943         CALL    _serial_putchar
0128 2AE1      00944         INCF    FSR1L, F
012A D000      00945         BRA     _01431_DS_
012C 00946 _01420_DS_:
               00947 ;       .line   526; /home/mandon/pinguino32/copie courante/linux/source/user.c case WHITE|PAWN : serial_putchar('P');break;
012C 0E50      00948         MOVLW   0x50
012E 6EE5      00949         MOVWF   POSTDEC1
0130 EC00 F000 00950         CALL    _serial_putchar
0134 2AE1      00951         INCF    FSR1L, F
0136 D000      00952         BRA     _01431_DS_
0138 00953 _01421_DS_:
               00954 ;       .line   527; /home/mandon/pinguino32/copie courante/linux/source/user.c case BLACK|ROOK : serial_putchar('t');break;
0138 0E74      00955         MOVLW   0x74
013A 6EE5      00956         MOVWF   POSTDEC1
013C EC00 F000 00957         CALL    _serial_putchar
0140 2AE1      00958         INCF    FSR1L, F
0142 D000      00959         BRA     _01431_DS_
0144 00960 _01422_DS_:
gpasm-0.13.7 beta               /home/mandon/pinguino32/copie courante/linux/source/main.asm5-29-2011  20:37:50          PAGE 19


LOC  OBJECT CODE     LINE SOURCE TEXT
  VALUE
 
               00961 ;       .line   528; /home/mandon/pinguino32/copie courante/linux/source/user.c case WHITE|ROOK : serial_putchar('T');break;
0144 0E54      00962         MOVLW   0x54
0146 6EE5      00963         MOVWF   POSTDEC1
0148 EC00 F000 00964         CALL    _serial_putchar
014C 2AE1      00965         INCF    FSR1L, F
014E D000      00966         BRA     _01431_DS_
0150 00967 _01423_DS_:
               00968 ;       .line   529; /home/mandon/pinguino32/copie courante/linux/source/user.c case BLACK|KNIGHT : serial_putchar('c');break;
0150 0E63      00969         MOVLW   0x63
0152 6EE5      00970         MOVWF   POSTDEC1
0154 EC00 F000 00971         CALL    _serial_putchar
0158 2AE1      00972         INCF    FSR1L, F
015A D000      00973         BRA     _01431_DS_
015C 00974 _01424_DS_:
               00975 ;       .line   530; /home/mandon/pinguino32/copie courante/linux/source/user.c case WHITE|KNIGHT : serial_putchar('C');break;
015C 0E43      00976         MOVLW   0x43
015E 6EE5      00977         MOVWF   POSTDEC1
0160 EC00 F000 00978         CALL    _serial_putchar
0164 2AE1      00979         INCF    FSR1L, F
0166 D000      00980         BRA     _01431_DS_
0168 00981 _01425_DS_:
               00982 ;       .line   531; /home/mandon/pinguino32/copie courante/linux/source/user.c case BLACK|BISHOP : serial_putchar('f');break;
0168 0E66      00983         MOVLW   0x66
016A 6EE5      00984         MOVWF   POSTDEC1
016C EC00 F000 00985         CALL    _serial_putchar
0170 2AE1      00986         INCF    FSR1L, F
0172 D000      00987         BRA     _01431_DS_
0174 00988 _01426_DS_:
               00989 ;       .line   532; /home/mandon/pinguino32/copie courante/linux/source/user.c case WHITE|BISHOP : serial_putchar('F');break;
0174 0E46      00990         MOVLW   0x46
0176 6EE5      00991         MOVWF   POSTDEC1
0178 EC00 F000 00992         CALL    _serial_putchar
017C 2AE1      00993         INCF    FSR1L, F
017E D000      00994         BRA     _01431_DS_
0180 00995 _01427_DS_:
               00996 ;       .line   533; /home/mandon/pinguino32/copie courante/linux/source/user.c case BLACK|QUEEN : serial_putchar('r');break;
0180 0E72      00997         MOVLW   0x72
0182 6EE5      00998         MOVWF   POSTDEC1
0184 EC00 F000 00999         CALL    _serial_putchar
0188 2AE1      01000         INCF    FSR1L, F
018A D000      01001         BRA     _01431_DS_
018C 01002 _01428_DS_:
               01003 ;       .line   534; /home/mandon/pinguino32/copie courante/linux/source/user.c case WHITE|QUEEN : serial_putchar('R');break;
018C 0E52      01004         MOVLW   0x52
018E 6EE5      01005         MOVWF   POSTDEC1
0190 EC00 F000 01006         CALL    _serial_putchar
0194 2AE1      01007         INCF    FSR1L, F
0196 D000      01008         BRA     _01431_DS_
0198 01009 _01429_DS_:
               01010 ;       .line   535; /home/mandon/pinguino32/copie courante/linux/source/user.c case BLACK|KING : serial_putchar('k');break;
0198 0E6B      01011         MOVLW   0x6b
019A 6EE5      01012         MOVWF   POSTDEC1
019C EC00 F000 01013         CALL    _serial_putchar
01A0 2AE1      01014         INCF    FSR1L, F
gpasm-0.13.7 beta               /home/mandon/pinguino32/copie courante/linux/source/main.asm5-29-2011  20:37:50          PAGE 20


LOC  OBJECT CODE     LINE SOURCE TEXT
  VALUE
 
01A2 D000      01015         BRA     _01431_DS_
01A4 01016 _01430_DS_:
               01017 ;       .line   536; /home/mandon/pinguino32/copie courante/linux/source/user.c case WHITE|KING : serial_putchar('K');break;
01A4 0E4B      01018         MOVLW   0x4b
01A6 6EE5      01019         MOVWF   POSTDEC1
01A8 EC00 F000 01020         CALL    _serial_putchar
01AC 2AE1      01021         INCF    FSR1L, F
01AE 01022 _01431_DS_:
               01023 ;       .line   538; /home/mandon/pinguino32/copie courante/linux/source/user.c serial_putchar('|');
01AE 0E7C      01024         MOVLW   0x7c
01B0 6EE5      01025         MOVWF   POSTDEC1
01B2 EC00 F000 01026         CALL    _serial_putchar
01B6 2AE1      01027         INCF    FSR1L, F
               01028 ;       .line   520; /home/mandon/pinguino32/copie courante/linux/source/user.c for(j=0;j<8;j++)
01B8 2A00      01029         INCF    r0x04, F
01BA D000      01030         BRA     _01432_DS_
01BC 01031 _01435_DS_:
               01032 ;       .line   540; /home/mandon/pinguino32/copie courante/linux/source/user.c serial_putchar(' ');
01BC 0E20      01033         MOVLW   0x20
01BE 6EE5      01034         MOVWF   POSTDEC1
01C0 EC00 F000 01035         CALL    _serial_putchar
01C4 2AE1      01036         INCF    FSR1L, F
               01037 ;       .line   541; /home/mandon/pinguino32/copie courante/linux/source/user.c serial_putchar(i+'1');
01C6 0E31      01038         MOVLW   0x31
01C8 2400      01039         ADDWF   r0x00, W
               01040 ; #     MOVWF   r0x02
               01041 ; #     MOVF    r0x02, W
01CA 6EE5      01042         MOVWF   POSTDEC1
01CC EC00 F000 01043         CALL    _serial_putchar
01D0 2AE1      01044         INCF    FSR1L, F
               01045 ;       .line   542; /home/mandon/pinguino32/copie courante/linux/source/user.c serial_printf("\r\n%s\r\n", ligne);
01D2 0E00      01046         MOVLW   UPPER(_ligne)
01D4 6EE5      01047         MOVWF   POSTDEC1
01D6 0E00      01048         MOVLW   HIGH(_ligne)
01D8 6EE5      01049         MOVWF   POSTDEC1
01DA 0E00      01050         MOVLW   LOW(_ligne)
01DC 6EE5      01051         MOVWF   POSTDEC1
01DE 0E00      01052         MOVLW   UPPER(__str_19)
01E0 6EE5      01053         MOVWF   POSTDEC1
01E2 0E00      01054         MOVLW   HIGH(__str_19)
01E4 6EE5      01055         MOVWF   POSTDEC1
01E6 0E00      01056         MOVLW   LOW(__str_19)
01E8 6EE5      01057         MOVWF   POSTDEC1
01EA EC00 F000 01058         CALL    _serial_printf
01EE 0E06      01059         MOVLW   0x06
01F0 26E1      01060         ADDWF   FSR1L, F
               01061 ;       .line   516; /home/mandon/pinguino32/copie courante/linux/source/user.c for (i=7;i>=0;i--)
01F2 0EF8      01062         MOVLW   0xf8
01F4 2600      01063         ADDWF   r0x01, F
01F6 0600      01064         DECF    r0x00, F
01F8 D000      01065         BRA     _01436_DS_
01FA 01066 _01439_DS_:
               01067 ;       .line   544; /home/mandon/pinguino32/copie courante/linux/source/user.c serial_write("  a b c d e f g h\r\n\r\n");
01FA 0E00      01068         MOVLW   UPPER(__str_20)
gpasm-0.13.7 beta               /home/mandon/pinguino32/copie courante/linux/source/main.asm5-29-2011  20:37:50          PAGE 21


LOC  OBJECT CODE     LINE SOURCE TEXT
  VALUE
 
01FC 6EE5      01069         MOVWF   POSTDEC1
01FE 0E00      01070         MOVLW   HIGH(__str_20)
0200 6EE5      01071         MOVWF   POSTDEC1
0202 0E00      01072         MOVLW   LOW(__str_20)
0204 6EE5      01073         MOVWF   POSTDEC1
0206 EC00 F000 01074         CALL    _serial_write
020A 0E03      01075         MOVLW   0x03
020C 26E1      01076         ADDWF   FSR1L, F
020E CFE4 F000 01077         MOVFF   PREINC1, r0x06
0212 CFE4 F000 01078         MOVFF   PREINC1, r0x05
0216 CFE4 F000 01079         MOVFF   PREINC1, r0x04
021A CFE4 F000 01080         MOVFF   PREINC1, r0x03
021E CFE4 F000 01081         MOVFF   PREINC1, r0x02
0222 CFE4 F000 01082         MOVFF   PREINC1, r0x01
0226 CFE4 F000 01083         MOVFF   PREINC1, r0x00
022A 0012      01084         RETURN  
               01085 
               01086 ; ; Starting pCode block
               01087 S_main__init_board      code
0000 01088 _init_board:
               01089 ;       .line   437; /home/mandon/pinguino32/copie courante/linux/source/user.c void init_board () 
0000 C000 FFE5 01090         MOVFF   r0x00, POSTDEC1
0004 C000 FFE5 01091         MOVFF   r0x01, POSTDEC1
0008 C000 FFE5 01092         MOVFF   r0x02, POSTDEC1
000C C000 FFE5 01093         MOVFF   r0x03, POSTDEC1
0010 C000 FFE5 01094         MOVFF   r0x04, POSTDEC1
0014 C000 FFE5 01095         MOVFF   r0x05, POSTDEC1
0018 C000 FFE5 01096         MOVFF   r0x06, POSTDEC1
               01097 ; #     MOVLW   0x0a
               01098 ; #     MOVWF   (_board + 63), B
               01099 ; #     MOVLW   0x0a
               01100 ;       .line   441; /home/mandon/pinguino32/copie courante/linux/source/user.c board[7][0] = board[7][7] = BLACK|ROOK;
001C 0E0A      01101         MOVLW   0x0a
Error [113] : Symbol not previously defined (_board).
001E 0100      01102         BANKSEL (_board + 63)
Error [113] : Symbol not previously defined (_board).
Error [113] : Symbol not previously defined (_board).
0020 6F00      01103         MOVWF   (_board + 63), B
               01104 ; removed redundant BANKSEL
Error [113] : Symbol not previously defined (_board).
Error [113] : Symbol not previously defined (_board).
0022 6F00      01105         MOVWF   (_board + 56), B
               01106 ; #     MOVLW   0x0b
               01107 ; #     MOVWF   (_board + 62), B
               01108 ; #     MOVLW   0x0b
               01109 ;       .line   442; /home/mandon/pinguino32/copie courante/linux/source/user.c board[7][1] = board[7][6] = BLACK|KNIGHT;
0024 0E0B      01110         MOVLW   0x0b
               01111 ; removed redundant BANKSEL
Error [113] : Symbol not previously defined (_board).
Error [113] : Symbol not previously defined (_board).
0026 6F00      01112         MOVWF   (_board + 62), B
               01113 ; removed redundant BANKSEL
Error [113] : Symbol not previously defined (_board).
Error [113] : Symbol not previously defined (_board).
gpasm-0.13.7 beta               /home/mandon/pinguino32/copie courante/linux/source/main.asm5-29-2011  20:37:50          PAGE 22


LOC  OBJECT CODE     LINE SOURCE TEXT
  VALUE
 
0028 6F00      01114         MOVWF   (_board + 57), B
               01115 ; #     MOVLW   0x0c
               01116 ; #     MOVWF   (_board + 61), B
               01117 ; #     MOVLW   0x0c
               01118 ;       .line   443; /home/mandon/pinguino32/copie courante/linux/source/user.c board[7][2] = board[7][5] = BLACK|BISHOP;
002A 0E0C      01119         MOVLW   0x0c
               01120 ; removed redundant BANKSEL
Error [113] : Symbol not previously defined (_board).
Error [113] : Symbol not previously defined (_board).
002C 6F00      01121         MOVWF   (_board + 61), B
               01122 ; removed redundant BANKSEL
Error [113] : Symbol not previously defined (_board).
Error [113] : Symbol not previously defined (_board).
002E 6F00      01123         MOVWF   (_board + 58), B
               01124 ;       .line   444; /home/mandon/pinguino32/copie courante/linux/source/user.c board[7][3] = BLACK|QUEEN;
0030 0E0D      01125         MOVLW   0x0d
               01126 ; removed redundant BANKSEL
Error [113] : Symbol not previously defined (_board).
Error [113] : Symbol not previously defined (_board).
0032 6F00      01127         MOVWF   (_board + 59), B
               01128 ;       .line   445; /home/mandon/pinguino32/copie courante/linux/source/user.c board[7][4] = BLACK|KING;
0034 0E0E      01129         MOVLW   0x0e
               01130 ; removed redundant BANKSEL
Error [113] : Symbol not previously defined (_board).
Error [113] : Symbol not previously defined (_board).
0036 6F00      01131         MOVWF   (_board + 60), B
               01132 ; #     MOVLW   0x02
               01133 ; #     MOVWF   (_board + 7), B
               01134 ; #     MOVLW   0x02
               01135 ;       .line   447; /home/mandon/pinguino32/copie courante/linux/source/user.c board[0][0] = board[0][7] = WHITE|ROOK;
0038 0E02      01136         MOVLW   0x02
               01137 ; removed redundant BANKSEL
Error [113] : Symbol not previously defined (_board).
Error [113] : Symbol not previously defined (_board).
003A 6F00      01138         MOVWF   (_board + 7), B
               01139 ; removed redundant BANKSEL
Error [113] : Symbol not previously defined (_board).
Error [113] : Symbol not previously defined (_board).
003C 6F00      01140         MOVWF   _board, B
               01141 ; #     MOVLW   0x03
               01142 ; #     MOVWF   (_board + 6), B
               01143 ; #     MOVLW   0x03
               01144 ;       .line   448; /home/mandon/pinguino32/copie courante/linux/source/user.c board[0][1] = board[0][6] = WHITE|KNIGHT;
003E 0E03      01145         MOVLW   0x03
               01146 ; removed redundant BANKSEL
Error [113] : Symbol not previously defined (_board).
Error [113] : Symbol not previously defined (_board).
0040 6F00      01147         MOVWF   (_board + 6), B
               01148 ; removed redundant BANKSEL
Error [113] : Symbol not previously defined (_board).
Error [113] : Symbol not previously defined (_board).
0042 6F00      01149         MOVWF   (_board + 1), B
               01150 ; #     MOVLW   0x04
               01151 ; #     MOVWF   (_board + 5), B
gpasm-0.13.7 beta               /home/mandon/pinguino32/copie courante/linux/source/main.asm5-29-2011  20:37:50          PAGE 23


LOC  OBJECT CODE     LINE SOURCE TEXT
  VALUE
 
               01152 ; #     MOVLW   0x04
               01153 ;       .line   449; /home/mandon/pinguino32/copie courante/linux/source/user.c board[0][2] = board[0][5] = WHITE|BISHOP;
0044 0E04      01154         MOVLW   0x04
               01155 ; removed redundant BANKSEL
Error [113] : Symbol not previously defined (_board).
Error [113] : Symbol not previously defined (_board).
0046 6F00      01156         MOVWF   (_board + 5), B
               01157 ; removed redundant BANKSEL
Error [113] : Symbol not previously defined (_board).
Error [113] : Symbol not previously defined (_board).
0048 6F00      01158         MOVWF   (_board + 2), B
               01159 ;       .line   450; /home/mandon/pinguino32/copie courante/linux/source/user.c board[0][3] = WHITE|QUEEN;
004A 0E05      01160         MOVLW   0x05
               01161 ; removed redundant BANKSEL
Error [113] : Symbol not previously defined (_board).
Error [113] : Symbol not previously defined (_board).
004C 6F00      01162         MOVWF   (_board + 3), B
               01163 ;       .line   451; /home/mandon/pinguino32/copie courante/linux/source/user.c board[0][4] = WHITE|KING;
004E 0E06      01164         MOVLW   0x06
               01165 ; removed redundant BANKSEL
Error [113] : Symbol not previously defined (_board).
Error [113] : Symbol not previously defined (_board).
0050 6F00      01166         MOVWF   (_board + 4), B
               01167 ;       .line   453; /home/mandon/pinguino32/copie courante/linux/source/user.c for (i=2; i<6; ++i)
0052 0E02      01168         MOVLW   0x02
0054 6E00      01169         MOVWF   r0x00
0056 0E10      01170         MOVLW   0x10
0058 6E00      01171         MOVWF   r0x01
005A 01172 _01392_DS_:
005A 0E06      01173         MOVLW   0x06
005C 5C00      01174         SUBWF   r0x00, W
005E E200      01175         BC      _01395_DS_
               01176 ;       .line   454; /home/mandon/pinguino32/copie courante/linux/source/user.c for (j=0; j<8; ++j)
Error [113] : Symbol not previously defined (_board).
0060 0E00      01177         MOVLW   LOW(_board)
0062 2400      01178         ADDWF   r0x01, W
0064 6E00      01179         MOVWF   r0x02
0066 6A00      01180         CLRF    r0x03
Error [113] : Symbol not previously defined (_board).
0068 0E00      01181         MOVLW   HIGH(_board)
006A 2200      01182         ADDWFC  r0x03, F
006C 6A00      01183         CLRF    r0x04
006E 01184 _01388_DS_:
006E 0E08      01185         MOVLW   0x08
0070 5C00      01186         SUBWF   r0x04, W
0072 E200      01187         BC      _01394_DS_
               01188 ;       .line   455; /home/mandon/pinguino32/copie courante/linux/source/user.c board[i][j] = 0;
0074 5000      01189         MOVF    r0x04, W
0076 2400      01190         ADDWF   r0x02, W
0078 6E00      01191         MOVWF   r0x05
007A 6AE8      01192         CLRF    WREG
007C 2000      01193         ADDWFC  r0x03, W
007E 6E00      01194         MOVWF   r0x06
0080 C000 FFE9 01195         MOVFF   r0x05, FSR0L
gpasm-0.13.7 beta               /home/mandon/pinguino32/copie courante/linux/source/main.asm5-29-2011  20:37:50          PAGE 24


LOC  OBJECT CODE     LINE SOURCE TEXT
  VALUE
 
0084 C000 FFEA 01196         MOVFF   r0x06, FSR0H
0088 6AEF      01197         CLRF    INDF0
               01198 ;       .line   454; /home/mandon/pinguino32/copie courante/linux/source/user.c for (j=0; j<8; ++j)
008A 2A00      01199         INCF    r0x04, F
008C D000      01200         BRA     _01388_DS_
008E 01201 _01394_DS_:
               01202 ;       .line   453; /home/mandon/pinguino32/copie courante/linux/source/user.c for (i=2; i<6; ++i)
008E 0E08      01203         MOVLW   0x08
0090 2600      01204         ADDWF   r0x01, F
0092 2A00      01205         INCF    r0x00, F
0094 D000      01206         BRA     _01392_DS_
0096 01207 _01395_DS_:
               01208 ;       .line   457; /home/mandon/pinguino32/copie courante/linux/source/user.c for (i=0; i<8; ++i)
0096 6A00      01209         CLRF    r0x00
0098 01210 _01396_DS_:
0098 0E08      01211         MOVLW   0x08
009A 5C00      01212         SUBWF   r0x00, W
009C E200      01213         BC      _01399_DS_
               01214 ;       .line   459; /home/mandon/pinguino32/copie courante/linux/source/user.c board[6][i] = BLACK|PAWN;
Error [113] : Symbol not previously defined (_board).
009E 0E00      01215         MOVLW   LOW(_board + 48)
00A0 2400      01216         ADDWF   r0x00, W
00A2 6E00      01217         MOVWF   r0x01
00A4 6A00      01218         CLRF    r0x02
Error [113] : Symbol not previously defined (_board).
00A6 0E00      01219         MOVLW   HIGH(_board + 48)
00A8 2200      01220         ADDWFC  r0x02, F
00AA C000 FFE9 01221         MOVFF   r0x01, FSR0L
00AE C000 FFEA 01222         MOVFF   r0x02, FSR0H
00B2 0E09      01223         MOVLW   0x09
00B4 6EEF      01224         MOVWF   INDF0
               01225 ;       .line   460; /home/mandon/pinguino32/copie courante/linux/source/user.c board[1][i] = WHITE|PAWN;
Error [113] : Symbol not previously defined (_board).
00B6 0E00      01226         MOVLW   LOW(_board + 8)
00B8 2400      01227         ADDWF   r0x00, W
00BA 6E00      01228         MOVWF   r0x01
00BC 6A00      01229         CLRF    r0x02
Error [113] : Symbol not previously defined (_board).
00BE 0E00      01230         MOVLW   HIGH(_board + 8)
00C0 2200      01231         ADDWFC  r0x02, F
00C2 C000 FFE9 01232         MOVFF   r0x01, FSR0L
00C6 C000 FFEA 01233         MOVFF   r0x02, FSR0H
00CA 0E01      01234         MOVLW   0x01
00CC 6EEF      01235         MOVWF   INDF0
               01236 ;       .line   457; /home/mandon/pinguino32/copie courante/linux/source/user.c for (i=0; i<8; ++i)
00CE 2A00      01237         INCF    r0x00, F
00D0 D000      01238         BRA     _01396_DS_
00D2 01239 _01399_DS_:
Error [113] : Symbol not previously defined (_wh_king_pos).
00D2 0100      01240         BANKSEL _wh_king_pos
               01241 ;       .line   464; /home/mandon/pinguino32/copie courante/linux/source/user.c wh_king_pos[0] = 0;
Error [113] : Symbol not previously defined (_wh_king_pos).
Error [113] : Symbol not previously defined (_wh_king_pos).
00D4 6B00      01242         CLRF    _wh_king_pos, B
gpasm-0.13.7 beta               /home/mandon/pinguino32/copie courante/linux/source/main.asm5-29-2011  20:37:50          PAGE 25


LOC  OBJECT CODE     LINE SOURCE TEXT
  VALUE
 
               01243 ;       .line   465; /home/mandon/pinguino32/copie courante/linux/source/user.c wh_king_pos[1] = 4;
00D6 0E04      01244         MOVLW   0x04
               01245 ; removed redundant BANKSEL
Error [113] : Symbol not previously defined (_wh_king_pos).
Error [113] : Symbol not previously defined (_wh_king_pos).
00D8 6F00      01246         MOVWF   (_wh_king_pos + 1), B
               01247 ;       .line   466; /home/mandon/pinguino32/copie courante/linux/source/user.c bl_king_pos[0] = 7;
00DA 0E07      01248         MOVLW   0x07
Error [113] : Symbol not previously defined (_bl_king_pos).
00DC 0100      01249         BANKSEL _bl_king_pos
Error [113] : Symbol not previously defined (_bl_king_pos).
Error [113] : Symbol not previously defined (_bl_king_pos).
00DE 6F00      01250         MOVWF   _bl_king_pos, B
               01251 ;       .line   467; /home/mandon/pinguino32/copie courante/linux/source/user.c bl_king_pos[1] = 4;  
00E0 0E04      01252         MOVLW   0x04
               01253 ; removed redundant BANKSEL
Error [113] : Symbol not previously defined (_bl_king_pos).
Error [113] : Symbol not previously defined (_bl_king_pos).
00E2 6F00      01254         MOVWF   (_bl_king_pos + 1), B
               01255 ; #     MOVLW   0xff
               01256 ; #     MOVWF   _bl_base_cont, B
               01257 ; #     MOVLW   0xff
               01258 ;       .line   470; /home/mandon/pinguino32/copie courante/linux/source/user.c wh_base_cont = bl_base_cont = 0xFF;
00E4 0EFF      01259         MOVLW   0xff
Error [113] : Symbol not previously defined (_bl_base_cont).
00E6 0100      01260         BANKSEL _bl_base_cont
Error [113] : Symbol not previously defined (_bl_base_cont).
Error [113] : Symbol not previously defined (_bl_base_cont).
00E8 6900      01261         SETF    _bl_base_cont, B
Error [113] : Symbol not previously defined (_wh_base_cont).
00EA 0100      01262         BANKSEL _wh_base_cont
Error [113] : Symbol not previously defined (_wh_base_cont).
Error [113] : Symbol not previously defined (_wh_base_cont).
00EC 6900      01263         SETF    _wh_base_cont, B
00EE CFE4 F000 01264         MOVFF   PREINC1, r0x06
00F2 CFE4 F000 01265         MOVFF   PREINC1, r0x05
00F6 CFE4 F000 01266         MOVFF   PREINC1, r0x04
00FA CFE4 F000 01267         MOVFF   PREINC1, r0x03
00FE CFE4 F000 01268         MOVFF   PREINC1, r0x02
0102 CFE4 F000 01269         MOVFF   PREINC1, r0x01
0106 CFE4 F000 01270         MOVFF   PREINC1, r0x00
010A 0012      01271         RETURN  
               01272 
               01273 ; ; Starting pCode block
               01274 S_main__updatekingpos   code
0000 01275 _updatekingpos:
               01276 ;       .line   423; /home/mandon/pinguino32/copie courante/linux/source/user.c void updatekingpos(LOC to, BOOL piececolour)
0000 CFD9 FFE5 01277         MOVFF   FSR2L, POSTDEC1
0004 CFE1 FFD9 01278         MOVFF   FSR1L, FSR2L
0008 C000 FFE5 01279         MOVFF   r0x00, POSTDEC1
000C C000 FFE5 01280         MOVFF   r0x01, POSTDEC1
0010 C000 FFE5 01281         MOVFF   r0x02, POSTDEC1
0014 C000 FFE5 01282         MOVFF   r0x03, POSTDEC1
0018 C000 FFE5 01283         MOVFF   r0x04, POSTDEC1
gpasm-0.13.7 beta               /home/mandon/pinguino32/copie courante/linux/source/main.asm5-29-2011  20:37:50          PAGE 26


LOC  OBJECT CODE     LINE SOURCE TEXT
  VALUE
 
001C 0E02      01284         MOVLW   0x02
001E CFDB F000 01285         MOVFF   PLUSW2, r0x00
0022 0E03      01286         MOVLW   0x03
0024 CFDB F000 01287         MOVFF   PLUSW2, r0x01
0028 0E04      01288         MOVLW   0x04
002A CFDB F000 01289         MOVFF   PLUSW2, r0x02
002E 0E05      01290         MOVLW   0x05
0030 CFDB F000 01291         MOVFF   PLUSW2, r0x03
               01292 ;       .line   425; /home/mandon/pinguino32/copie courante/linux/source/user.c if (!piececolour)
0034 5000      01293         MOVF    r0x03, W
0036 E100      01294         BNZ     _01381_DS_
               01295 ;       .line   427; /home/mandon/pinguino32/copie courante/linux/source/user.c wh_king_pos[0] = to[0];
0038 C000 FFE9 01296         MOVFF   r0x00, FSR0L
003C C000 FFF3 01297         MOVFF   r0x01, PRODL
0040 5000      01298         MOVF    r0x02, W
0042 EC00 F000 01299         CALL    __gptrget1
               01300 ; #     MOVWF   r0x03
               01301 ; #     MOVF    r0x03, W
Error [113] : Symbol not previously defined (_wh_king_pos).
0046 0100      01302         BANKSEL _wh_king_pos
Error [113] : Symbol not previously defined (_wh_king_pos).
Error [113] : Symbol not previously defined (_wh_king_pos).
0048 6F00      01303         MOVWF   _wh_king_pos, B
               01304 ;       .line   428; /home/mandon/pinguino32/copie courante/linux/source/user.c wh_king_pos[1] = to[1];
004A 5000      01305         MOVF    r0x00, W
004C 0F01      01306         ADDLW   0x01
004E 6E00      01307         MOVWF   r0x03
0050 0E00      01308         MOVLW   0x00
0052 2000      01309         ADDWFC  r0x01, W
0054 6E00      01310         MOVWF   r0x04
0056 0E00      01311         MOVLW   0x00
0058 2000      01312         ADDWFC  r0x02, W
005A C000 FFE9 01313         MOVFF   r0x03, FSR0L
005E C000 FFF3 01314         MOVFF   r0x04, PRODL
0062 EC00 F000 01315         CALL    __gptrget1
               01316 ; #     MOVWF   r0x03
               01317 ; #     MOVF    r0x03, W
Error [113] : Symbol not previously defined (_wh_king_pos).
0066 0100      01318         BANKSEL (_wh_king_pos + 1)
Error [113] : Symbol not previously defined (_wh_king_pos).
Error [113] : Symbol not previously defined (_wh_king_pos).
0068 6F00      01319         MOVWF   (_wh_king_pos + 1), B
006A D000      01320         BRA     _01383_DS_
006C 01321 _01381_DS_:
               01322 ;       .line   432; /home/mandon/pinguino32/copie courante/linux/source/user.c bl_king_pos[0] = to[0];
006C C000 FFE9 01323         MOVFF   r0x00, FSR0L
0070 C000 FFF3 01324         MOVFF   r0x01, PRODL
0074 5000      01325         MOVF    r0x02, W
0076 EC00 F000 01326         CALL    __gptrget1
               01327 ; #     MOVWF   r0x03
               01328 ; #     MOVF    r0x03, W
Error [113] : Symbol not previously defined (_bl_king_pos).
007A 0100      01329         BANKSEL _bl_king_pos
Error [113] : Symbol not previously defined (_bl_king_pos).
gpasm-0.13.7 beta               /home/mandon/pinguino32/copie courante/linux/source/main.asm5-29-2011  20:37:50          PAGE 27


LOC  OBJECT CODE     LINE SOURCE TEXT
  VALUE
 
Error [113] : Symbol not previously defined (_bl_king_pos).
007C 6F00      01330         MOVWF   _bl_king_pos, B
               01331 ;       .line   433; /home/mandon/pinguino32/copie courante/linux/source/user.c bl_king_pos[1] = to[1];
007E 2A00      01332         INCF    r0x00, F
0080 B0D8      01333         BTFSC   STATUS, 0
0082 2A00      01334         INCF    r0x01, F
0084 B0D8      01335         BTFSC   STATUS, 0
0086 2A00      01336         INCF    r0x02, F
0088 C000 FFE9 01337         MOVFF   r0x00, FSR0L
008C C000 FFF3 01338         MOVFF   r0x01, PRODL
0090 5000      01339         MOVF    r0x02, W
0092 EC00 F000 01340         CALL    __gptrget1
               01341 ; #     MOVWF   r0x00
               01342 ; #     MOVF    r0x00, W
Error [113] : Symbol not previously defined (_bl_king_pos).
0096 0100      01343         BANKSEL (_bl_king_pos + 1)
Error [113] : Symbol not previously defined (_bl_king_pos).
Error [113] : Symbol not previously defined (_bl_king_pos).
0098 6F00      01344         MOVWF   (_bl_king_pos + 1), B
009A 01345 _01383_DS_:
009A CFE4 F000 01346         MOVFF   PREINC1, r0x04
009E CFE4 F000 01347         MOVFF   PREINC1, r0x03
00A2 CFE4 F000 01348         MOVFF   PREINC1, r0x02
00A6 CFE4 F000 01349         MOVFF   PREINC1, r0x01
00AA CFE4 F000 01350         MOVFF   PREINC1, r0x00
00AE CFE4 FFD9 01351         MOVFF   PREINC1, FSR2L
00B2 0012      01352         RETURN  
               01353 
               01354 ; ; Starting pCode block
               01355 S_main__draw_move       code
0000 01356 _draw_move:
               01357 ;       .line   372; /home/mandon/pinguino32/copie courante/linux/source/user.c void draw_move (LOC from, LOC to,PIECE p)
0000 CFD9 FFE5 01358         MOVFF   FSR2L, POSTDEC1
0004 CFE1 FFD9 01359         MOVFF   FSR1L, FSR2L
0008 C000 FFE5 01360         MOVFF   r0x00, POSTDEC1
000C C000 FFE5 01361         MOVFF   r0x01, POSTDEC1
0010 C000 FFE5 01362         MOVFF   r0x02, POSTDEC1
0014 C000 FFE5 01363         MOVFF   r0x03, POSTDEC1
0018 C000 FFE5 01364         MOVFF   r0x04, POSTDEC1
001C C000 FFE5 01365         MOVFF   r0x05, POSTDEC1
0020 C000 FFE5 01366         MOVFF   r0x06, POSTDEC1
0024 C000 FFE5 01367         MOVFF   r0x07, POSTDEC1
0028 C000 FFE5 01368         MOVFF   r0x08, POSTDEC1
002C C000 FFE5 01369         MOVFF   r0x09, POSTDEC1
0030 C000 FFE5 01370         MOVFF   r0x0a, POSTDEC1
0034 C000 FFE5 01371         MOVFF   r0x0b, POSTDEC1
0038 C000 FFE5 01372         MOVFF   r0x0c, POSTDEC1
003C C000 FFE5 01373         MOVFF   r0x0d, POSTDEC1
0040 C000 FFE5 01374         MOVFF   r0x0e, POSTDEC1
0044 C000 FFE5 01375         MOVFF   r0x0f, POSTDEC1
0048 C000 FFE5 01376         MOVFF   r0x10, POSTDEC1
004C C000 FFE5 01377         MOVFF   r0x11, POSTDEC1
0050 0E02      01378         MOVLW   0x02
0052 CFDB F000 01379         MOVFF   PLUSW2, r0x00
gpasm-0.13.7 beta               /home/mandon/pinguino32/copie courante/linux/source/main.asm5-29-2011  20:37:50          PAGE 28


LOC  OBJECT CODE     LINE SOURCE TEXT
  VALUE
 
0056 0E03      01380         MOVLW   0x03
0058 CFDB F000 01381         MOVFF   PLUSW2, r0x01
005C 0E04      01382         MOVLW   0x04
005E CFDB F000 01383         MOVFF   PLUSW2, r0x02
0062 0E05      01384         MOVLW   0x05
0064 CFDB F000 01385         MOVFF   PLUSW2, r0x03
0068 0E06      01386         MOVLW   0x06
006A CFDB F000 01387         MOVFF   PLUSW2, r0x04
006E 0E07      01388         MOVLW   0x07
0070 CFDB F000 01389         MOVFF   PLUSW2, r0x05
0074 0E08      01390         MOVLW   0x08
0076 CFDB F000 01391         MOVFF   PLUSW2, r0x06
               01392 ;       .line   375; /home/mandon/pinguino32/copie courante/linux/source/user.c basemask = (p & 0x08) ? &bl_base_cont : &wh_base_cont;
007A 1400      01393         ANDWF   r0x06, W
007C 6E00      01394         MOVWF   r0x07
007E 5000      01395         MOVF    r0x07, W
0080 E000      01396         BZ      _01332_DS_
Error [113] : Symbol not previously defined (_bl_base_cont).
0082 0E00      01397         MOVLW   LOW(_bl_base_cont)
0084 6E00      01398         MOVWF   r0x08
Error [113] : Symbol not previously defined (_bl_base_cont).
0086 0E00      01399         MOVLW   HIGH(_bl_base_cont)
0088 6E00      01400         MOVWF   r0x09
008A D000      01401         BRA     _01333_DS_
008C 01402 _01332_DS_:
Error [113] : Symbol not previously defined (_wh_base_cont).
008C 0E00      01403         MOVLW   LOW(_wh_base_cont)
008E 6E00      01404         MOVWF   r0x08
Error [113] : Symbol not previously defined (_wh_base_cont).
0090 0E00      01405         MOVLW   HIGH(_wh_base_cont)
0092 6E00      01406         MOVWF   r0x09
0094 01407 _01333_DS_:
0094 5000      01408         MOVF    r0x09, W
0096 6E00      01409         MOVWF   r0x09
               01410 ; #     MOVF    r0x08, W
               01411 ; #     MOVWF   r0x08
0098 0E80      01412         MOVLW   0x80
009A 6E00      01413         MOVWF   r0x0a
               01414 ;       .line   376; /home/mandon/pinguino32/copie courante/linux/source/user.c baserow = (p & 0x08) ? 7 : 0;
009C 5000      01415         MOVF    r0x07, W
009E E000      01416         BZ      _01334_DS_
00A0 0E07      01417         MOVLW   0x07
00A2 6E00      01418         MOVWF   r0x0b
00A4 D000      01419         BRA     _01335_DS_
00A6 01420 _01334_DS_:
00A6 6A00      01421         CLRF    r0x0b
00A8 01422 _01335_DS_:
               01423 ;       .line   379; /home/mandon/pinguino32/copie courante/linux/source/user.c if (piecetype(p) == KING) 
00A8 0E07      01424         MOVLW   0x07
00AA 1400      01425         ANDWF   r0x06, W
               01426 ; #     MOVWF   r0x0c
               01427 ; #     MOVF    r0x0c, W
00AC 0A06      01428         XORLW   0x06
00AE E000      01429         BZ      _01350_DS_
gpasm-0.13.7 beta               /home/mandon/pinguino32/copie courante/linux/source/main.asm5-29-2011  20:37:50          PAGE 29


LOC  OBJECT CODE     LINE SOURCE TEXT
  VALUE
 
00B0 D000      01430         BRA     _01325_DS_
00B2 01431 _01350_DS_:
               01432 ;       .line   381; /home/mandon/pinguino32/copie courante/linux/source/user.c updatekingpos(to,(p&0x08));
00B2 5000      01433         MOVF    r0x07, W
00B4 6EE5      01434         MOVWF   POSTDEC1
00B6 5000      01435         MOVF    r0x05, W
00B8 6EE5      01436         MOVWF   POSTDEC1
00BA 5000      01437         MOVF    r0x04, W
00BC 6EE5      01438         MOVWF   POSTDEC1
00BE 5000      01439         MOVF    r0x03, W
00C0 6EE5      01440         MOVWF   POSTDEC1
00C2 EC00 F000 01441         CALL    _updatekingpos
00C6 0E04      01442         MOVLW   0x04
00C8 26E1      01443         ADDWF   FSR1L, F
               01444 ;       .line   382; /home/mandon/pinguino32/copie courante/linux/source/user.c board[from[0]][from[1]] = EMPTY;
00CA C000 FFE9 01445         MOVFF   r0x00, FSR0L
00CE C000 FFF3 01446         MOVFF   r0x01, PRODL
00D2 5000      01447         MOVF    r0x02, W
00D4 EC00 F000 01448         CALL    __gptrget1
               01449 ; #     MOVWF   r0x0c
               01450 ; #;;multiply lit val:0x08 by variable r0x0c and store in r0x0c
               01451 ; #;;Unrolled 8 X 8 multiplication
               01452 ; #;;FIXME: the function does not support result==WREG
               01453 ; #     MOVF    r0x0c, W
00D8 0D08      01454         MULLW   0x08
00DA CFF3 F000 01455         MOVFF   PRODL, r0x0c
00DE 6A00      01456         CLRF    r0x0d
Error [113] : Symbol not previously defined (_board).
00E0 0E00      01457         MOVLW   LOW(_board)
00E2 2600      01458         ADDWF   r0x0c, F
Error [113] : Symbol not previously defined (_board).
00E4 0E00      01459         MOVLW   HIGH(_board)
00E6 2200      01460         ADDWFC  r0x0d, F
00E8 5000      01461         MOVF    r0x00, W
00EA 0F01      01462         ADDLW   0x01
00EC 6E00      01463         MOVWF   r0x0e
00EE 0E00      01464         MOVLW   0x00
00F0 2000      01465         ADDWFC  r0x01, W
00F2 6E00      01466         MOVWF   r0x0f
00F4 0E00      01467         MOVLW   0x00
00F6 2000      01468         ADDWFC  r0x02, W
00F8 C000 FFE9 01469         MOVFF   r0x0e, FSR0L
00FC C000 FFF3 01470         MOVFF   r0x0f, PRODL
0100 EC00 F000 01471         CALL    __gptrget1
               01472 ; #     MOVWF   r0x0e
               01473 ; #     MOVF    r0x0e, W
0104 6E00      01474         MOVWF   r0x0e
0106 2600      01475         ADDWF   r0x0c, F
0108 6AE8      01476         CLRF    WREG
010A 2200      01477         ADDWFC  r0x0d, F
010C C000 FFE9 01478         MOVFF   r0x0c, FSR0L
0110 C000 FFEA 01479         MOVFF   r0x0d, FSR0H
0114 6AEF      01480         CLRF    INDF0
               01481 ;       .line   383; /home/mandon/pinguino32/copie courante/linux/source/user.c board[to[0]][to[1]] = p;
gpasm-0.13.7 beta               /home/mandon/pinguino32/copie courante/linux/source/main.asm5-29-2011  20:37:50          PAGE 30


LOC  OBJECT CODE     LINE SOURCE TEXT
  VALUE
 
0116 C000 FFE9 01482         MOVFF   r0x03, FSR0L
011A C000 FFF3 01483         MOVFF   r0x04, PRODL
011E 5000      01484         MOVF    r0x05, W
0120 EC00 F000 01485         CALL    __gptrget1
               01486 ; #     MOVWF   r0x0c
               01487 ; #;;multiply lit val:0x08 by variable r0x0c and store in r0x0c
               01488 ; #;;Unrolled 8 X 8 multiplication
               01489 ; #;;FIXME: the function does not support result==WREG
               01490 ; #     MOVF    r0x0c, W
0124 0D08      01491         MULLW   0x08
0126 CFF3 F000 01492         MOVFF   PRODL, r0x0c
012A 6A00      01493         CLRF    r0x0d
Error [113] : Symbol not previously defined (_board).
012C 0E00      01494         MOVLW   LOW(_board)
012E 2600      01495         ADDWF   r0x0c, F
Error [113] : Symbol not previously defined (_board).
0130 0E00      01496         MOVLW   HIGH(_board)
0132 2200      01497         ADDWFC  r0x0d, F
0134 5000      01498         MOVF    r0x03, W
0136 0F01      01499         ADDLW   0x01
0138 6E00      01500         MOVWF   r0x0f
013A 0E00      01501         MOVLW   0x00
013C 2000      01502         ADDWFC  r0x04, W
013E 6E00      01503         MOVWF   r0x10
0140 0E00      01504         MOVLW   0x00
0142 2000      01505         ADDWFC  r0x05, W
0144 C000 FFE9 01506         MOVFF   r0x0f, FSR0L
0148 C000 FFF3 01507         MOVFF   r0x10, PRODL
014C EC00 F000 01508         CALL    __gptrget1
               01509 ; #     MOVWF   r0x0f
               01510 ; #     MOVF    r0x0f, W
0150 6E00      01511         MOVWF   r0x0f
0152 2600      01512         ADDWF   r0x0c, F
0154 6AE8      01513         CLRF    WREG
0156 2200      01514         ADDWFC  r0x0d, F
0158 C000 FFE9 01515         MOVFF   r0x0c, FSR0L
015C C000 FFEA 01516         MOVFF   r0x0d, FSR0H
0160 C000 FFEF 01517         MOVFF   r0x06, INDF0
               01518 ;       .line   385; /home/mandon/pinguino32/copie courante/linux/source/user.c if (((to[1] - from[1]) != 1) && ((from[1] - to[1]) != 1))
0164 C000 F000 01519         MOVFF   r0x0f, r0x0c
0168 6A00      01520         CLRF    r0x0d
016A 6A00      01521         CLRF    r0x0f
016C 5000      01522         MOVF    r0x0e, W
016E 5C00      01523         SUBWF   r0x0c, W
0170 6E00      01524         MOVWF   r0x10
0172 5000      01525         MOVF    r0x0f, W
0174 5800      01526         SUBWFB  r0x0d, W
0176 6E00      01527         MOVWF   r0x11
0178 5000      01528         MOVF    r0x10, W
017A 0A01      01529         XORLW   0x01
017C E100      01530         BNZ     _01352_DS_
017E 5000      01531         MOVF    r0x11, W
0180 E100      01532         BNZ     _01352_DS_
0182 D000      01533         BRA     _01326_DS_
gpasm-0.13.7 beta               /home/mandon/pinguino32/copie courante/linux/source/main.asm5-29-2011  20:37:50          PAGE 31


LOC  OBJECT CODE     LINE SOURCE TEXT
  VALUE
 
0184 01534 _01352_DS_:
0184 5000      01535         MOVF    r0x0c, W
0186 5C00      01536         SUBWF   r0x0e, W
0188 6E00      01537         MOVWF   r0x0c
018A 5000      01538         MOVF    r0x0d, W
018C 5800      01539         SUBWFB  r0x0f, W
018E 6E00      01540         MOVWF   r0x0d
0190 5000      01541         MOVF    r0x0c, W
0192 0A01      01542         XORLW   0x01
0194 E100      01543         BNZ     _01354_DS_
0196 5000      01544         MOVF    r0x0d, W
0198 E100      01545         BNZ     _01354_DS_
019A D000      01546         BRA     _01326_DS_
019C 01547 _01354_DS_:
               01548 ;       .line   387; /home/mandon/pinguino32/copie courante/linux/source/user.c if (((*basemask) & 0x1F)== 0x11)
019C C000 FFE9 01549         MOVFF   r0x08, FSR0L
01A0 C000 FFF3 01550         MOVFF   r0x09, PRODL
01A4 5000      01551         MOVF    r0x0a, W
01A6 EC00 F000 01552         CALL    __gptrget1
01AA 6E00      01553         MOVWF   r0x0c
01AC 0E1F      01554         MOVLW   0x1f
01AE 1400      01555         ANDWF   r0x0c, W
               01556 ; #     MOVWF   r0x0d
               01557 ; #     MOVF    r0x0d, W
01B0 0A11      01558         XORLW   0x11
01B2 E100      01559         BNZ     _01313_DS_
               01560 ;       .line   390; /home/mandon/pinguino32/copie courante/linux/source/user.c board[to[0]][0] = EMPTY;
01B4 C000 FFE9 01561         MOVFF   r0x03, FSR0L
01B8 C000 FFF3 01562         MOVFF   r0x04, PRODL
01BC 5000      01563         MOVF    r0x05, W
01BE EC00 F000 01564         CALL    __gptrget1
               01565 ; #     MOVWF   r0x0d
               01566 ; #;;multiply lit val:0x08 by variable r0x0d and store in r0x0d
               01567 ; #;;Unrolled 8 X 8 multiplication
               01568 ; #;;FIXME: the function does not support result==WREG
               01569 ; #     MOVF    r0x0d, W
01C2 0D08      01570         MULLW   0x08
01C4 CFF3 F000 01571         MOVFF   PRODL, r0x0d
Error [113] : Symbol not previously defined (_board).
01C8 0E00      01572         MOVLW   LOW(_board)
01CA 2400      01573         ADDWF   r0x0d, W
01CC 6E00      01574         MOVWF   r0x0e
01CE 6A00      01575         CLRF    r0x0f
Error [113] : Symbol not previously defined (_board).
01D0 0E00      01576         MOVLW   HIGH(_board)
01D2 2200      01577         ADDWFC  r0x0f, F
01D4 C000 FFE9 01578         MOVFF   r0x0e, FSR0L
01D8 C000 FFEA 01579         MOVFF   r0x0f, FSR0H
01DC 6AEF      01580         CLRF    INDF0
               01581 ;       .line   391; /home/mandon/pinguino32/copie courante/linux/source/user.c board[to[0]][3] = ((p&0x08)|ROOK);
01DE 6A00      01582         CLRF    r0x0e
Error [113] : Symbol not previously defined (_board).
01E0 0E00      01583         MOVLW   LOW(_board)
01E2 2600      01584         ADDWF   r0x0d, F
gpasm-0.13.7 beta               /home/mandon/pinguino32/copie courante/linux/source/main.asm5-29-2011  20:37:50          PAGE 32


LOC  OBJECT CODE     LINE SOURCE TEXT
  VALUE
 
Error [113] : Symbol not previously defined (_board).
01E4 0E00      01585         MOVLW   HIGH(_board)
01E6 2200      01586         ADDWFC  r0x0e, F
01E8 0E03      01587         MOVLW   0x03
01EA 2600      01588         ADDWF   r0x0d, F
01EC B0D8      01589         BTFSC   STATUS, 0
01EE 2A00      01590         INCF    r0x0e, F
01F0 0E02      01591         MOVLW   0x02
01F2 1000      01592         IORWF   r0x07, W
01F4 6E00      01593         MOVWF   r0x0f
01F6 C000 FFE9 01594         MOVFF   r0x0d, FSR0L
01FA C000 FFEA 01595         MOVFF   r0x0e, FSR0H
01FE C000 FFEF 01596         MOVFF   r0x0f, INDF0
               01597 ;       .line   392; /home/mandon/pinguino32/copie courante/linux/source/user.c serial_printf("Queenside Castle\n");
0202 0E00      01598         MOVLW   UPPER(__str_17)
0204 6EE5      01599         MOVWF   POSTDEC1
0206 0E00      01600         MOVLW   HIGH(__str_17)
0208 6EE5      01601         MOVWF   POSTDEC1
020A 0E00      01602         MOVLW   LOW(__str_17)
020C 6EE5      01603         MOVWF   POSTDEC1
020E EC00 F000 01604         CALL    _serial_printf
0212 0E03      01605         MOVLW   0x03
0214 26E1      01606         ADDWF   FSR1L, F
0216 D000      01607         BRA     _01326_DS_
0218 01608 _01313_DS_:
               01609 ;       .line   394; /home/mandon/pinguino32/copie courante/linux/source/user.c else if (((*basemask) & 0xF0) == 0x90)
0218 0EF0      01610         MOVLW   0xf0
021A 1600      01611         ANDWF   r0x0c, F
021C 5000      01612         MOVF    r0x0c, W
021E 0A90      01613         XORLW   0x90
0220 E000      01614         BZ      _01361_DS_
0222 D000      01615         BRA     _01326_DS_
0224 01616 _01361_DS_:
               01617 ;       .line   397; /home/mandon/pinguino32/copie courante/linux/source/user.c board[to[0]][7] = EMPTY;
0224 C000 FFE9 01618         MOVFF   r0x03, FSR0L
0228 C000 FFF3 01619         MOVFF   r0x04, PRODL
022C 5000      01620         MOVF    r0x05, W
022E EC00 F000 01621         CALL    __gptrget1
               01622 ; #     MOVWF   r0x0c
               01623 ; #;;multiply lit val:0x08 by variable r0x0c and store in r0x0c
               01624 ; #;;Unrolled 8 X 8 multiplication
               01625 ; #;;FIXME: the function does not support result==WREG
               01626 ; #     MOVF    r0x0c, W
0232 0D08      01627         MULLW   0x08
0234 CFF3 F000 01628         MOVFF   PRODL, r0x0c
0238 6A00      01629         CLRF    r0x0d
Error [113] : Symbol not previously defined (_board).
023A 0E00      01630         MOVLW   LOW(_board)
023C 2600      01631         ADDWF   r0x0c, F
Error [113] : Symbol not previously defined (_board).
023E 0E00      01632         MOVLW   HIGH(_board)
0240 2200      01633         ADDWFC  r0x0d, F
0242 5000      01634         MOVF    r0x0c, W
0244 0F07      01635         ADDLW   0x07
gpasm-0.13.7 beta               /home/mandon/pinguino32/copie courante/linux/source/main.asm5-29-2011  20:37:50          PAGE 33


LOC  OBJECT CODE     LINE SOURCE TEXT
  VALUE
 
0246 6E00      01636         MOVWF   r0x0e
0248 0E00      01637         MOVLW   0x00
024A 2000      01638         ADDWFC  r0x0d, W
024C 6E00      01639         MOVWF   r0x0f
024E C000 FFE9 01640         MOVFF   r0x0e, FSR0L
0252 C000 FFEA 01641         MOVFF   r0x0f, FSR0H
0256 6AEF      01642         CLRF    INDF0
               01643 ;       .line   398; /home/mandon/pinguino32/copie courante/linux/source/user.c board[to[0]][5] = ((p&0x08)|ROOK);
0258 0E05      01644         MOVLW   0x05
025A 2600      01645         ADDWF   r0x0c, F
025C B0D8      01646         BTFSC   STATUS, 0
025E 2A00      01647         INCF    r0x0d, F
0260 0E02      01648         MOVLW   0x02
0262 1000      01649         IORWF   r0x07, W
0264 6E00      01650         MOVWF   r0x0e
0266 C000 FFE9 01651         MOVFF   r0x0c, FSR0L
026A C000 FFEA 01652         MOVFF   r0x0d, FSR0H
026E C000 FFEF 01653         MOVFF   r0x0e, INDF0
               01654 ;       .line   399; /home/mandon/pinguino32/copie courante/linux/source/user.c serial_printf("Kingside Castle\n");
0272 0E00      01655         MOVLW   UPPER(__str_18)
0274 6EE5      01656         MOVWF   POSTDEC1
0276 0E00      01657         MOVLW   HIGH(__str_18)
0278 6EE5      01658         MOVWF   POSTDEC1
027A 0E00      01659         MOVLW   LOW(__str_18)
027C 6EE5      01660         MOVWF   POSTDEC1
027E EC00 F000 01661         CALL    _serial_printf
0282 0E03      01662         MOVLW   0x03
0284 26E1      01663         ADDWF   FSR1L, F
0286 D000      01664         BRA     _01326_DS_
0288 01665 _01325_DS_:
               01666 ;       .line   404; /home/mandon/pinguino32/copie courante/linux/source/user.c else if (((p == 0x09) && (to[0] == 0)) || ((p == 1) && (to[0] == 7)))
0288 5000      01667         MOVF    r0x06, W
028A 0A09      01668         XORLW   0x09
028C E100      01669         BNZ     _01323_DS_
028E C000 FFE9 01670         MOVFF   r0x03, FSR0L
0292 C000 FFF3 01671         MOVFF   r0x04, PRODL
0296 5000      01672         MOVF    r0x05, W
0298 EC00 F000 01673         CALL    __gptrget1
029C 6E00      01674         MOVWF   r0x0c
029E 5000      01675         MOVF    r0x0c, W
02A0 E000      01676         BZ      _01318_DS_
02A2 01677 _01323_DS_:
02A2 5000      01678         MOVF    r0x06, W
02A4 0A01      01679         XORLW   0x01
02A6 E000      01680         BZ      _01366_DS_
02A8 D000      01681         BRA     _01319_DS_
02AA 01682 _01366_DS_:
02AA C000 FFE9 01683         MOVFF   r0x03, FSR0L
02AE C000 FFF3 01684         MOVFF   r0x04, PRODL
02B2 5000      01685         MOVF    r0x05, W
02B4 EC00 F000 01686         CALL    __gptrget1
               01687 ; #     MOVWF   r0x0c
               01688 ; #     MOVF    r0x0c, W
02B8 0A07      01689         XORLW   0x07
gpasm-0.13.7 beta               /home/mandon/pinguino32/copie courante/linux/source/main.asm5-29-2011  20:37:50          PAGE 34


LOC  OBJECT CODE     LINE SOURCE TEXT
  VALUE
 
02BA E000      01690         BZ      _01318_DS_
02BC D000      01691         BRA     _01319_DS_
02BE 01692 _01318_DS_:
               01693 ;       .line   406; /home/mandon/pinguino32/copie courante/linux/source/user.c board[from[0]][from[1]] = EMPTY;
02BE C000 FFE9 01694         MOVFF   r0x00, FSR0L
02C2 C000 FFF3 01695         MOVFF   r0x01, PRODL
02C6 5000      01696         MOVF    r0x02, W
02C8 EC00 F000 01697         CALL    __gptrget1
               01698 ; #     MOVWF   r0x0c
               01699 ; #;;multiply lit val:0x08 by variable r0x0c and store in r0x0c
               01700 ; #;;Unrolled 8 X 8 multiplication
               01701 ; #;;FIXME: the function does not support result==WREG
               01702 ; #     MOVF    r0x0c, W
02CC 0D08      01703         MULLW   0x08
02CE CFF3 F000 01704         MOVFF   PRODL, r0x0c
02D2 6A00      01705         CLRF    r0x0d
Error [113] : Symbol not previously defined (_board).
02D4 0E00      01706         MOVLW   LOW(_board)
02D6 2600      01707         ADDWF   r0x0c, F
Error [113] : Symbol not previously defined (_board).
02D8 0E00      01708         MOVLW   HIGH(_board)
02DA 2200      01709         ADDWFC  r0x0d, F
02DC 5000      01710         MOVF    r0x00, W
02DE 0F01      01711         ADDLW   0x01
02E0 6E00      01712         MOVWF   r0x0e
02E2 0E00      01713         MOVLW   0x00
02E4 2000      01714         ADDWFC  r0x01, W
02E6 6E00      01715         MOVWF   r0x0f
02E8 0E00      01716         MOVLW   0x00
02EA 2000      01717         ADDWFC  r0x02, W
02EC C000 FFE9 01718         MOVFF   r0x0e, FSR0L
02F0 C000 FFF3 01719         MOVFF   r0x0f, PRODL
02F4 EC00 F000 01720         CALL    __gptrget1
               01721 ; #     MOVWF   r0x0e
               01722 ; #     MOVF    r0x0e, W
02F8 2600      01723         ADDWF   r0x0c, F
02FA 6AE8      01724         CLRF    WREG
02FC 2200      01725         ADDWFC  r0x0d, F
02FE C000 FFE9 01726         MOVFF   r0x0c, FSR0L
0302 C000 FFEA 01727         MOVFF   r0x0d, FSR0H
0306 6AEF      01728         CLRF    INDF0
               01729 ;       .line   407; /home/mandon/pinguino32/copie courante/linux/source/user.c board[to[0]][to[1]] = QUEEN |(p&0x08);
0308 C000 FFE9 01730         MOVFF   r0x03, FSR0L
030C C000 FFF3 01731         MOVFF   r0x04, PRODL
0310 5000      01732         MOVF    r0x05, W
0312 EC00 F000 01733         CALL    __gptrget1
               01734 ; #     MOVWF   r0x0c
               01735 ; #;;multiply lit val:0x08 by variable r0x0c and store in r0x0c
               01736 ; #;;Unrolled 8 X 8 multiplication
               01737 ; #;;FIXME: the function does not support result==WREG
               01738 ; #     MOVF    r0x0c, W
0316 0D08      01739         MULLW   0x08
0318 CFF3 F000 01740         MOVFF   PRODL, r0x0c
031C 6A00      01741         CLRF    r0x0d
gpasm-0.13.7 beta               /home/mandon/pinguino32/copie courante/linux/source/main.asm5-29-2011  20:37:50          PAGE 35


LOC  OBJECT CODE     LINE SOURCE TEXT
  VALUE
 
Error [113] : Symbol not previously defined (_board).
031E 0E00      01742         MOVLW   LOW(_board)
0320 2600      01743         ADDWF   r0x0c, F
Error [113] : Symbol not previously defined (_board).
0322 0E00      01744         MOVLW   HIGH(_board)
0324 2200      01745         ADDWFC  r0x0d, F
0326 5000      01746         MOVF    r0x03, W
0328 0F01      01747         ADDLW   0x01
032A 6E00      01748         MOVWF   r0x0e
032C 0E00      01749         MOVLW   0x00
032E 2000      01750         ADDWFC  r0x04, W
0330 6E00      01751         MOVWF   r0x0f
0332 0E00      01752         MOVLW   0x00
0334 2000      01753         ADDWFC  r0x05, W
0336 C000 FFE9 01754         MOVFF   r0x0e, FSR0L
033A C000 FFF3 01755         MOVFF   r0x0f, PRODL
033E EC00 F000 01756         CALL    __gptrget1
               01757 ; #     MOVWF   r0x0e
               01758 ; #     MOVF    r0x0e, W
0342 2600      01759         ADDWF   r0x0c, F
0344 6AE8      01760         CLRF    WREG
0346 2200      01761         ADDWFC  r0x0d, F
0348 0E05      01762         MOVLW   0x05
034A 1200      01763         IORWF   r0x07, F
034C C000 FFE9 01764         MOVFF   r0x0c, FSR0L
0350 C000 FFEA 01765         MOVFF   r0x0d, FSR0H
0354 C000 FFEF 01766         MOVFF   r0x07, INDF0
0358 D000      01767         BRA     _01326_DS_
035A 01768 _01319_DS_:
               01769 ;       .line   412; /home/mandon/pinguino32/copie courante/linux/source/user.c if (board[to[0]][to[1]] != EMPTY);
035A C000 FFE9 01770         MOVFF   r0x03, FSR0L
035E C000 FFF3 01771         MOVFF   r0x04, PRODL
0362 5000      01772         MOVF    r0x05, W
0364 EC00 F000 01773         CALL    __gptrget1
               01774 ; #     MOVWF   r0x07
               01775 ; #;;multiply lit val:0x08 by variable r0x07 and store in r0x07
               01776 ; #;;Unrolled 8 X 8 multiplication
               01777 ; #;;FIXME: the function does not support result==WREG
               01778 ; #     MOVF    r0x07, W
0368 0D08      01779         MULLW   0x08
036A CFF3 F000 01780         MOVFF   PRODL, r0x07
036E 6A00      01781         CLRF    r0x0c
Error [113] : Symbol not previously defined (_board).
0370 0E00      01782         MOVLW   LOW(_board)
0372 2600      01783         ADDWF   r0x07, F
Error [113] : Symbol not previously defined (_board).
0374 0E00      01784         MOVLW   HIGH(_board)
0376 2200      01785         ADDWFC  r0x0c, F
0378 2A00      01786         INCF    r0x03, F
037A B0D8      01787         BTFSC   STATUS, 0
037C 2A00      01788         INCF    r0x04, F
037E B0D8      01789         BTFSC   STATUS, 0
0380 2A00      01790         INCF    r0x05, F
0382 C000 FFE9 01791         MOVFF   r0x03, FSR0L
gpasm-0.13.7 beta               /home/mandon/pinguino32/copie courante/linux/source/main.asm5-29-2011  20:37:50          PAGE 36


LOC  OBJECT CODE     LINE SOURCE TEXT
  VALUE
 
0386 C000 FFF3 01792         MOVFF   r0x04, PRODL
038A 5000      01793         MOVF    r0x05, W
038C EC00 F000 01794         CALL    __gptrget1
               01795 ; #     MOVWF   r0x03
               01796 ; #     MOVF    r0x03, W
0390 2600      01797         ADDWF   r0x07, F
0392 6AE8      01798         CLRF    WREG
0394 2200      01799         ADDWFC  r0x0c, F
               01800 ;       .line   413; /home/mandon/pinguino32/copie courante/linux/source/user.c board[from[0]][from[1]] = EMPTY;
0396 C000 FFE9 01801         MOVFF   r0x00, FSR0L
039A C000 FFF3 01802         MOVFF   r0x01, PRODL
039E 5000      01803         MOVF    r0x02, W
03A0 EC00 F000 01804         CALL    __gptrget1
               01805 ; #     MOVWF   r0x03
               01806 ; #;;multiply lit val:0x08 by variable r0x03 and store in r0x03
               01807 ; #;;Unrolled 8 X 8 multiplication
               01808 ; #;;FIXME: the function does not support result==WREG
               01809 ; #     MOVF    r0x03, W
03A4 0D08      01810         MULLW   0x08
03A6 CFF3 F000 01811         MOVFF   PRODL, r0x03
03AA 6A00      01812         CLRF    r0x04
Error [113] : Symbol not previously defined (_board).
03AC 0E00      01813         MOVLW   LOW(_board)
03AE 2600      01814         ADDWF   r0x03, F
Error [113] : Symbol not previously defined (_board).
03B0 0E00      01815         MOVLW   HIGH(_board)
03B2 2200      01816         ADDWFC  r0x04, F
03B4 5000      01817         MOVF    r0x00, W
03B6 0F01      01818         ADDLW   0x01
03B8 6E00      01819         MOVWF   r0x05
03BA 0E00      01820         MOVLW   0x00
03BC 2000      01821         ADDWFC  r0x01, W
03BE 6E00      01822         MOVWF   r0x0d
03C0 0E00      01823         MOVLW   0x00
03C2 2000      01824         ADDWFC  r0x02, W
03C4 C000 FFE9 01825         MOVFF   r0x05, FSR0L
03C8 C000 FFF3 01826         MOVFF   r0x0d, PRODL
03CC EC00 F000 01827         CALL    __gptrget1
               01828 ; #     MOVWF   r0x05
               01829 ; #     MOVF    r0x05, W
03D0 2600      01830         ADDWF   r0x03, F
03D2 6AE8      01831         CLRF    WREG
03D4 2200      01832         ADDWFC  r0x04, F
03D6 C000 FFE9 01833         MOVFF   r0x03, FSR0L
03DA C000 FFEA 01834         MOVFF   r0x04, FSR0H
03DE 6AEF      01835         CLRF    INDF0
               01836 ;       .line   414; /home/mandon/pinguino32/copie courante/linux/source/user.c board[to[0]][to[1]] = p;
03E0 C000 FFE9 01837         MOVFF   r0x07, FSR0L
03E4 C000 FFEA 01838         MOVFF   r0x0c, FSR0H
03E8 C000 FFEF 01839         MOVFF   r0x06, INDF0
03EC 01840 _01326_DS_:
               01841 ;       .line   418; /home/mandon/pinguino32/copie courante/linux/source/user.c if ((from[0] == baserow) && ((*basemask) & (1 << from[1])))
03EC C000 FFE9 01842         MOVFF   r0x00, FSR0L
03F0 C000 FFF3 01843         MOVFF   r0x01, PRODL
gpasm-0.13.7 beta               /home/mandon/pinguino32/copie courante/linux/source/main.asm5-29-2011  20:37:50          PAGE 37


LOC  OBJECT CODE     LINE SOURCE TEXT
  VALUE
 
03F4 5000      01844         MOVF    r0x02, W
03F6 EC00 F000 01845         CALL    __gptrget1
               01846 ; #     MOVWF   r0x03
               01847 ; #     MOVF    r0x03, W
03FA 1800      01848         XORWF   r0x0b, W
03FC E000      01849         BZ      _01371_DS_
03FE D000      01850         BRA     _01330_DS_
0400 01851 _01371_DS_:
0400 C000 FFE9 01852         MOVFF   r0x08, FSR0L
0404 C000 FFF3 01853         MOVFF   r0x09, PRODL
0408 5000      01854         MOVF    r0x0a, W
040A EC00 F000 01855         CALL    __gptrget1
040E 6E00      01856         MOVWF   r0x03
0410 2A00      01857         INCF    r0x00, F
0412 B0D8      01858         BTFSC   STATUS, 0
0414 2A00      01859         INCF    r0x01, F
0416 B0D8      01860         BTFSC   STATUS, 0
0418 2A00      01861         INCF    r0x02, F
041A C000 FFE9 01862         MOVFF   r0x00, FSR0L
041E C000 FFF3 01863         MOVFF   r0x01, PRODL
0422 5000      01864         MOVF    r0x02, W
0424 EC00 F000 01865         CALL    __gptrget1
0428 6E00      01866         MOVWF   r0x00
042A 0E01      01867         MOVLW   0x01
042C 6E00      01868         MOVWF   r0x01
042E 6A00      01869         CLRF    r0x02
0430 5000      01870         MOVF    r0x00, W
0432 E000      01871         BZ      _01372_DS_
0434 6CE8      01872         NEGF    WREG
0436 90D8      01873         BCF     STATUS, 0
0438 01874 _01373_DS_:
0438 3600      01875         RLCF    r0x01, F
043A 3600      01876         RLCF    r0x02, F
043C 0F01      01877         ADDLW   0x01
043E E300      01878         BNC     _01373_DS_
0440 01879 _01372_DS_:
0440 C000 F000 01880         MOVFF   r0x03, r0x04
0444 6A00      01881         CLRF    r0x05
0446 5000      01882         MOVF    r0x04, W
0448 1600      01883         ANDWF   r0x01, F
044A 5000      01884         MOVF    r0x05, W
044C 1600      01885         ANDWF   r0x02, F
044E 5000      01886         MOVF    r0x01, W
0450 1000      01887         IORWF   r0x02, W
0452 E000      01888         BZ      _01330_DS_
               01889 ;       .line   419; /home/mandon/pinguino32/copie courante/linux/source/user.c (*basemask) &= ~(1 << from[1]);
0454 0E01      01890         MOVLW   0x01
0456 6E00      01891         MOVWF   r0x01
0458 5000      01892         MOVF    r0x00, W
045A E000      01893         BZ      _01374_DS_
045C 6CE8      01894         NEGF    WREG
045E 90D8      01895         BCF     STATUS, 0
0460 01896 _01375_DS_:
0460 3600      01897         RLCF    r0x01, F
gpasm-0.13.7 beta               /home/mandon/pinguino32/copie courante/linux/source/main.asm5-29-2011  20:37:50          PAGE 38


LOC  OBJECT CODE     LINE SOURCE TEXT
  VALUE
 
0462 0F01      01898         ADDLW   0x01
0464 E300      01899         BNC     _01375_DS_
0466 01900 _01374_DS_:
0466 1C00      01901         COMF    r0x01, W
               01902 ; #     MOVWF   r0x00
               01903 ; #     MOVF    r0x00, W
0468 1600      01904         ANDWF   r0x03, F
046A C000 FFE5 01905         MOVFF   r0x03, POSTDEC1
046E C000 FFE9 01906         MOVFF   r0x08, FSR0L
0472 C000 FFF3 01907         MOVFF   r0x09, PRODL
0476 5000      01908         MOVF    r0x0a, W
0478 EC00 F000 01909         CALL    __gptrput1
047C 01910 _01330_DS_:
047C CFE4 F000 01911         MOVFF   PREINC1, r0x11
0480 CFE4 F000 01912         MOVFF   PREINC1, r0x10
0484 CFE4 F000 01913         MOVFF   PREINC1, r0x0f
0488 CFE4 F000 01914         MOVFF   PREINC1, r0x0e
048C CFE4 F000 01915         MOVFF   PREINC1, r0x0d
0490 CFE4 F000 01916         MOVFF   PREINC1, r0x0c
0494 CFE4 F000 01917         MOVFF   PREINC1, r0x0b
0498 CFE4 F000 01918         MOVFF   PREINC1, r0x0a
049C CFE4 F000 01919         MOVFF   PREINC1, r0x09
04A0 CFE4 F000 01920         MOVFF   PREINC1, r0x08
04A4 CFE4 F000 01921         MOVFF   PREINC1, r0x07
04A8 CFE4 F000 01922         MOVFF   PREINC1, r0x06
04AC CFE4 F000 01923         MOVFF   PREINC1, r0x05
04B0 CFE4 F000 01924         MOVFF   PREINC1, r0x04
04B4 CFE4 F000 01925         MOVFF   PREINC1, r0x03
04B8 CFE4 F000 01926         MOVFF   PREINC1, r0x02
04BC CFE4 F000 01927         MOVFF   PREINC1, r0x01
04C0 CFE4 F000 01928         MOVFF   PREINC1, r0x00
04C4 CFE4 FFD9 01929         MOVFF   PREINC1, FSR2L
04C8 0012      01930         RETURN  
               01931 
               01932 ; ; Starting pCode block
               01933 S_main__rate_move       code
0000 01934 _rate_move:
               01935 ;       .line   341; /home/mandon/pinguino32/copie courante/linux/source/user.c int rate_move(PIECE piece, LOC to,unsigned char posrate)
0000 CFD9 FFE5 01936         MOVFF   FSR2L, POSTDEC1
0004 CFE1 FFD9 01937         MOVFF   FSR1L, FSR2L
0008 C000 FFE5 01938         MOVFF   r0x00, POSTDEC1
000C C000 FFE5 01939         MOVFF   r0x01, POSTDEC1
0010 C000 FFE5 01940         MOVFF   r0x02, POSTDEC1
0014 C000 FFE5 01941         MOVFF   r0x03, POSTDEC1
0018 C000 FFE5 01942         MOVFF   r0x04, POSTDEC1
001C C000 FFE5 01943         MOVFF   r0x05, POSTDEC1
0020 C000 FFE5 01944         MOVFF   r0x06, POSTDEC1
0024 0E02      01945         MOVLW   0x02
0026 CFDB F000 01946         MOVFF   PLUSW2, r0x00
002A 0E03      01947         MOVLW   0x03
002C CFDB F000 01948         MOVFF   PLUSW2, r0x01
0030 0E04      01949         MOVLW   0x04
0032 CFDB F000 01950         MOVFF   PLUSW2, r0x02
0036 0E05      01951         MOVLW   0x05
gpasm-0.13.7 beta               /home/mandon/pinguino32/copie courante/linux/source/main.asm5-29-2011  20:37:50          PAGE 39


LOC  OBJECT CODE     LINE SOURCE TEXT
  VALUE
 
0038 CFDB F000 01952         MOVFF   PLUSW2, r0x03
003C 0E06      01953         MOVLW   0x06
003E CFDB F000 01954         MOVFF   PLUSW2, r0x04
               01955 ;       .line   346; /home/mandon/pinguino32/copie courante/linux/source/user.c value = ((piece & 0x07)== KING) ? 0 : (piece&0x07);    
0042 0E07      01956         MOVLW   0x07
0044 1600      01957         ANDWF   r0x00, F
0046 5000      01958         MOVF    r0x00, W
0048 0A06      01959         XORLW   0x06
004A E100      01960         BNZ     _01290_DS_
004C 6A00      01961         CLRF    r0x05
004E D000      01962         BRA     _01291_DS_
0050 01963 _01290_DS_:
0050 C000 F000 01964         MOVFF   r0x00, r0x05
0054 01965 _01291_DS_:
0054 C000 F000 01966         MOVFF   r0x05, r0x00
               01967 ;       .line   348; /home/mandon/pinguino32/copie courante/linux/source/user.c switch (movetype)
0058 0E01      01968         MOVLW   0x01
005A 0000      01969         BANKSEL _movetype
005C 5D00      01970         SUBWF   _movetype, W, B
005E A0D8      01971         BTFSS   STATUS, 0
0060 D000      01972         BRA     _01286_DS_
0062 0E05      01973         MOVLW   0x05
               01974 ; removed redundant BANKSEL
0064 5D00      01975         SUBWF   _movetype, W, B
0066 B0D8      01976         BTFSC   STATUS, 0
0068 D000      01977         BRA     _01286_DS_
               01978 ; removed redundant BANKSEL
006A 0500      01979         DECF    _movetype, W, B
006C 6E00      01980         MOVWF   r0x05
006E C000 FFE5 01981         MOVFF   r0x07, POSTDEC1
0072 C000 FFE5 01982         MOVFF   r0x08, POSTDEC1
0076 6A00      01983         CLRF    r0x08
0078 3400      01984         RLCF    r0x05, W
007A 3600      01985         RLCF    r0x08, F
007C 34E8      01986         RLCF    WREG, W
007E 3600      01987         RLCF    r0x08, F
0080 0BFC      01988         ANDLW   0xfc
0082 6E00      01989         MOVWF   r0x07
0084 0E00      01990         MOVLW   UPPER(_01303_DS_)
0086 6EFB      01991         MOVWF   PCLATU
0088 0E00      01992         MOVLW   HIGH(_01303_DS_)
008A 6EFA      01993         MOVWF   PCLATH
008C 0E00      01994         MOVLW   LOW(_01303_DS_)
008E 2600      01995         ADDWF   r0x07, F
0090 5000      01996         MOVF    r0x08, W
0092 22FA      01997         ADDWFC  PCLATH, F
0094 B0D8      01998         BTFSC   STATUS, 0
0096 2AFB      01999         INCF    PCLATU, F
0098 5000      02000         MOVF    r0x07, W
009A CFE4 F000 02001         MOVFF   PREINC1, r0x08
009E CFE4 F000 02002         MOVFF   PREINC1, r0x07
00A2 6EF9      02003         MOVWF   PCL
00A4 02004 _01303_DS_:
00A4 EF00 F000 02005         GOTO    _01282_DS_
gpasm-0.13.7 beta               /home/mandon/pinguino32/copie courante/linux/source/main.asm5-29-2011  20:37:50          PAGE 40


LOC  OBJECT CODE     LINE SOURCE TEXT
  VALUE
 
00A8 EF00 F000 02006         GOTO    _01283_DS_
00AC EF00 F000 02007         GOTO    _01285_DS_
00B0 EF00 F000 02008         GOTO    _01284_DS_
00B4 02009 _01282_DS_:
               02010 ;       .line   351; /home/mandon/pinguino32/copie courante/linux/source/user.c rating = (6-value) + posrate/2;  
00B4 5000      02011         MOVF    r0x00, W
00B6 0806      02012         SUBLW   0x06
00B8 6E00      02013         MOVWF   r0x05
00BA 4000      02014         RRNCF   r0x04, W
00BC 0B7F      02015         ANDLW   0x7f
               02016 ; #     MOVWF   r0x06
               02017 ; #     MOVF    r0x06, W
00BE 2600      02018         ADDWF   r0x05, F
               02019 ;       .line   352; /home/mandon/pinguino32/copie courante/linux/source/user.c break;
00C0 D000      02020         BRA     _01287_DS_
00C2 02021 _01283_DS_:
               02022 ;       .line   354; /home/mandon/pinguino32/copie courante/linux/source/user.c rating = (value)+((8-posrate));      
00C2 5000      02023         MOVF    r0x04, W
00C4 0808      02024         SUBLW   0x08
               02025 ; #     MOVWF   r0x04
               02026 ; #     MOVF    r0x04, W
00C6 2400      02027         ADDWF   r0x00, W
00C8 6E00      02028         MOVWF   r0x05
               02029 ;       .line   355; /home/mandon/pinguino32/copie courante/linux/source/user.c break;
00CA D000      02030         BRA     _01287_DS_
00CC 02031 _01284_DS_:
               02032 ;       .line   357; /home/mandon/pinguino32/copie courante/linux/source/user.c rating = 14;                            
00CC 0E0E      02033         MOVLW   0x0e
00CE 6E00      02034         MOVWF   r0x05
               02035 ;       .line   358; /home/mandon/pinguino32/copie courante/linux/source/user.c break;
00D0 D000      02036         BRA     _01287_DS_
00D2 02037 _01285_DS_:
               02038 ;       .line   361; /home/mandon/pinguino32/copie courante/linux/source/user.c tmp = (board[to[0]][to[1]]&0x07)-(value);
00D2 C000 FFE9 02039         MOVFF   r0x01, FSR0L
00D6 C000 FFF3 02040         MOVFF   r0x02, PRODL
00DA 5000      02041         MOVF    r0x03, W
00DC EC00 F000 02042         CALL    __gptrget1
               02043 ; #     MOVWF   r0x04
               02044 ; #;;multiply lit val:0x08 by variable r0x04 and store in r0x04
               02045 ; #;;Unrolled 8 X 8 multiplication
               02046 ; #;;FIXME: the function does not support result==WREG
               02047 ; #     MOVF    r0x04, W
00E0 0D08      02048         MULLW   0x08
00E2 CFF3 F000 02049         MOVFF   PRODL, r0x04
00E6 6A00      02050         CLRF    r0x06
Error [113] : Symbol not previously defined (_board).
00E8 0E00      02051         MOVLW   LOW(_board)
00EA 2600      02052         ADDWF   r0x04, F
Error [113] : Symbol not previously defined (_board).
00EC 0E00      02053         MOVLW   HIGH(_board)
00EE 2200      02054         ADDWFC  r0x06, F
00F0 2A00      02055         INCF    r0x01, F
00F2 B0D8      02056         BTFSC   STATUS, 0
00F4 2A00      02057         INCF    r0x02, F
gpasm-0.13.7 beta               /home/mandon/pinguino32/copie courante/linux/source/main.asm5-29-2011  20:37:50          PAGE 41


LOC  OBJECT CODE     LINE SOURCE TEXT
  VALUE
 
00F6 B0D8      02058         BTFSC   STATUS, 0
00F8 2A00      02059         INCF    r0x03, F
00FA C000 FFE9 02060         MOVFF   r0x01, FSR0L
00FE C000 FFF3 02061         MOVFF   r0x02, PRODL
0102 5000      02062         MOVF    r0x03, W
0104 EC00 F000 02063         CALL    __gptrget1
               02064 ; #     MOVWF   r0x01
               02065 ; #     MOVF    r0x01, W
0108 2600      02066         ADDWF   r0x04, F
010A 6AE8      02067         CLRF    WREG
010C 2200      02068         ADDWFC  r0x06, F
010E C000 FFE9 02069         MOVFF   r0x04, FSR0L
0112 C000 FFEA 02070         MOVFF   r0x06, FSR0H
0116 CFEF F000 02071         MOVFF   INDF0, r0x04
011A 0E07      02072         MOVLW   0x07
011C 1600      02073         ANDWF   r0x04, F
011E 5000      02074         MOVF    r0x00, W
0120 5C00      02075         SUBWF   r0x04, W
0122 6E00      02076         MOVWF   r0x00
               02077 ;       .line   362; /home/mandon/pinguino32/copie courante/linux/source/user.c rating = (tmp < 249) ? 12 : 4;
0124 0EF9      02078         MOVLW   0xf9
0126 5C00      02079         SUBWF   r0x00, W
0128 E200      02080         BC      _01292_DS_
012A 0E0C      02081         MOVLW   0x0c
012C 6E00      02082         MOVWF   r0x00
012E D000      02083         BRA     _01293_DS_
0130 02084 _01292_DS_:
0130 0E04      02085         MOVLW   0x04
0132 6E00      02086         MOVWF   r0x00
0134 02087 _01293_DS_:
0134 C000 F000 02088         MOVFF   r0x00, r0x05
               02089 ;       .line   363; /home/mandon/pinguino32/copie courante/linux/source/user.c break; 
0138 D000      02090         BRA     _01287_DS_
013A 02091 _01286_DS_:
               02092 ;       .line   365; /home/mandon/pinguino32/copie courante/linux/source/user.c rating = 0;
013A 6A00      02093         CLRF    r0x05
               02094 ; =DF= MOVFF: replaced by CRLF/SETF
013C 02095 _01287_DS_:
               02096 ;       .line   368; /home/mandon/pinguino32/copie courante/linux/source/user.c return rating;
013C 6AF3      02097         CLRF    PRODL
013E 5000      02098         MOVF    r0x05, W
0140 CFE4 F000 02099         MOVFF   PREINC1, r0x06
0144 CFE4 F000 02100         MOVFF   PREINC1, r0x05
0148 CFE4 F000 02101         MOVFF   PREINC1, r0x04
014C CFE4 F000 02102         MOVFF   PREINC1, r0x03
0150 CFE4 F000 02103         MOVFF   PREINC1, r0x02
0154 CFE4 F000 02104         MOVFF   PREINC1, r0x01
0158 CFE4 F000 02105         MOVFF   PREINC1, r0x00
015C CFE4 FFD9 02106         MOVFF   PREINC1, FSR2L
0160 0012      02107         RETURN  
               02108 
               02109 ; ; Starting pCode block
               02110 S_main__test_singlemove code
0000 02111 _test_singlemove:
gpasm-0.13.7 beta               /home/mandon/pinguino32/copie courante/linux/source/main.asm5-29-2011  20:37:50          PAGE 42


LOC  OBJECT CODE     LINE SOURCE TEXT
  VALUE
 
               02112 ;       .line   289; /home/mandon/pinguino32/copie courante/linux/source/user.c BOOL test_singlemove(LOC from,LOC to,PIECE p)
0000 CFD9 FFE5 02113         MOVFF   FSR2L, POSTDEC1
0004 CFE1 FFD9 02114         MOVFF   FSR1L, FSR2L
0008 C000 FFE5 02115         MOVFF   r0x00, POSTDEC1
000C C000 FFE5 02116         MOVFF   r0x01, POSTDEC1
0010 C000 FFE5 02117         MOVFF   r0x02, POSTDEC1
0014 C000 FFE5 02118         MOVFF   r0x03, POSTDEC1
0018 C000 FFE5 02119         MOVFF   r0x04, POSTDEC1
001C C000 FFE5 02120         MOVFF   r0x05, POSTDEC1
0020 C000 FFE5 02121         MOVFF   r0x06, POSTDEC1
0024 C000 FFE5 02122         MOVFF   r0x07, POSTDEC1
0028 C000 FFE5 02123         MOVFF   r0x08, POSTDEC1
002C C000 FFE5 02124         MOVFF   r0x09, POSTDEC1
0030 C000 FFE5 02125         MOVFF   r0x0a, POSTDEC1
0034 C000 FFE5 02126         MOVFF   r0x0b, POSTDEC1
0038 C000 FFE5 02127         MOVFF   r0x0c, POSTDEC1
003C C000 FFE5 02128         MOVFF   r0x0d, POSTDEC1
0040 C000 FFE5 02129         MOVFF   r0x0e, POSTDEC1
0044 C000 FFE5 02130         MOVFF   r0x0f, POSTDEC1
0048 C000 FFE5 02131         MOVFF   r0x10, POSTDEC1
004C C000 FFE5 02132         MOVFF   r0x11, POSTDEC1
0050 C000 FFE5 02133         MOVFF   r0x12, POSTDEC1
0054 C000 FFE5 02134         MOVFF   r0x13, POSTDEC1
0058 C000 FFE5 02135         MOVFF   r0x14, POSTDEC1
005C C000 FFE5 02136         MOVFF   r0x15, POSTDEC1
0060 C000 FFE5 02137         MOVFF   r0x16, POSTDEC1
0064 C000 FFE5 02138         MOVFF   r0x17, POSTDEC1
0068 C000 FFE5 02139         MOVFF   r0x18, POSTDEC1
006C C000 FFE5 02140         MOVFF   r0x19, POSTDEC1
0070 C000 FFE5 02141         MOVFF   r0x1a, POSTDEC1
0074 C000 FFE5 02142         MOVFF   r0x1b, POSTDEC1
0078 C000 FFE5 02143         MOVFF   r0x1c, POSTDEC1
007C C000 FFE5 02144         MOVFF   r0x1d, POSTDEC1
0080 C000 FFE5 02145         MOVFF   r0x1e, POSTDEC1
0084 0E02      02146         MOVLW   0x02
0086 CFDB F000 02147         MOVFF   PLUSW2, r0x00
008A 0E03      02148         MOVLW   0x03
008C CFDB F000 02149         MOVFF   PLUSW2, r0x01
0090 0E04      02150         MOVLW   0x04
0092 CFDB F000 02151         MOVFF   PLUSW2, r0x02
0096 0E05      02152         MOVLW   0x05
0098 CFDB F000 02153         MOVFF   PLUSW2, r0x03
009C 0E06      02154         MOVLW   0x06
009E CFDB F000 02155         MOVFF   PLUSW2, r0x04
00A2 0E07      02156         MOVLW   0x07
00A4 CFDB F000 02157         MOVFF   PLUSW2, r0x05
00A8 0E08      02158         MOVLW   0x08
00AA CFDB F000 02159         MOVFF   PLUSW2, r0x06
               02160 ;       .line   296; /home/mandon/pinguino32/copie courante/linux/source/user.c if ((p & 0x07) == KING) updatekingpos(to,(p & 0x08));
00AE 0E07      02161         MOVLW   0x07
00B0 1400      02162         ANDWF   r0x06, W
               02163 ; #     MOVWF   r0x07
               02164 ; #     MOVF    r0x07, W
00B2 0A06      02165         XORLW   0x06
gpasm-0.13.7 beta               /home/mandon/pinguino32/copie courante/linux/source/main.asm5-29-2011  20:37:50          PAGE 43


LOC  OBJECT CODE     LINE SOURCE TEXT
  VALUE
 
00B4 E100      02166         BNZ     _01268_DS_
00B6 6A00      02167         CLRF    r0x07
00B8 2A00      02168         INCF    r0x07, F
00BA D000      02169         BRA     _01269_DS_
00BC 02170 _01268_DS_:
00BC 6A00      02171         CLRF    r0x07
00BE 02172 _01269_DS_:
00BE 5000      02173         MOVF    r0x07, W
00C0 E000      02174         BZ      _01237_DS_
00C2 0E08      02175         MOVLW   0x08
00C4 1400      02176         ANDWF   r0x06, W
               02177 ; #     MOVWF   r0x08
               02178 ; #     MOVF    r0x08, W
00C6 6EE5      02179         MOVWF   POSTDEC1
00C8 5000      02180         MOVF    r0x05, W
00CA 6EE5      02181         MOVWF   POSTDEC1
00CC 5000      02182         MOVF    r0x04, W
00CE 6EE5      02183         MOVWF   POSTDEC1
00D0 5000      02184         MOVF    r0x03, W
00D2 6EE5      02185         MOVWF   POSTDEC1
00D4 EC00 F000 02186         CALL    _updatekingpos
00D8 0E04      02187         MOVLW   0x04
00DA 26E1      02188         ADDWF   FSR1L, F
00DC 02189 _01237_DS_:
               02190 ;       .line   299; /home/mandon/pinguino32/copie courante/linux/source/user.c tmpdest = board[to[0]][to[1]];
00DC C000 FFE9 02191         MOVFF   r0x03, FSR0L
00E0 C000 FFF3 02192         MOVFF   r0x04, PRODL
00E4 5000      02193         MOVF    r0x05, W
00E6 EC00 F000 02194         CALL    __gptrget1
               02195 ; #     MOVWF   r0x08
               02196 ; #;;multiply lit val:0x08 by variable r0x08 and store in r0x08
               02197 ; #;;Unrolled 8 X 8 multiplication
               02198 ; #;;FIXME: the function does not support result==WREG
               02199 ; #     MOVF    r0x08, W
00EA 0D08      02200         MULLW   0x08
00EC CFF3 F000 02201         MOVFF   PRODL, r0x08
00F0 6A00      02202         CLRF    r0x09
Error [113] : Symbol not previously defined (_board).
00F2 0E00      02203         MOVLW   LOW(_board)
00F4 2600      02204         ADDWF   r0x08, F
Error [113] : Symbol not previously defined (_board).
00F6 0E00      02205         MOVLW   HIGH(_board)
00F8 2200      02206         ADDWFC  r0x09, F
00FA 5000      02207         MOVF    r0x03, W
00FC 0F01      02208         ADDLW   0x01
00FE 6E00      02209         MOVWF   r0x0a
0100 0E00      02210         MOVLW   0x00
0102 2000      02211         ADDWFC  r0x04, W
0104 6E00      02212         MOVWF   r0x0b
0106 0E00      02213         MOVLW   0x00
0108 2000      02214         ADDWFC  r0x05, W
010A 6E00      02215         MOVWF   r0x0c
010C C000 FFE9 02216         MOVFF   r0x0a, FSR0L
0110 C000 FFF3 02217         MOVFF   r0x0b, PRODL
gpasm-0.13.7 beta               /home/mandon/pinguino32/copie courante/linux/source/main.asm5-29-2011  20:37:50          PAGE 44


LOC  OBJECT CODE     LINE SOURCE TEXT
  VALUE
 
0114 EC00 F000 02218         CALL    __gptrget1
               02219 ; #     MOVWF   r0x0d
               02220 ; #     MOVF    r0x0d, W
0118 2600      02221         ADDWF   r0x08, F
011A 6AE8      02222         CLRF    WREG
011C 2200      02223         ADDWFC  r0x09, F
011E C000 FFE9 02224         MOVFF   r0x08, FSR0L
0122 C000 FFEA 02225         MOVFF   r0x09, FSR0H
0126 CFEF F000 02226         MOVFF   INDF0, r0x0d
               02227 ;       .line   302; /home/mandon/pinguino32/copie courante/linux/source/user.c board[from[0]][from[1]] = EMPTY;
012A C000 FFE9 02228         MOVFF   r0x00, FSR0L
012E C000 FFF3 02229         MOVFF   r0x01, PRODL
0132 5000      02230         MOVF    r0x02, W
0134 EC00 F000 02231         CALL    __gptrget1
               02232 ; #     MOVWF   r0x0e
               02233 ; #;;multiply lit val:0x08 by variable r0x0e and store in r0x0e
               02234 ; #;;Unrolled 8 X 8 multiplication
               02235 ; #;;FIXME: the function does not support result==WREG
               02236 ; #     MOVF    r0x0e, W
0138 0D08      02237         MULLW   0x08
013A CFF3 F000 02238         MOVFF   PRODL, r0x0e
013E 6A00      02239         CLRF    r0x0f
Error [113] : Symbol not previously defined (_board).
0140 0E00      02240         MOVLW   LOW(_board)
0142 2600      02241         ADDWF   r0x0e, F
Error [113] : Symbol not previously defined (_board).
0144 0E00      02242         MOVLW   HIGH(_board)
0146 2200      02243         ADDWFC  r0x0f, F
0148 5000      02244         MOVF    r0x00, W
014A 0F01      02245         ADDLW   0x01
014C 6E00      02246         MOVWF   r0x10
014E 0E00      02247         MOVLW   0x00
0150 2000      02248         ADDWFC  r0x01, W
0152 6E00      02249         MOVWF   r0x11
0154 0E00      02250         MOVLW   0x00
0156 2000      02251         ADDWFC  r0x02, W
0158 6E00      02252         MOVWF   r0x12
015A C000 FFE9 02253         MOVFF   r0x10, FSR0L
015E C000 FFF3 02254         MOVFF   r0x11, PRODL
0162 EC00 F000 02255         CALL    __gptrget1
               02256 ; #     MOVWF   r0x13
               02257 ; #     MOVF    r0x13, W
0166 2600      02258         ADDWF   r0x0e, F
0168 6AE8      02259         CLRF    WREG
016A 2200      02260         ADDWFC  r0x0f, F
016C C000 FFE9 02261         MOVFF   r0x0e, FSR0L
0170 C000 FFEA 02262         MOVFF   r0x0f, FSR0H
0174 6AEF      02263         CLRF    INDF0
               02264 ;       .line   303; /home/mandon/pinguino32/copie courante/linux/source/user.c board[to[0]][to[1]] = p;
0176 C000 FFE9 02265         MOVFF   r0x08, FSR0L
017A C000 FFEA 02266         MOVFF   r0x09, FSR0H
017E C000 FFEF 02267         MOVFF   r0x06, INDF0
Error [113] : Symbol not previously defined (_kingcapture).
0182 0100      02268         BANKSEL _kingcapture
gpasm-0.13.7 beta               /home/mandon/pinguino32/copie courante/linux/source/main.asm5-29-2011  20:37:50          PAGE 45


LOC  OBJECT CODE     LINE SOURCE TEXT
  VALUE
 
               02269 ;       .line   306; /home/mandon/pinguino32/copie courante/linux/source/user.c kingcapture = FALSE;
Error [113] : Symbol not previously defined (_kingcapture).
Error [113] : Symbol not previously defined (_kingcapture).
0184 6B00      02270         CLRF    _kingcapture, B
               02271 ;       .line   307; /home/mandon/pinguino32/copie courante/linux/source/user.c i = j = 0;
0186 6A00      02272         CLRF    r0x08
0188 6A00      02273         CLRF    r0x09
               02274 ;       .line   309; /home/mandon/pinguino32/copie courante/linux/source/user.c while ((i < 8) && (!kingcapture))
018A 0E08      02275         MOVLW   0x08
018C 1400      02276         ANDWF   r0x06, W
018E 6E00      02277         MOVWF   r0x0e
0190 3800      02278         SWAPF   r0x0e, W
0192 44E8      02279         RLNCF   WREG, W
0194 0B1F      02280         ANDLW   0x1f
0196 6E00      02281         MOVWF   r0x0f
0198 6A00      02282         CLRF    r0x13
019A 6A00      02283         CLRF    r0x14
019C 6A00      02284         CLRF    r0x15
019E 6A00      02285         CLRF    r0x16
01A0 02286 _01246_DS_:
01A0 5000      02287         MOVF    r0x14, W
01A2 0F80      02288         ADDLW   0x80
01A4 0F80      02289         ADDLW   0x80
01A6 E100      02290         BNZ     _01272_DS_
01A8 0E08      02291         MOVLW   0x08
01AA 5C00      02292         SUBWF   r0x13, W
01AC 02293 _01272_DS_:
01AC B0D8      02294         BTFSC   STATUS, 0
01AE D000      02295         BRA     _01248_DS_
Error [113] : Symbol not previously defined (_kingcapture).
01B0 0100      02296         BANKSEL _kingcapture
Error [113] : Symbol not previously defined (_kingcapture).
Error [113] : Symbol not previously defined (_kingcapture).
01B2 5100      02297         MOVF    _kingcapture, W, B
01B4 A4D8      02298         BTFSS   STATUS, 2
01B6 D000      02299         BRA     _01248_DS_
               02300 ;       .line   312; /home/mandon/pinguino32/copie courante/linux/source/user.c while ((j < 8) && (!kingcapture))
Error [113] : Symbol not previously defined (_board).
01B8 0E00      02301         MOVLW   LOW(_board)
01BA 2400      02302         ADDWF   r0x15, W
01BC 6E00      02303         MOVWF   r0x17
Error [113] : Symbol not previously defined (_board).
01BE 0E00      02304         MOVLW   HIGH(_board)
01C0 2000      02305         ADDWFC  r0x16, W
01C2 6E00      02306         MOVWF   r0x18
01C4 C000 F000 02307         MOVFF   r0x08, r0x19
01C8 C000 F000 02308         MOVFF   r0x09, r0x1a
01CC 02309 _01242_DS_:
01CC 5000      02310         MOVF    r0x1a, W
01CE 0F80      02311         ADDLW   0x80
01D0 0F80      02312         ADDLW   0x80
01D2 E100      02313         BNZ     _01273_DS_
01D4 0E08      02314         MOVLW   0x08
01D6 5C00      02315         SUBWF   r0x19, W
gpasm-0.13.7 beta               /home/mandon/pinguino32/copie courante/linux/source/main.asm5-29-2011  20:37:50          PAGE 46


LOC  OBJECT CODE     LINE SOURCE TEXT
  VALUE
 
01D8 02316 _01273_DS_:
01D8 B0D8      02317         BTFSC   STATUS, 0
01DA D000      02318         BRA     _01244_DS_
Error [113] : Symbol not previously defined (_kingcapture).
01DC 0100      02319         BANKSEL _kingcapture
Error [113] : Symbol not previously defined (_kingcapture).
Error [113] : Symbol not previously defined (_kingcapture).
01DE 5100      02320         MOVF    _kingcapture, W, B
01E0 A4D8      02321         BTFSS   STATUS, 2
01E2 D000      02322         BRA     _01244_DS_
               02323 ;       .line   315; /home/mandon/pinguino32/copie courante/linux/source/user.c if (is_opp_piece(i,j,(p&0x08)))
01E4 5000      02324         MOVF    r0x19, W
01E6 2400      02325         ADDWF   r0x17, W
01E8 6E00      02326         MOVWF   r0x1b
01EA 5000      02327         MOVF    r0x1a, W
01EC 2000      02328         ADDWFC  r0x18, W
01EE 6E00      02329         MOVWF   r0x1c
01F0 C000 FFE9 02330         MOVFF   r0x1b, FSR0L
01F4 C000 FFEA 02331         MOVFF   r0x1c, FSR0H
01F8 CFEF F000 02332         MOVFF   INDF0, r0x1b
01FC 0E08      02333         MOVLW   0x08
01FE 1400      02334         ANDWF   r0x1b, W
0200 6E00      02335         MOVWF   r0x1c
0202 3800      02336         SWAPF   r0x1c, W
0204 44E8      02337         RLNCF   WREG, W
0206 0B1F      02338         ANDLW   0x1f
0208 6E00      02339         MOVWF   r0x1c
020A 5000      02340         MOVF    r0x0f, W
020C 1A00      02341         XORWF   r0x1c, F
020E 5000      02342         MOVF    r0x1c, W
0210 E000      02343         BZ      _01239_DS_
0212 5000      02344         MOVF    r0x1b, W
0214 E000      02345         BZ      _01239_DS_
               02346 ; #     MOVF    r0x13, W
               02347 ; #     MOVWF   r0x1c
               02348 ; #     MOVF    r0x1c, W
               02349 ;       .line   317; /home/mandon/pinguino32/copie courante/linux/source/user.c opp_pos[0] = i, opp_pos[1] = j,opp_piece = board[i][j];
0216 5000      02350         MOVF    r0x13, W
0218 0000      02351         BANKSEL _test_singlemove_opp_pos_1_1
021A 6F00      02352         MOVWF   _test_singlemove_opp_pos_1_1, B
               02353 ; #     MOVF    r0x19, W
               02354 ; #     MOVWF   r0x1c
               02355 ; #     MOVF    r0x1c, W
021C 5000      02356         MOVF    r0x19, W
               02357 ; removed redundant BANKSEL
021E 6F00      02358         MOVWF   (_test_singlemove_opp_pos_1_1 + 1), B
               02359 ;       .line   318; /home/mandon/pinguino32/copie courante/linux/source/user.c validate[piecetype(opp_piece)] (opp_pos,(opp_piece & 0x08));
0220 0E07      02360         MOVLW   0x07
0222 1400      02361         ANDWF   r0x1b, W
               02362 ; #     MOVWF   r0x1c
               02363 ; #;;multiply lit val:0x03 by variable r0x1c and store in r0x1c
               02364 ; #;;Unrolled 8 X 8 multiplication
               02365 ; #;;FIXME: the function does not support result==WREG
               02366 ; #     MOVF    r0x1c, W
gpasm-0.13.7 beta               /home/mandon/pinguino32/copie courante/linux/source/main.asm5-29-2011  20:37:50          PAGE 47


LOC  OBJECT CODE     LINE SOURCE TEXT
  VALUE
 
0224 0D03      02367         MULLW   0x03
0226 CFF3 F000 02368         MOVFF   PRODL, r0x1c
022A 6A00      02369         CLRF    r0x1d
022C 0E00      02370         MOVLW   LOW(_validate)
022E 2600      02371         ADDWF   r0x1c, F
0230 0E00      02372         MOVLW   HIGH(_validate)
0232 2200      02373         ADDWFC  r0x1d, F
0234 C000 FFE9 02374         MOVFF   r0x1c, FSR0L
0238 C000 FFEA 02375         MOVFF   r0x1d, FSR0H
023C CFEE F000 02376         MOVFF   POSTINC0, r0x1c
0240 CFEE F000 02377         MOVFF   POSTINC0, r0x1d
0244 CFEF F000 02378         MOVFF   INDF0, r0x1e
0248 0E08      02379         MOVLW   0x08
024A 1600      02380         ANDWF   r0x1b, F
024C 5000      02381         MOVF    r0x1b, W
024E 6EE5      02382         MOVWF   POSTDEC1
0250 0E80      02383         MOVLW   0x80
0252 6EE5      02384         MOVWF   POSTDEC1
0254 0E00      02385         MOVLW   HIGH(_test_singlemove_opp_pos_1_1)
0256 6EE5      02386         MOVWF   POSTDEC1
0258 0E00      02387         MOVLW   LOW(_test_singlemove_opp_pos_1_1)
025A 6EE5      02388         MOVWF   POSTDEC1
025C CFF2 FFE5 02389         MOVFF   INTCON, POSTDEC1
0260 9EF2      02390         BCF     INTCON, 7
0262 0005      02391         PUSH    
0264 0E00      02392         MOVLW   LOW(_01277_DS_)
0266 6EFD      02393         MOVWF   TOSL
0268 0E00      02394         MOVLW   HIGH(_01277_DS_)
026A 6EFE      02395         MOVWF   TOSH
026C 0E00      02396         MOVLW   UPPER(_01277_DS_)
026E 6EFF      02397         MOVWF   TOSU
0270 50E4      02398         MOVF    PREINC1, W
0272 6EF2      02399         MOVWF   INTCON
0274 C000 FFFB 02400         MOVFF   r0x1e, PCLATU
0278 C000 FFFA 02401         MOVFF   r0x1d, PCLATH
027C 5000      02402         MOVF    r0x1c, W
027E 6EF9      02403         MOVWF   PCL
0280 02404 _01277_DS_:
0280 0E04      02405         MOVLW   0x04
0282 26E1      02406         ADDWF   FSR1L, F
0284 02407 _01239_DS_:
               02408 ;       .line   320; /home/mandon/pinguino32/copie courante/linux/source/user.c j++;
0284 2A00      02409         INCF    r0x19, F
0286 B0D8      02410         BTFSC   STATUS, 0
0288 2A00      02411         INCF    r0x1a, F
028A D000      02412         BRA     _01242_DS_
028C 02413 _01244_DS_:
               02414 ;       .line   322; /home/mandon/pinguino32/copie courante/linux/source/user.c j = 0;
028C 6A00      02415         CLRF    r0x08
028E 6A00      02416         CLRF    r0x09
               02417 ;       .line   323; /home/mandon/pinguino32/copie courante/linux/source/user.c i++;
0290 0E08      02418         MOVLW   0x08
0292 2600      02419         ADDWF   r0x15, F
0294 B0D8      02420         BTFSC   STATUS, 0
gpasm-0.13.7 beta               /home/mandon/pinguino32/copie courante/linux/source/main.asm5-29-2011  20:37:50          PAGE 48


LOC  OBJECT CODE     LINE SOURCE TEXT
  VALUE
 
0296 2A00      02421         INCF    r0x16, F
0298 2A00      02422         INCF    r0x13, F
029A B0D8      02423         BTFSC   STATUS, 0
029C 2A00      02424         INCF    r0x14, F
029E D000      02425         BRA     _01246_DS_
02A0 02426 _01248_DS_:
               02427 ;       .line   326; /home/mandon/pinguino32/copie courante/linux/source/user.c board[to[0]][to[1]] = tmpdest;
02A0 C000 FFE9 02428         MOVFF   r0x03, FSR0L
02A4 C000 FFF3 02429         MOVFF   r0x04, PRODL
02A8 5000      02430         MOVF    r0x05, W
02AA EC00 F000 02431         CALL    __gptrget1
               02432 ; #     MOVWF   r0x03
               02433 ; #;;multiply lit val:0x08 by variable r0x03 and store in r0x03
               02434 ; #;;Unrolled 8 X 8 multiplication
               02435 ; #;;FIXME: the function does not support result==WREG
               02436 ; #     MOVF    r0x03, W
02AE 0D08      02437         MULLW   0x08
02B0 CFF3 F000 02438         MOVFF   PRODL, r0x03
02B4 6A00      02439         CLRF    r0x04
Error [113] : Symbol not previously defined (_board).
02B6 0E00      02440         MOVLW   LOW(_board)
02B8 2600      02441         ADDWF   r0x03, F
Error [113] : Symbol not previously defined (_board).
02BA 0E00      02442         MOVLW   HIGH(_board)
02BC 2200      02443         ADDWFC  r0x04, F
02BE C000 FFE9 02444         MOVFF   r0x0a, FSR0L
02C2 C000 FFF3 02445         MOVFF   r0x0b, PRODL
02C6 5000      02446         MOVF    r0x0c, W
02C8 EC00 F000 02447         CALL    __gptrget1
               02448 ; #     MOVWF   r0x0a
               02449 ; #     MOVF    r0x0a, W
02CC 2600      02450         ADDWF   r0x03, F
02CE 6AE8      02451         CLRF    WREG
02D0 2200      02452         ADDWFC  r0x04, F
02D2 C000 FFE9 02453         MOVFF   r0x03, FSR0L
02D6 C000 FFEA 02454         MOVFF   r0x04, FSR0H
02DA C000 FFEF 02455         MOVFF   r0x0d, INDF0
               02456 ;       .line   327; /home/mandon/pinguino32/copie courante/linux/source/user.c board[from[0]][from[1]] = p;
02DE C000 FFE9 02457         MOVFF   r0x00, FSR0L
02E2 C000 FFF3 02458         MOVFF   r0x01, PRODL
02E6 5000      02459         MOVF    r0x02, W
02E8 EC00 F000 02460         CALL    __gptrget1
               02461 ; #     MOVWF   r0x03
               02462 ; #;;multiply lit val:0x08 by variable r0x03 and store in r0x03
               02463 ; #;;Unrolled 8 X 8 multiplication
               02464 ; #;;FIXME: the function does not support result==WREG
               02465 ; #     MOVF    r0x03, W
02EC 0D08      02466         MULLW   0x08
02EE CFF3 F000 02467         MOVFF   PRODL, r0x03
02F2 6A00      02468         CLRF    r0x04
Error [113] : Symbol not previously defined (_board).
02F4 0E00      02469         MOVLW   LOW(_board)
02F6 2600      02470         ADDWF   r0x03, F
Error [113] : Symbol not previously defined (_board).
gpasm-0.13.7 beta               /home/mandon/pinguino32/copie courante/linux/source/main.asm5-29-2011  20:37:50          PAGE 49


LOC  OBJECT CODE     LINE SOURCE TEXT
  VALUE
 
02F8 0E00      02471         MOVLW   HIGH(_board)
02FA 2200      02472         ADDWFC  r0x04, F
02FC C000 FFE9 02473         MOVFF   r0x10, FSR0L
0300 C000 FFF3 02474         MOVFF   r0x11, PRODL
0304 5000      02475         MOVF    r0x12, W
0306 EC00 F000 02476         CALL    __gptrget1
               02477 ; #     MOVWF   r0x10
               02478 ; #     MOVF    r0x10, W
030A 2600      02479         ADDWF   r0x03, F
030C 6AE8      02480         CLRF    WREG
030E 2200      02481         ADDWFC  r0x04, F
0310 C000 FFE9 02482         MOVFF   r0x03, FSR0L
0314 C000 FFEA 02483         MOVFF   r0x04, FSR0H
0318 C000 FFEF 02484         MOVFF   r0x06, INDF0
               02485 ;       .line   328; /home/mandon/pinguino32/copie courante/linux/source/user.c if ((p & 0x07) == KING)
031C 5000      02486         MOVF    r0x07, W
031E E000      02487         BZ      _01250_DS_
               02488 ;       .line   329; /home/mandon/pinguino32/copie courante/linux/source/user.c updatekingpos(from,(p & 0x08));
0320 5000      02489         MOVF    r0x0e, W
0322 6EE5      02490         MOVWF   POSTDEC1
0324 5000      02491         MOVF    r0x02, W
0326 6EE5      02492         MOVWF   POSTDEC1
0328 5000      02493         MOVF    r0x01, W
032A 6EE5      02494         MOVWF   POSTDEC1
032C 5000      02495         MOVF    r0x00, W
032E 6EE5      02496         MOVWF   POSTDEC1
0330 EC00 F000 02497         CALL    _updatekingpos
0334 0E04      02498         MOVLW   0x04
0336 26E1      02499         ADDWF   FSR1L, F
0338 02500 _01250_DS_:
Error [113] : Symbol not previously defined (_kingcapture).
0338 0100      02501         BANKSEL _kingcapture
               02502 ;       .line   331; /home/mandon/pinguino32/copie courante/linux/source/user.c return (kingcapture) ? FALSE : TRUE;
Error [113] : Symbol not previously defined (_kingcapture).
Error [113] : Symbol not previously defined (_kingcapture).
033A 5100      02503         MOVF    _kingcapture, W, B
033C E000      02504         BZ      _01253_DS_
033E 6A00      02505         CLRF    r0x00
0340 D000      02506         BRA     _01254_DS_
0342 02507 _01253_DS_:
0342 0E01      02508         MOVLW   0x01
0344 6E00      02509         MOVWF   r0x00
0346 02510 _01254_DS_:
0346 5000      02511         MOVF    r0x00, W
0348 CFE4 F000 02512         MOVFF   PREINC1, r0x1e
034C CFE4 F000 02513         MOVFF   PREINC1, r0x1d
0350 CFE4 F000 02514         MOVFF   PREINC1, r0x1c
0354 CFE4 F000 02515         MOVFF   PREINC1, r0x1b
0358 CFE4 F000 02516         MOVFF   PREINC1, r0x1a
035C CFE4 F000 02517         MOVFF   PREINC1, r0x19
0360 CFE4 F000 02518         MOVFF   PREINC1, r0x18
0364 CFE4 F000 02519         MOVFF   PREINC1, r0x17
0368 CFE4 F000 02520         MOVFF   PREINC1, r0x16
036C CFE4 F000 02521         MOVFF   PREINC1, r0x15
gpasm-0.13.7 beta               /home/mandon/pinguino32/copie courante/linux/source/main.asm5-29-2011  20:37:50          PAGE 50


LOC  OBJECT CODE     LINE SOURCE TEXT
  VALUE
 
0370 CFE4 F000 02522         MOVFF   PREINC1, r0x14
0374 CFE4 F000 02523         MOVFF   PREINC1, r0x13
0378 CFE4 F000 02524         MOVFF   PREINC1, r0x12
037C CFE4 F000 02525         MOVFF   PREINC1, r0x11
0380 CFE4 F000 02526         MOVFF   PREINC1, r0x10
0384 CFE4 F000 02527         MOVFF   PREINC1, r0x0f
0388 CFE4 F000 02528         MOVFF   PREINC1, r0x0e
038C CFE4 F000 02529         MOVFF   PREINC1, r0x0d
0390 CFE4 F000 02530         MOVFF   PREINC1, r0x0c
0394 CFE4 F000 02531         MOVFF   PREINC1, r0x0b
0398 CFE4 F000 02532         MOVFF   PREINC1, r0x0a
039C CFE4 F000 02533         MOVFF   PREINC1, r0x09
03A0 CFE4 F000 02534         MOVFF   PREINC1, r0x08
03A4 CFE4 F000 02535         MOVFF   PREINC1, r0x07
03A8 CFE4 F000 02536         MOVFF   PREINC1, r0x06
03AC CFE4 F000 02537         MOVFF   PREINC1, r0x05
03B0 CFE4 F000 02538         MOVFF   PREINC1, r0x04
03B4 CFE4 F000 02539         MOVFF   PREINC1, r0x03
03B8 CFE4 F000 02540         MOVFF   PREINC1, r0x02
03BC CFE4 F000 02541         MOVFF   PREINC1, r0x01
03C0 CFE4 F000 02542         MOVFF   PREINC1, r0x00
03C4 CFE4 FFD9 02543         MOVFF   PREINC1, FSR2L
03C8 0012      02544         RETURN  
               02545 
               02546 ; ; Starting pCode block
               02547 S_main__getbestpiecemove        code
0000 02548 _getbestpiecemove:
               02549 ;       .line   186; /home/mandon/pinguino32/copie courante/linux/source/user.c int getbestpiecemove(LOC from)
0000 CFD9 FFE5 02550         MOVFF   FSR2L, POSTDEC1
0004 CFE1 FFD9 02551         MOVFF   FSR1L, FSR2L
0008 C000 FFE5 02552         MOVFF   r0x00, POSTDEC1
000C C000 FFE5 02553         MOVFF   r0x01, POSTDEC1
0010 C000 FFE5 02554         MOVFF   r0x02, POSTDEC1
0014 C000 FFE5 02555         MOVFF   r0x03, POSTDEC1
0018 C000 FFE5 02556         MOVFF   r0x04, POSTDEC1
001C C000 FFE5 02557         MOVFF   r0x05, POSTDEC1
0020 C000 FFE5 02558         MOVFF   r0x06, POSTDEC1
0024 C000 FFE5 02559         MOVFF   r0x07, POSTDEC1
0028 C000 FFE5 02560         MOVFF   r0x08, POSTDEC1
002C C000 FFE5 02561         MOVFF   r0x09, POSTDEC1
0030 C000 FFE5 02562         MOVFF   r0x0a, POSTDEC1
0034 C000 FFE5 02563         MOVFF   r0x0b, POSTDEC1
0038 C000 FFE5 02564         MOVFF   r0x0c, POSTDEC1
003C C000 FFE5 02565         MOVFF   r0x0d, POSTDEC1
0040 C000 FFE5 02566         MOVFF   r0x0e, POSTDEC1
0044 C000 FFE5 02567         MOVFF   r0x0f, POSTDEC1
0048 C000 FFE5 02568         MOVFF   r0x10, POSTDEC1
004C C000 FFE5 02569         MOVFF   r0x11, POSTDEC1
0050 C000 FFE5 02570         MOVFF   r0x12, POSTDEC1
0054 C000 FFE5 02571         MOVFF   r0x13, POSTDEC1
0058 C000 FFE5 02572         MOVFF   r0x14, POSTDEC1
005C C000 FFE5 02573         MOVFF   r0x15, POSTDEC1
0060 C000 FFE5 02574         MOVFF   r0x16, POSTDEC1
0064 C000 FFE5 02575         MOVFF   r0x17, POSTDEC1
gpasm-0.13.7 beta               /home/mandon/pinguino32/copie courante/linux/source/main.asm5-29-2011  20:37:50          PAGE 51


LOC  OBJECT CODE     LINE SOURCE TEXT
  VALUE
 
0068 C000 FFE5 02576         MOVFF   r0x18, POSTDEC1
006C C000 FFE5 02577         MOVFF   r0x19, POSTDEC1
0070 C000 FFE5 02578         MOVFF   r0x1a, POSTDEC1
0074 0E02      02579         MOVLW   0x02
0076 CFDB F000 02580         MOVFF   PLUSW2, r0x00
007A 0E03      02581         MOVLW   0x03
007C CFDB F000 02582         MOVFF   PLUSW2, r0x01
0080 0E04      02583         MOVLW   0x04
0082 CFDB F000 02584         MOVFF   PLUSW2, r0x02
               02585 ;       .line   193; /home/mandon/pinguino32/copie courante/linux/source/user.c bestmove = NO_MOVE;
0086 6800      02586         SETF    r0x03
               02587 ;       .line   194; /home/mandon/pinguino32/copie courante/linux/source/user.c piecerate = tmp = 0;
0088 6A00      02588         CLRF    r0x04
008A 0000      02589         BANKSEL _piecerate
008C 6B00      02590         CLRF    _piecerate, B
               02591 ;       .line   201; /home/mandon/pinguino32/copie courante/linux/source/user.c for (i = 0; i < 8;++i)
008E 6A00      02592         CLRF    r0x05
0090 02593 _01164_DS_:
0090 0E08      02594         MOVLW   0x08
0092 5C00      02595         SUBWF   r0x05, W
0094 B0D8      02596         BTFSC   STATUS, 0
0096 D000      02597         BRA     _01167_DS_
               02598 ;       .line   203; /home/mandon/pinguino32/copie courante/linux/source/user.c currmovemask[i]    = validmovemask[i];
0098 0E00      02599         MOVLW   LOW(_currmovemask)
009A 2400      02600         ADDWF   r0x05, W
009C 6E00      02601         MOVWF   r0x06
009E 6A00      02602         CLRF    r0x07
00A0 0E00      02603         MOVLW   HIGH(_currmovemask)
00A2 2200      02604         ADDWFC  r0x07, F
Error [113] : Symbol not previously defined (_validmovemask).
00A4 0E00      02605         MOVLW   LOW(_validmovemask)
00A6 2400      02606         ADDWF   r0x05, W
00A8 6E00      02607         MOVWF   r0x08
00AA 6A00      02608         CLRF    r0x09
Error [113] : Symbol not previously defined (_validmovemask).
00AC 0E00      02609         MOVLW   HIGH(_validmovemask)
00AE 2200      02610         ADDWFC  r0x09, F
00B0 C000 FFE9 02611         MOVFF   r0x08, FSR0L
00B4 C000 FFEA 02612         MOVFF   r0x09, FSR0H
00B8 CFEF F000 02613         MOVFF   INDF0, r0x0a
00BC C000 FFE9 02614         MOVFF   r0x06, FSR0L
00C0 C000 FFEA 02615         MOVFF   r0x07, FSR0H
00C4 C000 FFEF 02616         MOVFF   r0x0a, INDF0
               02617 ;       .line   204; /home/mandon/pinguino32/copie courante/linux/source/user.c currcapturemask[i] = capturemask[i];
00C8 0E00      02618         MOVLW   LOW(_currcapturemask)
00CA 2400      02619         ADDWF   r0x05, W
00CC 6E00      02620         MOVWF   r0x06
00CE 6A00      02621         CLRF    r0x07
00D0 0E00      02622         MOVLW   HIGH(_currcapturemask)
00D2 2200      02623         ADDWFC  r0x07, F
Error [113] : Symbol not previously defined (_capturemask).
00D4 0E00      02624         MOVLW   LOW(_capturemask)
00D6 2400      02625         ADDWF   r0x05, W
00D8 6E00      02626         MOVWF   r0x0a
gpasm-0.13.7 beta               /home/mandon/pinguino32/copie courante/linux/source/main.asm5-29-2011  20:37:50          PAGE 52


LOC  OBJECT CODE     LINE SOURCE TEXT
  VALUE
 
00DA 6A00      02627         CLRF    r0x0b
Error [113] : Symbol not previously defined (_capturemask).
00DC 0E00      02628         MOVLW   HIGH(_capturemask)
00DE 2200      02629         ADDWFC  r0x0b, F
00E0 C000 FFE9 02630         MOVFF   r0x0a, FSR0L
00E4 C000 FFEA 02631         MOVFF   r0x0b, FSR0H
00E8 CFEF F000 02632         MOVFF   INDF0, r0x0c
00EC C000 FFE9 02633         MOVFF   r0x06, FSR0L
00F0 C000 FFEA 02634         MOVFF   r0x07, FSR0H
00F4 C000 FFEF 02635         MOVFF   r0x0c, INDF0
               02636 ;       .line   205; /home/mandon/pinguino32/copie courante/linux/source/user.c validmovemask[i] = 0;
00F8 C000 FFE9 02637         MOVFF   r0x08, FSR0L
00FC C000 FFEA 02638         MOVFF   r0x09, FSR0H
0100 6AEF      02639         CLRF    INDF0
               02640 ;       .line   206; /home/mandon/pinguino32/copie courante/linux/source/user.c capturemask[i] = 0;
0102 C000 FFE9 02641         MOVFF   r0x0a, FSR0L
0106 C000 FFEA 02642         MOVFF   r0x0b, FSR0H
010A 6AEF      02643         CLRF    INDF0
               02644 ;       .line   201; /home/mandon/pinguino32/copie courante/linux/source/user.c for (i = 0; i < 8;++i)
010C 2A00      02645         INCF    r0x05, F
010E D000      02646         BRA     _01164_DS_
0110 02647 _01167_DS_:
               02648 ;       .line   209; /home/mandon/pinguino32/copie courante/linux/source/user.c for (i = 0; i < 8; ++i)
0110 5000      02649         MOVF    r0x00, W
0112 0F01      02650         ADDLW   0x01
0114 6E00      02651         MOVWF   r0x05
0116 0E00      02652         MOVLW   0x00
0118 2000      02653         ADDWFC  r0x01, W
011A 6E00      02654         MOVWF   r0x06
011C 0E00      02655         MOVLW   0x00
011E 2000      02656         ADDWFC  r0x02, W
0120 6E00      02657         MOVWF   r0x07
0122 6A00      02658         CLRF    r0x08
0124 02659 _01176_DS_:
0124 0E08      02660         MOVLW   0x08
0126 5C00      02661         SUBWF   r0x08, W
0128 B0D8      02662         BTFSC   STATUS, 0
012A D000      02663         BRA     _01179_DS_
               02664 ;       .line   211; /home/mandon/pinguino32/copie courante/linux/source/user.c for (j = 0; j < 8; ++j)
012C 0E00      02665         MOVLW   LOW(_currcapturemask)
012E 2400      02666         ADDWF   r0x08, W
0130 6E00      02667         MOVWF   r0x09
0132 6A00      02668         CLRF    r0x0a
0134 0E00      02669         MOVLW   HIGH(_currcapturemask)
0136 2200      02670         ADDWFC  r0x0a, F
Error [113] : Symbol not previously defined (_capturemask).
0138 0E00      02671         MOVLW   LOW(_capturemask)
013A 2400      02672         ADDWF   r0x08, W
013C 6E00      02673         MOVWF   r0x0b
013E 6A00      02674         CLRF    r0x0c
Error [113] : Symbol not previously defined (_capturemask).
0140 0E00      02675         MOVLW   HIGH(_capturemask)
0142 2200      02676         ADDWFC  r0x0c, F
0144 0E00      02677         MOVLW   LOW(_currcapturemask)
gpasm-0.13.7 beta               /home/mandon/pinguino32/copie courante/linux/source/main.asm5-29-2011  20:37:50          PAGE 53


LOC  OBJECT CODE     LINE SOURCE TEXT
  VALUE
 
0146 2400      02678         ADDWF   r0x08, W
0148 6E00      02679         MOVWF   r0x0d
014A 6A00      02680         CLRF    r0x0e
014C 0E00      02681         MOVLW   HIGH(_currcapturemask)
014E 2200      02682         ADDWFC  r0x0e, F
Error [113] : Symbol not previously defined (_capturemask).
0150 0E00      02683         MOVLW   LOW(_capturemask)
0152 2400      02684         ADDWF   r0x08, W
0154 6E00      02685         MOVWF   r0x0f
0156 6A00      02686         CLRF    r0x10
Error [113] : Symbol not previously defined (_capturemask).
0158 0E00      02687         MOVLW   HIGH(_capturemask)
015A 2200      02688         ADDWFC  r0x10, F
015C 0E00      02689         MOVLW   LOW(_currmovemask)
015E 2400      02690         ADDWF   r0x08, W
0160 6E00      02691         MOVWF   r0x11
0162 6A00      02692         CLRF    r0x12
0164 0E00      02693         MOVLW   HIGH(_currmovemask)
0166 2200      02694         ADDWFC  r0x12, F
0168 6A00      02695         CLRF    r0x13
016A 02696 _01172_DS_:
016A 0E08      02697         MOVLW   0x08
016C 5C00      02698         SUBWF   r0x13, W
016E B0D8      02699         BTFSC   STATUS, 0
0170 D000      02700         BRA     _01178_DS_
               02701 ;       .line   214; /home/mandon/pinguino32/copie courante/linux/source/user.c if (currmovemask[i] & 0x01)
0172 C000 FFE9 02702         MOVFF   r0x11, FSR0L
0176 C000 FFEA 02703         MOVFF   r0x12, FSR0H
017A CFEF F000 02704         MOVFF   INDF0, r0x14
017E A000      02705         BTFSS   r0x14, 0
0180 D000      02706         BRA     _01163_DS_
               02707 ;       .line   216; /home/mandon/pinguino32/copie courante/linux/source/user.c to[0] = i;
0182 5000      02708         MOVF    r0x08, W
0184 0000      02709         BANKSEL _getbestpiecemove_to_1_1
0186 6F00      02710         MOVWF   _getbestpiecemove_to_1_1, B
               02711 ;       .line   217; /home/mandon/pinguino32/copie courante/linux/source/user.c to[1] = j; 
0188 5000      02712         MOVF    r0x13, W
               02713 ; removed redundant BANKSEL
018A 6F00      02714         MOVWF   (_getbestpiecemove_to_1_1 + 1), B
               02715 ;       .line   221; /home/mandon/pinguino32/copie courante/linux/source/user.c if (test_singlemove(from,to,board[from[0]][from[1]]))
018C 0E00      02716         MOVLW   HIGH(_getbestpiecemove_to_1_1)
018E 6E00      02717         MOVWF   r0x15
0190 0E00      02718         MOVLW   LOW(_getbestpiecemove_to_1_1)
0192 6E00      02719         MOVWF   r0x14
0194 0E80      02720         MOVLW   0x80
0196 6E00      02721         MOVWF   r0x16
0198 C000 FFE9 02722         MOVFF   r0x00, FSR0L
019C C000 FFF3 02723         MOVFF   r0x01, PRODL
01A0 5000      02724         MOVF    r0x02, W
01A2 EC00 F000 02725         CALL    __gptrget1
               02726 ; #     MOVWF   r0x17
               02727 ; #;;multiply lit val:0x08 by variable r0x17 and store in r0x17
               02728 ; #;;Unrolled 8 X 8 multiplication
               02729 ; #;;FIXME: the function does not support result==WREG
gpasm-0.13.7 beta               /home/mandon/pinguino32/copie courante/linux/source/main.asm5-29-2011  20:37:50          PAGE 54


LOC  OBJECT CODE     LINE SOURCE TEXT
  VALUE
 
               02730 ; #     MOVF    r0x17, W
01A6 0D08      02731         MULLW   0x08
01A8 CFF3 F000 02732         MOVFF   PRODL, r0x17
01AC 6A00      02733         CLRF    r0x18
Error [113] : Symbol not previously defined (_board).
01AE 0E00      02734         MOVLW   LOW(_board)
01B0 2600      02735         ADDWF   r0x17, F
Error [113] : Symbol not previously defined (_board).
01B2 0E00      02736         MOVLW   HIGH(_board)
01B4 2200      02737         ADDWFC  r0x18, F
01B6 5000      02738         MOVF    r0x00, W
01B8 0F01      02739         ADDLW   0x01
01BA 6E00      02740         MOVWF   r0x19
01BC 0E00      02741         MOVLW   0x00
01BE 2000      02742         ADDWFC  r0x01, W
01C0 6E00      02743         MOVWF   r0x1a
01C2 0E00      02744         MOVLW   0x00
01C4 2000      02745         ADDWFC  r0x02, W
01C6 C000 FFE9 02746         MOVFF   r0x19, FSR0L
01CA C000 FFF3 02747         MOVFF   r0x1a, PRODL
01CE EC00 F000 02748         CALL    __gptrget1
               02749 ; #     MOVWF   r0x19
               02750 ; #     MOVF    r0x19, W
01D2 2600      02751         ADDWF   r0x17, F
01D4 6AE8      02752         CLRF    WREG
01D6 2200      02753         ADDWFC  r0x18, F
01D8 C000 FFE9 02754         MOVFF   r0x17, FSR0L
01DC C000 FFEA 02755         MOVFF   r0x18, FSR0H
01E0 CFEF F000 02756         MOVFF   INDF0, r0x17
01E4 5000      02757         MOVF    r0x17, W
01E6 6EE5      02758         MOVWF   POSTDEC1
01E8 5000      02759         MOVF    r0x16, W
01EA 6EE5      02760         MOVWF   POSTDEC1
01EC 5000      02761         MOVF    r0x15, W
01EE 6EE5      02762         MOVWF   POSTDEC1
01F0 5000      02763         MOVF    r0x14, W
01F2 6EE5      02764         MOVWF   POSTDEC1
01F4 5000      02765         MOVF    r0x02, W
01F6 6EE5      02766         MOVWF   POSTDEC1
01F8 5000      02767         MOVF    r0x01, W
01FA 6EE5      02768         MOVWF   POSTDEC1
01FC 5000      02769         MOVF    r0x00, W
01FE 6EE5      02770         MOVWF   POSTDEC1
0200 EC00 F000 02771         CALL    _test_singlemove
0204 6E00      02772         MOVWF   r0x14
0206 0E07      02773         MOVLW   0x07
0208 26E1      02774         ADDWF   FSR1L, F
020A 5000      02775         MOVF    r0x14, W
020C B4D8      02776         BTFSC   STATUS, 2
020E D000      02777         BRA     _01201_DS_
               02778 ; ;multiply lit val:0x08 by variable _getbestpiecemove_to_1_1 and store in r0x14
               02779 ; ;Unrolled 8 X 8 multiplication
               02780 ; ;FIXME: the function does not support result==WREG
0210 0000      02781         BANKSEL _getbestpiecemove_to_1_1
gpasm-0.13.7 beta               /home/mandon/pinguino32/copie courante/linux/source/main.asm5-29-2011  20:37:50          PAGE 55


LOC  OBJECT CODE     LINE SOURCE TEXT
  VALUE
 
               02782 ;       .line   223; /home/mandon/pinguino32/copie courante/linux/source/user.c move = getindex(to[0],to[1]);
0212 5100      02783         MOVF    _getbestpiecemove_to_1_1, W, B
0214 0D08      02784         MULLW   0x08
0216 CFF3 F000 02785         MOVFF   PRODL, r0x14
               02786 ; removed redundant BANKSEL
021A 5100      02787         MOVF    (_getbestpiecemove_to_1_1 + 1), W, B
021C 2600      02788         ADDWF   r0x14, F
               02789 ;       .line   224; /home/mandon/pinguino32/copie courante/linux/source/user.c movetype = NORMAL;  
021E 0E01      02790         MOVLW   0x01
0220 0000      02791         BANKSEL _movetype
0222 6F00      02792         MOVWF   _movetype, B
               02793 ;       .line   226; /home/mandon/pinguino32/copie courante/linux/source/user.c if ((validmovemask[from[0]] >> from[1]) & 1)            
0224 C000 FFE9 02794         MOVFF   r0x00, FSR0L
0228 C000 FFF3 02795         MOVFF   r0x01, PRODL
022C 5000      02796         MOVF    r0x02, W
022E EC00 F000 02797         CALL    __gptrget1
0232 6E00      02798         MOVWF   r0x15
0234 6A00      02799         CLRF    r0x16
Error [113] : Symbol not previously defined (_validmovemask).
0236 0E00      02800         MOVLW   LOW(_validmovemask)
0238 2600      02801         ADDWF   r0x15, F
Error [113] : Symbol not previously defined (_validmovemask).
023A 0E00      02802         MOVLW   HIGH(_validmovemask)
023C 2200      02803         ADDWFC  r0x16, F
023E C000 FFE9 02804         MOVFF   r0x15, FSR0L
0242 C000 FFEA 02805         MOVFF   r0x16, FSR0H
0246 CFEF F000 02806         MOVFF   INDF0, r0x15
024A C000 FFE9 02807         MOVFF   r0x05, FSR0L
024E C000 FFF3 02808         MOVFF   r0x06, PRODL
0252 5000      02809         MOVF    r0x07, W
0254 EC00 F000 02810         CALL    __gptrget1
0258 6E00      02811         MOVWF   r0x16
025A 5000      02812         MOVF    r0x16, W
025C E000      02813         BZ      _01212_DS_
025E 6CE8      02814         NEGF    WREG
0260 90D8      02815         BCF     STATUS, 0
0262 02816 _01213_DS_:
0262 3200      02817         RRCF    r0x15, F
0264 0F01      02818         ADDLW   0x01
0266 E300      02819         BNC     _01213_DS_
0268 02820 _01212_DS_:
0268 A000      02821         BTFSS   r0x15, 0
026A D000      02822         BRA     _01148_DS_
               02823 ;       .line   227; /home/mandon/pinguino32/copie courante/linux/source/user.c tmp = (board[from[0]][from[1]] & 0x07)/2;
026C C000 FFE9 02824         MOVFF   r0x00, FSR0L
0270 C000 FFF3 02825         MOVFF   r0x01, PRODL
0274 5000      02826         MOVF    r0x02, W
0276 EC00 F000 02827         CALL    __gptrget1
               02828 ; #     MOVWF   r0x15
               02829 ; #;;multiply lit val:0x08 by variable r0x15 and store in r0x15
               02830 ; #;;Unrolled 8 X 8 multiplication
               02831 ; #;;FIXME: the function does not support result==WREG
               02832 ; #     MOVF    r0x15, W
027A 0D08      02833         MULLW   0x08
gpasm-0.13.7 beta               /home/mandon/pinguino32/copie courante/linux/source/main.asm5-29-2011  20:37:50          PAGE 56


LOC  OBJECT CODE     LINE SOURCE TEXT
  VALUE
 
027C CFF3 F000 02834         MOVFF   PRODL, r0x15
0280 6A00      02835         CLRF    r0x17
Error [113] : Symbol not previously defined (_board).
0282 0E00      02836         MOVLW   LOW(_board)
0284 2600      02837         ADDWF   r0x15, F
Error [113] : Symbol not previously defined (_board).
0286 0E00      02838         MOVLW   HIGH(_board)
0288 2200      02839         ADDWFC  r0x17, F
028A 6A00      02840         CLRF    r0x18
028C 5000      02841         MOVF    r0x15, W
028E 2600      02842         ADDWF   r0x16, F
0290 5000      02843         MOVF    r0x17, W
0292 2200      02844         ADDWFC  r0x18, F
0294 C000 FFE9 02845         MOVFF   r0x16, FSR0L
0298 C000 FFEA 02846         MOVFF   r0x18, FSR0H
029C CFEF F000 02847         MOVFF   INDF0, r0x16
02A0 0E07      02848         MOVLW   0x07
02A2 1600      02849         ANDWF   r0x16, F
02A4 4000      02850         RRNCF   r0x16, W
02A6 0B7F      02851         ANDLW   0x7f
02A8 6E00      02852         MOVWF   r0x04
02AA 02853 _01148_DS_:
               02854 ;       .line   231; /home/mandon/pinguino32/copie courante/linux/source/user.c if((!((capturemask[i] >> j) & 1)) && ((currcapturemask[i] >> j) & 1))
02AA C000 FFE9 02855         MOVFF   r0x0b, FSR0L
02AE C000 FFEA 02856         MOVFF   r0x0c, FSR0H
02B2 CFEF F000 02857         MOVFF   INDF0, r0x15
02B6 5000      02858         MOVF    r0x13, W
02B8 E000      02859         BZ      _01216_DS_
02BA 6CE8      02860         NEGF    WREG
02BC 90D8      02861         BCF     STATUS, 0
02BE 02862 _01217_DS_:
02BE 3200      02863         RRCF    r0x15, F
02C0 0F01      02864         ADDLW   0x01
02C2 E300      02865         BNC     _01217_DS_
02C4 02866 _01216_DS_:
02C4 B000      02867         BTFSC   r0x15, 0
02C6 D000      02868         BRA     _01155_DS_
02C8 C000 FFE9 02869         MOVFF   r0x09, FSR0L
02CC C000 FFEA 02870         MOVFF   r0x0a, FSR0H
02D0 CFEF F000 02871         MOVFF   INDF0, r0x15
02D4 5000      02872         MOVF    r0x13, W
02D6 E000      02873         BZ      _01219_DS_
02D8 6CE8      02874         NEGF    WREG
02DA 90D8      02875         BCF     STATUS, 0
02DC 02876 _01220_DS_:
02DC 3200      02877         RRCF    r0x15, F
02DE 0F01      02878         ADDLW   0x01
02E0 E300      02879         BNC     _01220_DS_
02E2 02880 _01219_DS_:
02E2 A000      02881         BTFSS   r0x15, 0
02E4 D000      02882         BRA     _01155_DS_
               02883 ;       .line   232; /home/mandon/pinguino32/copie courante/linux/source/user.c movetype = SAFECAPTURE;
02E6 0E04      02884         MOVLW   0x04
02E8 0000      02885         BANKSEL _movetype
gpasm-0.13.7 beta               /home/mandon/pinguino32/copie courante/linux/source/main.asm5-29-2011  20:37:50          PAGE 57


LOC  OBJECT CODE     LINE SOURCE TEXT
  VALUE
 
02EA 6F00      02886         MOVWF   _movetype, B
02EC D000      02887         BRA     _01156_DS_
02EE 02888 _01155_DS_:
               02889 ;       .line   234; /home/mandon/pinguino32/copie courante/linux/source/user.c else if ((currcapturemask[i] >> j) & 1)
02EE C000 FFE9 02890         MOVFF   r0x0d, FSR0L
02F2 C000 FFEA 02891         MOVFF   r0x0e, FSR0H
02F6 CFEF F000 02892         MOVFF   INDF0, r0x15
02FA 5000      02893         MOVF    r0x13, W
02FC E000      02894         BZ      _01222_DS_
02FE 6CE8      02895         NEGF    WREG
0300 90D8      02896         BCF     STATUS, 0
0302 02897 _01223_DS_:
0302 3200      02898         RRCF    r0x15, F
0304 0F01      02899         ADDLW   0x01
0306 E300      02900         BNC     _01223_DS_
0308 02901 _01222_DS_:
0308 A000      02902         BTFSS   r0x15, 0
030A D000      02903         BRA     _01152_DS_
               02904 ;       .line   235; /home/mandon/pinguino32/copie courante/linux/source/user.c movetype = CAPTURE;
030C 0E03      02905         MOVLW   0x03
030E 0000      02906         BANKSEL _movetype
0310 6F00      02907         MOVWF   _movetype, B
0312 D000      02908         BRA     _01156_DS_
0314 02909 _01152_DS_:
               02910 ;       .line   237; /home/mandon/pinguino32/copie courante/linux/source/user.c else if (!((capturemask[i] >> j) & 1))
0314 C000 FFE9 02911         MOVFF   r0x0f, FSR0L
0318 C000 FFEA 02912         MOVFF   r0x10, FSR0H
031C CFEF F000 02913         MOVFF   INDF0, r0x15
0320 5000      02914         MOVF    r0x13, W
0322 E000      02915         BZ      _01225_DS_
0324 6CE8      02916         NEGF    WREG
0326 90D8      02917         BCF     STATUS, 0
0328 02918 _01226_DS_:
0328 3200      02919         RRCF    r0x15, F
032A 0F01      02920         ADDLW   0x01
032C E300      02921         BNC     _01226_DS_
032E 02922 _01225_DS_:
032E B000      02923         BTFSC   r0x15, 0
0330 D000      02924         BRA     _01156_DS_
               02925 ;       .line   238; /home/mandon/pinguino32/copie courante/linux/source/user.c movetype = SAFE;
0332 0E02      02926         MOVLW   0x02
0334 0000      02927         BANKSEL _movetype
0336 6F00      02928         MOVWF   _movetype, B
0338 02929 _01156_DS_:
               02930 ;       .line   241; /home/mandon/pinguino32/copie courante/linux/source/user.c curr_pos_rate  = (to[0] > 3)? to[0]-3 : 3-to[0];
0338 0E04      02931         MOVLW   0x04
033A 0000      02932         BANKSEL _getbestpiecemove_to_1_1
033C 5D00      02933         SUBWF   _getbestpiecemove_to_1_1, W, B
033E E300      02934         BNC     _01182_DS_
0340 0EFD      02935         MOVLW   0xfd
               02936 ; removed redundant BANKSEL
0342 2500      02937         ADDWF   _getbestpiecemove_to_1_1, W, B
0344 6E00      02938         MOVWF   r0x15
0346 D000      02939         BRA     _01183_DS_
gpasm-0.13.7 beta               /home/mandon/pinguino32/copie courante/linux/source/main.asm5-29-2011  20:37:50          PAGE 58


LOC  OBJECT CODE     LINE SOURCE TEXT
  VALUE
 
0348 02940 _01182_DS_:
0348 0000      02941         BANKSEL _getbestpiecemove_to_1_1
034A 5100      02942         MOVF    _getbestpiecemove_to_1_1, W, B
034C 0803      02943         SUBLW   0x03
034E 6E00      02944         MOVWF   r0x15
0350 02945 _01183_DS_:
               02946 ;       .line   242; /home/mandon/pinguino32/copie courante/linux/source/user.c k  = (to[1] > 3)? to[1]-3 : 3-to[1];
0350 0E04      02947         MOVLW   0x04
0352 0000      02948         BANKSEL (_getbestpiecemove_to_1_1 + 1)
0354 5D00      02949         SUBWF   (_getbestpiecemove_to_1_1 + 1), W, B
0356 E300      02950         BNC     _01184_DS_
0358 0EFD      02951         MOVLW   0xfd
               02952 ; removed redundant BANKSEL
035A 2500      02953         ADDWF   (_getbestpiecemove_to_1_1 + 1), W, B
035C 6E00      02954         MOVWF   r0x16
035E D000      02955         BRA     _01185_DS_
0360 02956 _01184_DS_:
0360 0000      02957         BANKSEL (_getbestpiecemove_to_1_1 + 1)
0362 5100      02958         MOVF    (_getbestpiecemove_to_1_1 + 1), W, B
0364 0803      02959         SUBLW   0x03
0366 6E00      02960         MOVWF   r0x16
0368 02961 _01185_DS_:
               02962 ;       .line   243; /home/mandon/pinguino32/copie courante/linux/source/user.c curr_pos_rate += k;      
0368 5000      02963         MOVF    r0x16, W
036A 2600      02964         ADDWF   r0x15, F
               02965 ;       .line   246; /home/mandon/pinguino32/copie courante/linux/source/user.c tmp += rate_move((board[from[0]][from[1]]),to,curr_pos_rate);
036C C000 FFE9 02966         MOVFF   r0x00, FSR0L
0370 C000 FFF3 02967         MOVFF   r0x01, PRODL
0374 5000      02968         MOVF    r0x02, W
0376 EC00 F000 02969         CALL    __gptrget1
               02970 ; #     MOVWF   r0x16
               02971 ; #;;multiply lit val:0x08 by variable r0x16 and store in r0x16
               02972 ; #;;Unrolled 8 X 8 multiplication
               02973 ; #;;FIXME: the function does not support result==WREG
               02974 ; #     MOVF    r0x16, W
037A 0D08      02975         MULLW   0x08
037C CFF3 F000 02976         MOVFF   PRODL, r0x16
0380 6A00      02977         CLRF    r0x17
Error [113] : Symbol not previously defined (_board).
0382 0E00      02978         MOVLW   LOW(_board)
0384 2600      02979         ADDWF   r0x16, F
Error [113] : Symbol not previously defined (_board).
0386 0E00      02980         MOVLW   HIGH(_board)
0388 2200      02981         ADDWFC  r0x17, F
038A C000 FFE9 02982         MOVFF   r0x05, FSR0L
038E C000 FFF3 02983         MOVFF   r0x06, PRODL
0392 5000      02984         MOVF    r0x07, W
0394 EC00 F000 02985         CALL    __gptrget1
               02986 ; #     MOVWF   r0x18
               02987 ; #     MOVF    r0x18, W
0398 2600      02988         ADDWF   r0x16, F
039A 6AE8      02989         CLRF    WREG
039C 2200      02990         ADDWFC  r0x17, F
039E C000 FFE9 02991         MOVFF   r0x16, FSR0L
gpasm-0.13.7 beta               /home/mandon/pinguino32/copie courante/linux/source/main.asm5-29-2011  20:37:50          PAGE 59


LOC  OBJECT CODE     LINE SOURCE TEXT
  VALUE
 
03A2 C000 FFEA 02992         MOVFF   r0x17, FSR0H
03A6 CFEF F000 02993         MOVFF   INDF0, r0x16
03AA 5000      02994         MOVF    r0x15, W
03AC 6EE5      02995         MOVWF   POSTDEC1
03AE 0E80      02996         MOVLW   0x80
03B0 6EE5      02997         MOVWF   POSTDEC1
03B2 0E00      02998         MOVLW   HIGH(_getbestpiecemove_to_1_1)
03B4 6EE5      02999         MOVWF   POSTDEC1
03B6 0E00      03000         MOVLW   LOW(_getbestpiecemove_to_1_1)
03B8 6EE5      03001         MOVWF   POSTDEC1
03BA 5000      03002         MOVF    r0x16, W
03BC 6EE5      03003         MOVWF   POSTDEC1
03BE EC00 F000 03004         CALL    _rate_move
03C2 6E00      03005         MOVWF   r0x15
03C4 0E05      03006         MOVLW   0x05
03C6 26E1      03007         ADDWF   FSR1L, F
03C8 5000      03008         MOVF    r0x15, W
03CA 2600      03009         ADDWF   r0x04, F
               03010 ;       .line   249; /home/mandon/pinguino32/copie courante/linux/source/user.c if (tmp > piecerate)
03CC 5000      03011         MOVF    r0x04, W
03CE 0000      03012         BANKSEL _piecerate
03D0 5D00      03013         SUBWF   _piecerate, W, B
03D2 E200      03014         BC      _01159_DS_
               03015 ;       .line   251; /home/mandon/pinguino32/copie courante/linux/source/user.c piecerate = tmp;
03D4 C000 F000 03016         MOVFF   r0x04, _piecerate
               03017 ;       .line   252; /home/mandon/pinguino32/copie courante/linux/source/user.c bestmove = move;
03D8 C000 F000 03018         MOVFF   r0x14, r0x03
03DC 03019 _01159_DS_:
               03020 ;       .line   254; /home/mandon/pinguino32/copie courante/linux/source/user.c tmp = 0;  
03DC 6A00      03021         CLRF    r0x04
03DE 03022 _01201_DS_:
               03023 ;       .line   257; /home/mandon/pinguino32/copie courante/linux/source/user.c for (k = 0; k < 8; ++k)
03DE 6A00      03024         CLRF    r0x14
03E0 03025 _01168_DS_:
03E0 0E08      03026         MOVLW   0x08
03E2 5C00      03027         SUBWF   r0x14, W
03E4 E200      03028         BC      _01163_DS_
               03029 ;       .line   259; /home/mandon/pinguino32/copie courante/linux/source/user.c validmovemask[k] = 0;
Error [113] : Symbol not previously defined (_validmovemask).
03E6 0E00      03030         MOVLW   LOW(_validmovemask)
03E8 2400      03031         ADDWF   r0x14, W
03EA 6E00      03032         MOVWF   r0x15
03EC 6A00      03033         CLRF    r0x16
Error [113] : Symbol not previously defined (_validmovemask).
03EE 0E00      03034         MOVLW   HIGH(_validmovemask)
03F0 2200      03035         ADDWFC  r0x16, F
03F2 C000 FFE9 03036         MOVFF   r0x15, FSR0L
03F6 C000 FFEA 03037         MOVFF   r0x16, FSR0H
03FA 6AEF      03038         CLRF    INDF0
               03039 ;       .line   260; /home/mandon/pinguino32/copie courante/linux/source/user.c capturemask[k]   = 0;
Error [113] : Symbol not previously defined (_capturemask).
03FC 0E00      03040         MOVLW   LOW(_capturemask)
03FE 2400      03041         ADDWF   r0x14, W
0400 6E00      03042         MOVWF   r0x15
gpasm-0.13.7 beta               /home/mandon/pinguino32/copie courante/linux/source/main.asm5-29-2011  20:37:50          PAGE 60


LOC  OBJECT CODE     LINE SOURCE TEXT
  VALUE
 
0402 6A00      03043         CLRF    r0x16
Error [113] : Symbol not previously defined (_capturemask).
0404 0E00      03044         MOVLW   HIGH(_capturemask)
0406 2200      03045         ADDWFC  r0x16, F
0408 C000 FFE9 03046         MOVFF   r0x15, FSR0L
040C C000 FFEA 03047         MOVFF   r0x16, FSR0H
0410 6AEF      03048         CLRF    INDF0
               03049 ;       .line   257; /home/mandon/pinguino32/copie courante/linux/source/user.c for (k = 0; k < 8; ++k)
0412 2A00      03050         INCF    r0x14, F
0414 D000      03051         BRA     _01168_DS_
0416 03052 _01163_DS_:
               03053 ;       .line   263; /home/mandon/pinguino32/copie courante/linux/source/user.c currmovemask[i] = currmovemask[i] >> 1;
0416 0E00      03054         MOVLW   LOW(_currmovemask)
0418 2400      03055         ADDWF   r0x08, W
041A 6E00      03056         MOVWF   r0x14
041C 6A00      03057         CLRF    r0x15
041E 0E00      03058         MOVLW   HIGH(_currmovemask)
0420 2200      03059         ADDWFC  r0x15, F
0422 C000 FFE9 03060         MOVFF   r0x14, FSR0L
0426 C000 FFEA 03061         MOVFF   r0x15, FSR0H
042A CFEF F000 03062         MOVFF   INDF0, r0x16
042E 4000      03063         RRNCF   r0x16, W
0430 0B7F      03064         ANDLW   0x7f
0432 6E00      03065         MOVWF   r0x16
0434 C000 FFE9 03066         MOVFF   r0x14, FSR0L
0438 C000 FFEA 03067         MOVFF   r0x15, FSR0H
043C C000 FFEF 03068         MOVFF   r0x16, INDF0
               03069 ;       .line   211; /home/mandon/pinguino32/copie courante/linux/source/user.c for (j = 0; j < 8; ++j)
0440 2A00      03070         INCF    r0x13, F
0442 D000      03071         BRA     _01172_DS_
0444 03072 _01178_DS_:
               03073 ;       .line   209; /home/mandon/pinguino32/copie courante/linux/source/user.c for (i = 0; i < 8; ++i)
0444 2A00      03074         INCF    r0x08, F
0446 D000      03075         BRA     _01176_DS_
0448 03076 _01179_DS_:
               03077 ;       .line   280; /home/mandon/pinguino32/copie courante/linux/source/user.c serial_putchar('.');
0448 0E2E      03078         MOVLW   0x2e
044A 6EE5      03079         MOVWF   POSTDEC1
044C EC00 F000 03080         CALL    _serial_putchar
0450 2AE1      03081         INCF    FSR1L, F
               03082 ; =DF= MOVFF: replaced by CRLF/SETF
               03083 ;       .line   282; /home/mandon/pinguino32/copie courante/linux/source/user.c return bestmove;
0452 6AF3      03084         CLRF    PRODL
0454 5000      03085         MOVF    r0x03, W
0456 CFE4 F000 03086         MOVFF   PREINC1, r0x1a
045A CFE4 F000 03087         MOVFF   PREINC1, r0x19
045E CFE4 F000 03088         MOVFF   PREINC1, r0x18
0462 CFE4 F000 03089         MOVFF   PREINC1, r0x17
0466 CFE4 F000 03090         MOVFF   PREINC1, r0x16
046A CFE4 F000 03091         MOVFF   PREINC1, r0x15
046E CFE4 F000 03092         MOVFF   PREINC1, r0x14
0472 CFE4 F000 03093         MOVFF   PREINC1, r0x13
0476 CFE4 F000 03094         MOVFF   PREINC1, r0x12
047A CFE4 F000 03095         MOVFF   PREINC1, r0x11
gpasm-0.13.7 beta               /home/mandon/pinguino32/copie courante/linux/source/main.asm5-29-2011  20:37:50          PAGE 61


LOC  OBJECT CODE     LINE SOURCE TEXT
  VALUE
 
047E CFE4 F000 03096         MOVFF   PREINC1, r0x10
0482 CFE4 F000 03097         MOVFF   PREINC1, r0x0f
0486 CFE4 F000 03098         MOVFF   PREINC1, r0x0e
048A CFE4 F000 03099         MOVFF   PREINC1, r0x0d
048E CFE4 F000 03100         MOVFF   PREINC1, r0x0c
0492 CFE4 F000 03101         MOVFF   PREINC1, r0x0b
0496 CFE4 F000 03102         MOVFF   PREINC1, r0x0a
049A CFE4 F000 03103         MOVFF   PREINC1, r0x09
049E CFE4 F000 03104         MOVFF   PREINC1, r0x08
04A2 CFE4 F000 03105         MOVFF   PREINC1, r0x07
04A6 CFE4 F000 03106         MOVFF   PREINC1, r0x06
04AA CFE4 F000 03107         MOVFF   PREINC1, r0x05
04AE CFE4 F000 03108         MOVFF   PREINC1, r0x04
04B2 CFE4 F000 03109         MOVFF   PREINC1, r0x03
04B6 CFE4 F000 03110         MOVFF   PREINC1, r0x02
04BA CFE4 F000 03111         MOVFF   PREINC1, r0x01
04BE CFE4 F000 03112         MOVFF   PREINC1, r0x00
04C2 CFE4 FFD9 03113         MOVFF   PREINC1, FSR2L
04C6 0012      03114         RETURN  
               03115 
               03116 ; ; Starting pCode block
               03117 S_main__loop    code
0000 03118 _loop:
               03119 ;       .line   55; /home/mandon/pinguino32/copie courante/linux/source/user.c  void loop()
0000 C000 FFE5 03120         MOVFF   r0x00, POSTDEC1
0004 C000 FFE5 03121         MOVFF   r0x01, POSTDEC1
0008 C000 FFE5 03122         MOVFF   r0x02, POSTDEC1
000C C000 FFE5 03123         MOVFF   r0x03, POSTDEC1
0010 C000 FFE5 03124         MOVFF   r0x04, POSTDEC1
0014 C000 FFE5 03125         MOVFF   r0x05, POSTDEC1
0018 C000 FFE5 03126         MOVFF   r0x06, POSTDEC1
001C C000 FFE5 03127         MOVFF   r0x07, POSTDEC1
0020 C000 FFE5 03128         MOVFF   r0x08, POSTDEC1
0024 C000 FFE5 03129         MOVFF   r0x09, POSTDEC1
0028 C000 FFE5 03130         MOVFF   r0x0a, POSTDEC1
002C C000 FFE5 03131         MOVFF   r0x0b, POSTDEC1
0030 0000      03132         BANKSEL _movecount
               03133 ;       .line   64; /home/mandon/pinguino32/copie courante/linux/source/user.c  if ((movecount+1)%2 == 0)
0032 5100      03134         MOVF    _movecount, W, B
0034 0F01      03135         ADDLW   0x01
0036 6E00      03136         MOVWF   r0x00
0038 0E00      03137         MOVLW   0x00
               03138 ; removed redundant BANKSEL
003A 2100      03139         ADDWFC  (_movecount + 1), W, B
003C 6E00      03140         MOVWF   r0x01
003E 6AE5      03141         CLRF    POSTDEC1
0040 0E02      03142         MOVLW   0x02
0042 6EE5      03143         MOVWF   POSTDEC1
0044 5000      03144         MOVF    r0x01, W
0046 6EE5      03145         MOVWF   POSTDEC1
0048 5000      03146         MOVF    r0x00, W
004A 6EE5      03147         MOVWF   POSTDEC1
004C EC00 F000 03148         CALL    __modsint
0050 6E00      03149         MOVWF   r0x00
gpasm-0.13.7 beta               /home/mandon/pinguino32/copie courante/linux/source/main.asm5-29-2011  20:37:50          PAGE 62


LOC  OBJECT CODE     LINE SOURCE TEXT
  VALUE
 
0052 CFF3 F000 03150         MOVFF   PRODL, r0x01
0056 0E04      03151         MOVLW   0x04
0058 26E1      03152         ADDWF   FSR1L, F
005A 5000      03153         MOVF    r0x00, W
005C 1000      03154         IORWF   r0x01, W
005E A4D8      03155         BTFSS   STATUS, 2
0060 D000      03156         BRA     _01073_DS_
               03157 ;       .line   66; /home/mandon/pinguino32/copie courante/linux/source/user.c  draw_chessboard();
0062 EC00 F000 03158         CALL    _draw_chessboard
               03159 ;       .line   67; /home/mandon/pinguino32/copie courante/linux/source/user.c  serial_write("Jouez : ");
0066 0E00      03160         MOVLW   UPPER(__str_9)
0068 6EE5      03161         MOVWF   POSTDEC1
006A 0E00      03162         MOVLW   HIGH(__str_9)
006C 6EE5      03163         MOVWF   POSTDEC1
006E 0E00      03164         MOVLW   LOW(__str_9)
0070 6EE5      03165         MOVWF   POSTDEC1
0072 EC00 F000 03166         CALL    _serial_write
0076 0E03      03167         MOVLW   0x03
0078 26E1      03168         ADDWF   FSR1L, F
007A 03169 _01046_DS_:
               03170 ;       .line   74; /home/mandon/pinguino32/copie courante/linux/source/user.c  while (!read_movement(from, to));
007A 0E80      03171         MOVLW   0x80
               03172 ; #     MOVWF   r0x07
               03173 ; #     MOVF    r0x07, W
007C 6EE5      03174         MOVWF   POSTDEC1
007E 0E00      03175         MOVLW   HIGH(_loop_to_1_1)
0080 6EE5      03176         MOVWF   POSTDEC1
0082 0E00      03177         MOVLW   LOW(_loop_to_1_1)
0084 6EE5      03178         MOVWF   POSTDEC1
0086 0E80      03179         MOVLW   0x80
0088 6EE5      03180         MOVWF   POSTDEC1
008A 0E00      03181         MOVLW   HIGH(_loop_from_1_1)
008C 6EE5      03182         MOVWF   POSTDEC1
008E 0E00      03183         MOVLW   LOW(_loop_from_1_1)
0090 6EE5      03184         MOVWF   POSTDEC1
0092 EC00 F000 03185         CALL    _read_movement
0096 6E00      03186         MOVWF   r0x02
0098 0E06      03187         MOVLW   0x06
009A 26E1      03188         ADDWF   FSR1L, F
009C 5000      03189         MOVF    r0x02, W
009E E000      03190         BZ      _01046_DS_
               03191 ; ;multiply lit val:0x08 by variable _loop_from_1_1 and store in r0x02
               03192 ; ;Unrolled 8 X 8 multiplication
               03193 ; ;FIXME: the function does not support result==WREG
00A0 0000      03194         BANKSEL _loop_from_1_1
               03195 ;       .line   76; /home/mandon/pinguino32/copie courante/linux/source/user.c  p = board[from[0]][from[1]];
00A2 5100      03196         MOVF    _loop_from_1_1, W, B
00A4 0D08      03197         MULLW   0x08
00A6 CFF3 F000 03198         MOVFF   PRODL, r0x02
00AA 6A00      03199         CLRF    r0x03
Error [113] : Symbol not previously defined (_board).
00AC 0E00      03200         MOVLW   LOW(_board)
00AE 2600      03201         ADDWF   r0x02, F
Error [113] : Symbol not previously defined (_board).
gpasm-0.13.7 beta               /home/mandon/pinguino32/copie courante/linux/source/main.asm5-29-2011  20:37:50          PAGE 63


LOC  OBJECT CODE     LINE SOURCE TEXT
  VALUE
 
00B0 0E00      03202         MOVLW   HIGH(_board)
00B2 2200      03203         ADDWFC  r0x03, F
               03204 ; removed redundant BANKSEL
00B4 5100      03205         MOVF    (_loop_from_1_1 + 1), W, B
00B6 2600      03206         ADDWF   r0x02, F
00B8 6AE8      03207         CLRF    WREG
00BA 2200      03208         ADDWFC  r0x03, F
00BC C000 FFE9 03209         MOVFF   r0x02, FSR0L
00C0 C000 FFEA 03210         MOVFF   r0x03, FSR0H
00C4 CFEF F000 03211         MOVFF   INDF0, r0x02
               03212 ;       .line   80; /home/mandon/pinguino32/copie courante/linux/source/user.c  validate[piecetype(p)] (from,WHITE);
00C8 0E07      03213         MOVLW   0x07
00CA 1400      03214         ANDWF   r0x02, W
               03215 ; #     MOVWF   r0x03
               03216 ; #;;multiply lit val:0x03 by variable r0x03 and store in r0x03
               03217 ; #;;Unrolled 8 X 8 multiplication
               03218 ; #;;FIXME: the function does not support result==WREG
               03219 ; #     MOVF    r0x03, W
00CC 0D03      03220         MULLW   0x03
00CE CFF3 F000 03221         MOVFF   PRODL, r0x03
00D2 6A00      03222         CLRF    r0x04
00D4 0E00      03223         MOVLW   LOW(_validate)
00D6 2600      03224         ADDWF   r0x03, F
00D8 0E00      03225         MOVLW   HIGH(_validate)
00DA 2200      03226         ADDWFC  r0x04, F
00DC C000 FFE9 03227         MOVFF   r0x03, FSR0L
00E0 C000 FFEA 03228         MOVFF   r0x04, FSR0H
00E4 CFEE F000 03229         MOVFF   POSTINC0, r0x03
00E8 CFEE F000 03230         MOVFF   POSTINC0, r0x04
00EC CFEF F000 03231         MOVFF   INDF0, r0x05
00F0 6AE5      03232         CLRF    POSTDEC1
00F2 0E80      03233         MOVLW   0x80
00F4 6EE5      03234         MOVWF   POSTDEC1
00F6 0E00      03235         MOVLW   HIGH(_loop_from_1_1)
00F8 6EE5      03236         MOVWF   POSTDEC1
00FA 0E00      03237         MOVLW   LOW(_loop_from_1_1)
00FC 6EE5      03238         MOVWF   POSTDEC1
00FE CFF2 FFE5 03239         MOVFF   INTCON, POSTDEC1
0102 9EF2      03240         BCF     INTCON, 7
0104 0005      03241         PUSH    
0106 0E00      03242         MOVLW   LOW(_01120_DS_)
0108 6EFD      03243         MOVWF   TOSL
010A 0E00      03244         MOVLW   HIGH(_01120_DS_)
010C 6EFE      03245         MOVWF   TOSH
010E 0E00      03246         MOVLW   UPPER(_01120_DS_)
0110 6EFF      03247         MOVWF   TOSU
0112 50E4      03248         MOVF    PREINC1, W
0114 6EF2      03249         MOVWF   INTCON
0116 C000 FFFB 03250         MOVFF   r0x05, PCLATU
011A C000 FFFA 03251         MOVFF   r0x04, PCLATH
011E 5000      03252         MOVF    r0x03, W
0120 6EF9      03253         MOVWF   PCL
0122 03254 _01120_DS_:
0122 0E04      03255         MOVLW   0x04
gpasm-0.13.7 beta               /home/mandon/pinguino32/copie courante/linux/source/main.asm5-29-2011  20:37:50          PAGE 64


LOC  OBJECT CODE     LINE SOURCE TEXT
  VALUE
 
0124 26E1      03256         ADDWF   FSR1L, F
               03257 ;       .line   84; /home/mandon/pinguino32/copie courante/linux/source/user.c  if (is_valid_move(to[0],to[1]) && test_singlemove(from,to,board[from[0]][from[1]]))
Error [113] : Symbol not previously defined (_validmovemask).
0126 0E00      03258         MOVLW   LOW(_validmovemask)
0128 0000      03259         BANKSEL _loop_to_1_1
012A 2500      03260         ADDWF   _loop_to_1_1, W, B
012C 6E00      03261         MOVWF   r0x03
012E 6A00      03262         CLRF    r0x04
Error [113] : Symbol not previously defined (_validmovemask).
0130 0E00      03263         MOVLW   HIGH(_validmovemask)
0132 2200      03264         ADDWFC  r0x04, F
0134 C000 FFE9 03265         MOVFF   r0x03, FSR0L
0138 C000 FFEA 03266         MOVFF   r0x04, FSR0H
013C CFEF F000 03267         MOVFF   INDF0, r0x03
0140 0E01      03268         MOVLW   0x01
0142 6E00      03269         MOVWF   r0x04
0144 6A00      03270         CLRF    r0x05
               03271 ; removed redundant BANKSEL
0146 5100      03272         MOVF    (_loop_to_1_1 + 1), W, B
0148 E000      03273         BZ      _01121_DS_
014A 6CE8      03274         NEGF    WREG
014C 90D8      03275         BCF     STATUS, 0
014E 03276 _01122_DS_:
014E 3600      03277         RLCF    r0x04, F
0150 3600      03278         RLCF    r0x05, F
0152 0F01      03279         ADDLW   0x01
0154 E300      03280         BNC     _01122_DS_
0156 03281 _01121_DS_:
0156 6A00      03282         CLRF    r0x06
0158 5000      03283         MOVF    r0x03, W
015A 1600      03284         ANDWF   r0x04, F
015C 5000      03285         MOVF    r0x06, W
015E 1600      03286         ANDWF   r0x05, F
0160 5000      03287         MOVF    r0x04, W
0162 1000      03288         IORWF   r0x05, W
0164 B4D8      03289         BTFSC   STATUS, 2
0166 D000      03290         BRA     _01050_DS_
               03291 ; ;multiply lit val:0x08 by variable _loop_from_1_1 and store in r0x09
               03292 ; ;Unrolled 8 X 8 multiplication
               03293 ; ;FIXME: the function does not support result==WREG
0168 0000      03294         BANKSEL _loop_from_1_1
016A 5100      03295         MOVF    _loop_from_1_1, W, B
016C 0D08      03296         MULLW   0x08
016E CFF3 F000 03297         MOVFF   PRODL, r0x09
0172 6A00      03298         CLRF    r0x0a
Error [113] : Symbol not previously defined (_board).
0174 0E00      03299         MOVLW   LOW(_board)
0176 2600      03300         ADDWF   r0x09, F
Error [113] : Symbol not previously defined (_board).
0178 0E00      03301         MOVLW   HIGH(_board)
017A 2200      03302         ADDWFC  r0x0a, F
               03303 ; removed redundant BANKSEL
017C 5100      03304         MOVF    (_loop_from_1_1 + 1), W, B
017E 2600      03305         ADDWF   r0x09, F
gpasm-0.13.7 beta               /home/mandon/pinguino32/copie courante/linux/source/main.asm5-29-2011  20:37:50          PAGE 65


LOC  OBJECT CODE     LINE SOURCE TEXT
  VALUE
 
0180 6AE8      03306         CLRF    WREG
0182 2200      03307         ADDWFC  r0x0a, F
0184 C000 FFE9 03308         MOVFF   r0x09, FSR0L
0188 C000 FFEA 03309         MOVFF   r0x0a, FSR0H
018C CFEF F000 03310         MOVFF   INDF0, r0x09
0190 5000      03311         MOVF    r0x09, W
0192 6EE5      03312         MOVWF   POSTDEC1
0194 0E80      03313         MOVLW   0x80
0196 6EE5      03314         MOVWF   POSTDEC1
0198 0E00      03315         MOVLW   HIGH(_loop_to_1_1)
019A 6EE5      03316         MOVWF   POSTDEC1
019C 0E00      03317         MOVLW   LOW(_loop_to_1_1)
019E 6EE5      03318         MOVWF   POSTDEC1
01A0 0E80      03319         MOVLW   0x80
01A2 6EE5      03320         MOVWF   POSTDEC1
01A4 0E00      03321         MOVLW   HIGH(_loop_from_1_1)
01A6 6EE5      03322         MOVWF   POSTDEC1
01A8 0E00      03323         MOVLW   LOW(_loop_from_1_1)
01AA 6EE5      03324         MOVWF   POSTDEC1
01AC EC00 F000 03325         CALL    _test_singlemove
01B0 6E00      03326         MOVWF   r0x03
01B2 0E07      03327         MOVLW   0x07
01B4 26E1      03328         ADDWF   FSR1L, F
01B6 5000      03329         MOVF    r0x03, W
01B8 B4D8      03330         BTFSC   STATUS, 2
01BA D000      03331         BRA     _01050_DS_
               03332 ;       .line   86; /home/mandon/pinguino32/copie courante/linux/source/user.c  draw_move(from,to,p);
01BC 5000      03333         MOVF    r0x02, W
01BE 6EE5      03334         MOVWF   POSTDEC1
01C0 0E80      03335         MOVLW   0x80
01C2 6EE5      03336         MOVWF   POSTDEC1
01C4 0E00      03337         MOVLW   HIGH(_loop_to_1_1)
01C6 6EE5      03338         MOVWF   POSTDEC1
01C8 0E00      03339         MOVLW   LOW(_loop_to_1_1)
01CA 6EE5      03340         MOVWF   POSTDEC1
01CC 0E80      03341         MOVLW   0x80
01CE 6EE5      03342         MOVWF   POSTDEC1
01D0 0E00      03343         MOVLW   HIGH(_loop_from_1_1)
01D2 6EE5      03344         MOVWF   POSTDEC1
01D4 0E00      03345         MOVLW   LOW(_loop_from_1_1)
01D6 6EE5      03346         MOVWF   POSTDEC1
01D8 EC00 F000 03347         CALL    _draw_move
01DC 0E07      03348         MOVLW   0x07
01DE 26E1      03349         ADDWF   FSR1L, F
               03350 ;       .line   87; /home/mandon/pinguino32/copie courante/linux/source/user.c  serial_write("\r\n");
01E0 0E00      03351         MOVLW   UPPER(__str_5)
01E2 6EE5      03352         MOVWF   POSTDEC1
01E4 0E00      03353         MOVLW   HIGH(__str_5)
01E6 6EE5      03354         MOVWF   POSTDEC1
01E8 0E00      03355         MOVLW   LOW(__str_5)
01EA 6EE5      03356         MOVWF   POSTDEC1
01EC EC00 F000 03357         CALL    _serial_write
01F0 0E03      03358         MOVLW   0x03
01F2 26E1      03359         ADDWF   FSR1L, F
gpasm-0.13.7 beta               /home/mandon/pinguino32/copie courante/linux/source/main.asm5-29-2011  20:37:50          PAGE 66


LOC  OBJECT CODE     LINE SOURCE TEXT
  VALUE
 
               03360 ;       .line   88; /home/mandon/pinguino32/copie courante/linux/source/user.c  serial_write("Vous jouez : ");
01F4 0E00      03361         MOVLW   UPPER(__str_10)
01F6 6EE5      03362         MOVWF   POSTDEC1
01F8 0E00      03363         MOVLW   HIGH(__str_10)
01FA 6EE5      03364         MOVWF   POSTDEC1
01FC 0E00      03365         MOVLW   LOW(__str_10)
01FE 6EE5      03366         MOVWF   POSTDEC1
0200 EC00 F000 03367         CALL    _serial_write
0204 0E03      03368         MOVLW   0x03
0206 26E1      03369         ADDWF   FSR1L, F
               03370 ;       .line   89; /home/mandon/pinguino32/copie courante/linux/source/user.c  serial_putchar(from[1]+'a');
0208 0E61      03371         MOVLW   0x61
020A 0000      03372         BANKSEL (_loop_from_1_1 + 1)
020C 2500      03373         ADDWF   (_loop_from_1_1 + 1), W, B
               03374 ; #     MOVWF   r0x03
               03375 ; #     MOVF    r0x03, W
020E 6EE5      03376         MOVWF   POSTDEC1
0210 EC00 F000 03377         CALL    _serial_putchar
0214 2AE1      03378         INCF    FSR1L, F
               03379 ;       .line   90; /home/mandon/pinguino32/copie courante/linux/source/user.c  serial_putchar(from[0]+'1');
0216 0E31      03380         MOVLW   0x31
0218 0000      03381         BANKSEL _loop_from_1_1
021A 2500      03382         ADDWF   _loop_from_1_1, W, B
               03383 ; #     MOVWF   r0x03
               03384 ; #     MOVF    r0x03, W
021C 6EE5      03385         MOVWF   POSTDEC1
021E EC00 F000 03386         CALL    _serial_putchar
0222 2AE1      03387         INCF    FSR1L, F
               03388 ;       .line   91; /home/mandon/pinguino32/copie courante/linux/source/user.c  serial_write(" -> ");
0224 0E00      03389         MOVLW   UPPER(__str_11)
0226 6EE5      03390         MOVWF   POSTDEC1
0228 0E00      03391         MOVLW   HIGH(__str_11)
022A 6EE5      03392         MOVWF   POSTDEC1
022C 0E00      03393         MOVLW   LOW(__str_11)
022E 6EE5      03394         MOVWF   POSTDEC1
0230 EC00 F000 03395         CALL    _serial_write
0234 0E03      03396         MOVLW   0x03
0236 26E1      03397         ADDWF   FSR1L, F
               03398 ;       .line   92; /home/mandon/pinguino32/copie courante/linux/source/user.c  serial_putchar(to[1]+'a');
0238 0E61      03399         MOVLW   0x61
023A 0000      03400         BANKSEL (_loop_to_1_1 + 1)
023C 2500      03401         ADDWF   (_loop_to_1_1 + 1), W, B
               03402 ; #     MOVWF   r0x03
               03403 ; #     MOVF    r0x03, W
023E 6EE5      03404         MOVWF   POSTDEC1
0240 EC00 F000 03405         CALL    _serial_putchar
0244 2AE1      03406         INCF    FSR1L, F
               03407 ;       .line   93; /home/mandon/pinguino32/copie courante/linux/source/user.c  serial_putchar(to[0]+'1');
0246 0E31      03408         MOVLW   0x31
0248 0000      03409         BANKSEL _loop_to_1_1
024A 2500      03410         ADDWF   _loop_to_1_1, W, B
               03411 ; #     MOVWF   r0x03
               03412 ; #     MOVF    r0x03, W
024C 6EE5      03413         MOVWF   POSTDEC1
gpasm-0.13.7 beta               /home/mandon/pinguino32/copie courante/linux/source/main.asm5-29-2011  20:37:50          PAGE 67


LOC  OBJECT CODE     LINE SOURCE TEXT
  VALUE
 
024E EC00 F000 03414         CALL    _serial_putchar
0252 2AE1      03415         INCF    FSR1L, F
               03416 ;       .line   94; /home/mandon/pinguino32/copie courante/linux/source/user.c  serial_write("\r\n");
0254 0E00      03417         MOVLW   UPPER(__str_5)
0256 6EE5      03418         MOVWF   POSTDEC1
0258 0E00      03419         MOVLW   HIGH(__str_5)
025A 6EE5      03420         MOVWF   POSTDEC1
025C 0E00      03421         MOVLW   LOW(__str_5)
025E 6EE5      03422         MOVWF   POSTDEC1
0260 EC00 F000 03423         CALL    _serial_write
0264 0E03      03424         MOVLW   0x03
0266 26E1      03425         ADDWF   FSR1L, F
0268 0000      03426         BANKSEL _movecount
               03427 ;       .line   95; /home/mandon/pinguino32/copie courante/linux/source/user.c  movecount++;
026A 2B00      03428         INCF    _movecount, F, B
026C E300      03429         BNC     _11491_DS_
               03430 ; removed redundant BANKSEL
026E 2B00      03431         INCF    (_movecount + 1), F, B
0270 03432 _11491_DS_:
0270 D000      03433         BRA     _01101_DS_
0272 03434 _01050_DS_:
               03435 ;       .line   99; /home/mandon/pinguino32/copie courante/linux/source/user.c  serial_write("\r\nIllegal move from this piece\r\n");
0272 0E00      03436         MOVLW   UPPER(__str_12)
0274 6EE5      03437         MOVWF   POSTDEC1
0276 0E00      03438         MOVLW   HIGH(__str_12)
0278 6EE5      03439         MOVWF   POSTDEC1
027A 0E00      03440         MOVLW   LOW(__str_12)
027C 6EE5      03441         MOVWF   POSTDEC1
027E EC00 F000 03442         CALL    _serial_write
0282 0E03      03443         MOVLW   0x03
0284 26E1      03444         ADDWF   FSR1L, F
0286 03445 _01101_DS_:
               03446 ;       .line   104; /home/mandon/pinguino32/copie courante/linux/source/user.c for (i = 0; i < 8;++i)
0286 6A00      03447         CLRF    r0x03
0288 03448 _01075_DS_:
0288 0E08      03449         MOVLW   0x08
028A 5C00      03450         SUBWF   r0x03, W
028C B0D8      03451         BTFSC   STATUS, 0
028E D000      03452         BRA     _01087_DS_
               03453 ;       .line   106; /home/mandon/pinguino32/copie courante/linux/source/user.c validmovemask[i] = 0;
Error [113] : Symbol not previously defined (_validmovemask).
0290 0E00      03454         MOVLW   LOW(_validmovemask)
0292 2400      03455         ADDWF   r0x03, W
0294 6E00      03456         MOVWF   r0x04
0296 6A00      03457         CLRF    r0x05
Error [113] : Symbol not previously defined (_validmovemask).
0298 0E00      03458         MOVLW   HIGH(_validmovemask)
029A 2200      03459         ADDWFC  r0x05, F
029C C000 FFE9 03460         MOVFF   r0x04, FSR0L
02A0 C000 FFEA 03461         MOVFF   r0x05, FSR0H
02A4 6AEF      03462         CLRF    INDF0
               03463 ;       .line   107; /home/mandon/pinguino32/copie courante/linux/source/user.c capturemask[i] = 0;
Error [113] : Symbol not previously defined (_capturemask).
02A6 0E00      03464         MOVLW   LOW(_capturemask)
gpasm-0.13.7 beta               /home/mandon/pinguino32/copie courante/linux/source/main.asm5-29-2011  20:37:50          PAGE 68


LOC  OBJECT CODE     LINE SOURCE TEXT
  VALUE
 
02A8 2400      03465         ADDWF   r0x03, W
02AA 6E00      03466         MOVWF   r0x04
02AC 6A00      03467         CLRF    r0x05
Error [113] : Symbol not previously defined (_capturemask).
02AE 0E00      03468         MOVLW   HIGH(_capturemask)
02B0 2200      03469         ADDWFC  r0x05, F
02B2 C000 FFE9 03470         MOVFF   r0x04, FSR0L
02B6 C000 FFEA 03471         MOVFF   r0x05, FSR0H
02BA 6AEF      03472         CLRF    INDF0
               03473 ;       .line   104; /home/mandon/pinguino32/copie courante/linux/source/user.c for (i = 0; i < 8;++i)
02BC 2A00      03474         INCF    r0x03, F
02BE D000      03475         BRA     _01075_DS_
02C0 03476 _01073_DS_:
               03477 ;       .line   112; /home/mandon/pinguino32/copie courante/linux/source/user.c else if ((movecount+1)%2 == 1)
02C0 5000      03478         MOVF    r0x00, W
02C2 0A01      03479         XORLW   0x01
02C4 E100      03480         BNZ     _01124_DS_
02C6 5000      03481         MOVF    r0x01, W
02C8 E000      03482         BZ      _01125_DS_
02CA 03483 _01124_DS_:
02CA D000      03484         BRA     _01070_DS_
02CC 03485 _01125_DS_:
               03486 ;       .line   114; /home/mandon/pinguino32/copie courante/linux/source/user.c bestfrom = bestto = NO_MOVE;
02CC 6800      03487         SETF    r0x00
02CE 6800      03488         SETF    r0x01
02D0 0000      03489         BANKSEL _piecerate
               03490 ;       .line   115; /home/mandon/pinguino32/copie courante/linux/source/user.c rate = piecerate = 0;
02D2 6B00      03491         CLRF    _piecerate, B
02D4 0000      03492         BANKSEL _rate
02D6 6B00      03493         CLRF    _rate, B
               03494 ;       .line   116; /home/mandon/pinguino32/copie courante/linux/source/user.c serial_write("I'm thinking ...");
02D8 0E00      03495         MOVLW   UPPER(__str_13)
02DA 6EE5      03496         MOVWF   POSTDEC1
02DC 0E00      03497         MOVLW   HIGH(__str_13)
02DE 6EE5      03498         MOVWF   POSTDEC1
02E0 0E00      03499         MOVLW   LOW(__str_13)
02E2 6EE5      03500         MOVWF   POSTDEC1
02E4 EC00 F000 03501         CALL    _serial_write
02E8 0E03      03502         MOVLW   0x03
02EA 26E1      03503         ADDWF   FSR1L, F
               03504 ;       .line   118; /home/mandon/pinguino32/copie courante/linux/source/user.c for (i = 0; i < 8;++i)
02EC 6A00      03505         CLRF    r0x03
02EE 6A00      03506         CLRF    r0x04
02F0 03507 _01083_DS_:
02F0 0E08      03508         MOVLW   0x08
02F2 5C00      03509         SUBWF   r0x03, W
02F4 B0D8      03510         BTFSC   STATUS, 0
02F6 D000      03511         BRA     _01086_DS_
               03512 ;       .line   120; /home/mandon/pinguino32/copie courante/linux/source/user.c for (j = 0;j < 8;++j)
Error [113] : Symbol not previously defined (_board).
02F8 0E00      03513         MOVLW   LOW(_board)
02FA 2400      03514         ADDWF   r0x04, W
02FC 6E00      03515         MOVWF   r0x05
02FE 6A00      03516         CLRF    r0x06
gpasm-0.13.7 beta               /home/mandon/pinguino32/copie courante/linux/source/main.asm5-29-2011  20:37:50          PAGE 69


LOC  OBJECT CODE     LINE SOURCE TEXT
  VALUE
 
Error [113] : Symbol not previously defined (_board).
0300 0E00      03517         MOVLW   HIGH(_board)
0302 2200      03518         ADDWFC  r0x06, F
0304 6A00      03519         CLRF    r0x07
0306 03520 _01079_DS_:
0306 0E08      03521         MOVLW   0x08
0308 5C00      03522         SUBWF   r0x07, W
030A B0D8      03523         BTFSC   STATUS, 0
030C D000      03524         BRA     _01085_DS_
               03525 ;       .line   122; /home/mandon/pinguino32/copie courante/linux/source/user.c if (board[i][j] & 0x08)
030E 5000      03526         MOVF    r0x07, W
0310 2400      03527         ADDWF   r0x05, W
0312 6E00      03528         MOVWF   r0x08
0314 6AE8      03529         CLRF    WREG
0316 2000      03530         ADDWFC  r0x06, W
0318 6E00      03531         MOVWF   r0x09
031A C000 FFE9 03532         MOVFF   r0x08, FSR0L
031E C000 FFEA 03533         MOVFF   r0x09, FSR0H
0322 CFEF F000 03534         MOVFF   INDF0, r0x08
0326 A600      03535         BTFSS   r0x08, 3
0328 D000      03536         BRA     _01059_DS_
               03537 ;       .line   124; /home/mandon/pinguino32/copie courante/linux/source/user.c cpufrom[0] = i;
032A 5000      03538         MOVF    r0x03, W
032C 0000      03539         BANKSEL _loop_cpufrom_1_1
032E 6F00      03540         MOVWF   _loop_cpufrom_1_1, B
               03541 ;       .line   125; /home/mandon/pinguino32/copie courante/linux/source/user.c cpufrom[1] = j;
0330 5000      03542         MOVF    r0x07, W
               03543 ; removed redundant BANKSEL
0332 6F00      03544         MOVWF   (_loop_cpufrom_1_1 + 1), B
               03545 ;       .line   126; /home/mandon/pinguino32/copie courante/linux/source/user.c p = board[i][j];
0334 C000 F000 03546         MOVFF   r0x08, r0x02
               03547 ;       .line   127; /home/mandon/pinguino32/copie courante/linux/source/user.c validate[piecetype(p)](cpufrom,BLACK);
0338 0E07      03548         MOVLW   0x07
033A 1400      03549         ANDWF   r0x02, W
               03550 ; #     MOVWF   r0x08
               03551 ; #;;multiply lit val:0x03 by variable r0x08 and store in r0x08
               03552 ; #;;Unrolled 8 X 8 multiplication
               03553 ; #;;FIXME: the function does not support result==WREG
               03554 ; #     MOVF    r0x08, W
033C 0D03      03555         MULLW   0x03
033E CFF3 F000 03556         MOVFF   PRODL, r0x08
0342 6A00      03557         CLRF    r0x09
0344 0E00      03558         MOVLW   LOW(_validate)
0346 2600      03559         ADDWF   r0x08, F
0348 0E00      03560         MOVLW   HIGH(_validate)
034A 2200      03561         ADDWFC  r0x09, F
034C C000 FFE9 03562         MOVFF   r0x08, FSR0L
0350 C000 FFEA 03563         MOVFF   r0x09, FSR0H
0354 CFEE F000 03564         MOVFF   POSTINC0, r0x08
0358 CFEE F000 03565         MOVFF   POSTINC0, r0x09
035C CFEF F000 03566         MOVFF   INDF0, r0x0a
0360 0E08      03567         MOVLW   0x08
0362 6EE5      03568         MOVWF   POSTDEC1
0364 0E80      03569         MOVLW   0x80
gpasm-0.13.7 beta               /home/mandon/pinguino32/copie courante/linux/source/main.asm5-29-2011  20:37:50          PAGE 70


LOC  OBJECT CODE     LINE SOURCE TEXT
  VALUE
 
0366 6EE5      03570         MOVWF   POSTDEC1
0368 0E00      03571         MOVLW   HIGH(_loop_cpufrom_1_1)
036A 6EE5      03572         MOVWF   POSTDEC1
036C 0E00      03573         MOVLW   LOW(_loop_cpufrom_1_1)
036E 6EE5      03574         MOVWF   POSTDEC1
0370 CFF2 FFE5 03575         MOVFF   INTCON, POSTDEC1
0374 9EF2      03576         BCF     INTCON, 7
0376 0005      03577         PUSH    
0378 0E00      03578         MOVLW   LOW(_01130_DS_)
037A 6EFD      03579         MOVWF   TOSL
037C 0E00      03580         MOVLW   HIGH(_01130_DS_)
037E 6EFE      03581         MOVWF   TOSH
0380 0E00      03582         MOVLW   UPPER(_01130_DS_)
0382 6EFF      03583         MOVWF   TOSU
0384 50E4      03584         MOVF    PREINC1, W
0386 6EF2      03585         MOVWF   INTCON
0388 C000 FFFB 03586         MOVFF   r0x0a, PCLATU
038C C000 FFFA 03587         MOVFF   r0x09, PCLATH
0390 5000      03588         MOVF    r0x08, W
0392 6EF9      03589         MOVWF   PCL
0394 03590 _01130_DS_:
0394 0E04      03591         MOVLW   0x04
0396 26E1      03592         ADDWF   FSR1L, F
               03593 ;       .line   130; /home/mandon/pinguino32/copie courante/linux/source/user.c moveto   = getbestpiecemove(cpufrom);
0398 0E80      03594         MOVLW   0x80
               03595 ; #     MOVWF   r0x0a
               03596 ; #     MOVF    r0x0a, W
039A 6EE5      03597         MOVWF   POSTDEC1
039C 0E00      03598         MOVLW   HIGH(_loop_cpufrom_1_1)
039E 6EE5      03599         MOVWF   POSTDEC1
03A0 0E00      03600         MOVLW   LOW(_loop_cpufrom_1_1)
03A2 6EE5      03601         MOVWF   POSTDEC1
03A4 EC00 F000 03602         CALL    _getbestpiecemove
03A8 6E00      03603         MOVWF   r0x08
03AA 0E03      03604         MOVLW   0x03
03AC 26E1      03605         ADDWF   FSR1L, F
               03606 ; ;multiply lit val:0x08 by variable _loop_cpufrom_1_1 and store in r0x09
               03607 ; ;Unrolled 8 X 8 multiplication
               03608 ; ;FIXME: the function does not support result==WREG
03AE 0000      03609         BANKSEL _loop_cpufrom_1_1
               03610 ;       .line   131; /home/mandon/pinguino32/copie courante/linux/source/user.c movefrom = getindex(cpufrom[0],cpufrom[1]); 
03B0 5100      03611         MOVF    _loop_cpufrom_1_1, W, B
03B2 0D08      03612         MULLW   0x08
03B4 CFF3 F000 03613         MOVFF   PRODL, r0x09
               03614 ; removed redundant BANKSEL
03B8 5100      03615         MOVF    (_loop_cpufrom_1_1 + 1), W, B
03BA 2600      03616         ADDWF   r0x09, F
               03617 ; ;multiply lit val:0x08 by variable _loop_cpufrom_1_1 and store in r0x0a
               03618 ; ;Unrolled 8 X 8 multiplication
               03619 ; ;FIXME: the function does not support result==WREG
               03620 ; removed redundant BANKSEL
               03621 ;       .line   134; /home/mandon/pinguino32/copie courante/linux/source/user.c if (((board[cpufrom[0]][cpufrom[1]]&0x07) == lastmove) && (movetype < 3))
03BC 5100      03622         MOVF    _loop_cpufrom_1_1, W, B
03BE 0D08      03623         MULLW   0x08
gpasm-0.13.7 beta               /home/mandon/pinguino32/copie courante/linux/source/main.asm5-29-2011  20:37:50          PAGE 71


LOC  OBJECT CODE     LINE SOURCE TEXT
  VALUE
 
03C0 CFF3 F000 03624         MOVFF   PRODL, r0x0a
03C4 6A00      03625         CLRF    r0x0b
Error [113] : Symbol not previously defined (_board).
03C6 0E00      03626         MOVLW   LOW(_board)
03C8 2600      03627         ADDWF   r0x0a, F
Error [113] : Symbol not previously defined (_board).
03CA 0E00      03628         MOVLW   HIGH(_board)
03CC 2200      03629         ADDWFC  r0x0b, F
               03630 ; removed redundant BANKSEL
03CE 5100      03631         MOVF    (_loop_cpufrom_1_1 + 1), W, B
03D0 2600      03632         ADDWF   r0x0a, F
03D2 6AE8      03633         CLRF    WREG
03D4 2200      03634         ADDWFC  r0x0b, F
03D6 C000 FFE9 03635         MOVFF   r0x0a, FSR0L
03DA C000 FFEA 03636         MOVFF   r0x0b, FSR0H
03DE CFEF F000 03637         MOVFF   INDF0, r0x0a
03E2 0E07      03638         MOVLW   0x07
03E4 1600      03639         ANDWF   r0x0a, F
03E6 5000      03640         MOVF    r0x0a, W
03E8 0000      03641         BANKSEL _lastmove
03EA 1900      03642         XORWF   _lastmove, W, B
03EC E100      03643         BNZ     _01054_DS_
03EE 0E03      03644         MOVLW   0x03
03F0 0000      03645         BANKSEL _movetype
03F2 5D00      03646         SUBWF   _movetype, W, B
03F4 E200      03647         BC      _01054_DS_
               03648 ;       .line   135; /home/mandon/pinguino32/copie courante/linux/source/user.c piecerate -= 3;
03F6 0EFD      03649         MOVLW   0xfd
03F8 0000      03650         BANKSEL _piecerate
03FA 2700      03651         ADDWF   _piecerate, F, B
03FC 03652 _01054_DS_:
03FC 0000      03653         BANKSEL _piecerate
               03654 ;       .line   137; /home/mandon/pinguino32/copie courante/linux/source/user.c if (piecerate > rate)
03FE 5100      03655         MOVF    _piecerate, W, B
0400 0000      03656         BANKSEL _rate
0402 5D00      03657         SUBWF   _rate, W, B
0404 E200      03658         BC      _01059_DS_
               03659 ;       .line   139; /home/mandon/pinguino32/copie courante/linux/source/user.c rate     = piecerate;
0406 C000 F000 03660         MOVFF   _piecerate, _rate
               03661 ;       .line   140; /home/mandon/pinguino32/copie courante/linux/source/user.c bestfrom = movefrom;
040A C000 F000 03662         MOVFF   r0x09, r0x01
               03663 ;       .line   141; /home/mandon/pinguino32/copie courante/linux/source/user.c bestto   = moveto;
040E C000 F000 03664         MOVFF   r0x08, r0x00
0412 03665 _01059_DS_:
0412 0000      03666         BANKSEL _movetype
               03667 ;       .line   146; /home/mandon/pinguino32/copie courante/linux/source/user.c movetype = NO_MOVE;  
0414 6900      03668         SETF    _movetype, B
               03669 ;       .line   120; /home/mandon/pinguino32/copie courante/linux/source/user.c for (j = 0;j < 8;++j)
0416 2A00      03670         INCF    r0x07, F
0418 D000      03671         BRA     _01079_DS_
041A 03672 _01085_DS_:
               03673 ;       .line   118; /home/mandon/pinguino32/copie courante/linux/source/user.c for (i = 0; i < 8;++i)
041A 0E08      03674         MOVLW   0x08
041C 2600      03675         ADDWF   r0x04, F
gpasm-0.13.7 beta               /home/mandon/pinguino32/copie courante/linux/source/main.asm5-29-2011  20:37:50          PAGE 72


LOC  OBJECT CODE     LINE SOURCE TEXT
  VALUE
 
041E 2A00      03676         INCF    r0x03, F
0420 D000      03677         BRA     _01083_DS_
0422 03678 _01086_DS_:
0422 0000      03679         BANKSEL _rate
               03680 ;       .line   150; /home/mandon/pinguino32/copie courante/linux/source/user.c if (rate != 0) 
0424 5100      03681         MOVF    _rate, W, B
0426 B4D8      03682         BTFSC   STATUS, 2
0428 D000      03683         BRA     _01064_DS_
               03684 ;       .line   152; /home/mandon/pinguino32/copie courante/linux/source/user.c getcoord (cpufrom[0],cpufrom[1],bestfrom);   
042A 3800      03685         SWAPF   r0x01, W
042C 44E8      03686         RLNCF   WREG, W
042E 0B1F      03687         ANDLW   0x1f
               03688 ; #     MOVWF   r0x03
               03689 ; #     MOVF    r0x03, W
0430 6E00      03690         MOVWF   r0x03
0432 0000      03691         BANKSEL _loop_cpufrom_1_1
0434 6F00      03692         MOVWF   _loop_cpufrom_1_1, B
0436 0E07      03693         MOVLW   0x07
0438 1600      03694         ANDWF   r0x01, F
043A 5000      03695         MOVF    r0x01, W
               03696 ; removed redundant BANKSEL
043C 6F00      03697         MOVWF   (_loop_cpufrom_1_1 + 1), B
               03698 ;       .line   153; /home/mandon/pinguino32/copie courante/linux/source/user.c getcoord (cputo[0],cputo[1],bestto);   
043E 3800      03699         SWAPF   r0x00, W
0440 44E8      03700         RLNCF   WREG, W
0442 0B1F      03701         ANDLW   0x1f
               03702 ; #     MOVWF   r0x04
               03703 ; #     MOVF    r0x04, W
0444 0000      03704         BANKSEL _loop_cputo_1_1
0446 6F00      03705         MOVWF   _loop_cputo_1_1, B
0448 0E07      03706         MOVLW   0x07
044A 1600      03707         ANDWF   r0x00, F
044C 5000      03708         MOVF    r0x00, W
               03709 ; removed redundant BANKSEL
044E 6F00      03710         MOVWF   (_loop_cputo_1_1 + 1), B
               03711 ; ;multiply lit val:0x08 by variable r0x03 and store in r0x03
               03712 ; ;Unrolled 8 X 8 multiplication
               03713 ; ;FIXME: the function does not support result==WREG
               03714 ;       .line   154; /home/mandon/pinguino32/copie courante/linux/source/user.c p = board[(cpufrom[0])][(cpufrom[1])];
0450 5000      03715         MOVF    r0x03, W
0452 0D08      03716         MULLW   0x08
0454 CFF3 F000 03717         MOVFF   PRODL, r0x03
0458 6A00      03718         CLRF    r0x00
Error [113] : Symbol not previously defined (_board).
045A 0E00      03719         MOVLW   LOW(_board)
045C 2600      03720         ADDWF   r0x03, F
Error [113] : Symbol not previously defined (_board).
045E 0E00      03721         MOVLW   HIGH(_board)
0460 2200      03722         ADDWFC  r0x00, F
0462 6A00      03723         CLRF    r0x04
0464 5000      03724         MOVF    r0x03, W
0466 2600      03725         ADDWF   r0x01, F
0468 5000      03726         MOVF    r0x00, W
046A 2200      03727         ADDWFC  r0x04, F
gpasm-0.13.7 beta               /home/mandon/pinguino32/copie courante/linux/source/main.asm5-29-2011  20:37:50          PAGE 73


LOC  OBJECT CODE     LINE SOURCE TEXT
  VALUE
 
046C C000 FFE9 03728         MOVFF   r0x01, FSR0L
0470 C000 FFEA 03729         MOVFF   r0x04, FSR0H
0474 CFEF F000 03730         MOVFF   INDF0, r0x02
               03731 ;       .line   155; /home/mandon/pinguino32/copie courante/linux/source/user.c draw_move(cpufrom,cputo,p);
0478 5000      03732         MOVF    r0x02, W
047A 6EE5      03733         MOVWF   POSTDEC1
047C 0E80      03734         MOVLW   0x80
047E 6EE5      03735         MOVWF   POSTDEC1
0480 0E00      03736         MOVLW   HIGH(_loop_cputo_1_1)
0482 6EE5      03737         MOVWF   POSTDEC1
0484 0E00      03738         MOVLW   LOW(_loop_cputo_1_1)
0486 6EE5      03739         MOVWF   POSTDEC1
0488 0E80      03740         MOVLW   0x80
048A 6EE5      03741         MOVWF   POSTDEC1
048C 0E00      03742         MOVLW   HIGH(_loop_cpufrom_1_1)
048E 6EE5      03743         MOVWF   POSTDEC1
0490 0E00      03744         MOVLW   LOW(_loop_cpufrom_1_1)
0492 6EE5      03745         MOVWF   POSTDEC1
0494 EC00 F000 03746         CALL    _draw_move
0498 0E07      03747         MOVLW   0x07
049A 26E1      03748         ADDWF   FSR1L, F
               03749 ;       .line   156; /home/mandon/pinguino32/copie courante/linux/source/user.c lastmove = (((p&0x07) != PAWN) && ((p&0x07) != KING)) ? p&0x07 : 0;
049C 1400      03750         ANDWF   r0x02, W
049E 6E00      03751         MOVWF   r0x00
04A0 6A00      03752         CLRF    r0x01
04A2 5000      03753         MOVF    r0x00, W
04A4 0A01      03754         XORLW   0x01
04A6 E100      03755         BNZ     _01140_DS_
04A8 2A00      03756         INCF    r0x01, F
04AA 03757 _01140_DS_:
04AA 5000      03758         MOVF    r0x01, W
04AC 80D8      03759         BSF     STATUS, 0
04AE 66E8      03760         TSTFSZ  WREG
04B0 90D8      03761         BCF     STATUS, 0
04B2 6A00      03762         CLRF    r0x01
04B4 3600      03763         RLCF    r0x01, F
04B6 5000      03764         MOVF    r0x01, W
04B8 E000      03765         BZ      _01091_DS_
04BA 6A00      03766         CLRF    r0x01
04BC 5000      03767         MOVF    r0x00, W
04BE 0A06      03768         XORLW   0x06
04C0 E100      03769         BNZ     _01142_DS_
04C2 2A00      03770         INCF    r0x01, F
04C4 03771 _01142_DS_:
04C4 5000      03772         MOVF    r0x01, W
04C6 80D8      03773         BSF     STATUS, 0
04C8 66E8      03774         TSTFSZ  WREG
04CA 90D8      03775         BCF     STATUS, 0
04CC 6A00      03776         CLRF    r0x01
04CE 3600      03777         RLCF    r0x01, F
04D0 5000      03778         MOVF    r0x01, W
04D2 E100      03779         BNZ     _01092_DS_
04D4 03780 _01091_DS_:
04D4 6A00      03781         CLRF    r0x01
gpasm-0.13.7 beta               /home/mandon/pinguino32/copie courante/linux/source/main.asm5-29-2011  20:37:50          PAGE 74


LOC  OBJECT CODE     LINE SOURCE TEXT
  VALUE
 
04D6 D000      03782         BRA     _01093_DS_
04D8 03783 _01092_DS_:
04D8 0E01      03784         MOVLW   0x01
04DA 6E00      03785         MOVWF   r0x01
04DC 03786 _01093_DS_:
04DC 5000      03787         MOVF    r0x01, W
04DE E100      03788         BNZ     _01090_DS_
04E0 6A00      03789         CLRF    r0x00
04E2 03790 _01090_DS_:
04E2 C000 F000 03791         MOVFF   r0x00, _lastmove
               03792 ;       .line   157; /home/mandon/pinguino32/copie courante/linux/source/user.c serial_write("\r\n");
04E6 0E00      03793         MOVLW   UPPER(__str_5)
04E8 6EE5      03794         MOVWF   POSTDEC1
04EA 0E00      03795         MOVLW   HIGH(__str_5)
04EC 6EE5      03796         MOVWF   POSTDEC1
04EE 0E00      03797         MOVLW   LOW(__str_5)
04F0 6EE5      03798         MOVWF   POSTDEC1
04F2 EC00 F000 03799         CALL    _serial_write
04F6 0E03      03800         MOVLW   0x03
04F8 26E1      03801         ADDWF   FSR1L, F
               03802 ;       .line   158; /home/mandon/pinguino32/copie courante/linux/source/user.c serial_write("Je joue : ");
04FA 0E00      03803         MOVLW   UPPER(__str_14)
04FC 6EE5      03804         MOVWF   POSTDEC1
04FE 0E00      03805         MOVLW   HIGH(__str_14)
0500 6EE5      03806         MOVWF   POSTDEC1
0502 0E00      03807         MOVLW   LOW(__str_14)
0504 6EE5      03808         MOVWF   POSTDEC1
0506 EC00 F000 03809         CALL    _serial_write
050A 0E03      03810         MOVLW   0x03
050C 26E1      03811         ADDWF   FSR1L, F
               03812 ;       .line   159; /home/mandon/pinguino32/copie courante/linux/source/user.c serial_putchar(cpufrom[1]+'a');
050E 0E61      03813         MOVLW   0x61
0510 0000      03814         BANKSEL (_loop_cpufrom_1_1 + 1)
0512 2500      03815         ADDWF   (_loop_cpufrom_1_1 + 1), W, B
               03816 ; #     MOVWF   r0x00
               03817 ; #     MOVF    r0x00, W
0514 6EE5      03818         MOVWF   POSTDEC1
0516 EC00 F000 03819         CALL    _serial_putchar
051A 2AE1      03820         INCF    FSR1L, F
               03821 ;       .line   160; /home/mandon/pinguino32/copie courante/linux/source/user.c serial_putchar(cpufrom[0]+'1');
051C 0E31      03822         MOVLW   0x31
051E 0000      03823         BANKSEL _loop_cpufrom_1_1
0520 2500      03824         ADDWF   _loop_cpufrom_1_1, W, B
               03825 ; #     MOVWF   r0x00
               03826 ; #     MOVF    r0x00, W
0522 6EE5      03827         MOVWF   POSTDEC1
0524 EC00 F000 03828         CALL    _serial_putchar
0528 2AE1      03829         INCF    FSR1L, F
               03830 ;       .line   161; /home/mandon/pinguino32/copie courante/linux/source/user.c serial_write(" -> ");
052A 0E00      03831         MOVLW   UPPER(__str_11)
052C 6EE5      03832         MOVWF   POSTDEC1
052E 0E00      03833         MOVLW   HIGH(__str_11)
0530 6EE5      03834         MOVWF   POSTDEC1
0532 0E00      03835         MOVLW   LOW(__str_11)
gpasm-0.13.7 beta               /home/mandon/pinguino32/copie courante/linux/source/main.asm5-29-2011  20:37:50          PAGE 75


LOC  OBJECT CODE     LINE SOURCE TEXT
  VALUE
 
0534 6EE5      03836         MOVWF   POSTDEC1
0536 EC00 F000 03837         CALL    _serial_write
053A 0E03      03838         MOVLW   0x03
053C 26E1      03839         ADDWF   FSR1L, F
               03840 ;       .line   162; /home/mandon/pinguino32/copie courante/linux/source/user.c serial_putchar(cputo[1]+'a');
053E 0E61      03841         MOVLW   0x61
0540 0000      03842         BANKSEL (_loop_cputo_1_1 + 1)
0542 2500      03843         ADDWF   (_loop_cputo_1_1 + 1), W, B
               03844 ; #     MOVWF   r0x00
               03845 ; #     MOVF    r0x00, W
0544 6EE5      03846         MOVWF   POSTDEC1
0546 EC00 F000 03847         CALL    _serial_putchar
054A 2AE1      03848         INCF    FSR1L, F
               03849 ;       .line   163; /home/mandon/pinguino32/copie courante/linux/source/user.c serial_putchar(cputo[0]+'1');
054C 0E31      03850         MOVLW   0x31
054E 0000      03851         BANKSEL _loop_cputo_1_1
0550 2500      03852         ADDWF   _loop_cputo_1_1, W, B
               03853 ; #     MOVWF   r0x00
               03854 ; #     MOVF    r0x00, W
0552 6EE5      03855         MOVWF   POSTDEC1
0554 EC00 F000 03856         CALL    _serial_putchar
0558 2AE1      03857         INCF    FSR1L, F
               03858 ;       .line   164; /home/mandon/pinguino32/copie courante/linux/source/user.c serial_write("\r\n");
055A 0E00      03859         MOVLW   UPPER(__str_5)
055C 6EE5      03860         MOVWF   POSTDEC1
055E 0E00      03861         MOVLW   HIGH(__str_5)
0560 6EE5      03862         MOVWF   POSTDEC1
0562 0E00      03863         MOVLW   LOW(__str_5)
0564 6EE5      03864         MOVWF   POSTDEC1
0566 EC00 F000 03865         CALL    _serial_write
056A 0E03      03866         MOVLW   0x03
056C 26E1      03867         ADDWF   FSR1L, F
056E 0000      03868         BANKSEL _movecount
               03869 ;       .line   165; /home/mandon/pinguino32/copie courante/linux/source/user.c movecount++;
0570 2B00      03870         INCF    _movecount, F, B
0572 E300      03871         BNC     _21492_DS_
               03872 ; removed redundant BANKSEL
0574 2B00      03873         INCF    (_movecount + 1), F, B
0576 03874 _21492_DS_:
0576 D000      03875         BRA     _01087_DS_
0578 03876 _01064_DS_:
               03877 ;       .line   170; /home/mandon/pinguino32/copie courante/linux/source/user.c serial_write("Pinguino lost - You win!\r\n");
0578 0E00      03878         MOVLW   UPPER(__str_15)
057A 6EE5      03879         MOVWF   POSTDEC1
057C 0E00      03880         MOVLW   HIGH(__str_15)
057E 6EE5      03881         MOVWF   POSTDEC1
0580 0E00      03882         MOVLW   LOW(__str_15)
0582 6EE5      03883         MOVWF   POSTDEC1
0584 EC00 F000 03884         CALL    _serial_write
0588 0000      03885         BANKSEL _movecount
               03886 ;       .line   171; /home/mandon/pinguino32/copie courante/linux/source/user.c movecount++;   
058A 2B00      03887         INCF    _movecount, F, B
058C E300      03888         BNC     _31493_DS_
               03889 ; removed redundant BANKSEL
gpasm-0.13.7 beta               /home/mandon/pinguino32/copie courante/linux/source/main.asm5-29-2011  20:37:50          PAGE 76


LOC  OBJECT CODE     LINE SOURCE TEXT
  VALUE
 
058E 2B00      03890         INCF    (_movecount + 1), F, B
0590 03891 _31493_DS_:
0590 03892 _01061_DS_:
               03893 ;       .line   172; /home/mandon/pinguino32/copie courante/linux/source/user.c while(1);//break;
0590 D000      03894         BRA     _01061_DS_
0592 03895 _01070_DS_:
               03896 ;       .line   178; /home/mandon/pinguino32/copie courante/linux/source/user.c serial_write("Well done my friend!\r\n");
0592 0E00      03897         MOVLW   UPPER(__str_16)
0594 6EE5      03898         MOVWF   POSTDEC1
0596 0E00      03899         MOVLW   HIGH(__str_16)
0598 6EE5      03900         MOVWF   POSTDEC1
059A 0E00      03901         MOVLW   LOW(__str_16)
059C 6EE5      03902         MOVWF   POSTDEC1
059E EC00 F000 03903         CALL    _serial_write
05A2 03904 _01067_DS_:
               03905 ;       .line   179; /home/mandon/pinguino32/copie courante/linux/source/user.c while(1);//break;
05A2 D000      03906         BRA     _01067_DS_
05A4 03907 _01087_DS_:
05A4 CFE4 F000 03908         MOVFF   PREINC1, r0x0b
05A8 CFE4 F000 03909         MOVFF   PREINC1, r0x0a
05AC CFE4 F000 03910         MOVFF   PREINC1, r0x09
05B0 CFE4 F000 03911         MOVFF   PREINC1, r0x08
05B4 CFE4 F000 03912         MOVFF   PREINC1, r0x07
05B8 CFE4 F000 03913         MOVFF   PREINC1, r0x06
05BC CFE4 F000 03914         MOVFF   PREINC1, r0x05
05C0 CFE4 F000 03915         MOVFF   PREINC1, r0x04
05C4 CFE4 F000 03916         MOVFF   PREINC1, r0x03
05C8 CFE4 F000 03917         MOVFF   PREINC1, r0x02
05CC CFE4 F000 03918         MOVFF   PREINC1, r0x01
05D0 CFE4 F000 03919         MOVFF   PREINC1, r0x00
05D4 0012      03920         RETURN  
               03921 
               03922 ; ; Starting pCode block
               03923 S_main__setup   code
0000 03924 _setup:
               03925 ;       .line   40; /home/mandon/pinguino32/copie courante/linux/source/user.c  serial_begin(9600);             // 9600,n,8,1 reception en IT
0000 6AE5      03926         CLRF    POSTDEC1
0002 6AE5      03927         CLRF    POSTDEC1
0004 0E25      03928         MOVLW   0x25
0006 6EE5      03929         MOVWF   POSTDEC1
0008 0E80      03930         MOVLW   0x80
000A 6EE5      03931         MOVWF   POSTDEC1
000C EC00 F000 03932         CALL    _serial_begin
0010 0E04      03933         MOVLW   0x04
0012 26E1      03934         ADDWF   FSR1L, F
               03935 ;       .line   41; /home/mandon/pinguino32/copie courante/linux/source/user.c  movecount   = 1;
0014 0E01      03936         MOVLW   0x01
0016 0000      03937         BANKSEL _movecount
0018 6F00      03938         MOVWF   _movecount, B
               03939 ; removed redundant BANKSEL
001A 6B00      03940         CLRF    (_movecount + 1), B
Error [113] : Symbol not previously defined (_kingcapture).
001C 0100      03941         BANKSEL _kingcapture
               03942 ;       .line   42; /home/mandon/pinguino32/copie courante/linux/source/user.c  kingcapture = FALSE;
gpasm-0.13.7 beta               /home/mandon/pinguino32/copie courante/linux/source/main.asm5-29-2011  20:37:50          PAGE 77


LOC  OBJECT CODE     LINE SOURCE TEXT
  VALUE
 
Error [113] : Symbol not previously defined (_kingcapture).
Error [113] : Symbol not previously defined (_kingcapture).
001E 6B00      03943         CLRF    _kingcapture, B
               03944 ;       .line   43; /home/mandon/pinguino32/copie courante/linux/source/user.c  movetype = NO_MOVE;      
0020 0EFF      03945         MOVLW   0xff
0022 0000      03946         BANKSEL _movetype
0024 6900      03947         SETF    _movetype, B
               03948 ;       .line   44; /home/mandon/pinguino32/copie courante/linux/source/user.c  init_board();
0026 EC00 F000 03949         CALL    _init_board
               03950 ;       .line   45; /home/mandon/pinguino32/copie courante/linux/source/user.c  serial_write("\r\n");
002A 0E00      03951         MOVLW   UPPER(__str_5)
002C 6EE5      03952         MOVWF   POSTDEC1
002E 0E00      03953         MOVLW   HIGH(__str_5)
0030 6EE5      03954         MOVWF   POSTDEC1
0032 0E00      03955         MOVLW   LOW(__str_5)
0034 6EE5      03956         MOVWF   POSTDEC1
0036 EC00 F000 03957         CALL    _serial_write
003A 0E03      03958         MOVLW   0x03
003C 26E1      03959         ADDWF   FSR1L, F
               03960 ;       .line   46; /home/mandon/pinguino32/copie courante/linux/source/user.c  serial_write("\r\n");
003E 0E00      03961         MOVLW   UPPER(__str_5)
0040 6EE5      03962         MOVWF   POSTDEC1
0042 0E00      03963         MOVLW   HIGH(__str_5)
0044 6EE5      03964         MOVWF   POSTDEC1
0046 0E00      03965         MOVLW   LOW(__str_5)
0048 6EE5      03966         MOVWF   POSTDEC1
004A EC00 F000 03967         CALL    _serial_write
004E 0E03      03968         MOVLW   0x03
0050 26E1      03969         ADDWF   FSR1L, F
               03970 ;       .line   47; /home/mandon/pinguino32/copie courante/linux/source/user.c  serial_write("---------------------------------\r\n");
0052 0E00      03971         MOVLW   UPPER(__str_6)
0054 6EE5      03972         MOVWF   POSTDEC1
0056 0E00      03973         MOVLW   HIGH(__str_6)
0058 6EE5      03974         MOVWF   POSTDEC1
005A 0E00      03975         MOVLW   LOW(__str_6)
005C 6EE5      03976         MOVWF   POSTDEC1
005E EC00 F000 03977         CALL    _serial_write
0062 0E03      03978         MOVLW   0x03
0064 26E1      03979         ADDWF   FSR1L, F
               03980 ;       .line   48; /home/mandon/pinguino32/copie courante/linux/source/user.c  serial_write("- PLAY CHESS WITH YOUR PINGUINO -\r\n");
0066 0E00      03981         MOVLW   UPPER(__str_7)
0068 6EE5      03982         MOVWF   POSTDEC1
006A 0E00      03983         MOVLW   HIGH(__str_7)
006C 6EE5      03984         MOVWF   POSTDEC1
006E 0E00      03985         MOVLW   LOW(__str_7)
0070 6EE5      03986         MOVWF   POSTDEC1
0072 EC00 F000 03987         CALL    _serial_write
0076 0E03      03988         MOVLW   0x03
0078 26E1      03989         ADDWF   FSR1L, F
               03990 ;       .line   49; /home/mandon/pinguino32/copie courante/linux/source/user.c  serial_write("- input example : e2e4          -\r\n");
007A 0E00      03991         MOVLW   UPPER(__str_8)
007C 6EE5      03992         MOVWF   POSTDEC1
007E 0E00      03993         MOVLW   HIGH(__str_8)
0080 6EE5      03994         MOVWF   POSTDEC1
gpasm-0.13.7 beta               /home/mandon/pinguino32/copie courante/linux/source/main.asm5-29-2011  20:37:50          PAGE 78


LOC  OBJECT CODE     LINE SOURCE TEXT
  VALUE
 
0082 0E00      03995         MOVLW   LOW(__str_8)
0084 6EE5      03996         MOVWF   POSTDEC1
0086 EC00 F000 03997         CALL    _serial_write
008A 0E03      03998         MOVLW   0x03
008C 26E1      03999         ADDWF   FSR1L, F
               04000 ;       .line   50; /home/mandon/pinguino32/copie courante/linux/source/user.c  serial_write("---------------------------------\r\n");
008E 0E00      04001         MOVLW   UPPER(__str_6)
0090 6EE5      04002         MOVWF   POSTDEC1
0092 0E00      04003         MOVLW   HIGH(__str_6)
0094 6EE5      04004         MOVWF   POSTDEC1
0096 0E00      04005         MOVLW   LOW(__str_6)
0098 6EE5      04006         MOVWF   POSTDEC1
009A EC00 F000 04007         CALL    _serial_write
009E 0E03      04008         MOVLW   0x03
00A0 26E1      04009         ADDWF   FSR1L, F
00A2 0012      04010         RETURN  
               04011 
               04012 ; ; Starting pCode block
               04013 S_main__epapout_init    code
0000 04014 _epapout_init:
               04015 ;       .line   41; /home/mandon/pinguino32/copie courante/linux/source/main.c  void epapout_init() { return; }
0000 0012      04016         RETURN  
               04017 
               04018 ; ; Starting pCode block
               04019 S_main__epapin_init     code
0000 04020 _epapin_init:
               04021 ;       .line   40; /home/mandon/pinguino32/copie courante/linux/source/main.c  void epapin_init() { return; }
0000 0012      04022         RETURN  
               04023 
               04024 ; ; Starting pCode block
               04025 S_main__epap_out        code
0000 04026 _epap_out:
               04027 ;       .line   39; /home/mandon/pinguino32/copie courante/linux/source/main.c  void epap_out() { return; }
0000 0012      04028         RETURN  
               04029 
               04030 ; ; Starting pCode block
               04031 S_main__epap_in code
0000 04032 _epap_in:
               04033 ;       .line   38; /home/mandon/pinguino32/copie courante/linux/source/main.c  void epap_in() { return; }
0000 0012      04034         RETURN  
               04035 
               04036 ; ; Starting pCode block
               04037 S_main__serial_write    code
0000 04038 _serial_write:
               04039 ;       .line   180; /home/mandon/pinguino32/copie courante/linux/tools/bin/../share/sdcc/include/pic16/uart18f2550.c   void serial_write(char *fmt,...)
0000 CFD9 FFE5 04040         MOVFF   FSR2L, POSTDEC1
0004 CFE1 FFD9 04041         MOVFF   FSR1L, FSR2L
0008 0E08      04042         MOVLW   0x08
000A 5EE1      04043         SUBWF   FSR1L, F
000C A0D8      04044         BTFSS   STATUS, 0
000E 06E2      04045         DECF    FSR1H, F
0010 C000 FFE5 04046         MOVFF   r0x00, POSTDEC1
0014 C000 FFE5 04047         MOVFF   r0x01, POSTDEC1
0018 C000 FFE5 04048         MOVFF   r0x02, POSTDEC1
gpasm-0.13.7 beta               /home/mandon/pinguino32/copie courante/linux/source/main.asm5-29-2011  20:37:50          PAGE 79


LOC  OBJECT CODE     LINE SOURCE TEXT
  VALUE
 
001C C000 FFE5 04049         MOVFF   r0x03, POSTDEC1
               04050 ;       .line   186; /home/mandon/pinguino32/copie courante/linux/tools/bin/../share/sdcc/include/pic16/uart18f2550.c   va_start(ap,fmt);
0020 0E02      04051         MOVLW   0x02
0022 24D9      04052         ADDWF   FSR2L, W
0024 6E00      04053         MOVWF   r0x00
0026 0E00      04054         MOVLW   0x00
0028 20DA      04055         ADDWFC  FSR2H, W
002A 6E00      04056         MOVWF   r0x01
002C 0E03      04057         MOVLW   0x03
002E 2600      04058         ADDWF   r0x00, F
0030 B0D8      04059         BTFSC   STATUS, 0
0032 2A00      04060         INCF    r0x01, F
               04061 ; #     MOVF    r0x01, W
               04062 ; #     MOVWF   r0x01
               04063 ; #     MOVF    r0x01, W
               04064 ; #     MOVF    r0x00, W
               04065 ; #     MOVF    r0x00, W
               04066 ; #     MOVWF   r0x00
               04067 ;       .line   187; /home/mandon/pinguino32/copie courante/linux/tools/bin/../share/sdcc/include/pic16/uart18f2550.c   s=va_start(ap,fmt);
0034 0E80      04068         MOVLW   0x80
               04069 ;       .line   188; /home/mandon/pinguino32/copie courante/linux/tools/bin/../share/sdcc/include/pic16/uart18f2550.c   switch (*s)
0036 C000 FFE9 04070         MOVFF   r0x00, FSR0L
003A C000 FFF3 04071         MOVFF   r0x01, PRODL
003E EC00 F000 04072         CALL    __gptrget1
               04073 ; #     MOVWF   r0x00
               04074 ; #     MOVF    r0x00, W
0042 6E00      04075         MOVWF   r0x00
0044 0A01      04076         XORLW   0x01
0046 E100      04077         BNZ     _01005_DS_
0048 D000      04078         BRA     _00992_DS_
004A 04079 _01005_DS_:
004A 5000      04080         MOVF    r0x00, W
004C 0A02      04081         XORLW   0x02
004E E100      04082         BNZ     _01007_DS_
0050 D000      04083         BRA     _00994_DS_
0052 04084 _01007_DS_:
0052 5000      04085         MOVF    r0x00, W
0054 0A08      04086         XORLW   0x08
0056 E100      04087         BNZ     _01009_DS_
0058 D000      04088         BRA     _00993_DS_
005A 04089 _01009_DS_:
005A 5000      04090         MOVF    r0x00, W
005C 0A0A      04091         XORLW   0x0a
005E E000      04092         BZ      _00990_DS_
0060 5000      04093         MOVF    r0x00, W
0062 0A10      04094         XORLW   0x10
0064 E000      04095         BZ      _00991_DS_
0066 D000      04096         BRA     _00995_DS_
0068 04097 _00990_DS_:
               04098 ;       .line   190; /home/mandon/pinguino32/copie courante/linux/tools/bin/../share/sdcc/include/pic16/uart18f2550.c   case DEC:       serial_printf("%d",(int)fmt);
0068 C000 FFE5 04099         MOVFF   r0x04, POSTDEC1
006C C000 FFE5 04100         MOVFF   r0x05, POSTDEC1
0070 C000 FFE5 04101         MOVFF   r0x06, POSTDEC1
0074 0E02      04102         MOVLW   0x02
gpasm-0.13.7 beta               /home/mandon/pinguino32/copie courante/linux/source/main.asm5-29-2011  20:37:50          PAGE 80


LOC  OBJECT CODE     LINE SOURCE TEXT
  VALUE
 
0076 CFDB F000 04103         MOVFF   PLUSW2, r0x04
007A 0E03      04104         MOVLW   0x03
007C CFDB F000 04105         MOVFF   PLUSW2, r0x05
0080 0E04      04106         MOVLW   0x04
0082 CFDB F000 04107         MOVFF   PLUSW2, r0x06
0086 5000      04108         MOVF    r0x04, W
0088 6E00      04109         MOVWF   r0x00
008A 5000      04110         MOVF    r0x05, W
008C CFE4 F000 04111         MOVFF   PREINC1, r0x06
0090 CFE4 F000 04112         MOVFF   PREINC1, r0x05
0094 CFE4 F000 04113         MOVFF   PREINC1, r0x04
0098 6EE5      04114         MOVWF   POSTDEC1
009A 5000      04115         MOVF    r0x00, W
009C 6EE5      04116         MOVWF   POSTDEC1
009E 0E00      04117         MOVLW   UPPER(__str_3)
00A0 6EE5      04118         MOVWF   POSTDEC1
00A2 0E00      04119         MOVLW   HIGH(__str_3)
00A4 6EE5      04120         MOVWF   POSTDEC1
00A6 0E00      04121         MOVLW   LOW(__str_3)
00A8 6EE5      04122         MOVWF   POSTDEC1
00AA EC00 F000 04123         CALL    _serial_printf
00AE 0E05      04124         MOVLW   0x05
00B0 26E1      04125         ADDWF   FSR1L, F
               04126 ;       .line   191; /home/mandon/pinguino32/copie courante/linux/tools/bin/../share/sdcc/include/pic16/uart18f2550.c   break;
00B2 D000      04127         BRA     _00997_DS_
00B4 04128 _00991_DS_:
               04129 ;       .line   192; /home/mandon/pinguino32/copie courante/linux/tools/bin/../share/sdcc/include/pic16/uart18f2550.c   case HEX:               serial_printf("%x",(int)fmt);
00B4 C000 FFE5 04130         MOVFF   r0x04, POSTDEC1
00B8 C000 FFE5 04131         MOVFF   r0x05, POSTDEC1
00BC C000 FFE5 04132         MOVFF   r0x06, POSTDEC1
00C0 0E02      04133         MOVLW   0x02
00C2 CFDB F000 04134         MOVFF   PLUSW2, r0x04
00C6 0E03      04135         MOVLW   0x03
00C8 CFDB F000 04136         MOVFF   PLUSW2, r0x05
00CC 0E04      04137         MOVLW   0x04
00CE CFDB F000 04138         MOVFF   PLUSW2, r0x06
00D2 5000      04139         MOVF    r0x04, W
00D4 6E00      04140         MOVWF   r0x00
00D6 5000      04141         MOVF    r0x05, W
00D8 CFE4 F000 04142         MOVFF   PREINC1, r0x06
00DC CFE4 F000 04143         MOVFF   PREINC1, r0x05
00E0 CFE4 F000 04144         MOVFF   PREINC1, r0x04
00E4 6EE5      04145         MOVWF   POSTDEC1
00E6 5000      04146         MOVF    r0x00, W
00E8 6EE5      04147         MOVWF   POSTDEC1
00EA 0E00      04148         MOVLW   UPPER(__str_4)
00EC 6EE5      04149         MOVWF   POSTDEC1
00EE 0E00      04150         MOVLW   HIGH(__str_4)
00F0 6EE5      04151         MOVWF   POSTDEC1
00F2 0E00      04152         MOVLW   LOW(__str_4)
00F4 6EE5      04153         MOVWF   POSTDEC1
00F6 EC00 F000 04154         CALL    _serial_printf
00FA 0E05      04155         MOVLW   0x05
00FC 26E1      04156         ADDWF   FSR1L, F
gpasm-0.13.7 beta               /home/mandon/pinguino32/copie courante/linux/source/main.asm5-29-2011  20:37:50          PAGE 81


LOC  OBJECT CODE     LINE SOURCE TEXT
  VALUE
 
               04157 ;       .line   193; /home/mandon/pinguino32/copie courante/linux/tools/bin/../share/sdcc/include/pic16/uart18f2550.c   break;
00FE D000      04158         BRA     _00997_DS_
0100 04159 _00992_DS_:
               04160 ;       .line   194; /home/mandon/pinguino32/copie courante/linux/tools/bin/../share/sdcc/include/pic16/uart18f2550.c   case BYTE:              serial_printf("%d",(unsigned char)fmt);
0100 C000 FFE5 04161         MOVFF   r0x04, POSTDEC1
0104 C000 FFE5 04162         MOVFF   r0x05, POSTDEC1
0108 C000 FFE5 04163         MOVFF   r0x06, POSTDEC1
010C 0E02      04164         MOVLW   0x02
010E CFDB F000 04165         MOVFF   PLUSW2, r0x04
0112 0E03      04166         MOVLW   0x03
0114 CFDB F000 04167         MOVFF   PLUSW2, r0x05
0118 0E04      04168         MOVLW   0x04
011A CFDB F000 04169         MOVFF   PLUSW2, r0x06
011E 5000      04170         MOVF    r0x04, W
0120 CFE4 F000 04171         MOVFF   PREINC1, r0x06
0124 CFE4 F000 04172         MOVFF   PREINC1, r0x05
0128 CFE4 F000 04173         MOVFF   PREINC1, r0x04
012C 6EE5      04174         MOVWF   POSTDEC1
012E 0E00      04175         MOVLW   UPPER(__str_3)
0130 6EE5      04176         MOVWF   POSTDEC1
0132 0E00      04177         MOVLW   HIGH(__str_3)
0134 6EE5      04178         MOVWF   POSTDEC1
0136 0E00      04179         MOVLW   LOW(__str_3)
0138 6EE5      04180         MOVWF   POSTDEC1
013A EC00 F000 04181         CALL    _serial_printf
013E 0E04      04182         MOVLW   0x04
0140 26E1      04183         ADDWF   FSR1L, F
               04184 ;       .line   195; /home/mandon/pinguino32/copie courante/linux/tools/bin/../share/sdcc/include/pic16/uart18f2550.c   break;
0142 D000      04185         BRA     _00997_DS_
0144 04186 _00993_DS_:
               04187 ;       .line   196; /home/mandon/pinguino32/copie courante/linux/tools/bin/../share/sdcc/include/pic16/uart18f2550.c   case OCTAL:     uitoa((int)fmt,chaine,8);
0144 C000 FFE5 04188         MOVFF   r0x04, POSTDEC1
0148 C000 FFE5 04189         MOVFF   r0x05, POSTDEC1
014C C000 FFE5 04190         MOVFF   r0x06, POSTDEC1
0150 0E02      04191         MOVLW   0x02
0152 CFDB F000 04192         MOVFF   PLUSW2, r0x04
0156 0E03      04193         MOVLW   0x03
0158 CFDB F000 04194         MOVFF   PLUSW2, r0x05
015C 0E04      04195         MOVLW   0x04
015E CFDB F000 04196         MOVFF   PLUSW2, r0x06
0162 5000      04197         MOVF    r0x04, W
0164 6E00      04198         MOVWF   r0x00
0166 5000      04199         MOVF    r0x05, W
0168 6E00      04200         MOVWF   r0x01
016A CFE4 F000 04201         MOVFF   PREINC1, r0x06
016E CFE4 F000 04202         MOVFF   PREINC1, r0x05
0172 CFE4 F000 04203         MOVFF   PREINC1, r0x04
0176 0EF9      04204         MOVLW   0xf9
0178 24D9      04205         ADDWF   FSR2L, W
017A 6E00      04206         MOVWF   r0x02
017C 0EFF      04207         MOVLW   0xff
017E 20DA      04208         ADDWFC  FSR2H, W
0180 6E00      04209         MOVWF   r0x03
0182 0E08      04210         MOVLW   0x08
gpasm-0.13.7 beta               /home/mandon/pinguino32/copie courante/linux/source/main.asm5-29-2011  20:37:50          PAGE 82


LOC  OBJECT CODE     LINE SOURCE TEXT
  VALUE
 
0184 6EE5      04211         MOVWF   POSTDEC1
0186 5000      04212         MOVF    r0x03, W
0188 6EE5      04213         MOVWF   POSTDEC1
018A 5000      04214         MOVF    r0x02, W
018C 6EE5      04215         MOVWF   POSTDEC1
018E 5000      04216         MOVF    r0x01, W
0190 6EE5      04217         MOVWF   POSTDEC1
0192 5000      04218         MOVF    r0x00, W
0194 6EE5      04219         MOVWF   POSTDEC1
0196 EC00 F000 04220         CALL    _uitoa
019A 0E05      04221         MOVLW   0x05
019C 26E1      04222         ADDWF   FSR1L, F
               04223 ;       .line   197; /home/mandon/pinguino32/copie courante/linux/tools/bin/../share/sdcc/include/pic16/uart18f2550.c   serial_printf(chaine);
019E 0EF9      04224         MOVLW   0xf9
01A0 24D9      04225         ADDWF   FSR2L, W
01A2 6E00      04226         MOVWF   r0x00
01A4 0EFF      04227         MOVLW   0xff
01A6 20DA      04228         ADDWFC  FSR2H, W
               04229 ; #     MOVWF   r0x01
               04230 ; #     MOVF    r0x01, W
               04231 ; #     MOVWF   r0x01
               04232 ; #     MOVWF   r0x01
01A8 6E00      04233         MOVWF   r0x01
               04234 ; #     MOVF    r0x00, W
               04235 ; #     MOVWF   r0x00
01AA 0E80      04236         MOVLW   0x80
               04237 ; #     MOVWF   r0x02
               04238 ; #     MOVF    r0x02, W
01AC 6EE5      04239         MOVWF   POSTDEC1
01AE 5000      04240         MOVF    r0x01, W
01B0 6EE5      04241         MOVWF   POSTDEC1
01B2 5000      04242         MOVF    r0x00, W
01B4 6EE5      04243         MOVWF   POSTDEC1
01B6 EC00 F000 04244         CALL    _serial_printf
01BA 0E03      04245         MOVLW   0x03
01BC 26E1      04246         ADDWF   FSR1L, F
               04247 ;       .line   198; /home/mandon/pinguino32/copie courante/linux/tools/bin/../share/sdcc/include/pic16/uart18f2550.c   break;
01BE D000      04248         BRA     _00997_DS_
01C0 04249 _00994_DS_:
               04250 ;       .line   199; /home/mandon/pinguino32/copie courante/linux/tools/bin/../share/sdcc/include/pic16/uart18f2550.c   case BIN:       uitoa((int)fmt,chaine,2);
01C0 C000 FFE5 04251         MOVFF   r0x04, POSTDEC1
01C4 C000 FFE5 04252         MOVFF   r0x05, POSTDEC1
01C8 C000 FFE5 04253         MOVFF   r0x06, POSTDEC1
01CC 0E02      04254         MOVLW   0x02
01CE CFDB F000 04255         MOVFF   PLUSW2, r0x04
01D2 0E03      04256         MOVLW   0x03
01D4 CFDB F000 04257         MOVFF   PLUSW2, r0x05
01D8 0E04      04258         MOVLW   0x04
01DA CFDB F000 04259         MOVFF   PLUSW2, r0x06
01DE 5000      04260         MOVF    r0x04, W
01E0 6E00      04261         MOVWF   r0x00
01E2 5000      04262         MOVF    r0x05, W
01E4 6E00      04263         MOVWF   r0x01
01E6 CFE4 F000 04264         MOVFF   PREINC1, r0x06
gpasm-0.13.7 beta               /home/mandon/pinguino32/copie courante/linux/source/main.asm5-29-2011  20:37:50          PAGE 83


LOC  OBJECT CODE     LINE SOURCE TEXT
  VALUE
 
01EA CFE4 F000 04265         MOVFF   PREINC1, r0x05
01EE CFE4 F000 04266         MOVFF   PREINC1, r0x04
01F2 0EF9      04267         MOVLW   0xf9
01F4 24D9      04268         ADDWF   FSR2L, W
01F6 6E00      04269         MOVWF   r0x02
01F8 0EFF      04270         MOVLW   0xff
01FA 20DA      04271         ADDWFC  FSR2H, W
01FC 6E00      04272         MOVWF   r0x03
01FE 0E02      04273         MOVLW   0x02
0200 6EE5      04274         MOVWF   POSTDEC1
0202 5000      04275         MOVF    r0x03, W
0204 6EE5      04276         MOVWF   POSTDEC1
0206 5000      04277         MOVF    r0x02, W
0208 6EE5      04278         MOVWF   POSTDEC1
020A 5000      04279         MOVF    r0x01, W
020C 6EE5      04280         MOVWF   POSTDEC1
020E 5000      04281         MOVF    r0x00, W
0210 6EE5      04282         MOVWF   POSTDEC1
0212 EC00 F000 04283         CALL    _uitoa
0216 0E05      04284         MOVLW   0x05
0218 26E1      04285         ADDWF   FSR1L, F
               04286 ;       .line   200; /home/mandon/pinguino32/copie courante/linux/tools/bin/../share/sdcc/include/pic16/uart18f2550.c   serial_printf(chaine);
021A 0EF9      04287         MOVLW   0xf9
021C 24D9      04288         ADDWF   FSR2L, W
021E 6E00      04289         MOVWF   r0x00
0220 0EFF      04290         MOVLW   0xff
0222 20DA      04291         ADDWFC  FSR2H, W
               04292 ; #     MOVWF   r0x01
               04293 ; #     MOVF    r0x01, W
               04294 ; #     MOVWF   r0x01
               04295 ; #     MOVWF   r0x01
0224 6E00      04296         MOVWF   r0x01
               04297 ; #     MOVF    r0x00, W
               04298 ; #     MOVWF   r0x00
0226 0E80      04299         MOVLW   0x80
               04300 ; #     MOVWF   r0x02
               04301 ; #     MOVF    r0x02, W
0228 6EE5      04302         MOVWF   POSTDEC1
022A 5000      04303         MOVF    r0x01, W
022C 6EE5      04304         MOVWF   POSTDEC1
022E 5000      04305         MOVF    r0x00, W
0230 6EE5      04306         MOVWF   POSTDEC1
0232 EC00 F000 04307         CALL    _serial_printf
0236 0E03      04308         MOVLW   0x03
0238 26E1      04309         ADDWF   FSR1L, F
               04310 ;       .line   201; /home/mandon/pinguino32/copie courante/linux/tools/bin/../share/sdcc/include/pic16/uart18f2550.c   break;           
023A D000      04311         BRA     _00997_DS_
023C 04312 _00995_DS_:
               04313 ;       .line   202; /home/mandon/pinguino32/copie courante/linux/tools/bin/../share/sdcc/include/pic16/uart18f2550.c   default:        serial_printf(fmt);
023C C000 FFE5 04314         MOVFF   r0x04, POSTDEC1
0240 C000 FFE5 04315         MOVFF   r0x05, POSTDEC1
0244 C000 FFE5 04316         MOVFF   r0x06, POSTDEC1
0248 0E02      04317         MOVLW   0x02
024A CFDB F000 04318         MOVFF   PLUSW2, r0x04
gpasm-0.13.7 beta               /home/mandon/pinguino32/copie courante/linux/source/main.asm5-29-2011  20:37:50          PAGE 84


LOC  OBJECT CODE     LINE SOURCE TEXT
  VALUE
 
024E 0E03      04319         MOVLW   0x03
0250 CFDB F000 04320         MOVFF   PLUSW2, r0x05
0254 0E04      04321         MOVLW   0x04
0256 CFDB F000 04322         MOVFF   PLUSW2, r0x06
025A CFE4 F000 04323         MOVFF   PREINC1, r0x06
025E CFE4 F000 04324         MOVFF   PREINC1, r0x05
0262 CFE4 F000 04325         MOVFF   PREINC1, r0x04
0266 C000 FFE5 04326         MOVFF   r0x04, POSTDEC1
026A C000 FFE5 04327         MOVFF   r0x05, POSTDEC1
026E C000 FFE5 04328         MOVFF   r0x06, POSTDEC1
0272 0E02      04329         MOVLW   0x02
0274 CFDB F000 04330         MOVFF   PLUSW2, r0x04
0278 0E03      04331         MOVLW   0x03
027A CFDB F000 04332         MOVFF   PLUSW2, r0x05
027E 0E04      04333         MOVLW   0x04
0280 CFDB F000 04334         MOVFF   PLUSW2, r0x06
0284 5000      04335         MOVF    r0x06, W
0286 6EE5      04336         MOVWF   POSTDEC1
0288 5000      04337         MOVF    r0x05, W
028A 6EE5      04338         MOVWF   POSTDEC1
028C 5000      04339         MOVF    r0x04, W
028E 6EE5      04340         MOVWF   POSTDEC1
0290 CFE4 F000 04341         MOVFF   PREINC1, r0x06
0294 CFE4 F000 04342         MOVFF   PREINC1, r0x05
0298 CFE4 F000 04343         MOVFF   PREINC1, r0x04
029C EC00 F000 04344         CALL    _serial_printf
02A0 0E03      04345         MOVLW   0x03
02A2 26E1      04346         ADDWF   FSR1L, F
02A4 04347 _00997_DS_:
               04348 ;       .line   205; /home/mandon/pinguino32/copie courante/linux/tools/bin/../share/sdcc/include/pic16/uart18f2550.c   va_end(ap);
02A4 CFE4 F000 04349         MOVFF   PREINC1, r0x03
02A8 CFE4 F000 04350         MOVFF   PREINC1, r0x02
02AC CFE4 F000 04351         MOVFF   PREINC1, r0x01
02B0 CFE4 F000 04352         MOVFF   PREINC1, r0x00
02B4 6EE6      04353         MOVWF   POSTINC1
02B6 0E07      04354         MOVLW   0x07
02B8 26E1      04355         ADDWF   FSR1L, F
02BA B0D8      04356         BTFSC   STATUS, 0
02BC 2AE2      04357         INCF    FSR1H, F
02BE 1EE8      04358         COMF    WREG, F
02C0 50E3      04359         MOVF    PLUSW1, W
02C2 CFE4 FFD9 04360         MOVFF   PREINC1, FSR2L
02C6 0012      04361         RETURN  
               04362 
               04363 ; ; Starting pCode block
               04364 S_main__serial_getstring        code
0000 04365 _serial_getstring:
               04366 ;       .line   159; /home/mandon/pinguino32/copie courante/linux/tools/bin/../share/sdcc/include/pic16/uart18f2550.c   u8 * serial_getstring()
0000 C000 FFE5 04367         MOVFF   r0x00, POSTDEC1
0004 C000 FFE5 04368         MOVFF   r0x01, POSTDEC1
0008 C000 FFE5 04369         MOVFF   r0x02, POSTDEC1
000C C000 FFE5 04370         MOVFF   r0x03, POSTDEC1
               04371 ;       .line   166; /home/mandon/pinguino32/copie courante/linux/tools/bin/../share/sdcc/include/pic16/uart18f2550.c   do {
0010 6A00      04372         CLRF    r0x00
gpasm-0.13.7 beta               /home/mandon/pinguino32/copie courante/linux/source/main.asm5-29-2011  20:37:50          PAGE 85


LOC  OBJECT CODE     LINE SOURCE TEXT
  VALUE
 
0012 04373 _00976_DS_:
               04374 ;       .line   167; /home/mandon/pinguino32/copie courante/linux/tools/bin/../share/sdcc/include/pic16/uart18f2550.c   c = serial_getkey();
0012 EC00 F000 04375         CALL    _serial_getkey
0016 6E00      04376         MOVWF   r0x01
               04377 ;       .line   168; /home/mandon/pinguino32/copie courante/linux/tools/bin/../share/sdcc/include/pic16/uart18f2550.c   serial_printf("%c", c);
0018 C000 F000 04378         MOVFF   r0x01, r0x02
001C 6AE5      04379         CLRF    POSTDEC1
001E 5000      04380         MOVF    r0x02, W
0020 6EE5      04381         MOVWF   POSTDEC1
0022 0E00      04382         MOVLW   UPPER(__str_2)
0024 6EE5      04383         MOVWF   POSTDEC1
0026 0E00      04384         MOVLW   HIGH(__str_2)
0028 6EE5      04385         MOVWF   POSTDEC1
002A 0E00      04386         MOVLW   LOW(__str_2)
002C 6EE5      04387         MOVWF   POSTDEC1
002E EC00 F000 04388         CALL    _serial_printf
0032 0E05      04389         MOVLW   0x05
0034 26E1      04390         ADDWF   FSR1L, F
               04391 ;       .line   169; /home/mandon/pinguino32/copie courante/linux/tools/bin/../share/sdcc/include/pic16/uart18f2550.c   buffer[i++] = c;
0036 C000 F000 04392         MOVFF   r0x00, r0x02
003A 2A00      04393         INCF    r0x00, F
003C 6A00      04394         CLRF    r0x03
003E 0E00      04395         MOVLW   LOW(_serial_getstring_buffer_1_1)
0040 2600      04396         ADDWF   r0x02, F
0042 0E00      04397         MOVLW   HIGH(_serial_getstring_buffer_1_1)
0044 2200      04398         ADDWFC  r0x03, F
0046 C000 FFE9 04399         MOVFF   r0x02, FSR0L
004A C000 FFEA 04400         MOVFF   r0x03, FSR0H
004E C000 FFEF 04401         MOVFF   r0x01, INDF0
               04402 ;       .line   170; /home/mandon/pinguino32/copie courante/linux/tools/bin/../share/sdcc/include/pic16/uart18f2550.c   } while (c != '\r');
0052 5000      04403         MOVF    r0x01, W
0054 0A0D      04404         XORLW   0x0d
0056 E100      04405         BNZ     _00976_DS_
               04406 ;       .line   171; /home/mandon/pinguino32/copie courante/linux/tools/bin/../share/sdcc/include/pic16/uart18f2550.c   buffer[i] = '\0';
0058 6A00      04407         CLRF    r0x01
005A 0E00      04408         MOVLW   LOW(_serial_getstring_buffer_1_1)
005C 2600      04409         ADDWF   r0x00, F
005E 0E00      04410         MOVLW   HIGH(_serial_getstring_buffer_1_1)
0060 2200      04411         ADDWFC  r0x01, F
0062 C000 FFE9 04412         MOVFF   r0x00, FSR0L
0066 C000 FFEA 04413         MOVFF   r0x01, FSR0H
006A 6AEF      04414         CLRF    INDF0
               04415 ;       .line   172; /home/mandon/pinguino32/copie courante/linux/tools/bin/../share/sdcc/include/pic16/uart18f2550.c   return (buffer);
006C 6E00      04416         MOVWF   r0x01
006E 0E80      04417         MOVLW   0x80
0070 6E00      04418         MOVWF   r0x02
0072 C000 FFF4 04419         MOVFF   r0x02, PRODH
0076 C000 FFF3 04420         MOVFF   r0x01, PRODL
007A 0E00      04421         MOVLW   LOW(_serial_getstring_buffer_1_1)
007C CFE4 F000 04422         MOVFF   PREINC1, r0x03
0080 CFE4 F000 04423         MOVFF   PREINC1, r0x02
0084 CFE4 F000 04424         MOVFF   PREINC1, r0x01
0088 CFE4 F000 04425         MOVFF   PREINC1, r0x00
008C 0012      04426         RETURN  
gpasm-0.13.7 beta               /home/mandon/pinguino32/copie courante/linux/source/main.asm5-29-2011  20:37:50          PAGE 86


LOC  OBJECT CODE     LINE SOURCE TEXT
  VALUE
 
               04427 
               04428 ; ; Starting pCode block
               04429 S_main__serial_getkey   code
0000 04430 _serial_getkey:
               04431 ;       .line   145; /home/mandon/pinguino32/copie courante/linux/tools/bin/../share/sdcc/include/pic16/uart18f2550.c   u8 serial_getkey()
0000 C000 FFE5 04432         MOVFF   r0x00, POSTDEC1
0004 04433 _00968_DS_:
               04434 ;       .line   148; /home/mandon/pinguino32/copie courante/linux/tools/bin/../share/sdcc/include/pic16/uart18f2550.c   while (!(serial_available()));
0004 EC00 F000 04435         CALL    _serial_available
0008 6E00      04436         MOVWF   r0x00
000A 5000      04437         MOVF    r0x00, W
000C E000      04438         BZ      _00968_DS_
               04439 ;       .line   149; /home/mandon/pinguino32/copie courante/linux/tools/bin/../share/sdcc/include/pic16/uart18f2550.c   c = serial_read();
000E EC00 F000 04440         CALL    _serial_read
0012 6E00      04441         MOVWF   r0x00
               04442 ;       .line   150; /home/mandon/pinguino32/copie courante/linux/tools/bin/../share/sdcc/include/pic16/uart18f2550.c   serial_flush();
0014 EC00 F000 04443         CALL    _serial_flush
               04444 ;       .line   151; /home/mandon/pinguino32/copie courante/linux/tools/bin/../share/sdcc/include/pic16/uart18f2550.c   return (c);
0018 5000      04445         MOVF    r0x00, W
001A CFE4 F000 04446         MOVFF   PREINC1, r0x00
001E 0012      04447         RETURN  
               04448 
               04449 ; ; Starting pCode block
               04450 S_main__serial_printf   code
0000 04451 _serial_printf:
               04452 ;       .line   131; /home/mandon/pinguino32/copie courante/linux/tools/bin/../share/sdcc/include/pic16/uart18f2550.c   void serial_printf(char *fmt, ...)
0000 CFD9 FFE5 04453         MOVFF   FSR2L, POSTDEC1
0004 CFE1 FFD9 04454         MOVFF   FSR1L, FSR2L
0008 C000 FFE5 04455         MOVFF   r0x00, POSTDEC1
000C C000 FFE5 04456         MOVFF   r0x01, POSTDEC1
               04457 ;       .line   135; /home/mandon/pinguino32/copie courante/linux/tools/bin/../share/sdcc/include/pic16/uart18f2550.c   va_start(args, fmt);
0010 0E02      04458         MOVLW   0x02
0012 24D9      04459         ADDWF   FSR2L, W
0014 6E00      04460         MOVWF   r0x00
0016 0E00      04461         MOVLW   0x00
0018 20DA      04462         ADDWFC  FSR2H, W
001A 6E00      04463         MOVWF   r0x01
001C 0E03      04464         MOVLW   0x03
001E 2600      04465         ADDWF   r0x00, F
0020 B0D8      04466         BTFSC   STATUS, 0
0022 2A00      04467         INCF    r0x01, F
               04468 ; #     MOVF    r0x01, W
               04469 ; #     MOVWF   r0x01
               04470 ; #     MOVF    r0x01, W
               04471 ; #     MOVF    r0x00, W
               04472 ; #     MOVF    r0x00, W
               04473 ; #     MOVWF   r0x00
0024 0E80      04474         MOVLW   0x80
               04475 ; #     MOVWF   r0x02
               04476 ; #     MOVF    r0x02, W
               04477 ;       .line   136; /home/mandon/pinguino32/copie courante/linux/tools/bin/../share/sdcc/include/pic16/uart18f2550.c   pprintf(serial_putchar, fmt, args);
0026 6EE5      04478         MOVWF   POSTDEC1
0028 5000      04479         MOVF    r0x01, W
002A 6EE5      04480         MOVWF   POSTDEC1
gpasm-0.13.7 beta               /home/mandon/pinguino32/copie courante/linux/source/main.asm5-29-2011  20:37:50          PAGE 87


LOC  OBJECT CODE     LINE SOURCE TEXT
  VALUE
 
002C 5000      04481         MOVF    r0x00, W
002E 6EE5      04482         MOVWF   POSTDEC1
0030 0E04      04483         MOVLW   0x04
0032 CFDB FFE5 04484         MOVFF   PLUSW2, POSTDEC1
0036 0E03      04485         MOVLW   0x03
0038 CFDB FFE5 04486         MOVFF   PLUSW2, POSTDEC1
003C 0E02      04487         MOVLW   0x02
003E CFDB FFE5 04488         MOVFF   PLUSW2, POSTDEC1
0042 0E00      04489         MOVLW   UPPER(_serial_putchar)
0044 6EE5      04490         MOVWF   POSTDEC1
0046 0E00      04491         MOVLW   HIGH(_serial_putchar)
0048 6EE5      04492         MOVWF   POSTDEC1
004A 0E00      04493         MOVLW   LOW(_serial_putchar)
004C 6EE5      04494         MOVWF   POSTDEC1
004E EC00 F000 04495         CALL    _pprintf
0052 0E09      04496         MOVLW   0x09
0054 26E1      04497         ADDWF   FSR1L, F
               04498 ;       .line   137; /home/mandon/pinguino32/copie courante/linux/tools/bin/../share/sdcc/include/pic16/uart18f2550.c   va_end(args);
0056 CFE4 F000 04499         MOVFF   PREINC1, r0x01
005A CFE4 F000 04500         MOVFF   PREINC1, r0x00
005E CFE4 FFD9 04501         MOVFF   PREINC1, FSR2L
0062 0012      04502         RETURN  
               04503 
               04504 ; ; Starting pCode block
               04505 S_main__serial_flush    code
0000 04506 _serial_flush:
               04507 ; #     MOVLW   0x01
               04508 ; #     MOVWF   _wpointer, B
               04509 ; #     MOVLW   0x01
               04510 ;       .line   121; /home/mandon/pinguino32/copie courante/linux/tools/bin/../share/sdcc/include/pic16/uart18f2550.c   wpointer=1;
0000 0E01      04511         MOVLW   0x01
0002 0000      04512         BANKSEL _wpointer
               04513 ;       .line   122; /home/mandon/pinguino32/copie courante/linux/tools/bin/../share/sdcc/include/pic16/uart18f2550.c   rpointer=1;
0004 6F00      04514         MOVWF   _wpointer, B
0006 0000      04515         BANKSEL _rpointer
0008 6F00      04516         MOVWF   _rpointer, B
000A 0012      04517         RETURN  
               04518 
               04519 ; ; Starting pCode block
               04520 S_main__serial_read     code
0000 04521 _serial_read:
               04522 ;       .line   105; /home/mandon/pinguino32/copie courante/linux/tools/bin/../share/sdcc/include/pic16/uart18f2550.c   unsigned char serial_read()
0000 C000 FFE5 04523         MOVFF   r0x00, POSTDEC1
0004 C000 FFE5 04524         MOVFF   r0x01, POSTDEC1
0008 C000 FFE5 04525         MOVFF   r0x02, POSTDEC1
               04526 ;       .line   107; /home/mandon/pinguino32/copie courante/linux/tools/bin/../share/sdcc/include/pic16/uart18f2550.c   unsigned char caractere=0;
000C 6A00      04527         CLRF    r0x00
               04528 ;       .line   109; /home/mandon/pinguino32/copie courante/linux/tools/bin/../share/sdcc/include/pic16/uart18f2550.c   if (serial_available())
000E EC00 F000 04529         CALL    _serial_available
0012 6E00      04530         MOVWF   r0x01
0014 5000      04531         MOVF    r0x01, W
0016 E000      04532         BZ      _00947_DS_
               04533 ;       .line   111; /home/mandon/pinguino32/copie courante/linux/tools/bin/../share/sdcc/include/pic16/uart18f2550.c   caractere=rx[rpointer++];
0018 C000 F000 04534         MOVFF   _rpointer, r0x01
gpasm-0.13.7 beta               /home/mandon/pinguino32/copie courante/linux/source/main.asm5-29-2011  20:37:50          PAGE 88


LOC  OBJECT CODE     LINE SOURCE TEXT
  VALUE
 
001C 0000      04535         BANKSEL _rpointer
001E 2B00      04536         INCF    _rpointer, F, B
0020 6A00      04537         CLRF    r0x02
0022 0E00      04538         MOVLW   LOW(_rx)
0024 2600      04539         ADDWF   r0x01, F
0026 0E00      04540         MOVLW   HIGH(_rx)
0028 2200      04541         ADDWFC  r0x02, F
002A C000 FFE9 04542         MOVFF   r0x01, FSR0L
002E C000 FFEA 04543         MOVFF   r0x02, FSR0H
0032 CFEF F000 04544         MOVFF   INDF0, r0x00
               04545 ; removed redundant BANKSEL
               04546 ;       .line   112; /home/mandon/pinguino32/copie courante/linux/tools/bin/../share/sdcc/include/pic16/uart18f2550.c   if (rpointer==RXBUFFERLENGTH)
0036 5100      04547         MOVF    _rpointer, W, B
0038 0A80      04548         XORLW   0x80
003A E100      04549         BNZ     _00947_DS_
               04550 ;       .line   113; /home/mandon/pinguino32/copie courante/linux/tools/bin/../share/sdcc/include/pic16/uart18f2550.c   rpointer=1;
003C 0E01      04551         MOVLW   0x01
003E 0000      04552         BANKSEL _rpointer
0040 6F00      04553         MOVWF   _rpointer, B
0042 04554 _00947_DS_:
               04555 ;       .line   115; /home/mandon/pinguino32/copie courante/linux/tools/bin/../share/sdcc/include/pic16/uart18f2550.c   return(caractere);
0042 5000      04556         MOVF    r0x00, W
0044 CFE4 F000 04557         MOVFF   PREINC1, r0x02
0048 CFE4 F000 04558         MOVFF   PREINC1, r0x01
004C CFE4 F000 04559         MOVFF   PREINC1, r0x00
0050 0012      04560         RETURN  
               04561 
               04562 ; ; Starting pCode block
               04563 S_main__serial_interrupt        code
0000 04564 _serial_interrupt:
               04565 ;       .line   85; /home/mandon/pinguino32/copie courante/linux/tools/bin/../share/sdcc/include/pic16/uart18f2550.c    void serial_interrupt(void)
0000 C000 FFE5 04566         MOVFF   r0x00, POSTDEC1
0004 C000 FFE5 04567         MOVFF   r0x01, POSTDEC1
0008 C000 FFE5 04568         MOVFF   r0x02, POSTDEC1
               04569 ;       .line   90; /home/mandon/pinguino32/copie courante/linux/tools/bin/../share/sdcc/include/pic16/uart18f2550.c    PIR1bits.RCIF=0;                                // clear RX interrupt flag
000C 9A00      04570         BCF     _PIR1bits, 5
               04571 ;       .line   91; /home/mandon/pinguino32/copie courante/linux/tools/bin/../share/sdcc/include/pic16/uart18f2550.c    caractere=RCREG;                                // take received char
000E C000 F000 04572         MOVFF   _RCREG, r0x00
0012 0000      04573         BANKSEL _wpointer
               04574 ;       .line   92; /home/mandon/pinguino32/copie courante/linux/tools/bin/../share/sdcc/include/pic16/uart18f2550.c    if (wpointer!=RXBUFFERLENGTH-1) // if not last place in buffer
0014 5100      04575         MOVF    _wpointer, W, B
0016 0A7F      04576         XORLW   0x7f
0018 E000      04577         BZ      _00923_DS_
001A 04578 _00935_DS_:
001A 0000      04579         BANKSEL _wpointer
               04580 ;       .line   93; /home/mandon/pinguino32/copie courante/linux/tools/bin/../share/sdcc/include/pic16/uart18f2550.c    newwp=wpointer+1;                       // place=place+1
001C 2900      04581         INCF    _wpointer, W, B
001E 6E00      04582         MOVWF   r0x01
0020 D000      04583         BRA     _00924_DS_
0022 04584 _00923_DS_:
               04585 ;       .line   95; /home/mandon/pinguino32/copie courante/linux/tools/bin/../share/sdcc/include/pic16/uart18f2550.c    newwp=1;                                        // else place=1
0022 0E01      04586         MOVLW   0x01
0024 6E00      04587         MOVWF   r0x01
0026 04588 _00924_DS_:
gpasm-0.13.7 beta               /home/mandon/pinguino32/copie courante/linux/source/main.asm5-29-2011  20:37:50          PAGE 89


LOC  OBJECT CODE     LINE SOURCE TEXT
  VALUE
 
0026 0000      04589         BANKSEL _rpointer
               04590 ;       .line   97; /home/mandon/pinguino32/copie courante/linux/tools/bin/../share/sdcc/include/pic16/uart18f2550.c    if (rpointer!=newwp)                    // if read pointer!=write pointer
0028 5100      04591         MOVF    _rpointer, W, B
002A 1800      04592         XORWF   r0x01, W
002C E000      04593         BZ      _00926_DS_
               04594 ;       .line   98; /home/mandon/pinguino32/copie courante/linux/tools/bin/../share/sdcc/include/pic16/uart18f2550.c    rx[wpointer++]=caractere;       // store received char
002E C000 F000 04595         MOVFF   _wpointer, r0x01
0032 0000      04596         BANKSEL _wpointer
0034 2B00      04597         INCF    _wpointer, F, B
0036 6A00      04598         CLRF    r0x02
0038 0E00      04599         MOVLW   LOW(_rx)
003A 2600      04600         ADDWF   r0x01, F
003C 0E00      04601         MOVLW   HIGH(_rx)
003E 2200      04602         ADDWFC  r0x02, F
0040 C000 FFE9 04603         MOVFF   r0x01, FSR0L
0044 C000 FFEA 04604         MOVFF   r0x02, FSR0H
0048 C000 FFEF 04605         MOVFF   r0x00, INDF0
004C 04606 _00926_DS_:
004C 0000      04607         BANKSEL _wpointer
               04608 ;       .line   100; /home/mandon/pinguino32/copie courante/linux/tools/bin/../share/sdcc/include/pic16/uart18f2550.c   if (wpointer==RXBUFFERLENGTH)   // if write pointer=length buffer
004E 5100      04609         MOVF    _wpointer, W, B
0050 0A80      04610         XORLW   0x80
0052 E100      04611         BNZ     _00929_DS_
               04612 ;       .line   101; /home/mandon/pinguino32/copie courante/linux/tools/bin/../share/sdcc/include/pic16/uart18f2550.c   wpointer=1;                                     // write pointer = 1
0054 0E01      04613         MOVLW   0x01
0056 0000      04614         BANKSEL _wpointer
0058 6F00      04615         MOVWF   _wpointer, B
005A 04616 _00929_DS_:
005A CFE4 F000 04617         MOVFF   PREINC1, r0x02
005E CFE4 F000 04618         MOVFF   PREINC1, r0x01
0062 CFE4 F000 04619         MOVFF   PREINC1, r0x00
0066 0012      04620         RETURN  
               04621 
               04622 ; ; Starting pCode block
               04623 S_main__serial_putchar  code
0000 04624 _serial_putchar:
               04625 ;       .line   78; /home/mandon/pinguino32/copie courante/linux/tools/bin/../share/sdcc/include/pic16/uart18f2550.c    void serial_putchar(unsigned char caractere)
0000 CFD9 FFE5 04626         MOVFF   FSR2L, POSTDEC1
0004 CFE1 FFD9 04627         MOVFF   FSR1L, FSR2L
0008 C000 FFE5 04628         MOVFF   r0x00, POSTDEC1
000C 0E02      04629         MOVLW   0x02
000E CFDB F000 04630         MOVFF   PLUSW2, r0x00
0012 04631 _00914_DS_:
               04632 ;       .line   80; /home/mandon/pinguino32/copie courante/linux/tools/bin/../share/sdcc/include/pic16/uart18f2550.c    while (!TXSTAbits.TRMT);
0012 A200      04633         BTFSS   _TXSTAbits, 1
0014 D000      04634         BRA     _00914_DS_
               04635 ;       .line   81; /home/mandon/pinguino32/copie courante/linux/tools/bin/../share/sdcc/include/pic16/uart18f2550.c    TXREG=caractere;                        // yes, send char
0016 C000 F000 04636         MOVFF   r0x00, _TXREG
001A CFE4 F000 04637         MOVFF   PREINC1, r0x00
001E CFE4 FFD9 04638         MOVFF   PREINC1, FSR2L
0022 0012      04639         RETURN  
               04640 
               04641 ; ; Starting pCode block
               04642 S_main__serial_available        code
gpasm-0.13.7 beta               /home/mandon/pinguino32/copie courante/linux/source/main.asm5-29-2011  20:37:50          PAGE 90


LOC  OBJECT CODE     LINE SOURCE TEXT
  VALUE
 
0000 04643 _serial_available:
               04644 ;       .line   72; /home/mandon/pinguino32/copie courante/linux/tools/bin/../share/sdcc/include/pic16/uart18f2550.c    unsigned char serial_available()
0000 C000 FFE5 04645         MOVFF   r0x00, POSTDEC1
               04646 ;       .line   74; /home/mandon/pinguino32/copie courante/linux/tools/bin/../share/sdcc/include/pic16/uart18f2550.c    return(wpointer!=rpointer);
0004 6A00      04647         CLRF    r0x00
0006 0000      04648         BANKSEL _wpointer
0008 5100      04649         MOVF    _wpointer, W, B
000A 0000      04650         BANKSEL _rpointer
000C 1900      04651         XORWF   _rpointer, W, B
000E E100      04652         BNZ     _00909_DS_
0010 2A00      04653         INCF    r0x00, F
0012 04654 _00909_DS_:
0012 5000      04655         MOVF    r0x00, W
0014 80D8      04656         BSF     STATUS, 0
0016 66E8      04657         TSTFSZ  WREG
0018 90D8      04658         BCF     STATUS, 0
001A 6A00      04659         CLRF    r0x00
001C 3600      04660         RLCF    r0x00, F
001E 5000      04661         MOVF    r0x00, W
0020 CFE4 F000 04662         MOVFF   PREINC1, r0x00
0024 0012      04663         RETURN  
               04664 
               04665 ; ; Starting pCode block
               04666 S_main__serial_begin    code
0000 04667 _serial_begin:
               04668 ;       .line   48; /home/mandon/pinguino32/copie courante/linux/tools/bin/../share/sdcc/include/pic16/uart18f2550.c    void serial_begin(unsigned long baudrate)
0000 CFD9 FFE5 04669         MOVFF   FSR2L, POSTDEC1
0004 CFE1 FFD9 04670         MOVFF   FSR1L, FSR2L
0008 C000 FFE5 04671         MOVFF   r0x00, POSTDEC1
000C C000 FFE5 04672         MOVFF   r0x01, POSTDEC1
0010 C000 FFE5 04673         MOVFF   r0x02, POSTDEC1
0014 C000 FFE5 04674         MOVFF   r0x03, POSTDEC1
0018 C000 FFE5 04675         MOVFF   r0x04, POSTDEC1
001C 0E02      04676         MOVLW   0x02
001E CFDB F000 04677         MOVFF   PLUSW2, r0x00
0022 0E03      04678         MOVLW   0x03
0024 CFDB F000 04679         MOVFF   PLUSW2, r0x01
0028 0E04      04680         MOVLW   0x04
002A CFDB F000 04681         MOVFF   PLUSW2, r0x02
002E 0E05      04682         MOVLW   0x05
0030 CFDB F000 04683         MOVFF   PLUSW2, r0x03
               04684 ;       .line   53; /home/mandon/pinguino32/copie courante/linux/tools/bin/../share/sdcc/include/pic16/uart18f2550.c    spbrg=(48000000/(4*baudrate))-1;
0034 5000      04685         MOVF    r0x03, W
0036 6EE5      04686         MOVWF   POSTDEC1
0038 5000      04687         MOVF    r0x02, W
003A 6EE5      04688         MOVWF   POSTDEC1
003C 5000      04689         MOVF    r0x01, W
003E 6EE5      04690         MOVWF   POSTDEC1
0040 5000      04691         MOVF    r0x00, W
0042 6EE5      04692         MOVWF   POSTDEC1
0044 6AE5      04693         CLRF    POSTDEC1
0046 6AE5      04694         CLRF    POSTDEC1
0048 6AE5      04695         CLRF    POSTDEC1
004A 0E04      04696         MOVLW   0x04
gpasm-0.13.7 beta               /home/mandon/pinguino32/copie courante/linux/source/main.asm5-29-2011  20:37:50          PAGE 91


LOC  OBJECT CODE     LINE SOURCE TEXT
  VALUE
 
004C 6EE5      04697         MOVWF   POSTDEC1
004E EC00 F000 04698         CALL    __mullong
0052 6E00      04699         MOVWF   r0x00
0054 CFF3 F000 04700         MOVFF   PRODL, r0x01
0058 CFF4 F000 04701         MOVFF   PRODH, r0x02
005C CFE9 F000 04702         MOVFF   FSR0L, r0x03
0060 0E08      04703         MOVLW   0x08
0062 26E1      04704         ADDWF   FSR1L, F
0064 5000      04705         MOVF    r0x03, W
0066 6EE5      04706         MOVWF   POSTDEC1
0068 5000      04707         MOVF    r0x02, W
006A 6EE5      04708         MOVWF   POSTDEC1
006C 5000      04709         MOVF    r0x01, W
006E 6EE5      04710         MOVWF   POSTDEC1
0070 5000      04711         MOVF    r0x00, W
0072 6EE5      04712         MOVWF   POSTDEC1
0074 0E02      04713         MOVLW   0x02
0076 6EE5      04714         MOVWF   POSTDEC1
0078 0EDC      04715         MOVLW   0xdc
007A 6EE5      04716         MOVWF   POSTDEC1
007C 0E6C      04717         MOVLW   0x6c
007E 6EE5      04718         MOVWF   POSTDEC1
0080 0E00      04719         MOVLW   0x00
0082 6AE5      04720         CLRF    POSTDEC1
0084 EC00 F000 04721         CALL    __divulong
0088 6E00      04722         MOVWF   r0x00
008A CFF3 F000 04723         MOVFF   PRODL, r0x01
008E 0E08      04724         MOVLW   0x08
0090 26E1      04725         ADDWF   FSR1L, F
0092 0EFF      04726         MOVLW   0xff
0094 2600      04727         ADDWF   r0x00, F
0096 2200      04728         ADDWFC  r0x01, F
               04729 ;       .line   54; /home/mandon/pinguino32/copie courante/linux/tools/bin/../share/sdcc/include/pic16/uart18f2550.c    highbyte=spbrg/256;
0098 5000      04730         MOVF    r0x01, W
               04731 ;       .line   55; /home/mandon/pinguino32/copie courante/linux/tools/bin/../share/sdcc/include/pic16/uart18f2550.c    lowbyte=spbrg%256;
009A 6E00      04732         MOVWF   r0x04
               04733 ;       .line   56; /home/mandon/pinguino32/copie courante/linux/tools/bin/../share/sdcc/include/pic16/uart18f2550.c    TXSTAbits.BRGH=1;                               // set BRGH bit
009C 8400      04734         BSF     _TXSTAbits, 2
               04735 ;       .line   57; /home/mandon/pinguino32/copie courante/linux/tools/bin/../share/sdcc/include/pic16/uart18f2550.c    BAUDCONbits.BRG16=1;                                    // set 16 bits SPBRG
009E 8600      04736         BSF     _BAUDCONbits, 3
               04737 ;       .line   58; /home/mandon/pinguino32/copie courante/linux/tools/bin/../share/sdcc/include/pic16/uart18f2550.c    SPBRGH=highbyte;                        // set UART speed SPBRGH
00A0 C000 F000 04738         MOVFF   r0x04, _SPBRGH
               04739 ;       .line   59; /home/mandon/pinguino32/copie courante/linux/tools/bin/../share/sdcc/include/pic16/uart18f2550.c    SPBRG=lowbyte;                                                  // set UART speed SPBRGL
00A4 C000 F000 04740         MOVFF   r0x00, _SPBRG
               04741 ;       .line   60; /home/mandon/pinguino32/copie courante/linux/tools/bin/../share/sdcc/include/pic16/uart18f2550.c    RCSTA=0x90;                             // set RCEN and SPEN
00A8 0E90      04742         MOVLW   0x90
00AA 6E00      04743         MOVWF   _RCSTA
               04744 ;       .line   61; /home/mandon/pinguino32/copie courante/linux/tools/bin/../share/sdcc/include/pic16/uart18f2550.c    BAUDCONbits.RCIDL=1;                    // set receive active
00AC 8C00      04745         BSF     _BAUDCONbits, 6
               04746 ;       .line   62; /home/mandon/pinguino32/copie courante/linux/tools/bin/../share/sdcc/include/pic16/uart18f2550.c    PIE1bits.RCIE=1;                        // enable interrupt on RX
00AE 8A00      04747         BSF     _PIE1bits, 5
               04748 ;       .line   63; /home/mandon/pinguino32/copie courante/linux/tools/bin/../share/sdcc/include/pic16/uart18f2550.c    INTCONbits.PEIE=1;                      // enable peripheral interrupts
00B0 8C00      04749         BSF     _INTCONbits, 6
               04750 ;       .line   64; /home/mandon/pinguino32/copie courante/linux/tools/bin/../share/sdcc/include/pic16/uart18f2550.c    IPR1bits.RCIP=1;                        // define high priority for RX interrupt
gpasm-0.13.7 beta               /home/mandon/pinguino32/copie courante/linux/source/main.asm5-29-2011  20:37:50          PAGE 92


LOC  OBJECT CODE     LINE SOURCE TEXT
  VALUE
 
00B2 8A00      04751         BSF     _IPR1bits, 5
               04752 ; #     MOVLW   0x01
               04753 ; #     MOVWF   _wpointer, B
               04754 ; #     MOVLW   0x01
               04755 ;       .line   65; /home/mandon/pinguino32/copie courante/linux/tools/bin/../share/sdcc/include/pic16/uart18f2550.c    wpointer=1;                             // initialize write pointer
00B4 0E01      04756         MOVLW   0x01
00B6 0000      04757         BANKSEL _wpointer
               04758 ;       .line   66; /home/mandon/pinguino32/copie courante/linux/tools/bin/../share/sdcc/include/pic16/uart18f2550.c    rpointer=1;                             // initialize read pointer
00B8 6F00      04759         MOVWF   _wpointer, B
00BA 0000      04760         BANKSEL _rpointer
00BC 6F00      04761         MOVWF   _rpointer, B
               04762 ;       .line   67; /home/mandon/pinguino32/copie courante/linux/tools/bin/../share/sdcc/include/pic16/uart18f2550.c    TXSTAbits.TXEN=1;                       // enable TX
00BE 8A00      04763         BSF     _TXSTAbits, 5
               04764 ;       .line   68; /home/mandon/pinguino32/copie courante/linux/tools/bin/../share/sdcc/include/pic16/uart18f2550.c    INTCONbits.GIE=1;
00C0 8E00      04765         BSF     _INTCONbits, 7
00C2 CFE4 F000 04766         MOVFF   PREINC1, r0x04
00C6 CFE4 F000 04767         MOVFF   PREINC1, r0x03
00CA CFE4 F000 04768         MOVFF   PREINC1, r0x02
00CE CFE4 F000 04769         MOVFF   PREINC1, r0x01
00D2 CFE4 F000 04770         MOVFF   PREINC1, r0x00
00D6 CFE4 FFD9 04771         MOVFF   PREINC1, FSR2L
00DA 0012      04772         RETURN  
               04773 
               04774 ; ; Starting pCode block
               04775 S_main__psprintf        code
0000 04776 _psprintf:
               04777 ;       .line   249; /home/mandon/pinguino32/copie courante/linux/tools/bin/../share/sdcc/include/pic16/stdio.c int psprintf(char *out, const char *format, va_list args)
0000 CFD9 FFE5 04778         MOVFF   FSR2L, POSTDEC1
0004 CFE1 FFD9 04779         MOVFF   FSR1L, FSR2L
0008 C000 FFE5 04780         MOVFF   r0x00, POSTDEC1
000C C000 FFE5 04781         MOVFF   r0x01, POSTDEC1
0010 C000 FFE5 04782         MOVFF   r0x02, POSTDEC1
0014 C000 FFE5 04783         MOVFF   r0x03, POSTDEC1
0018 C000 FFE5 04784         MOVFF   r0x04, POSTDEC1
001C C000 FFE5 04785         MOVFF   r0x05, POSTDEC1
0020 0E02      04786         MOVLW   0x02
0022 CFDB F000 04787         MOVFF   PLUSW2, _psprintf_out_1_1
0026 0E03      04788         MOVLW   0x03
0028 CFDB F000 04789         MOVFF   PLUSW2, (_psprintf_out_1_1 + 1)
002C 0E04      04790         MOVLW   0x04
002E CFDB F000 04791         MOVFF   PLUSW2, (_psprintf_out_1_1 + 2)
0032 0E05      04792         MOVLW   0x05
0034 CFDB F000 04793         MOVFF   PLUSW2, r0x00
0038 0E06      04794         MOVLW   0x06
003A CFDB F000 04795         MOVFF   PLUSW2, r0x01
003E 0E07      04796         MOVLW   0x07
0040 CFDB F000 04797         MOVFF   PLUSW2, r0x02
0044 0E08      04798         MOVLW   0x08
0046 CFDB F000 04799         MOVFF   PLUSW2, r0x03
004A 0E09      04800         MOVLW   0x09
004C CFDB F000 04801         MOVFF   PLUSW2, r0x04
0050 0E0A      04802         MOVLW   0x0a
0052 CFDB F000 04803         MOVFF   PLUSW2, r0x05
               04804 ;       .line   254; /home/mandon/pinguino32/copie courante/linux/tools/bin/../share/sdcc/include/pic16/stdio.c return pprint(&out, format, args);
gpasm-0.13.7 beta               /home/mandon/pinguino32/copie courante/linux/source/main.asm5-29-2011  20:37:50          PAGE 93


LOC  OBJECT CODE     LINE SOURCE TEXT
  VALUE
 
0056 5000      04805         MOVF    r0x05, W
0058 6EE5      04806         MOVWF   POSTDEC1
005A 5000      04807         MOVF    r0x04, W
005C 6EE5      04808         MOVWF   POSTDEC1
005E 5000      04809         MOVF    r0x03, W
0060 6EE5      04810         MOVWF   POSTDEC1
0062 5000      04811         MOVF    r0x02, W
0064 6EE5      04812         MOVWF   POSTDEC1
0066 5000      04813         MOVF    r0x01, W
0068 6EE5      04814         MOVWF   POSTDEC1
006A 5000      04815         MOVF    r0x00, W
006C 6EE5      04816         MOVWF   POSTDEC1
006E 0E80      04817         MOVLW   0x80
0070 6EE5      04818         MOVWF   POSTDEC1
0072 0E00      04819         MOVLW   HIGH(_psprintf_out_1_1)
0074 6EE5      04820         MOVWF   POSTDEC1
0076 0E00      04821         MOVLW   LOW(_psprintf_out_1_1)
0078 6EE5      04822         MOVWF   POSTDEC1
007A EC00 F000 04823         CALL    _pprint
007E 6E00      04824         MOVWF   r0x00
0080 CFF3 F000 04825         MOVFF   PRODL, r0x01
0084 0E09      04826         MOVLW   0x09
0086 26E1      04827         ADDWF   FSR1L, F
0088 C000 FFF3 04828         MOVFF   r0x01, PRODL
008C 5000      04829         MOVF    r0x00, W
008E CFE4 F000 04830         MOVFF   PREINC1, r0x05
0092 CFE4 F000 04831         MOVFF   PREINC1, r0x04
0096 CFE4 F000 04832         MOVFF   PREINC1, r0x03
009A CFE4 F000 04833         MOVFF   PREINC1, r0x02
009E CFE4 F000 04834         MOVFF   PREINC1, r0x01
00A2 CFE4 F000 04835         MOVFF   PREINC1, r0x00
00A6 CFE4 FFD9 04836         MOVFF   PREINC1, FSR2L
00AA 0012      04837         RETURN  
               04838 
               04839 ; ; Starting pCode block
               04840 S_main__pprintf code
0000 04841 _pprintf:
               04842 ;       .line   239; /home/mandon/pinguino32/copie courante/linux/tools/bin/../share/sdcc/include/pic16/stdio.c int pprintf(stdout func, const char *format, va_list args)
0000 CFD9 FFE5 04843         MOVFF   FSR2L, POSTDEC1
0004 CFE1 FFD9 04844         MOVFF   FSR1L, FSR2L
0008 C000 FFE5 04845         MOVFF   r0x00, POSTDEC1
000C C000 FFE5 04846         MOVFF   r0x01, POSTDEC1
0010 C000 FFE5 04847         MOVFF   r0x02, POSTDEC1
0014 C000 FFE5 04848         MOVFF   r0x03, POSTDEC1
0018 C000 FFE5 04849         MOVFF   r0x04, POSTDEC1
001C C000 FFE5 04850         MOVFF   r0x05, POSTDEC1
0020 0E02      04851         MOVLW   0x02
0022 CFDB F000 04852         MOVFF   PLUSW2, _pputchar
0026 0E03      04853         MOVLW   0x03
0028 CFDB F000 04854         MOVFF   PLUSW2, (_pputchar + 1)
002C 0E04      04855         MOVLW   0x04
002E CFDB F000 04856         MOVFF   PLUSW2, (_pputchar + 2)
0032 0E05      04857         MOVLW   0x05
0034 CFDB F000 04858         MOVFF   PLUSW2, r0x00
gpasm-0.13.7 beta               /home/mandon/pinguino32/copie courante/linux/source/main.asm5-29-2011  20:37:50          PAGE 94


LOC  OBJECT CODE     LINE SOURCE TEXT
  VALUE
 
0038 0E06      04859         MOVLW   0x06
003A CFDB F000 04860         MOVFF   PLUSW2, r0x01
003E 0E07      04861         MOVLW   0x07
0040 CFDB F000 04862         MOVFF   PLUSW2, r0x02
0044 0E08      04863         MOVLW   0x08
0046 CFDB F000 04864         MOVFF   PLUSW2, r0x03
004A 0E09      04865         MOVLW   0x09
004C CFDB F000 04866         MOVFF   PLUSW2, r0x04
0050 0E0A      04867         MOVLW   0x0a
0052 CFDB F000 04868         MOVFF   PLUSW2, r0x05
               04869 ;       .line   245; /home/mandon/pinguino32/copie courante/linux/tools/bin/../share/sdcc/include/pic16/stdio.c return pprint(0, format, args);
0056 5000      04870         MOVF    r0x05, W
0058 6EE5      04871         MOVWF   POSTDEC1
005A 5000      04872         MOVF    r0x04, W
005C 6EE5      04873         MOVWF   POSTDEC1
005E 5000      04874         MOVF    r0x03, W
0060 6EE5      04875         MOVWF   POSTDEC1
0062 5000      04876         MOVF    r0x02, W
0064 6EE5      04877         MOVWF   POSTDEC1
0066 5000      04878         MOVF    r0x01, W
0068 6EE5      04879         MOVWF   POSTDEC1
006A 5000      04880         MOVF    r0x00, W
006C 6EE5      04881         MOVWF   POSTDEC1
006E 0E00      04882         MOVLW   0x00
0070 6AE5      04883         CLRF    POSTDEC1
0072 6AE5      04884         CLRF    POSTDEC1
0074 6AE5      04885         CLRF    POSTDEC1
0076 EC00 F000 04886         CALL    _pprint
007A 6E00      04887         MOVWF   r0x00
007C CFF3 F000 04888         MOVFF   PRODL, r0x01
0080 0E09      04889         MOVLW   0x09
0082 26E1      04890         ADDWF   FSR1L, F
0084 C000 FFF3 04891         MOVFF   r0x01, PRODL
0088 5000      04892         MOVF    r0x00, W
008A CFE4 F000 04893         MOVFF   PREINC1, r0x05
008E CFE4 F000 04894         MOVFF   PREINC1, r0x04
0092 CFE4 F000 04895         MOVFF   PREINC1, r0x03
0096 CFE4 F000 04896         MOVFF   PREINC1, r0x02
009A CFE4 F000 04897         MOVFF   PREINC1, r0x01
009E CFE4 F000 04898         MOVFF   PREINC1, r0x00
00A2 CFE4 FFD9 04899         MOVFF   PREINC1, FSR2L
00A6 0012      04900         RETURN  
               04901 
               04902 ; ; Starting pCode block
               04903 S_main__pprint  code
0000 04904 _pprint:
               04905 ;       .line   142; /home/mandon/pinguino32/copie courante/linux/tools/bin/../share/sdcc/include/pic16/stdio.c static int pprint(char **out, const char *format, va_list args)
0000 CFD9 FFE5 04906         MOVFF   FSR2L, POSTDEC1
0004 CFE1 FFD9 04907         MOVFF   FSR1L, FSR2L
0008 C000 FFE5 04908         MOVFF   r0x00, POSTDEC1
000C C000 FFE5 04909         MOVFF   r0x01, POSTDEC1
0010 C000 FFE5 04910         MOVFF   r0x02, POSTDEC1
0014 C000 FFE5 04911         MOVFF   r0x03, POSTDEC1
0018 C000 FFE5 04912         MOVFF   r0x04, POSTDEC1
gpasm-0.13.7 beta               /home/mandon/pinguino32/copie courante/linux/source/main.asm5-29-2011  20:37:50          PAGE 95


LOC  OBJECT CODE     LINE SOURCE TEXT
  VALUE
 
001C C000 FFE5 04913         MOVFF   r0x05, POSTDEC1
0020 C000 FFE5 04914         MOVFF   r0x06, POSTDEC1
0024 C000 FFE5 04915         MOVFF   r0x07, POSTDEC1
0028 C000 FFE5 04916         MOVFF   r0x08, POSTDEC1
002C C000 FFE5 04917         MOVFF   r0x09, POSTDEC1
0030 C000 FFE5 04918         MOVFF   r0x0a, POSTDEC1
0034 C000 FFE5 04919         MOVFF   r0x0b, POSTDEC1
0038 C000 FFE5 04920         MOVFF   r0x0c, POSTDEC1
003C C000 FFE5 04921         MOVFF   r0x0d, POSTDEC1
0040 C000 FFE5 04922         MOVFF   r0x0e, POSTDEC1
0044 C000 FFE5 04923         MOVFF   r0x0f, POSTDEC1
0048 C000 FFE5 04924         MOVFF   r0x10, POSTDEC1
004C C000 FFE5 04925         MOVFF   r0x11, POSTDEC1
0050 C000 FFE5 04926         MOVFF   r0x12, POSTDEC1
0054 C000 FFE5 04927         MOVFF   r0x13, POSTDEC1
0058 0E02      04928         MOVLW   0x02
005A CFDB F000 04929         MOVFF   PLUSW2, r0x00
005E 0E03      04930         MOVLW   0x03
0060 CFDB F000 04931         MOVFF   PLUSW2, r0x01
0064 0E04      04932         MOVLW   0x04
0066 CFDB F000 04933         MOVFF   PLUSW2, r0x02
006A 0E05      04934         MOVLW   0x05
006C CFDB F000 04935         MOVFF   PLUSW2, r0x03
0070 0E06      04936         MOVLW   0x06
0072 CFDB F000 04937         MOVFF   PLUSW2, r0x04
0076 0E07      04938         MOVLW   0x07
0078 CFDB F000 04939         MOVFF   PLUSW2, r0x05
007C 0E08      04940         MOVLW   0x08
007E CFDB F000 04941         MOVFF   PLUSW2, r0x06
0082 0E09      04942         MOVLW   0x09
0084 CFDB F000 04943         MOVFF   PLUSW2, r0x07
0088 0E0A      04944         MOVLW   0x0a
008A CFDB F000 04945         MOVFF   PLUSW2, r0x08
               04946 ;       .line   145; /home/mandon/pinguino32/copie courante/linux/tools/bin/../share/sdcc/include/pic16/stdio.c register int pc = 0;
008E 6A00      04947         CLRF    r0x09
0090 6A00      04948         CLRF    r0x0a
0092 04949 _00819_DS_:
               04950 ;       .line   148; /home/mandon/pinguino32/copie courante/linux/tools/bin/../share/sdcc/include/pic16/stdio.c for (; *format != 0; ++format)
0092 C000 FFE9 04951         MOVFF   r0x03, FSR0L
0096 C000 FFF3 04952         MOVFF   r0x04, PRODL
009A 5000      04953         MOVF    r0x05, W
009C EC00 F000 04954         CALL    __gptrget1
00A0 6E00      04955         MOVWF   r0x0b
00A2 5000      04956         MOVF    r0x0b, W
00A4 B4D8      04957         BTFSC   STATUS, 2
00A6 EF00 F000 04958         GOTO    _00822_DS_
               04959 ;       .line   150; /home/mandon/pinguino32/copie courante/linux/tools/bin/../share/sdcc/include/pic16/stdio.c if (*format == '%')
00AA 5000      04960         MOVF    r0x0b, W
00AC 0A25      04961         XORLW   0x25
00AE E000      04962         BZ      _00859_DS_
00B0 EF00 F000 04963         GOTO    _00815_DS_
00B4 04964 _00859_DS_:
               04965 ;       .line   152; /home/mandon/pinguino32/copie courante/linux/tools/bin/../share/sdcc/include/pic16/stdio.c ++format;
00B4 2A00      04966         INCF    r0x03, F
gpasm-0.13.7 beta               /home/mandon/pinguino32/copie courante/linux/source/main.asm5-29-2011  20:37:50          PAGE 96


LOC  OBJECT CODE     LINE SOURCE TEXT
  VALUE
 
00B6 B0D8      04967         BTFSC   STATUS, 0
00B8 2A00      04968         INCF    r0x04, F
00BA B0D8      04969         BTFSC   STATUS, 0
00BC 2A00      04970         INCF    r0x05, F
               04971 ;       .line   153; /home/mandon/pinguino32/copie courante/linux/tools/bin/../share/sdcc/include/pic16/stdio.c width = pad = 0;
00BE 6A00      04972         CLRF    r0x0b
00C0 6A00      04973         CLRF    r0x0c
00C2 6A00      04974         CLRF    r0x0d
00C4 6A00      04975         CLRF    r0x0e
               04976 ;       .line   154; /home/mandon/pinguino32/copie courante/linux/tools/bin/../share/sdcc/include/pic16/stdio.c if (*format == '\0')
00C6 C000 FFE9 04977         MOVFF   r0x03, FSR0L
00CA C000 FFF3 04978         MOVFF   r0x04, PRODL
00CE 5000      04979         MOVF    r0x05, W
00D0 EC00 F000 04980         CALL    __gptrget1
00D4 6E00      04981         MOVWF   r0x0f
00D6 5000      04982         MOVF    r0x0f, W
00D8 B4D8      04983         BTFSC   STATUS, 2
00DA EF00 F000 04984         GOTO    _00822_DS_
               04985 ;       .line   156; /home/mandon/pinguino32/copie courante/linux/tools/bin/../share/sdcc/include/pic16/stdio.c if (*format == '%')
00DE 5000      04986         MOVF    r0x0f, W
00E0 0A25      04987         XORLW   0x25
00E2 E100      04988         BNZ     _00861_DS_
00E4 EF00 F000 04989         GOTO    _00815_DS_
00E8 04990 _00861_DS_:
               04991 ;       .line   158; /home/mandon/pinguino32/copie courante/linux/tools/bin/../share/sdcc/include/pic16/stdio.c if (*format == '-')
00E8 5000      04992         MOVF    r0x0f, W
00EA 0A2D      04993         XORLW   0x2d
00EC E100      04994         BNZ     _00840_DS_
               04995 ;       .line   160; /home/mandon/pinguino32/copie courante/linux/tools/bin/../share/sdcc/include/pic16/stdio.c ++format;
00EE 2A00      04996         INCF    r0x03, F
00F0 B0D8      04997         BTFSC   STATUS, 0
00F2 2A00      04998         INCF    r0x04, F
00F4 B0D8      04999         BTFSC   STATUS, 0
00F6 2A00      05000         INCF    r0x05, F
               05001 ;       .line   161; /home/mandon/pinguino32/copie courante/linux/tools/bin/../share/sdcc/include/pic16/stdio.c pad = PAD_RIGHT;
00F8 0E01      05002         MOVLW   0x01
00FA 6E00      05003         MOVWF   r0x0b
00FC 6A00      05004         CLRF    r0x0c
00FE 05005 _00840_DS_:
               05006 ;       .line   163; /home/mandon/pinguino32/copie courante/linux/tools/bin/../share/sdcc/include/pic16/stdio.c while (*format == '0')
00FE C000 F000 05007         MOVFF   r0x03, r0x0f
0102 C000 F000 05008         MOVFF   r0x04, r0x10
0106 C000 F000 05009         MOVFF   r0x05, r0x11
010A 05010 _00794_DS_:
010A C000 FFE9 05011         MOVFF   r0x0f, FSR0L
010E C000 FFF3 05012         MOVFF   r0x10, PRODL
0112 5000      05013         MOVF    r0x11, W
0114 EC00 F000 05014         CALL    __gptrget1
               05015 ; #     MOVWF   r0x12
               05016 ; #     MOVF    r0x12, W
0118 0A30      05017         XORLW   0x30
011A E100      05018         BNZ     _00826_DS_
               05019 ;       .line   165; /home/mandon/pinguino32/copie courante/linux/tools/bin/../share/sdcc/include/pic16/stdio.c ++format;
011C 2A00      05020         INCF    r0x0f, F
gpasm-0.13.7 beta               /home/mandon/pinguino32/copie courante/linux/source/main.asm5-29-2011  20:37:50          PAGE 97


LOC  OBJECT CODE     LINE SOURCE TEXT
  VALUE
 
011E B0D8      05021         BTFSC   STATUS, 0
0120 2A00      05022         INCF    r0x10, F
0122 B0D8      05023         BTFSC   STATUS, 0
0124 2A00      05024         INCF    r0x11, F
               05025 ;       .line   166; /home/mandon/pinguino32/copie courante/linux/tools/bin/../share/sdcc/include/pic16/stdio.c pad |= PAD_ZERO;
0126 8200      05026         BSF     r0x0b, 1
0128 D000      05027         BRA     _00794_DS_
012A 05028 _00826_DS_:
               05029 ;       .line   168; /home/mandon/pinguino32/copie courante/linux/tools/bin/../share/sdcc/include/pic16/stdio.c for ( ; *format >= '0' && *format <= '9'; ++format)
012A C000 FFE9 05030         MOVFF   r0x0f, FSR0L
012E C000 FFF3 05031         MOVFF   r0x10, PRODL
0132 5000      05032         MOVF    r0x11, W
0134 EC00 F000 05033         CALL    __gptrget1
               05034 ; #     MOVWF   r0x12
               05035 ; #     MOVF    r0x12, W
0138 6E00      05036         MOVWF   r0x12
013A 0F80      05037         ADDLW   0x80
013C 0F50      05038         ADDLW   0x50
013E E300      05039         BNC     _00857_DS_
0140 5000      05040         MOVF    r0x12, W
0142 0F80      05041         ADDLW   0x80
0144 0F46      05042         ADDLW   0x46
0146 E200      05043         BC      _00857_DS_
               05044 ;       .line   170; /home/mandon/pinguino32/copie courante/linux/tools/bin/../share/sdcc/include/pic16/stdio.c width *= 10;
0148 5000      05045         MOVF    r0x0e, W
014A 6EE5      05046         MOVWF   POSTDEC1
014C 5000      05047         MOVF    r0x0d, W
014E 6EE5      05048         MOVWF   POSTDEC1
0150 6AE5      05049         CLRF    POSTDEC1
0152 0E0A      05050         MOVLW   0x0a
0154 6EE5      05051         MOVWF   POSTDEC1
0156 EC00 F000 05052         CALL    __mulint
015A 6E00      05053         MOVWF   r0x0d
015C CFF3 F000 05054         MOVFF   PRODL, r0x0e
0160 0E04      05055         MOVLW   0x04
0162 26E1      05056         ADDWF   FSR1L, F
               05057 ;       .line   171; /home/mandon/pinguino32/copie courante/linux/tools/bin/../share/sdcc/include/pic16/stdio.c width += *format - '0';
0164 6A00      05058         CLRF    r0x13
0166 BE00      05059         BTFSC   r0x12, 7
0168 6800      05060         SETF    r0x13
016A 0ED0      05061         MOVLW   0xd0
016C 2600      05062         ADDWF   r0x12, F
016E A0D8      05063         BTFSS   STATUS, 0
0170 0600      05064         DECF    r0x13, F
0172 5000      05065         MOVF    r0x12, W
0174 2600      05066         ADDWF   r0x0d, F
0176 5000      05067         MOVF    r0x13, W
0178 2200      05068         ADDWFC  r0x0e, F
               05069 ;       .line   168; /home/mandon/pinguino32/copie courante/linux/tools/bin/../share/sdcc/include/pic16/stdio.c for ( ; *format >= '0' && *format <= '9'; ++format)
017A 2A00      05070         INCF    r0x0f, F
017C B0D8      05071         BTFSC   STATUS, 0
017E 2A00      05072         INCF    r0x10, F
0180 B0D8      05073         BTFSC   STATUS, 0
0182 2A00      05074         INCF    r0x11, F
gpasm-0.13.7 beta               /home/mandon/pinguino32/copie courante/linux/source/main.asm5-29-2011  20:37:50          PAGE 98


LOC  OBJECT CODE     LINE SOURCE TEXT
  VALUE
 
0184 D000      05075         BRA     _00826_DS_
0186 05076 _00857_DS_:
0186 C000 F000 05077         MOVFF   r0x0f, r0x03
018A C000 F000 05078         MOVFF   r0x10, r0x04
018E C000 F000 05079         MOVFF   r0x11, r0x05
               05080 ;       .line   173; /home/mandon/pinguino32/copie courante/linux/tools/bin/../share/sdcc/include/pic16/stdio.c if (*format == 's')
0192 C000 FFE9 05081         MOVFF   r0x0f, FSR0L
0196 C000 FFF3 05082         MOVFF   r0x10, PRODL
019A 5000      05083         MOVF    r0x11, W
019C EC00 F000 05084         CALL    __gptrget1
               05085 ; #     MOVWF   r0x0f
               05086 ; #     MOVF    r0x0f, W
01A0 6E00      05087         MOVWF   r0x0f
01A2 0A73      05088         XORLW   0x73
01A4 E000      05089         BZ      _00870_DS_
01A6 D000      05090         BRA     _00798_DS_
01A8 05091 _00870_DS_:
               05092 ;       .line   176; /home/mandon/pinguino32/copie courante/linux/tools/bin/../share/sdcc/include/pic16/stdio.c char *s = va_arg(args, char*);
01A8 5000      05093         MOVF    r0x06, W
01AA 0F03      05094         ADDLW   0x03
01AC 6E00      05095         MOVWF   r0x10
01AE 0E00      05096         MOVLW   0x00
01B0 2000      05097         ADDWFC  r0x07, W
01B2 6E00      05098         MOVWF   r0x11
01B4 0E00      05099         MOVLW   0x00
01B6 2000      05100         ADDWFC  r0x08, W
01B8 6E00      05101         MOVWF   r0x12
01BA C000 F000 05102         MOVFF   r0x10, r0x06
01BE C000 F000 05103         MOVFF   r0x11, r0x07
01C2 C000 F000 05104         MOVFF   r0x12, r0x08
01C6 0EFD      05105         MOVLW   0xfd
01C8 2600      05106         ADDWF   r0x10, F
01CA 0EFF      05107         MOVLW   0xff
01CC 2200      05108         ADDWFC  r0x11, F
01CE 2200      05109         ADDWFC  r0x12, F
01D0 C000 FFE9 05110         MOVFF   r0x10, FSR0L
01D4 C000 FFF3 05111         MOVFF   r0x11, PRODL
01D8 5000      05112         MOVF    r0x12, W
01DA EC00 F000 05113         CALL    __gptrget3
01DE 6E00      05114         MOVWF   r0x10
01E0 CFF3 F000 05115         MOVFF   PRODL, r0x11
01E4 CFF4 F000 05116         MOVFF   PRODH, r0x12
               05117 ;       .line   178; /home/mandon/pinguino32/copie courante/linux/tools/bin/../share/sdcc/include/pic16/stdio.c pc += pprints(out, s?s:"(null)", width, pad);
01E8 1000      05118         IORWF   r0x11, W
               05119 ; #     IORWF   r0x12, W
               05120 ; #     BTFSC   STATUS, 2
               05121 ; #     GOTO    _00832_DS_
               05122 ; #     GOTO    _00833_DS_
               05123 ; #     MOVLW   LOW(__str_0)
01EA 1000      05124         IORWF   r0x12, W
01EC E100      05125         BNZ     _00833_DS_
01EE 0E00      05126         MOVLW   LOW(__str_0)
01F0 6E00      05127         MOVWF   r0x10
01F2 0E00      05128         MOVLW   HIGH(__str_0)
gpasm-0.13.7 beta               /home/mandon/pinguino32/copie courante/linux/source/main.asm5-29-2011  20:37:50          PAGE 99


LOC  OBJECT CODE     LINE SOURCE TEXT
  VALUE
 
01F4 6E00      05129         MOVWF   r0x11
01F6 0E00      05130         MOVLW   UPPER(__str_0)
01F8 6E00      05131         MOVWF   r0x12
01FA 05132 _00833_DS_:
01FA 5000      05133         MOVF    r0x0c, W
01FC 6EE5      05134         MOVWF   POSTDEC1
01FE 5000      05135         MOVF    r0x0b, W
0200 6EE5      05136         MOVWF   POSTDEC1
0202 5000      05137         MOVF    r0x0e, W
0204 6EE5      05138         MOVWF   POSTDEC1
0206 5000      05139         MOVF    r0x0d, W
0208 6EE5      05140         MOVWF   POSTDEC1
020A 5000      05141         MOVF    r0x12, W
020C 6EE5      05142         MOVWF   POSTDEC1
020E 5000      05143         MOVF    r0x11, W
0210 6EE5      05144         MOVWF   POSTDEC1
0212 5000      05145         MOVF    r0x10, W
0214 6EE5      05146         MOVWF   POSTDEC1
0216 5000      05147         MOVF    r0x02, W
0218 6EE5      05148         MOVWF   POSTDEC1
021A 5000      05149         MOVF    r0x01, W
021C 6EE5      05150         MOVWF   POSTDEC1
021E 5000      05151         MOVF    r0x00, W
0220 6EE5      05152         MOVWF   POSTDEC1
0222 EC00 F000 05153         CALL    _pprints
0226 6E00      05154         MOVWF   r0x10
0228 CFF3 F000 05155         MOVFF   PRODL, r0x11
022C 0E0A      05156         MOVLW   0x0a
022E 26E1      05157         ADDWF   FSR1L, F
0230 5000      05158         MOVF    r0x10, W
0232 2600      05159         ADDWF   r0x09, F
0234 5000      05160         MOVF    r0x11, W
0236 2200      05161         ADDWFC  r0x0a, F
               05162 ;       .line   179; /home/mandon/pinguino32/copie courante/linux/tools/bin/../share/sdcc/include/pic16/stdio.c continue;
0238 EF00 F000 05163         GOTO    _00821_DS_
023C 05164 _00798_DS_:
               05165 ;       .line   181; /home/mandon/pinguino32/copie courante/linux/tools/bin/../share/sdcc/include/pic16/stdio.c if (*format == 'd')
023C 5000      05166         MOVF    r0x0f, W
023E 0A64      05167         XORLW   0x64
0240 E000      05168         BZ      _00872_DS_
0242 D000      05169         BRA     _00800_DS_
0244 05170 _00872_DS_:
               05171 ;       .line   183; /home/mandon/pinguino32/copie courante/linux/tools/bin/../share/sdcc/include/pic16/stdio.c pc += pprinti(out, va_arg(args, int), 10, 1, width, pad, 'a');
0244 5000      05172         MOVF    r0x06, W
0246 0F02      05173         ADDLW   0x02
0248 6E00      05174         MOVWF   r0x10
024A 0E00      05175         MOVLW   0x00
024C 2000      05176         ADDWFC  r0x07, W
024E 6E00      05177         MOVWF   r0x11
0250 0E00      05178         MOVLW   0x00
0252 2000      05179         ADDWFC  r0x08, W
0254 6E00      05180         MOVWF   r0x12
0256 C000 F000 05181         MOVFF   r0x10, r0x06
025A C000 F000 05182         MOVFF   r0x11, r0x07
gpasm-0.13.7 beta               /home/mandon/pinguino32/copie courante/linux/source/main.asm5-29-2011  20:37:50          PAGE 100


LOC  OBJECT CODE     LINE SOURCE TEXT
  VALUE
 
025E C000 F000 05183         MOVFF   r0x12, r0x08
0262 0EFE      05184         MOVLW   0xfe
0264 2600      05185         ADDWF   r0x10, F
0266 0EFF      05186         MOVLW   0xff
0268 2200      05187         ADDWFC  r0x11, F
026A 2200      05188         ADDWFC  r0x12, F
026C C000 FFE9 05189         MOVFF   r0x10, FSR0L
0270 C000 FFF3 05190         MOVFF   r0x11, PRODL
0274 5000      05191         MOVF    r0x12, W
0276 EC00 F000 05192         CALL    __gptrget2
027A 6E00      05193         MOVWF   r0x10
027C CFF3 F000 05194         MOVFF   PRODL, r0x11
0280 6AE5      05195         CLRF    POSTDEC1
0282 0E61      05196         MOVLW   0x61
0284 6EE5      05197         MOVWF   POSTDEC1
0286 5000      05198         MOVF    r0x0c, W
0288 6EE5      05199         MOVWF   POSTDEC1
028A 5000      05200         MOVF    r0x0b, W
028C 6EE5      05201         MOVWF   POSTDEC1
028E 5000      05202         MOVF    r0x0e, W
0290 6EE5      05203         MOVWF   POSTDEC1
0292 5000      05204         MOVF    r0x0d, W
0294 6EE5      05205         MOVWF   POSTDEC1
0296 6AE5      05206         CLRF    POSTDEC1
0298 0E01      05207         MOVLW   0x01
029A 6EE5      05208         MOVWF   POSTDEC1
029C 6AE5      05209         CLRF    POSTDEC1
029E 0E0A      05210         MOVLW   0x0a
02A0 6EE5      05211         MOVWF   POSTDEC1
02A2 5000      05212         MOVF    r0x11, W
02A4 6EE5      05213         MOVWF   POSTDEC1
02A6 5000      05214         MOVF    r0x10, W
02A8 6EE5      05215         MOVWF   POSTDEC1
02AA 5000      05216         MOVF    r0x02, W
02AC 6EE5      05217         MOVWF   POSTDEC1
02AE 5000      05218         MOVF    r0x01, W
02B0 6EE5      05219         MOVWF   POSTDEC1
02B2 5000      05220         MOVF    r0x00, W
02B4 6EE5      05221         MOVWF   POSTDEC1
02B6 EC00 F000 05222         CALL    _pprinti
02BA 6E00      05223         MOVWF   r0x10
02BC CFF3 F000 05224         MOVFF   PRODL, r0x11
02C0 0E0F      05225         MOVLW   0x0f
02C2 26E1      05226         ADDWF   FSR1L, F
02C4 5000      05227         MOVF    r0x10, W
02C6 2600      05228         ADDWF   r0x09, F
02C8 5000      05229         MOVF    r0x11, W
02CA 2200      05230         ADDWFC  r0x0a, F
               05231 ;       .line   184; /home/mandon/pinguino32/copie courante/linux/tools/bin/../share/sdcc/include/pic16/stdio.c continue;
02CC D000      05232         BRA     _00821_DS_
02CE 05233 _00800_DS_:
               05234 ;       .line   186; /home/mandon/pinguino32/copie courante/linux/tools/bin/../share/sdcc/include/pic16/stdio.c if (*format == 'x')
02CE 5000      05235         MOVF    r0x0f, W
02D0 0A78      05236         XORLW   0x78
gpasm-0.13.7 beta               /home/mandon/pinguino32/copie courante/linux/source/main.asm5-29-2011  20:37:50          PAGE 101


LOC  OBJECT CODE     LINE SOURCE TEXT
  VALUE
 
02D2 E000      05237         BZ      _00874_DS_
02D4 D000      05238         BRA     _00802_DS_
02D6 05239 _00874_DS_:
               05240 ;       .line   188; /home/mandon/pinguino32/copie courante/linux/tools/bin/../share/sdcc/include/pic16/stdio.c pc += pprinti(out, va_arg(args, int), 16, 0, width, pad, 'a');
02D6 5000      05241         MOVF    r0x06, W
02D8 0F02      05242         ADDLW   0x02
02DA 6E00      05243         MOVWF   r0x10
02DC 0E00      05244         MOVLW   0x00
02DE 2000      05245         ADDWFC  r0x07, W
02E0 6E00      05246         MOVWF   r0x11
02E2 0E00      05247         MOVLW   0x00
02E4 2000      05248         ADDWFC  r0x08, W
02E6 6E00      05249         MOVWF   r0x12
02E8 C000 F000 05250         MOVFF   r0x10, r0x06
02EC C000 F000 05251         MOVFF   r0x11, r0x07
02F0 C000 F000 05252         MOVFF   r0x12, r0x08
02F4 0EFE      05253         MOVLW   0xfe
02F6 2600      05254         ADDWF   r0x10, F
02F8 0EFF      05255         MOVLW   0xff
02FA 2200      05256         ADDWFC  r0x11, F
02FC 2200      05257         ADDWFC  r0x12, F
02FE C000 FFE9 05258         MOVFF   r0x10, FSR0L
0302 C000 FFF3 05259         MOVFF   r0x11, PRODL
0306 5000      05260         MOVF    r0x12, W
0308 EC00 F000 05261         CALL    __gptrget2
030C 6E00      05262         MOVWF   r0x10
030E CFF3 F000 05263         MOVFF   PRODL, r0x11
0312 6AE5      05264         CLRF    POSTDEC1
0314 0E61      05265         MOVLW   0x61
0316 6EE5      05266         MOVWF   POSTDEC1
0318 5000      05267         MOVF    r0x0c, W
031A 6EE5      05268         MOVWF   POSTDEC1
031C 5000      05269         MOVF    r0x0b, W
031E 6EE5      05270         MOVWF   POSTDEC1
0320 5000      05271         MOVF    r0x0e, W
0322 6EE5      05272         MOVWF   POSTDEC1
0324 5000      05273         MOVF    r0x0d, W
0326 6EE5      05274         MOVWF   POSTDEC1
0328 6AE5      05275         CLRF    POSTDEC1
032A 6AE5      05276         CLRF    POSTDEC1
032C 6AE5      05277         CLRF    POSTDEC1
032E 0E10      05278         MOVLW   0x10
0330 6EE5      05279         MOVWF   POSTDEC1
0332 5000      05280         MOVF    r0x11, W
0334 6EE5      05281         MOVWF   POSTDEC1
0336 5000      05282         MOVF    r0x10, W
0338 6EE5      05283         MOVWF   POSTDEC1
033A 5000      05284         MOVF    r0x02, W
033C 6EE5      05285         MOVWF   POSTDEC1
033E 5000      05286         MOVF    r0x01, W
0340 6EE5      05287         MOVWF   POSTDEC1
0342 5000      05288         MOVF    r0x00, W
0344 6EE5      05289         MOVWF   POSTDEC1
0346 EC00 F000 05290         CALL    _pprinti
gpasm-0.13.7 beta               /home/mandon/pinguino32/copie courante/linux/source/main.asm5-29-2011  20:37:50          PAGE 102


LOC  OBJECT CODE     LINE SOURCE TEXT
  VALUE
 
034A 6E00      05291         MOVWF   r0x10
034C CFF3 F000 05292         MOVFF   PRODL, r0x11
0350 0E0F      05293         MOVLW   0x0f
0352 26E1      05294         ADDWF   FSR1L, F
0354 5000      05295         MOVF    r0x10, W
0356 2600      05296         ADDWF   r0x09, F
0358 5000      05297         MOVF    r0x11, W
035A 2200      05298         ADDWFC  r0x0a, F
               05299 ;       .line   189; /home/mandon/pinguino32/copie courante/linux/tools/bin/../share/sdcc/include/pic16/stdio.c continue;
035C D000      05300         BRA     _00821_DS_
035E 05301 _00802_DS_:
               05302 ;       .line   191; /home/mandon/pinguino32/copie courante/linux/tools/bin/../share/sdcc/include/pic16/stdio.c if (*format == 'X')
035E 5000      05303         MOVF    r0x0f, W
0360 0A58      05304         XORLW   0x58
0362 E000      05305         BZ      _00876_DS_
0364 D000      05306         BRA     _00804_DS_
0366 05307 _00876_DS_:
               05308 ;       .line   193; /home/mandon/pinguino32/copie courante/linux/tools/bin/../share/sdcc/include/pic16/stdio.c pc += pprinti(out, va_arg(args, int), 16, 0, width, pad, 'A');
0366 5000      05309         MOVF    r0x06, W
0368 0F02      05310         ADDLW   0x02
036A 6E00      05311         MOVWF   r0x10
036C 0E00      05312         MOVLW   0x00
036E 2000      05313         ADDWFC  r0x07, W
0370 6E00      05314         MOVWF   r0x11
0372 0E00      05315         MOVLW   0x00
0374 2000      05316         ADDWFC  r0x08, W
0376 6E00      05317         MOVWF   r0x12
0378 C000 F000 05318         MOVFF   r0x10, r0x06
037C C000 F000 05319         MOVFF   r0x11, r0x07
0380 C000 F000 05320         MOVFF   r0x12, r0x08
0384 0EFE      05321         MOVLW   0xfe
0386 2600      05322         ADDWF   r0x10, F
0388 0EFF      05323         MOVLW   0xff
038A 2200      05324         ADDWFC  r0x11, F
038C 2200      05325         ADDWFC  r0x12, F
038E C000 FFE9 05326         MOVFF   r0x10, FSR0L
0392 C000 FFF3 05327         MOVFF   r0x11, PRODL
0396 5000      05328         MOVF    r0x12, W
0398 EC00 F000 05329         CALL    __gptrget2
039C 6E00      05330         MOVWF   r0x10
039E CFF3 F000 05331         MOVFF   PRODL, r0x11
03A2 6AE5      05332         CLRF    POSTDEC1
03A4 0E41      05333         MOVLW   0x41
03A6 6EE5      05334         MOVWF   POSTDEC1
03A8 5000      05335         MOVF    r0x0c, W
03AA 6EE5      05336         MOVWF   POSTDEC1
03AC 5000      05337         MOVF    r0x0b, W
03AE 6EE5      05338         MOVWF   POSTDEC1
03B0 5000      05339         MOVF    r0x0e, W
03B2 6EE5      05340         MOVWF   POSTDEC1
03B4 5000      05341         MOVF    r0x0d, W
03B6 6EE5      05342         MOVWF   POSTDEC1
03B8 6AE5      05343         CLRF    POSTDEC1
03BA 6AE5      05344         CLRF    POSTDEC1
gpasm-0.13.7 beta               /home/mandon/pinguino32/copie courante/linux/source/main.asm5-29-2011  20:37:50          PAGE 103


LOC  OBJECT CODE     LINE SOURCE TEXT
  VALUE
 
03BC 6AE5      05345         CLRF    POSTDEC1
03BE 0E10      05346         MOVLW   0x10
03C0 6EE5      05347         MOVWF   POSTDEC1
03C2 5000      05348         MOVF    r0x11, W
03C4 6EE5      05349         MOVWF   POSTDEC1
03C6 5000      05350         MOVF    r0x10, W
03C8 6EE5      05351         MOVWF   POSTDEC1
03CA 5000      05352         MOVF    r0x02, W
03CC 6EE5      05353         MOVWF   POSTDEC1
03CE 5000      05354         MOVF    r0x01, W
03D0 6EE5      05355         MOVWF   POSTDEC1
03D2 5000      05356         MOVF    r0x00, W
03D4 6EE5      05357         MOVWF   POSTDEC1
03D6 EC00 F000 05358         CALL    _pprinti
03DA 6E00      05359         MOVWF   r0x10
03DC CFF3 F000 05360         MOVFF   PRODL, r0x11
03E0 0E0F      05361         MOVLW   0x0f
03E2 26E1      05362         ADDWF   FSR1L, F
03E4 5000      05363         MOVF    r0x10, W
03E6 2600      05364         ADDWF   r0x09, F
03E8 5000      05365         MOVF    r0x11, W
03EA 2200      05366         ADDWFC  r0x0a, F
               05367 ;       .line   194; /home/mandon/pinguino32/copie courante/linux/tools/bin/../share/sdcc/include/pic16/stdio.c continue;
03EC D000      05368         BRA     _00821_DS_
03EE 05369 _00804_DS_:
               05370 ;       .line   196; /home/mandon/pinguino32/copie courante/linux/tools/bin/../share/sdcc/include/pic16/stdio.c if (*format == 'b')
03EE 5000      05371         MOVF    r0x0f, W
03F0 0A62      05372         XORLW   0x62
03F2 E000      05373         BZ      _00878_DS_
03F4 D000      05374         BRA     _00806_DS_
03F6 05375 _00878_DS_:
               05376 ;       .line   198; /home/mandon/pinguino32/copie courante/linux/tools/bin/../share/sdcc/include/pic16/stdio.c pc += pprinti(out, va_arg(args, int), 2, 0, width, pad, 'a');
03F6 5000      05377         MOVF    r0x06, W
03F8 0F02      05378         ADDLW   0x02
03FA 6E00      05379         MOVWF   r0x10
03FC 0E00      05380         MOVLW   0x00
03FE 2000      05381         ADDWFC  r0x07, W
0400 6E00      05382         MOVWF   r0x11
0402 0E00      05383         MOVLW   0x00
0404 2000      05384         ADDWFC  r0x08, W
0406 6E00      05385         MOVWF   r0x12
0408 C000 F000 05386         MOVFF   r0x10, r0x06
040C C000 F000 05387         MOVFF   r0x11, r0x07
0410 C000 F000 05388         MOVFF   r0x12, r0x08
0414 0EFE      05389         MOVLW   0xfe
0416 2600      05390         ADDWF   r0x10, F
0418 0EFF      05391         MOVLW   0xff
041A 2200      05392         ADDWFC  r0x11, F
041C 2200      05393         ADDWFC  r0x12, F
041E C000 FFE9 05394         MOVFF   r0x10, FSR0L
0422 C000 FFF3 05395         MOVFF   r0x11, PRODL
0426 5000      05396         MOVF    r0x12, W
0428 EC00 F000 05397         CALL    __gptrget2
042C 6E00      05398         MOVWF   r0x10
gpasm-0.13.7 beta               /home/mandon/pinguino32/copie courante/linux/source/main.asm5-29-2011  20:37:50          PAGE 104


LOC  OBJECT CODE     LINE SOURCE TEXT
  VALUE
 
042E CFF3 F000 05399         MOVFF   PRODL, r0x11
0432 6AE5      05400         CLRF    POSTDEC1
0434 0E61      05401         MOVLW   0x61
0436 6EE5      05402         MOVWF   POSTDEC1
0438 5000      05403         MOVF    r0x0c, W
043A 6EE5      05404         MOVWF   POSTDEC1
043C 5000      05405         MOVF    r0x0b, W
043E 6EE5      05406         MOVWF   POSTDEC1
0440 5000      05407         MOVF    r0x0e, W
0442 6EE5      05408         MOVWF   POSTDEC1
0444 5000      05409         MOVF    r0x0d, W
0446 6EE5      05410         MOVWF   POSTDEC1
0448 6AE5      05411         CLRF    POSTDEC1
044A 6AE5      05412         CLRF    POSTDEC1
044C 6AE5      05413         CLRF    POSTDEC1
044E 0E02      05414         MOVLW   0x02
0450 6EE5      05415         MOVWF   POSTDEC1
0452 5000      05416         MOVF    r0x11, W
0454 6EE5      05417         MOVWF   POSTDEC1
0456 5000      05418         MOVF    r0x10, W
0458 6EE5      05419         MOVWF   POSTDEC1
045A 5000      05420         MOVF    r0x02, W
045C 6EE5      05421         MOVWF   POSTDEC1
045E 5000      05422         MOVF    r0x01, W
0460 6EE5      05423         MOVWF   POSTDEC1
0462 5000      05424         MOVF    r0x00, W
0464 6EE5      05425         MOVWF   POSTDEC1
0466 EC00 F000 05426         CALL    _pprinti
046A 6E00      05427         MOVWF   r0x10
046C CFF3 F000 05428         MOVFF   PRODL, r0x11
0470 0E0F      05429         MOVLW   0x0f
0472 26E1      05430         ADDWF   FSR1L, F
0474 5000      05431         MOVF    r0x10, W
0476 2600      05432         ADDWF   r0x09, F
0478 5000      05433         MOVF    r0x11, W
047A 2200      05434         ADDWFC  r0x0a, F
               05435 ;       .line   199; /home/mandon/pinguino32/copie courante/linux/tools/bin/../share/sdcc/include/pic16/stdio.c continue;
047C D000      05436         BRA     _00821_DS_
047E 05437 _00806_DS_:
               05438 ;       .line   201; /home/mandon/pinguino32/copie courante/linux/tools/bin/../share/sdcc/include/pic16/stdio.c if (*format == 'o')
047E 5000      05439         MOVF    r0x0f, W
0480 0A6F      05440         XORLW   0x6f
0482 E000      05441         BZ      _00880_DS_
0484 D000      05442         BRA     _00808_DS_
0486 05443 _00880_DS_:
               05444 ;       .line   203; /home/mandon/pinguino32/copie courante/linux/tools/bin/../share/sdcc/include/pic16/stdio.c pc += pprinti(out, va_arg(args, int), 8, 0, width, pad, 'a');
0486 5000      05445         MOVF    r0x06, W
0488 0F02      05446         ADDLW   0x02
048A 6E00      05447         MOVWF   r0x10
048C 0E00      05448         MOVLW   0x00
048E 2000      05449         ADDWFC  r0x07, W
0490 6E00      05450         MOVWF   r0x11
0492 0E00      05451         MOVLW   0x00
0494 2000      05452         ADDWFC  r0x08, W
gpasm-0.13.7 beta               /home/mandon/pinguino32/copie courante/linux/source/main.asm5-29-2011  20:37:50          PAGE 105


LOC  OBJECT CODE     LINE SOURCE TEXT
  VALUE
 
0496 6E00      05453         MOVWF   r0x12
0498 C000 F000 05454         MOVFF   r0x10, r0x06
049C C000 F000 05455         MOVFF   r0x11, r0x07
04A0 C000 F000 05456         MOVFF   r0x12, r0x08
04A4 0EFE      05457         MOVLW   0xfe
04A6 2600      05458         ADDWF   r0x10, F
04A8 0EFF      05459         MOVLW   0xff
04AA 2200      05460         ADDWFC  r0x11, F
04AC 2200      05461         ADDWFC  r0x12, F
04AE C000 FFE9 05462         MOVFF   r0x10, FSR0L
04B2 C000 FFF3 05463         MOVFF   r0x11, PRODL
04B6 5000      05464         MOVF    r0x12, W
04B8 EC00 F000 05465         CALL    __gptrget2
04BC 6E00      05466         MOVWF   r0x10
04BE CFF3 F000 05467         MOVFF   PRODL, r0x11
04C2 6AE5      05468         CLRF    POSTDEC1
04C4 0E61      05469         MOVLW   0x61
04C6 6EE5      05470         MOVWF   POSTDEC1
04C8 5000      05471         MOVF    r0x0c, W
04CA 6EE5      05472         MOVWF   POSTDEC1
04CC 5000      05473         MOVF    r0x0b, W
04CE 6EE5      05474         MOVWF   POSTDEC1
04D0 5000      05475         MOVF    r0x0e, W
04D2 6EE5      05476         MOVWF   POSTDEC1
04D4 5000      05477         MOVF    r0x0d, W
04D6 6EE5      05478         MOVWF   POSTDEC1
04D8 6AE5      05479         CLRF    POSTDEC1
04DA 6AE5      05480         CLRF    POSTDEC1
04DC 6AE5      05481         CLRF    POSTDEC1
04DE 0E08      05482         MOVLW   0x08
04E0 6EE5      05483         MOVWF   POSTDEC1
04E2 5000      05484         MOVF    r0x11, W
04E4 6EE5      05485         MOVWF   POSTDEC1
04E6 5000      05486         MOVF    r0x10, W
04E8 6EE5      05487         MOVWF   POSTDEC1
04EA 5000      05488         MOVF    r0x02, W
04EC 6EE5      05489         MOVWF   POSTDEC1
04EE 5000      05490         MOVF    r0x01, W
04F0 6EE5      05491         MOVWF   POSTDEC1
04F2 5000      05492         MOVF    r0x00, W
04F4 6EE5      05493         MOVWF   POSTDEC1
04F6 EC00 F000 05494         CALL    _pprinti
04FA 6E00      05495         MOVWF   r0x10
04FC CFF3 F000 05496         MOVFF   PRODL, r0x11
0500 0E0F      05497         MOVLW   0x0f
0502 26E1      05498         ADDWF   FSR1L, F
0504 5000      05499         MOVF    r0x10, W
0506 2600      05500         ADDWF   r0x09, F
0508 5000      05501         MOVF    r0x11, W
050A 2200      05502         ADDWFC  r0x0a, F
               05503 ;       .line   204; /home/mandon/pinguino32/copie courante/linux/tools/bin/../share/sdcc/include/pic16/stdio.c continue;
050C D000      05504         BRA     _00821_DS_
050E 05505 _00808_DS_:
               05506 ;       .line   206; /home/mandon/pinguino32/copie courante/linux/tools/bin/../share/sdcc/include/pic16/stdio.c if (*format == 'u')
gpasm-0.13.7 beta               /home/mandon/pinguino32/copie courante/linux/source/main.asm5-29-2011  20:37:50          PAGE 106


LOC  OBJECT CODE     LINE SOURCE TEXT
  VALUE
 
050E 5000      05507         MOVF    r0x0f, W
0510 0A75      05508         XORLW   0x75
0512 E000      05509         BZ      _00882_DS_
0514 D000      05510         BRA     _00810_DS_
0516 05511 _00882_DS_:
               05512 ;       .line   208; /home/mandon/pinguino32/copie courante/linux/tools/bin/../share/sdcc/include/pic16/stdio.c pc += pprinti(out, va_arg(args, int), 10, 0, width, pad, 'a');
0516 5000      05513         MOVF    r0x06, W
0518 0F02      05514         ADDLW   0x02
051A 6E00      05515         MOVWF   r0x10
051C 0E00      05516         MOVLW   0x00
051E 2000      05517         ADDWFC  r0x07, W
0520 6E00      05518         MOVWF   r0x11
0522 0E00      05519         MOVLW   0x00
0524 2000      05520         ADDWFC  r0x08, W
0526 6E00      05521         MOVWF   r0x12
0528 C000 F000 05522         MOVFF   r0x10, r0x06
052C C000 F000 05523         MOVFF   r0x11, r0x07
0530 C000 F000 05524         MOVFF   r0x12, r0x08
0534 0EFE      05525         MOVLW   0xfe
0536 2600      05526         ADDWF   r0x10, F
0538 0EFF      05527         MOVLW   0xff
053A 2200      05528         ADDWFC  r0x11, F
053C 2200      05529         ADDWFC  r0x12, F
053E C000 FFE9 05530         MOVFF   r0x10, FSR0L
0542 C000 FFF3 05531         MOVFF   r0x11, PRODL
0546 5000      05532         MOVF    r0x12, W
0548 EC00 F000 05533         CALL    __gptrget2
054C 6E00      05534         MOVWF   r0x10
054E CFF3 F000 05535         MOVFF   PRODL, r0x11
0552 6AE5      05536         CLRF    POSTDEC1
0554 0E61      05537         MOVLW   0x61
0556 6EE5      05538         MOVWF   POSTDEC1
0558 5000      05539         MOVF    r0x0c, W
055A 6EE5      05540         MOVWF   POSTDEC1
055C 5000      05541         MOVF    r0x0b, W
055E 6EE5      05542         MOVWF   POSTDEC1
0560 5000      05543         MOVF    r0x0e, W
0562 6EE5      05544         MOVWF   POSTDEC1
0564 5000      05545         MOVF    r0x0d, W
0566 6EE5      05546         MOVWF   POSTDEC1
0568 6AE5      05547         CLRF    POSTDEC1
056A 6AE5      05548         CLRF    POSTDEC1
056C 6AE5      05549         CLRF    POSTDEC1
056E 0E0A      05550         MOVLW   0x0a
0570 6EE5      05551         MOVWF   POSTDEC1
0572 5000      05552         MOVF    r0x11, W
0574 6EE5      05553         MOVWF   POSTDEC1
0576 5000      05554         MOVF    r0x10, W
0578 6EE5      05555         MOVWF   POSTDEC1
057A 5000      05556         MOVF    r0x02, W
057C 6EE5      05557         MOVWF   POSTDEC1
057E 5000      05558         MOVF    r0x01, W
0580 6EE5      05559         MOVWF   POSTDEC1
0582 5000      05560         MOVF    r0x00, W
gpasm-0.13.7 beta               /home/mandon/pinguino32/copie courante/linux/source/main.asm5-29-2011  20:37:50          PAGE 107


LOC  OBJECT CODE     LINE SOURCE TEXT
  VALUE
 
0584 6EE5      05561         MOVWF   POSTDEC1
0586 EC00 F000 05562         CALL    _pprinti
058A 6E00      05563         MOVWF   r0x10
058C CFF3 F000 05564         MOVFF   PRODL, r0x11
0590 0E0F      05565         MOVLW   0x0f
0592 26E1      05566         ADDWF   FSR1L, F
0594 5000      05567         MOVF    r0x10, W
0596 2600      05568         ADDWF   r0x09, F
0598 5000      05569         MOVF    r0x11, W
059A 2200      05570         ADDWFC  r0x0a, F
               05571 ;       .line   209; /home/mandon/pinguino32/copie courante/linux/tools/bin/../share/sdcc/include/pic16/stdio.c continue;
059C D000      05572         BRA     _00821_DS_
059E 05573 _00810_DS_:
               05574 ;       .line   211; /home/mandon/pinguino32/copie courante/linux/tools/bin/../share/sdcc/include/pic16/stdio.c if (*format == 'c')
059E 5000      05575         MOVF    r0x0f, W
05A0 0A63      05576         XORLW   0x63
05A2 E000      05577         BZ      _00884_DS_
05A4 D000      05578         BRA     _00812_DS_
05A6 05579 _00884_DS_:
               05580 ;       .line   214; /home/mandon/pinguino32/copie courante/linux/tools/bin/../share/sdcc/include/pic16/stdio.c scr[0] = (char)va_arg(args, int);
05A6 5000      05581         MOVF    r0x06, W
05A8 0F02      05582         ADDLW   0x02
05AA 6E00      05583         MOVWF   r0x10
05AC 0E00      05584         MOVLW   0x00
05AE 2000      05585         ADDWFC  r0x07, W
05B0 6E00      05586         MOVWF   r0x11
05B2 0E00      05587         MOVLW   0x00
05B4 2000      05588         ADDWFC  r0x08, W
05B6 6E00      05589         MOVWF   r0x12
05B8 C000 F000 05590         MOVFF   r0x10, r0x06
05BC C000 F000 05591         MOVFF   r0x11, r0x07
05C0 C000 F000 05592         MOVFF   r0x12, r0x08
05C4 0EFE      05593         MOVLW   0xfe
05C6 2600      05594         ADDWF   r0x10, F
05C8 0EFF      05595         MOVLW   0xff
05CA 2200      05596         ADDWFC  r0x11, F
05CC 2200      05597         ADDWFC  r0x12, F
05CE C000 FFE9 05598         MOVFF   r0x10, FSR0L
05D2 C000 FFF3 05599         MOVFF   r0x11, PRODL
05D6 5000      05600         MOVF    r0x12, W
05D8 EC00 F000 05601         CALL    __gptrget2
05DC 0000      05602         BANKSEL _pprint_scr_1_1
05DE 6F00      05603         MOVWF   _pprint_scr_1_1, B
               05604 ; removed redundant BANKSEL
               05605 ;       .line   216; /home/mandon/pinguino32/copie courante/linux/tools/bin/../share/sdcc/include/pic16/stdio.c scr[1] = '\0';
05E0 6B00      05606         CLRF    (_pprint_scr_1_1 + 1), B
               05607 ;       .line   217; /home/mandon/pinguino32/copie courante/linux/tools/bin/../share/sdcc/include/pic16/stdio.c pc += pprints(out, scr, width, pad);
05E2 5000      05608         MOVF    r0x0c, W
05E4 6EE5      05609         MOVWF   POSTDEC1
05E6 5000      05610         MOVF    r0x0b, W
05E8 6EE5      05611         MOVWF   POSTDEC1
05EA 5000      05612         MOVF    r0x0e, W
05EC 6EE5      05613         MOVWF   POSTDEC1
05EE 5000      05614         MOVF    r0x0d, W
gpasm-0.13.7 beta               /home/mandon/pinguino32/copie courante/linux/source/main.asm5-29-2011  20:37:50          PAGE 108


LOC  OBJECT CODE     LINE SOURCE TEXT
  VALUE
 
05F0 6EE5      05615         MOVWF   POSTDEC1
05F2 0E80      05616         MOVLW   0x80
05F4 6EE5      05617         MOVWF   POSTDEC1
05F6 0E00      05618         MOVLW   HIGH(_pprint_scr_1_1)
05F8 6EE5      05619         MOVWF   POSTDEC1
05FA 0E00      05620         MOVLW   LOW(_pprint_scr_1_1)
05FC 6EE5      05621         MOVWF   POSTDEC1
05FE 5000      05622         MOVF    r0x02, W
0600 6EE5      05623         MOVWF   POSTDEC1
0602 5000      05624         MOVF    r0x01, W
0604 6EE5      05625         MOVWF   POSTDEC1
0606 5000      05626         MOVF    r0x00, W
0608 6EE5      05627         MOVWF   POSTDEC1
060A EC00 F000 05628         CALL    _pprints
060E 6E00      05629         MOVWF   r0x10
0610 CFF3 F000 05630         MOVFF   PRODL, r0x11
0614 0E0A      05631         MOVLW   0x0a
0616 26E1      05632         ADDWF   FSR1L, F
0618 5000      05633         MOVF    r0x10, W
061A 2600      05634         ADDWF   r0x09, F
061C 5000      05635         MOVF    r0x11, W
061E 2200      05636         ADDWFC  r0x0a, F
               05637 ;       .line   218; /home/mandon/pinguino32/copie courante/linux/tools/bin/../share/sdcc/include/pic16/stdio.c continue;
0620 D000      05638         BRA     _00821_DS_
0622 05639 _00812_DS_:
               05640 ;       .line   220; /home/mandon/pinguino32/copie courante/linux/tools/bin/../share/sdcc/include/pic16/stdio.c if (*format == 'f')
0622 5000      05641         MOVF    r0x0f, W
0624 0A66      05642         XORLW   0x66
0626 E000      05643         BZ      _00886_DS_
0628 D000      05644         BRA     _00821_DS_
062A 05645 _00886_DS_:
               05646 ;       .line   222; /home/mandon/pinguino32/copie courante/linux/tools/bin/../share/sdcc/include/pic16/stdio.c pc += pprints(out, "not yet implemented\0", width, pad);
062A 5000      05647         MOVF    r0x0c, W
062C 6EE5      05648         MOVWF   POSTDEC1
062E 5000      05649         MOVF    r0x0b, W
0630 6EE5      05650         MOVWF   POSTDEC1
0632 5000      05651         MOVF    r0x0e, W
0634 6EE5      05652         MOVWF   POSTDEC1
0636 5000      05653         MOVF    r0x0d, W
0638 6EE5      05654         MOVWF   POSTDEC1
063A 0E00      05655         MOVLW   UPPER(__str_1)
063C 6EE5      05656         MOVWF   POSTDEC1
063E 0E00      05657         MOVLW   HIGH(__str_1)
0640 6EE5      05658         MOVWF   POSTDEC1
0642 0E00      05659         MOVLW   LOW(__str_1)
0644 6EE5      05660         MOVWF   POSTDEC1
0646 5000      05661         MOVF    r0x02, W
0648 6EE5      05662         MOVWF   POSTDEC1
064A 5000      05663         MOVF    r0x01, W
064C 6EE5      05664         MOVWF   POSTDEC1
064E 5000      05665         MOVF    r0x00, W
0650 6EE5      05666         MOVWF   POSTDEC1
0652 EC00 F000 05667         CALL    _pprints
0656 6E00      05668         MOVWF   r0x0b
gpasm-0.13.7 beta               /home/mandon/pinguino32/copie courante/linux/source/main.asm5-29-2011  20:37:50          PAGE 109


LOC  OBJECT CODE     LINE SOURCE TEXT
  VALUE
 
0658 CFF3 F000 05669         MOVFF   PRODL, r0x0c
065C 0E0A      05670         MOVLW   0x0a
065E 26E1      05671         ADDWF   FSR1L, F
0660 5000      05672         MOVF    r0x0b, W
0662 2600      05673         ADDWF   r0x09, F
0664 5000      05674         MOVF    r0x0c, W
0666 2200      05675         ADDWFC  r0x0a, F
               05676 ;       .line   223; /home/mandon/pinguino32/copie courante/linux/tools/bin/../share/sdcc/include/pic16/stdio.c continue;
0668 D000      05677         BRA     _00821_DS_
066A 05678 _00815_DS_:
               05679 ;       .line   229; /home/mandon/pinguino32/copie courante/linux/tools/bin/../share/sdcc/include/pic16/stdio.c pprintchar(out, *format);
066A C000 FFE9 05680         MOVFF   r0x03, FSR0L
066E C000 FFF3 05681         MOVFF   r0x04, PRODL
0672 5000      05682         MOVF    r0x05, W
0674 EC00 F000 05683         CALL    __gptrget1
0678 6E00      05684         MOVWF   r0x0b
067A 6A00      05685         CLRF    r0x0c
067C BE00      05686         BTFSC   r0x0b, 7
067E 6800      05687         SETF    r0x0c
0680 5000      05688         MOVF    r0x0c, W
0682 6EE5      05689         MOVWF   POSTDEC1
0684 5000      05690         MOVF    r0x0b, W
0686 6EE5      05691         MOVWF   POSTDEC1
0688 5000      05692         MOVF    r0x02, W
068A 6EE5      05693         MOVWF   POSTDEC1
068C 5000      05694         MOVF    r0x01, W
068E 6EE5      05695         MOVWF   POSTDEC1
0690 5000      05696         MOVF    r0x00, W
0692 6EE5      05697         MOVWF   POSTDEC1
0694 EC00 F000 05698         CALL    _pprintchar
0698 0E05      05699         MOVLW   0x05
069A 26E1      05700         ADDWF   FSR1L, F
               05701 ;       .line   230; /home/mandon/pinguino32/copie courante/linux/tools/bin/../share/sdcc/include/pic16/stdio.c ++pc;
069C 2A00      05702         INCF    r0x09, F
069E B0D8      05703         BTFSC   STATUS, 0
06A0 2A00      05704         INCF    r0x0a, F
06A2 05705 _00821_DS_:
               05706 ;       .line   148; /home/mandon/pinguino32/copie courante/linux/tools/bin/../share/sdcc/include/pic16/stdio.c for (; *format != 0; ++format)
06A2 2A00      05707         INCF    r0x03, F
06A4 B0D8      05708         BTFSC   STATUS, 0
06A6 2A00      05709         INCF    r0x04, F
06A8 B0D8      05710         BTFSC   STATUS, 0
06AA 2A00      05711         INCF    r0x05, F
06AC EF00 F000 05712         GOTO    _00819_DS_
06B0 05713 _00822_DS_:
               05714 ;       .line   233; /home/mandon/pinguino32/copie courante/linux/tools/bin/../share/sdcc/include/pic16/stdio.c if (out) **out = '\0';
06B0 5000      05715         MOVF    r0x00, W
06B2 1000      05716         IORWF   r0x01, W
06B4 1000      05717         IORWF   r0x02, W
06B6 E000      05718         BZ      _00824_DS_
06B8 C000 FFE9 05719         MOVFF   r0x00, FSR0L
06BC C000 FFF3 05720         MOVFF   r0x01, PRODL
06C0 5000      05721         MOVF    r0x02, W
06C2 EC00 F000 05722         CALL    __gptrget3
gpasm-0.13.7 beta               /home/mandon/pinguino32/copie courante/linux/source/main.asm5-29-2011  20:37:50          PAGE 110


LOC  OBJECT CODE     LINE SOURCE TEXT
  VALUE
 
06C6 6E00      05723         MOVWF   r0x00
06C8 CFF3 F000 05724         MOVFF   PRODL, r0x01
06CC CFF4 F000 05725         MOVFF   PRODH, r0x02
06D0 6AE5      05726         CLRF    POSTDEC1
06D2 C000 FFE9 05727         MOVFF   r0x00, FSR0L
06D6 C000 FFF3 05728         MOVFF   r0x01, PRODL
06DA 5000      05729         MOVF    r0x02, W
06DC EC00 F000 05730         CALL    __gptrput1
06E0 05731 _00824_DS_:
               05732 ;       .line   235; /home/mandon/pinguino32/copie courante/linux/tools/bin/../share/sdcc/include/pic16/stdio.c return pc;
06E0 C000 FFF3 05733         MOVFF   r0x0a, PRODL
06E4 5000      05734         MOVF    r0x09, W
06E6 CFE4 F000 05735         MOVFF   PREINC1, r0x13
06EA CFE4 F000 05736         MOVFF   PREINC1, r0x12
06EE CFE4 F000 05737         MOVFF   PREINC1, r0x11
06F2 CFE4 F000 05738         MOVFF   PREINC1, r0x10
06F6 CFE4 F000 05739         MOVFF   PREINC1, r0x0f
06FA CFE4 F000 05740         MOVFF   PREINC1, r0x0e
06FE CFE4 F000 05741         MOVFF   PREINC1, r0x0d
0702 CFE4 F000 05742         MOVFF   PREINC1, r0x0c
0706 CFE4 F000 05743         MOVFF   PREINC1, r0x0b
070A CFE4 F000 05744         MOVFF   PREINC1, r0x0a
070E CFE4 F000 05745         MOVFF   PREINC1, r0x09
0712 CFE4 F000 05746         MOVFF   PREINC1, r0x08
0716 CFE4 F000 05747         MOVFF   PREINC1, r0x07
071A CFE4 F000 05748         MOVFF   PREINC1, r0x06
071E CFE4 F000 05749         MOVFF   PREINC1, r0x05
0722 CFE4 F000 05750         MOVFF   PREINC1, r0x04
0726 CFE4 F000 05751         MOVFF   PREINC1, r0x03
072A CFE4 F000 05752         MOVFF   PREINC1, r0x02
072E CFE4 F000 05753         MOVFF   PREINC1, r0x01
0732 CFE4 F000 05754         MOVFF   PREINC1, r0x00
0736 CFE4 FFD9 05755         MOVFF   PREINC1, FSR2L
073A 0012      05756         RETURN  
               05757 
               05758 ; ; Starting pCode block
               05759 S_main__pprinti code
0000 05760 _pprinti:
               05761 ;       .line   93; /home/mandon/pinguino32/copie courante/linux/tools/bin/../share/sdcc/include/pic16/stdio.c  static int pprinti(char **out, int i, int b, int sg, int width, int pad, int letbase)
0000 CFD9 FFE5 05762         MOVFF   FSR2L, POSTDEC1
0004 CFE1 FFD9 05763         MOVFF   FSR1L, FSR2L
0008 C000 FFE5 05764         MOVFF   r0x00, POSTDEC1
000C C000 FFE5 05765         MOVFF   r0x01, POSTDEC1
0010 C000 FFE5 05766         MOVFF   r0x02, POSTDEC1
0014 C000 FFE5 05767         MOVFF   r0x03, POSTDEC1
0018 C000 FFE5 05768         MOVFF   r0x04, POSTDEC1
001C C000 FFE5 05769         MOVFF   r0x05, POSTDEC1
0020 C000 FFE5 05770         MOVFF   r0x06, POSTDEC1
0024 C000 FFE5 05771         MOVFF   r0x07, POSTDEC1
0028 C000 FFE5 05772         MOVFF   r0x08, POSTDEC1
002C C000 FFE5 05773         MOVFF   r0x09, POSTDEC1
0030 C000 FFE5 05774         MOVFF   r0x0a, POSTDEC1
0034 C000 FFE5 05775         MOVFF   r0x0b, POSTDEC1
0038 C000 FFE5 05776         MOVFF   r0x0c, POSTDEC1
gpasm-0.13.7 beta               /home/mandon/pinguino32/copie courante/linux/source/main.asm5-29-2011  20:37:50          PAGE 111


LOC  OBJECT CODE     LINE SOURCE TEXT
  VALUE
 
003C C000 FFE5 05777         MOVFF   r0x0d, POSTDEC1
0040 C000 FFE5 05778         MOVFF   r0x0e, POSTDEC1
0044 C000 FFE5 05779         MOVFF   r0x0f, POSTDEC1
0048 C000 FFE5 05780         MOVFF   r0x10, POSTDEC1
004C C000 FFE5 05781         MOVFF   r0x11, POSTDEC1
0050 C000 FFE5 05782         MOVFF   r0x12, POSTDEC1
0054 C000 FFE5 05783         MOVFF   r0x13, POSTDEC1
0058 C000 FFE5 05784         MOVFF   r0x14, POSTDEC1
005C C000 FFE5 05785         MOVFF   r0x15, POSTDEC1
0060 C000 FFE5 05786         MOVFF   r0x16, POSTDEC1
0064 C000 FFE5 05787         MOVFF   r0x17, POSTDEC1
0068 C000 FFE5 05788         MOVFF   r0x18, POSTDEC1
006C C000 FFE5 05789         MOVFF   r0x19, POSTDEC1
0070 C000 FFE5 05790         MOVFF   r0x1a, POSTDEC1
0074 0E02      05791         MOVLW   0x02
0076 CFDB F000 05792         MOVFF   PLUSW2, r0x00
007A 0E03      05793         MOVLW   0x03
007C CFDB F000 05794         MOVFF   PLUSW2, r0x01
0080 0E04      05795         MOVLW   0x04
0082 CFDB F000 05796         MOVFF   PLUSW2, r0x02
0086 0E05      05797         MOVLW   0x05
0088 CFDB F000 05798         MOVFF   PLUSW2, r0x03
008C 0E06      05799         MOVLW   0x06
008E CFDB F000 05800         MOVFF   PLUSW2, r0x04
0092 0E07      05801         MOVLW   0x07
0094 CFDB F000 05802         MOVFF   PLUSW2, r0x05
0098 0E08      05803         MOVLW   0x08
009A CFDB F000 05804         MOVFF   PLUSW2, r0x06
009E 0E09      05805         MOVLW   0x09
00A0 CFDB F000 05806         MOVFF   PLUSW2, r0x07
00A4 0E0A      05807         MOVLW   0x0a
00A6 CFDB F000 05808         MOVFF   PLUSW2, r0x08
00AA 0E0B      05809         MOVLW   0x0b
00AC CFDB F000 05810         MOVFF   PLUSW2, r0x09
00B0 0E0C      05811         MOVLW   0x0c
00B2 CFDB F000 05812         MOVFF   PLUSW2, r0x0a
00B6 0E0D      05813         MOVLW   0x0d
00B8 CFDB F000 05814         MOVFF   PLUSW2, r0x0b
00BC 0E0E      05815         MOVLW   0x0e
00BE CFDB F000 05816         MOVFF   PLUSW2, r0x0c
00C2 0E0F      05817         MOVLW   0x0f
00C4 CFDB F000 05818         MOVFF   PLUSW2, r0x0d
00C8 0E10      05819         MOVLW   0x10
00CA CFDB F000 05820         MOVFF   PLUSW2, r0x0e
               05821 ;       .line   97; /home/mandon/pinguino32/copie courante/linux/tools/bin/../share/sdcc/include/pic16/stdio.c  int t, neg = 0, pc = 0;
00CE 6A00      05822         CLRF    r0x0f
00D0 6A00      05823         CLRF    r0x10
00D2 6A00      05824         CLRF    r0x11
00D4 6A00      05825         CLRF    r0x12
               05826 ;       .line   98; /home/mandon/pinguino32/copie courante/linux/tools/bin/../share/sdcc/include/pic16/stdio.c  unsigned int u = i;
00D6 C000 F000 05827         MOVFF   r0x03, r0x13
00DA C000 F000 05828         MOVFF   r0x04, r0x14
               05829 ;       .line   100; /home/mandon/pinguino32/copie courante/linux/tools/bin/../share/sdcc/include/pic16/stdio.c if (i == 0)
00DE 5000      05830         MOVF    r0x03, W
gpasm-0.13.7 beta               /home/mandon/pinguino32/copie courante/linux/source/main.asm5-29-2011  20:37:50          PAGE 112


LOC  OBJECT CODE     LINE SOURCE TEXT
  VALUE
 
00E0 1000      05831         IORWF   r0x04, W
00E2 E100      05832         BNZ     _00750_DS_
               05833 ;       .line   102; /home/mandon/pinguino32/copie courante/linux/tools/bin/../share/sdcc/include/pic16/stdio.c print_buf[0] = '0';
00E4 0E30      05834         MOVLW   0x30
00E6 0000      05835         BANKSEL _pprinti_print_buf_1_1
00E8 6F00      05836         MOVWF   _pprinti_print_buf_1_1, B
               05837 ; removed redundant BANKSEL
               05838 ;       .line   103; /home/mandon/pinguino32/copie courante/linux/tools/bin/../share/sdcc/include/pic16/stdio.c print_buf[1] = '\0';
00EA 6B00      05839         CLRF    (_pprinti_print_buf_1_1 + 1), B
               05840 ;       .line   104; /home/mandon/pinguino32/copie courante/linux/tools/bin/../share/sdcc/include/pic16/stdio.c return pprints(out, print_buf, width, pad);
00EC 5000      05841         MOVF    r0x0c, W
00EE 6EE5      05842         MOVWF   POSTDEC1
00F0 5000      05843         MOVF    r0x0b, W
00F2 6EE5      05844         MOVWF   POSTDEC1
00F4 5000      05845         MOVF    r0x0a, W
00F6 6EE5      05846         MOVWF   POSTDEC1
00F8 5000      05847         MOVF    r0x09, W
00FA 6EE5      05848         MOVWF   POSTDEC1
00FC 0E80      05849         MOVLW   0x80
00FE 6EE5      05850         MOVWF   POSTDEC1
0100 0E00      05851         MOVLW   HIGH(_pprinti_print_buf_1_1)
0102 6EE5      05852         MOVWF   POSTDEC1
0104 0E00      05853         MOVLW   LOW(_pprinti_print_buf_1_1)
0106 6EE5      05854         MOVWF   POSTDEC1
0108 5000      05855         MOVF    r0x02, W
010A 6EE5      05856         MOVWF   POSTDEC1
010C 5000      05857         MOVF    r0x01, W
010E 6EE5      05858         MOVWF   POSTDEC1
0110 5000      05859         MOVF    r0x00, W
0112 6EE5      05860         MOVWF   POSTDEC1
0114 EC00 F000 05861         CALL    _pprints
0118 6E00      05862         MOVWF   r0x15
011A CFF3 F000 05863         MOVFF   PRODL, r0x16
011E 0E0A      05864         MOVLW   0x0a
0120 26E1      05865         ADDWF   FSR1L, F
0122 C000 FFF3 05866         MOVFF   r0x16, PRODL
0126 5000      05867         MOVF    r0x15, W
0128 D000      05868         BRA     _00766_DS_
012A 05869 _00750_DS_:
               05870 ;       .line   107; /home/mandon/pinguino32/copie courante/linux/tools/bin/../share/sdcc/include/pic16/stdio.c if (sg && b == 10 && i < 0)
012A 5000      05871         MOVF    r0x07, W
012C 1000      05872         IORWF   r0x08, W
012E E000      05873         BZ      _00752_DS_
0130 5000      05874         MOVF    r0x05, W
0132 0A0A      05875         XORLW   0x0a
0134 E100      05876         BNZ     _00779_DS_
0136 5000      05877         MOVF    r0x06, W
0138 E000      05878         BZ      _00780_DS_
013A 05879 _00779_DS_:
013A D000      05880         BRA     _00752_DS_
013C 05881 _00780_DS_:
013C 80D8      05882         BSF     STATUS, 0
013E AE00      05883         BTFSS   r0x04, 7
0140 90D8      05884         BCF     STATUS, 0
gpasm-0.13.7 beta               /home/mandon/pinguino32/copie courante/linux/source/main.asm5-29-2011  20:37:50          PAGE 113


LOC  OBJECT CODE     LINE SOURCE TEXT
  VALUE
 
0142 E300      05885         BNC     _00752_DS_
               05886 ;       .line   109; /home/mandon/pinguino32/copie courante/linux/tools/bin/../share/sdcc/include/pic16/stdio.c neg = 1;
0144 0E01      05887         MOVLW   0x01
0146 6E00      05888         MOVWF   r0x0f
0148 6A00      05889         CLRF    r0x10
               05890 ;       .line   110; /home/mandon/pinguino32/copie courante/linux/tools/bin/../share/sdcc/include/pic16/stdio.c u = -i;
014A 1C00      05891         COMF    r0x04, W
014C 6E00      05892         MOVWF   r0x14
014E 1C00      05893         COMF    r0x03, W
0150 6E00      05894         MOVWF   r0x13
0152 4A00      05895         INFSNZ  r0x13, F
0154 2A00      05896         INCF    r0x14, F
0156 05897 _00752_DS_:
               05898 ;       .line   113; /home/mandon/pinguino32/copie courante/linux/tools/bin/../share/sdcc/include/pic16/stdio.c s = print_buf + PRINT_BUF_LEN-1;
0156 0E00      05899         MOVLW   HIGH(_pprinti_print_buf_1_1 + 11)
0158 6E00      05900         MOVWF   r0x04
015A 0E00      05901         MOVLW   LOW(_pprinti_print_buf_1_1 + 11)
015C 6E00      05902         MOVWF   r0x03
015E 0E80      05903         MOVLW   0x80
0160 6E00      05904         MOVWF   r0x07
               05905 ;       .line   114; /home/mandon/pinguino32/copie courante/linux/tools/bin/../share/sdcc/include/pic16/stdio.c *s = '\0';
0162 6AE5      05906         CLRF    POSTDEC1
0164 C000 FFE9 05907         MOVFF   r0x03, FSR0L
0168 C000 FFF3 05908         MOVFF   r0x04, PRODL
016C EC00 F000 05909         CALL    __gptrput1
               05910 ;       .line   116; /home/mandon/pinguino32/copie courante/linux/tools/bin/../share/sdcc/include/pic16/stdio.c while (u)
0170 5000      05911         MOVF    r0x0d, W
0172 0FC6      05912         ADDLW   0xc6
0174 6E00      05913         MOVWF   r0x0d
0176 C000 F000 05914         MOVFF   r0x05, r0x0e
017A C000 F000 05915         MOVFF   r0x06, r0x15
017E C000 F000 05916         MOVFF   r0x03, r0x16
0182 C000 F000 05917         MOVFF   r0x04, r0x17
0186 C000 F000 05918         MOVFF   r0x07, r0x18
018A 05919 _00757_DS_:
018A 5000      05920         MOVF    r0x13, W
018C 1000      05921         IORWF   r0x14, W
018E E000      05922         BZ      _00778_DS_
               05923 ;       .line   118; /home/mandon/pinguino32/copie courante/linux/tools/bin/../share/sdcc/include/pic16/stdio.c t = u % b;
0190 5000      05924         MOVF    r0x15, W
0192 6EE5      05925         MOVWF   POSTDEC1
0194 5000      05926         MOVF    r0x0e, W
0196 6EE5      05927         MOVWF   POSTDEC1
0198 5000      05928         MOVF    r0x14, W
019A 6EE5      05929         MOVWF   POSTDEC1
019C 5000      05930         MOVF    r0x13, W
019E 6EE5      05931         MOVWF   POSTDEC1
01A0 EC00 F000 05932         CALL    __moduint
01A4 6E00      05933         MOVWF   r0x19
01A6 CFF3 F000 05934         MOVFF   PRODL, r0x1a
01AA 0E04      05935         MOVLW   0x04
01AC 26E1      05936         ADDWF   FSR1L, F
               05937 ;       .line   119; /home/mandon/pinguino32/copie courante/linux/tools/bin/../share/sdcc/include/pic16/stdio.c if( t >= 10 )
01AE 5000      05938         MOVF    r0x1a, W
gpasm-0.13.7 beta               /home/mandon/pinguino32/copie courante/linux/source/main.asm5-29-2011  20:37:50          PAGE 114


LOC  OBJECT CODE     LINE SOURCE TEXT
  VALUE
 
01B0 0F80      05939         ADDLW   0x80
01B2 0F80      05940         ADDLW   0x80
01B4 E100      05941         BNZ     _00782_DS_
01B6 0E0A      05942         MOVLW   0x0a
01B8 5C00      05943         SUBWF   r0x19, W
01BA 05944 _00782_DS_:
01BA E300      05945         BNC     _00756_DS_
               05946 ;       .line   120; /home/mandon/pinguino32/copie courante/linux/tools/bin/../share/sdcc/include/pic16/stdio.c t += letbase - '0' - 10;
01BC 5000      05947         MOVF    r0x0d, W
01BE 2600      05948         ADDWF   r0x19, F
01C0 05949 _00756_DS_:
               05950 ;       .line   121; /home/mandon/pinguino32/copie courante/linux/tools/bin/../share/sdcc/include/pic16/stdio.c *--s = t + '0';
01C0 0EFF      05951         MOVLW   0xff
01C2 2600      05952         ADDWF   r0x16, F
01C4 2200      05953         ADDWFC  r0x17, F
01C6 2200      05954         ADDWFC  r0x18, F
01C8 0E30      05955         MOVLW   0x30
01CA 2600      05956         ADDWF   r0x19, F
01CC C000 FFE5 05957         MOVFF   r0x19, POSTDEC1
01D0 C000 FFE9 05958         MOVFF   r0x16, FSR0L
01D4 C000 FFF3 05959         MOVFF   r0x17, PRODL
01D8 5000      05960         MOVF    r0x18, W
01DA EC00 F000 05961         CALL    __gptrput1
               05962 ;       .line   122; /home/mandon/pinguino32/copie courante/linux/tools/bin/../share/sdcc/include/pic16/stdio.c u /= b;
01DE 5000      05963         MOVF    r0x06, W
01E0 6EE5      05964         MOVWF   POSTDEC1
01E2 5000      05965         MOVF    r0x05, W
01E4 6EE5      05966         MOVWF   POSTDEC1
01E6 5000      05967         MOVF    r0x14, W
01E8 6EE5      05968         MOVWF   POSTDEC1
01EA 5000      05969         MOVF    r0x13, W
01EC 6EE5      05970         MOVWF   POSTDEC1
01EE EC00 F000 05971         CALL    __divuint
01F2 6E00      05972         MOVWF   r0x13
01F4 CFF3 F000 05973         MOVFF   PRODL, r0x14
01F8 0E04      05974         MOVLW   0x04
01FA 26E1      05975         ADDWF   FSR1L, F
01FC D000      05976         BRA     _00757_DS_
01FE 05977 _00778_DS_:
01FE C000 F000 05978         MOVFF   r0x16, r0x03
0202 C000 F000 05979         MOVFF   r0x17, r0x04
0206 C000 F000 05980         MOVFF   r0x18, r0x07
               05981 ;       .line   125; /home/mandon/pinguino32/copie courante/linux/tools/bin/../share/sdcc/include/pic16/stdio.c if (neg)
020A 5000      05982         MOVF    r0x0f, W
020C 1000      05983         IORWF   r0x10, W
020E E000      05984         BZ      _00765_DS_
               05985 ;       .line   127; /home/mandon/pinguino32/copie courante/linux/tools/bin/../share/sdcc/include/pic16/stdio.c if (width && (pad & PAD_ZERO))
0210 5000      05986         MOVF    r0x09, W
0212 1000      05987         IORWF   r0x0a, W
0214 E000      05988         BZ      _00761_DS_
0216 A200      05989         BTFSS   r0x0b, 1
0218 D000      05990         BRA     _00761_DS_
               05991 ;       .line   129; /home/mandon/pinguino32/copie courante/linux/tools/bin/../share/sdcc/include/pic16/stdio.c pprintchar(out, '-');
021A 6AE5      05992         CLRF    POSTDEC1
gpasm-0.13.7 beta               /home/mandon/pinguino32/copie courante/linux/source/main.asm5-29-2011  20:37:50          PAGE 115


LOC  OBJECT CODE     LINE SOURCE TEXT
  VALUE
 
021C 0E2D      05993         MOVLW   0x2d
021E 6EE5      05994         MOVWF   POSTDEC1
0220 5000      05995         MOVF    r0x02, W
0222 6EE5      05996         MOVWF   POSTDEC1
0224 5000      05997         MOVF    r0x01, W
0226 6EE5      05998         MOVWF   POSTDEC1
0228 5000      05999         MOVF    r0x00, W
022A 6EE5      06000         MOVWF   POSTDEC1
022C EC00 F000 06001         CALL    _pprintchar
0230 0E05      06002         MOVLW   0x05
0232 26E1      06003         ADDWF   FSR1L, F
               06004 ;       .line   130; /home/mandon/pinguino32/copie courante/linux/tools/bin/../share/sdcc/include/pic16/stdio.c ++pc;
0234 0E01      06005         MOVLW   0x01
0236 6E00      06006         MOVWF   r0x11
0238 6A00      06007         CLRF    r0x12
               06008 ;       .line   131; /home/mandon/pinguino32/copie courante/linux/tools/bin/../share/sdcc/include/pic16/stdio.c --width;
023A 0EFF      06009         MOVLW   0xff
023C 2600      06010         ADDWF   r0x09, F
023E A0D8      06011         BTFSS   STATUS, 0
0240 0600      06012         DECF    r0x0a, F
0242 D000      06013         BRA     _00765_DS_
0244 06014 _00761_DS_:
               06015 ;       .line   135; /home/mandon/pinguino32/copie courante/linux/tools/bin/../share/sdcc/include/pic16/stdio.c *--s = '-';
0244 0EFF      06016         MOVLW   0xff
0246 2600      06017         ADDWF   r0x03, F
0248 2200      06018         ADDWFC  r0x04, F
024A 2200      06019         ADDWFC  r0x07, F
024C 0E2D      06020         MOVLW   0x2d
024E 6EE5      06021         MOVWF   POSTDEC1
0250 C000 FFE9 06022         MOVFF   r0x03, FSR0L
0254 C000 FFF3 06023         MOVFF   r0x04, PRODL
0258 5000      06024         MOVF    r0x07, W
025A EC00 F000 06025         CALL    __gptrput1
025E 06026 _00765_DS_:
               06027 ;       .line   139; /home/mandon/pinguino32/copie courante/linux/tools/bin/../share/sdcc/include/pic16/stdio.c return pc + pprints(out, s, width, pad);
025E 5000      06028         MOVF    r0x0c, W
0260 6EE5      06029         MOVWF   POSTDEC1
0262 5000      06030         MOVF    r0x0b, W
0264 6EE5      06031         MOVWF   POSTDEC1
0266 5000      06032         MOVF    r0x0a, W
0268 6EE5      06033         MOVWF   POSTDEC1
026A 5000      06034         MOVF    r0x09, W
026C 6EE5      06035         MOVWF   POSTDEC1
026E 5000      06036         MOVF    r0x07, W
0270 6EE5      06037         MOVWF   POSTDEC1
0272 5000      06038         MOVF    r0x04, W
0274 6EE5      06039         MOVWF   POSTDEC1
0276 5000      06040         MOVF    r0x03, W
0278 6EE5      06041         MOVWF   POSTDEC1
027A 5000      06042         MOVF    r0x02, W
027C 6EE5      06043         MOVWF   POSTDEC1
027E 5000      06044         MOVF    r0x01, W
0280 6EE5      06045         MOVWF   POSTDEC1
0282 5000      06046         MOVF    r0x00, W
gpasm-0.13.7 beta               /home/mandon/pinguino32/copie courante/linux/source/main.asm5-29-2011  20:37:50          PAGE 116


LOC  OBJECT CODE     LINE SOURCE TEXT
  VALUE
 
0284 6EE5      06047         MOVWF   POSTDEC1
0286 EC00 F000 06048         CALL    _pprints
028A 6E00      06049         MOVWF   r0x00
028C CFF3 F000 06050         MOVFF   PRODL, r0x01
0290 0E0A      06051         MOVLW   0x0a
0292 26E1      06052         ADDWF   FSR1L, F
0294 5000      06053         MOVF    r0x00, W
0296 2600      06054         ADDWF   r0x11, F
0298 5000      06055         MOVF    r0x01, W
029A 2200      06056         ADDWFC  r0x12, F
029C C000 FFF3 06057         MOVFF   r0x12, PRODL
02A0 5000      06058         MOVF    r0x11, W
02A2 06059 _00766_DS_:
02A2 CFE4 F000 06060         MOVFF   PREINC1, r0x1a
02A6 CFE4 F000 06061         MOVFF   PREINC1, r0x19
02AA CFE4 F000 06062         MOVFF   PREINC1, r0x18
02AE CFE4 F000 06063         MOVFF   PREINC1, r0x17
02B2 CFE4 F000 06064         MOVFF   PREINC1, r0x16
02B6 CFE4 F000 06065         MOVFF   PREINC1, r0x15
02BA CFE4 F000 06066         MOVFF   PREINC1, r0x14
02BE CFE4 F000 06067         MOVFF   PREINC1, r0x13
02C2 CFE4 F000 06068         MOVFF   PREINC1, r0x12
02C6 CFE4 F000 06069         MOVFF   PREINC1, r0x11
02CA CFE4 F000 06070         MOVFF   PREINC1, r0x10
02CE CFE4 F000 06071         MOVFF   PREINC1, r0x0f
02D2 CFE4 F000 06072         MOVFF   PREINC1, r0x0e
02D6 CFE4 F000 06073         MOVFF   PREINC1, r0x0d
02DA CFE4 F000 06074         MOVFF   PREINC1, r0x0c
02DE CFE4 F000 06075         MOVFF   PREINC1, r0x0b
02E2 CFE4 F000 06076         MOVFF   PREINC1, r0x0a
02E6 CFE4 F000 06077         MOVFF   PREINC1, r0x09
02EA CFE4 F000 06078         MOVFF   PREINC1, r0x08
02EE CFE4 F000 06079         MOVFF   PREINC1, r0x07
02F2 CFE4 F000 06080         MOVFF   PREINC1, r0x06
02F6 CFE4 F000 06081         MOVFF   PREINC1, r0x05
02FA CFE4 F000 06082         MOVFF   PREINC1, r0x04
02FE CFE4 F000 06083         MOVFF   PREINC1, r0x03
0302 CFE4 F000 06084         MOVFF   PREINC1, r0x02
0306 CFE4 F000 06085         MOVFF   PREINC1, r0x01
030A CFE4 F000 06086         MOVFF   PREINC1, r0x00
030E CFE4 FFD9 06087         MOVFF   PREINC1, FSR2L
0312 0012      06088         RETURN  
               06089 
               06090 ; ; Starting pCode block
               06091 S_main__pprints code
0000 06092 _pprints:
               06093 ;       .line   51; /home/mandon/pinguino32/copie courante/linux/tools/bin/../share/sdcc/include/pic16/stdio.c  static int pprints(char **out, const char *string, int width, int pad)
0000 CFD9 FFE5 06094         MOVFF   FSR2L, POSTDEC1
0004 CFE1 FFD9 06095         MOVFF   FSR1L, FSR2L
0008 C000 FFE5 06096         MOVFF   r0x00, POSTDEC1
000C C000 FFE5 06097         MOVFF   r0x01, POSTDEC1
0010 C000 FFE5 06098         MOVFF   r0x02, POSTDEC1
0014 C000 FFE5 06099         MOVFF   r0x03, POSTDEC1
0018 C000 FFE5 06100         MOVFF   r0x04, POSTDEC1
gpasm-0.13.7 beta               /home/mandon/pinguino32/copie courante/linux/source/main.asm5-29-2011  20:37:50          PAGE 117


LOC  OBJECT CODE     LINE SOURCE TEXT
  VALUE
 
001C C000 FFE5 06101         MOVFF   r0x05, POSTDEC1
0020 C000 FFE5 06102         MOVFF   r0x06, POSTDEC1
0024 C000 FFE5 06103         MOVFF   r0x07, POSTDEC1
0028 C000 FFE5 06104         MOVFF   r0x08, POSTDEC1
002C C000 FFE5 06105         MOVFF   r0x09, POSTDEC1
0030 C000 FFE5 06106         MOVFF   r0x0a, POSTDEC1
0034 C000 FFE5 06107         MOVFF   r0x0b, POSTDEC1
0038 C000 FFE5 06108         MOVFF   r0x0c, POSTDEC1
003C C000 FFE5 06109         MOVFF   r0x0d, POSTDEC1
0040 C000 FFE5 06110         MOVFF   r0x0e, POSTDEC1
0044 C000 FFE5 06111         MOVFF   r0x0f, POSTDEC1
0048 C000 FFE5 06112         MOVFF   r0x10, POSTDEC1
004C C000 FFE5 06113         MOVFF   r0x11, POSTDEC1
0050 C000 FFE5 06114         MOVFF   r0x12, POSTDEC1
0054 C000 FFE5 06115         MOVFF   r0x13, POSTDEC1
0058 0E02      06116         MOVLW   0x02
005A CFDB F000 06117         MOVFF   PLUSW2, r0x00
005E 0E03      06118         MOVLW   0x03
0060 CFDB F000 06119         MOVFF   PLUSW2, r0x01
0064 0E04      06120         MOVLW   0x04
0066 CFDB F000 06121         MOVFF   PLUSW2, r0x02
006A 0E05      06122         MOVLW   0x05
006C CFDB F000 06123         MOVFF   PLUSW2, r0x03
0070 0E06      06124         MOVLW   0x06
0072 CFDB F000 06125         MOVFF   PLUSW2, r0x04
0076 0E07      06126         MOVLW   0x07
0078 CFDB F000 06127         MOVFF   PLUSW2, r0x05
007C 0E08      06128         MOVLW   0x08
007E CFDB F000 06129         MOVFF   PLUSW2, r0x06
0082 0E09      06130         MOVLW   0x09
0084 CFDB F000 06131         MOVFF   PLUSW2, r0x07
0088 0E0A      06132         MOVLW   0x0a
008A CFDB F000 06133         MOVFF   PLUSW2, r0x08
008E 0E0B      06134         MOVLW   0x0b
0090 CFDB F000 06135         MOVFF   PLUSW2, r0x09
               06136 ;       .line   53; /home/mandon/pinguino32/copie courante/linux/tools/bin/../share/sdcc/include/pic16/stdio.c  register int pc = 0;
0094 6A00      06137         CLRF    r0x0a
0096 6A00      06138         CLRF    r0x0b
               06139 ;       .line   54; /home/mandon/pinguino32/copie courante/linux/tools/bin/../share/sdcc/include/pic16/stdio.c  int padchar = ' ';
0098 0E20      06140         MOVLW   0x20
009A 6E00      06141         MOVWF   r0x0c
009C 6A00      06142         CLRF    r0x0d
               06143 ;       .line   58; /home/mandon/pinguino32/copie courante/linux/tools/bin/../share/sdcc/include/pic16/stdio.c  if (width > 0)
009E 5000      06144         MOVF    r0x07, W
00A0 0F80      06145         ADDLW   0x80
00A2 0F80      06146         ADDLW   0x80
00A4 E100      06147         BNZ     _00739_DS_
00A6 0E01      06148         MOVLW   0x01
00A8 5C00      06149         SUBWF   r0x06, W
00AA 06150 _00739_DS_:
00AA E300      06151         BNC     _00703_DS_
               06152 ;       .line   60; /home/mandon/pinguino32/copie courante/linux/tools/bin/../share/sdcc/include/pic16/stdio.c  for (ptr = string; *ptr; ++ptr)
00AC 6A00      06153         CLRF    r0x0e
00AE 6A00      06154         CLRF    r0x0f
gpasm-0.13.7 beta               /home/mandon/pinguino32/copie courante/linux/source/main.asm5-29-2011  20:37:50          PAGE 118


LOC  OBJECT CODE     LINE SOURCE TEXT
  VALUE
 
00B0 C000 F000 06155         MOVFF   r0x03, r0x10
00B4 C000 F000 06156         MOVFF   r0x04, r0x11
00B8 C000 F000 06157         MOVFF   r0x05, r0x12
00BC 06158 _00706_DS_:
00BC C000 FFE9 06159         MOVFF   r0x10, FSR0L
00C0 C000 FFF3 06160         MOVFF   r0x11, PRODL
00C4 5000      06161         MOVF    r0x12, W
00C6 EC00 F000 06162         CALL    __gptrget1
00CA 6E00      06163         MOVWF   r0x13
00CC 5000      06164         MOVF    r0x13, W
00CE E000      06165         BZ      _00709_DS_
               06166 ;       .line   61; /home/mandon/pinguino32/copie courante/linux/tools/bin/../share/sdcc/include/pic16/stdio.c  ++len;
00D0 2A00      06167         INCF    r0x0e, F
00D2 B0D8      06168         BTFSC   STATUS, 0
00D4 2A00      06169         INCF    r0x0f, F
               06170 ;       .line   60; /home/mandon/pinguino32/copie courante/linux/tools/bin/../share/sdcc/include/pic16/stdio.c  for (ptr = string; *ptr; ++ptr)
00D6 2A00      06171         INCF    r0x10, F
00D8 B0D8      06172         BTFSC   STATUS, 0
00DA 2A00      06173         INCF    r0x11, F
00DC B0D8      06174         BTFSC   STATUS, 0
00DE 2A00      06175         INCF    r0x12, F
00E0 D000      06176         BRA     _00706_DS_
00E2 06177 _00709_DS_:
               06178 ;       .line   62; /home/mandon/pinguino32/copie courante/linux/tools/bin/../share/sdcc/include/pic16/stdio.c  if (len >= width)
00E2 5000      06179         MOVF    r0x0f, W
00E4 0F80      06180         ADDLW   0x80
00E6 6EF3      06181         MOVWF   PRODL
00E8 5000      06182         MOVF    r0x07, W
00EA 0F80      06183         ADDLW   0x80
00EC 5CF3      06184         SUBWF   PRODL, W
00EE E100      06185         BNZ     _00740_DS_
00F0 5000      06186         MOVF    r0x06, W
00F2 5C00      06187         SUBWF   r0x0e, W
00F4 06188 _00740_DS_:
00F4 E300      06189         BNC     _00698_DS_
               06190 ;       .line   63; /home/mandon/pinguino32/copie courante/linux/tools/bin/../share/sdcc/include/pic16/stdio.c  width = 0;
00F6 6A00      06191         CLRF    r0x06
00F8 6A00      06192         CLRF    r0x07
00FA D000      06193         BRA     _00699_DS_
00FC 06194 _00698_DS_:
               06195 ;       .line   65; /home/mandon/pinguino32/copie courante/linux/tools/bin/../share/sdcc/include/pic16/stdio.c  width -= len;
00FC 5000      06196         MOVF    r0x0e, W
00FE 5E00      06197         SUBWF   r0x06, F
0100 5000      06198         MOVF    r0x0f, W
0102 5A00      06199         SUBWFB  r0x07, F
0104 06200 _00699_DS_:
               06201 ;       .line   66; /home/mandon/pinguino32/copie courante/linux/tools/bin/../share/sdcc/include/pic16/stdio.c  if (pad & PAD_ZERO) padchar = '0';
0104 A200      06202         BTFSS   r0x08, 1
0106 D000      06203         BRA     _00703_DS_
0108 0E30      06204         MOVLW   0x30
010A 6E00      06205         MOVWF   r0x0c
010C 6A00      06206         CLRF    r0x0d
010E 06207 _00703_DS_:
               06208 ;       .line   68; /home/mandon/pinguino32/copie courante/linux/tools/bin/../share/sdcc/include/pic16/stdio.c  if (!(pad & PAD_RIGHT))
gpasm-0.13.7 beta               /home/mandon/pinguino32/copie courante/linux/source/main.asm5-29-2011  20:37:50          PAGE 119


LOC  OBJECT CODE     LINE SOURCE TEXT
  VALUE
 
010E B000      06209         BTFSC   r0x08, 0
0110 D000      06210         BRA     _00732_DS_
0112 6A00      06211         CLRF    r0x08
0114 6A00      06212         CLRF    r0x09
0116 C000 F000 06213         MOVFF   r0x06, r0x0e
011A C000 F000 06214         MOVFF   r0x07, r0x0f
011E 06215 _00710_DS_:
               06216 ;       .line   70; /home/mandon/pinguino32/copie courante/linux/tools/bin/../share/sdcc/include/pic16/stdio.c  for ( ; width > 0; --width)
011E 5000      06217         MOVF    r0x0f, W
0120 0F80      06218         ADDLW   0x80
0122 0F80      06219         ADDLW   0x80
0124 E100      06220         BNZ     _00743_DS_
0126 0E01      06221         MOVLW   0x01
0128 5C00      06222         SUBWF   r0x0e, W
012A 06223 _00743_DS_:
012A E300      06224         BNC     _00736_DS_
               06225 ;       .line   72; /home/mandon/pinguino32/copie courante/linux/tools/bin/../share/sdcc/include/pic16/stdio.c  pprintchar(out, padchar);
012C 5000      06226         MOVF    r0x0d, W
012E 6EE5      06227         MOVWF   POSTDEC1
0130 5000      06228         MOVF    r0x0c, W
0132 6EE5      06229         MOVWF   POSTDEC1
0134 5000      06230         MOVF    r0x02, W
0136 6EE5      06231         MOVWF   POSTDEC1
0138 5000      06232         MOVF    r0x01, W
013A 6EE5      06233         MOVWF   POSTDEC1
013C 5000      06234         MOVF    r0x00, W
013E 6EE5      06235         MOVWF   POSTDEC1
0140 EC00 F000 06236         CALL    _pprintchar
0144 0E05      06237         MOVLW   0x05
0146 26E1      06238         ADDWF   FSR1L, F
               06239 ;       .line   73; /home/mandon/pinguino32/copie courante/linux/tools/bin/../share/sdcc/include/pic16/stdio.c  ++pc;
0148 2A00      06240         INCF    r0x08, F
014A B0D8      06241         BTFSC   STATUS, 0
014C 2A00      06242         INCF    r0x09, F
               06243 ;       .line   70; /home/mandon/pinguino32/copie courante/linux/tools/bin/../share/sdcc/include/pic16/stdio.c  for ( ; width > 0; --width)
014E 0EFF      06244         MOVLW   0xff
0150 2600      06245         ADDWF   r0x0e, F
0152 A0D8      06246         BTFSS   STATUS, 0
0154 0600      06247         DECF    r0x0f, F
0156 D000      06248         BRA     _00710_DS_
0158 06249 _00736_DS_:
0158 C000 F000 06250         MOVFF   r0x08, r0x0a
015C C000 F000 06251         MOVFF   r0x09, r0x0b
0160 C000 F000 06252         MOVFF   r0x0e, r0x06
0164 C000 F000 06253         MOVFF   r0x0f, r0x07
0168 06254 _00732_DS_:
0168 C000 F000 06255         MOVFF   r0x0a, r0x08
016C C000 F000 06256         MOVFF   r0x0b, r0x09
0170 06257 _00714_DS_:
               06258 ;       .line   76; /home/mandon/pinguino32/copie courante/linux/tools/bin/../share/sdcc/include/pic16/stdio.c  for ( ; *string ; ++string)
0170 C000 FFE9 06259         MOVFF   r0x03, FSR0L
0174 C000 FFF3 06260         MOVFF   r0x04, PRODL
0178 5000      06261         MOVF    r0x05, W
017A EC00 F000 06262         CALL    __gptrget1
gpasm-0.13.7 beta               /home/mandon/pinguino32/copie courante/linux/source/main.asm5-29-2011  20:37:50          PAGE 120


LOC  OBJECT CODE     LINE SOURCE TEXT
  VALUE
 
017E 6E00      06263         MOVWF   r0x0a
0180 5000      06264         MOVF    r0x0a, W
0182 E000      06265         BZ      _00734_DS_
               06266 ;       .line   78; /home/mandon/pinguino32/copie courante/linux/tools/bin/../share/sdcc/include/pic16/stdio.c  pprintchar(out, *string);
0184 6A00      06267         CLRF    r0x0b
0186 BE00      06268         BTFSC   r0x0a, 7
0188 6800      06269         SETF    r0x0b
018A 5000      06270         MOVF    r0x0b, W
018C 6EE5      06271         MOVWF   POSTDEC1
018E 5000      06272         MOVF    r0x0a, W
0190 6EE5      06273         MOVWF   POSTDEC1
0192 5000      06274         MOVF    r0x02, W
0194 6EE5      06275         MOVWF   POSTDEC1
0196 5000      06276         MOVF    r0x01, W
0198 6EE5      06277         MOVWF   POSTDEC1
019A 5000      06278         MOVF    r0x00, W
019C 6EE5      06279         MOVWF   POSTDEC1
019E EC00 F000 06280         CALL    _pprintchar
01A2 0E05      06281         MOVLW   0x05
01A4 26E1      06282         ADDWF   FSR1L, F
               06283 ;       .line   79; /home/mandon/pinguino32/copie courante/linux/tools/bin/../share/sdcc/include/pic16/stdio.c  ++pc;
01A6 2A00      06284         INCF    r0x08, F
01A8 B0D8      06285         BTFSC   STATUS, 0
01AA 2A00      06286         INCF    r0x09, F
               06287 ;       .line   76; /home/mandon/pinguino32/copie courante/linux/tools/bin/../share/sdcc/include/pic16/stdio.c  for ( ; *string ; ++string)
01AC 2A00      06288         INCF    r0x03, F
01AE B0D8      06289         BTFSC   STATUS, 0
01B0 2A00      06290         INCF    r0x04, F
01B2 B0D8      06291         BTFSC   STATUS, 0
01B4 2A00      06292         INCF    r0x05, F
01B6 D000      06293         BRA     _00714_DS_
01B8 06294 _00734_DS_:
01B8 C000 F000 06295         MOVFF   r0x08, r0x03
01BC C000 F000 06296         MOVFF   r0x09, r0x04
01C0 C000 F000 06297         MOVFF   r0x06, r0x05
01C4 C000 F000 06298         MOVFF   r0x07, r0x06
01C8 06299 _00718_DS_:
               06300 ;       .line   81; /home/mandon/pinguino32/copie courante/linux/tools/bin/../share/sdcc/include/pic16/stdio.c  for ( ; width > 0; --width)
01C8 5000      06301         MOVF    r0x06, W
01CA 0F80      06302         ADDLW   0x80
01CC 0F80      06303         ADDLW   0x80
01CE E100      06304         BNZ     _00744_DS_
01D0 0E01      06305         MOVLW   0x01
01D2 5C00      06306         SUBWF   r0x05, W
01D4 06307 _00744_DS_:
01D4 E300      06308         BNC     _00721_DS_
               06309 ;       .line   83; /home/mandon/pinguino32/copie courante/linux/tools/bin/../share/sdcc/include/pic16/stdio.c  pprintchar(out, padchar);
01D6 5000      06310         MOVF    r0x0d, W
01D8 6EE5      06311         MOVWF   POSTDEC1
01DA 5000      06312         MOVF    r0x0c, W
01DC 6EE5      06313         MOVWF   POSTDEC1
01DE 5000      06314         MOVF    r0x02, W
01E0 6EE5      06315         MOVWF   POSTDEC1
01E2 5000      06316         MOVF    r0x01, W
gpasm-0.13.7 beta               /home/mandon/pinguino32/copie courante/linux/source/main.asm5-29-2011  20:37:50          PAGE 121


LOC  OBJECT CODE     LINE SOURCE TEXT
  VALUE
 
01E4 6EE5      06317         MOVWF   POSTDEC1
01E6 5000      06318         MOVF    r0x00, W
01E8 6EE5      06319         MOVWF   POSTDEC1
01EA EC00 F000 06320         CALL    _pprintchar
01EE 0E05      06321         MOVLW   0x05
01F0 26E1      06322         ADDWF   FSR1L, F
               06323 ;       .line   84; /home/mandon/pinguino32/copie courante/linux/tools/bin/../share/sdcc/include/pic16/stdio.c  ++pc;
01F2 2A00      06324         INCF    r0x03, F
01F4 B0D8      06325         BTFSC   STATUS, 0
01F6 2A00      06326         INCF    r0x04, F
               06327 ;       .line   81; /home/mandon/pinguino32/copie courante/linux/tools/bin/../share/sdcc/include/pic16/stdio.c  for ( ; width > 0; --width)
01F8 0EFF      06328         MOVLW   0xff
01FA 2600      06329         ADDWF   r0x05, F
01FC A0D8      06330         BTFSS   STATUS, 0
01FE 0600      06331         DECF    r0x06, F
0200 D000      06332         BRA     _00718_DS_
0202 06333 _00721_DS_:
               06334 ;       .line   87; /home/mandon/pinguino32/copie courante/linux/tools/bin/../share/sdcc/include/pic16/stdio.c  return pc;
0202 C000 FFF3 06335         MOVFF   r0x04, PRODL
0206 5000      06336         MOVF    r0x03, W
0208 CFE4 F000 06337         MOVFF   PREINC1, r0x13
020C CFE4 F000 06338         MOVFF   PREINC1, r0x12
0210 CFE4 F000 06339         MOVFF   PREINC1, r0x11
0214 CFE4 F000 06340         MOVFF   PREINC1, r0x10
0218 CFE4 F000 06341         MOVFF   PREINC1, r0x0f
021C CFE4 F000 06342         MOVFF   PREINC1, r0x0e
0220 CFE4 F000 06343         MOVFF   PREINC1, r0x0d
0224 CFE4 F000 06344         MOVFF   PREINC1, r0x0c
0228 CFE4 F000 06345         MOVFF   PREINC1, r0x0b
022C CFE4 F000 06346         MOVFF   PREINC1, r0x0a
0230 CFE4 F000 06347         MOVFF   PREINC1, r0x09
0234 CFE4 F000 06348         MOVFF   PREINC1, r0x08
0238 CFE4 F000 06349         MOVFF   PREINC1, r0x07
023C CFE4 F000 06350         MOVFF   PREINC1, r0x06
0240 CFE4 F000 06351         MOVFF   PREINC1, r0x05
0244 CFE4 F000 06352         MOVFF   PREINC1, r0x04
0248 CFE4 F000 06353         MOVFF   PREINC1, r0x03
024C CFE4 F000 06354         MOVFF   PREINC1, r0x02
0250 CFE4 F000 06355         MOVFF   PREINC1, r0x01
0254 CFE4 F000 06356         MOVFF   PREINC1, r0x00
0258 CFE4 FFD9 06357         MOVFF   PREINC1, FSR2L
025C 0012      06358         RETURN  
               06359 
               06360 ; ; Starting pCode block
               06361 S_main__pprintchar      code
0000 06362 _pprintchar:
               06363 ;       .line   34; /home/mandon/pinguino32/copie courante/linux/tools/bin/../share/sdcc/include/pic16/stdio.c  static void pprintchar(char **str, int c)
0000 CFD9 FFE5 06364         MOVFF   FSR2L, POSTDEC1
0004 CFE1 FFD9 06365         MOVFF   FSR1L, FSR2L
0008 C000 FFE5 06366         MOVFF   r0x00, POSTDEC1
000C C000 FFE5 06367         MOVFF   r0x01, POSTDEC1
0010 C000 FFE5 06368         MOVFF   r0x02, POSTDEC1
0014 C000 FFE5 06369         MOVFF   r0x03, POSTDEC1
0018 C000 FFE5 06370         MOVFF   r0x04, POSTDEC1
gpasm-0.13.7 beta               /home/mandon/pinguino32/copie courante/linux/source/main.asm5-29-2011  20:37:50          PAGE 122


LOC  OBJECT CODE     LINE SOURCE TEXT
  VALUE
 
001C C000 FFE5 06371         MOVFF   r0x05, POSTDEC1
0020 C000 FFE5 06372         MOVFF   r0x06, POSTDEC1
0024 C000 FFE5 06373         MOVFF   r0x07, POSTDEC1
0028 C000 FFE5 06374         MOVFF   r0x08, POSTDEC1
002C 0E02      06375         MOVLW   0x02
002E CFDB F000 06376         MOVFF   PLUSW2, r0x00
0032 0E03      06377         MOVLW   0x03
0034 CFDB F000 06378         MOVFF   PLUSW2, r0x01
0038 0E04      06379         MOVLW   0x04
003A CFDB F000 06380         MOVFF   PLUSW2, r0x02
003E 0E05      06381         MOVLW   0x05
0040 CFDB F000 06382         MOVFF   PLUSW2, r0x03
0044 0E06      06383         MOVLW   0x06
0046 CFDB F000 06384         MOVFF   PLUSW2, r0x04
               06385 ;       .line   36; /home/mandon/pinguino32/copie courante/linux/tools/bin/../share/sdcc/include/pic16/stdio.c  if (str)
004A 5000      06386         MOVF    r0x00, W
004C 1000      06387         IORWF   r0x01, W
004E 1000      06388         IORWF   r0x02, W
0050 E000      06389         BZ      _00687_DS_
               06390 ;       .line   38; /home/mandon/pinguino32/copie courante/linux/tools/bin/../share/sdcc/include/pic16/stdio.c  **str = c;
0052 C000 FFE9 06391         MOVFF   r0x00, FSR0L
0056 C000 FFF3 06392         MOVFF   r0x01, PRODL
005A 5000      06393         MOVF    r0x02, W
005C EC00 F000 06394         CALL    __gptrget3
0060 6E00      06395         MOVWF   r0x05
0062 CFF3 F000 06396         MOVFF   PRODL, r0x06
0066 CFF4 F000 06397         MOVFF   PRODH, r0x07
006A 5000      06398         MOVF    r0x03, W
006C 6E00      06399         MOVWF   r0x08
006E C000 FFE5 06400         MOVFF   r0x08, POSTDEC1
0072 C000 FFE9 06401         MOVFF   r0x05, FSR0L
0076 C000 FFF3 06402         MOVFF   r0x06, PRODL
007A 5000      06403         MOVF    r0x07, W
007C EC00 F000 06404         CALL    __gptrput1
               06405 ;       .line   39; /home/mandon/pinguino32/copie courante/linux/tools/bin/../share/sdcc/include/pic16/stdio.c  ++(*str);
0080 2A00      06406         INCF    r0x05, F
0082 B0D8      06407         BTFSC   STATUS, 0
0084 2A00      06408         INCF    r0x06, F
0086 B0D8      06409         BTFSC   STATUS, 0
0088 2A00      06410         INCF    r0x07, F
008A C000 FFE5 06411         MOVFF   r0x05, POSTDEC1
008E C000 FFF4 06412         MOVFF   r0x06, PRODH
0092 C000 FFF6 06413         MOVFF   r0x07, TBLPTRL
0096 C000 FFE9 06414         MOVFF   r0x00, FSR0L
009A C000 FFF3 06415         MOVFF   r0x01, PRODL
009E 5000      06416         MOVF    r0x02, W
00A0 EC00 F000 06417         CALL    __gptrput3
00A4 D000      06418         BRA     _00689_DS_
00A6 06419 _00687_DS_:
               06420 ;       .line   44; /home/mandon/pinguino32/copie courante/linux/tools/bin/../share/sdcc/include/pic16/stdio.c  pputchar(c);
00A6 5000      06421         MOVF    r0x04, W
00A8 6EE5      06422         MOVWF   POSTDEC1
00AA 5000      06423         MOVF    r0x03, W
00AC 6EE5      06424         MOVWF   POSTDEC1
gpasm-0.13.7 beta               /home/mandon/pinguino32/copie courante/linux/source/main.asm5-29-2011  20:37:50          PAGE 123


LOC  OBJECT CODE     LINE SOURCE TEXT
  VALUE
 
00AE CFF2 FFE5 06425         MOVFF   INTCON, POSTDEC1
00B2 9EF2      06426         BCF     INTCON, 7
00B4 0005      06427         PUSH    
00B6 0E00      06428         MOVLW   LOW(_00692_DS_)
00B8 6EFD      06429         MOVWF   TOSL
00BA 0E00      06430         MOVLW   HIGH(_00692_DS_)
00BC 6EFE      06431         MOVWF   TOSH
00BE 0E00      06432         MOVLW   UPPER(_00692_DS_)
00C0 6EFF      06433         MOVWF   TOSU
00C2 50E4      06434         MOVF    PREINC1, W
00C4 6EF2      06435         MOVWF   INTCON
00C6 C000 FFFB 06436         MOVFF   (_pputchar + 2), PCLATU
00CA C000 FFFA 06437         MOVFF   (_pputchar + 1), PCLATH
00CE 0000      06438         BANKSEL _pputchar
00D0 5100      06439         MOVF    _pputchar, W, B
00D2 6EF9      06440         MOVWF   PCL
00D4 06441 _00692_DS_:
00D4 0E02      06442         MOVLW   0x02
00D6 26E1      06443         ADDWF   FSR1L, F
00D8 06444 _00689_DS_:
00D8 CFE4 F000 06445         MOVFF   PREINC1, r0x08
00DC CFE4 F000 06446         MOVFF   PREINC1, r0x07
00E0 CFE4 F000 06447         MOVFF   PREINC1, r0x06
00E4 CFE4 F000 06448         MOVFF   PREINC1, r0x05
00E8 CFE4 F000 06449         MOVFF   PREINC1, r0x04
00EC CFE4 F000 06450         MOVFF   PREINC1, r0x03
00F0 CFE4 F000 06451         MOVFF   PREINC1, r0x02
00F4 CFE4 F000 06452         MOVFF   PREINC1, r0x01
00F8 CFE4 F000 06453         MOVFF   PREINC1, r0x00
00FC CFE4 FFD9 06454         MOVFF   PREINC1, FSR2L
0100 0012      06455         RETURN  
               06456 
               06457 ; ; Starting pCode block
               06458 S_main__val_southwest   code
0000 06459 _val_southwest:
               06460 ;       .line   449; /home/mandon/Bureau/validate.c     void val_southwest(LOC from,BOOL piececolour,BOOL depth)
0000 CFD9 FFE5 06461         MOVFF   FSR2L, POSTDEC1
0004 CFE1 FFD9 06462         MOVFF   FSR1L, FSR2L
0008 C000 FFE5 06463         MOVFF   r0x00, POSTDEC1
000C C000 FFE5 06464         MOVFF   r0x01, POSTDEC1
0010 C000 FFE5 06465         MOVFF   r0x02, POSTDEC1
0014 C000 FFE5 06466         MOVFF   r0x03, POSTDEC1
0018 C000 FFE5 06467         MOVFF   r0x04, POSTDEC1
001C C000 FFE5 06468         MOVFF   r0x05, POSTDEC1
0020 C000 FFE5 06469         MOVFF   r0x06, POSTDEC1
0024 C000 FFE5 06470         MOVFF   r0x07, POSTDEC1
0028 C000 FFE5 06471         MOVFF   r0x08, POSTDEC1
002C C000 FFE5 06472         MOVFF   r0x09, POSTDEC1
0030 C000 FFE5 06473         MOVFF   r0x0a, POSTDEC1
0034 0E02      06474         MOVLW   0x02
0036 CFDB F000 06475         MOVFF   PLUSW2, r0x00
003A 0E03      06476         MOVLW   0x03
003C CFDB F000 06477         MOVFF   PLUSW2, r0x01
0040 0E04      06478         MOVLW   0x04
gpasm-0.13.7 beta               /home/mandon/pinguino32/copie courante/linux/source/main.asm5-29-2011  20:37:50          PAGE 124


LOC  OBJECT CODE     LINE SOURCE TEXT
  VALUE
 
0042 CFDB F000 06479         MOVFF   PLUSW2, r0x02
0046 0E05      06480         MOVLW   0x05
0048 CFDB F000 06481         MOVFF   PLUSW2, r0x03
004C 0E06      06482         MOVLW   0x06
004E CFDB F000 06483         MOVFF   PLUSW2, r0x04
               06484 ;       .line   452; /home/mandon/Bureau/validate.c     COORD row = from[0], col = from[1];
0052 C000 FFE9 06485         MOVFF   r0x00, FSR0L
0056 C000 FFF3 06486         MOVFF   r0x01, PRODL
005A 5000      06487         MOVF    r0x02, W
005C EC00 F000 06488         CALL    __gptrget1
0060 6E00      06489         MOVWF   r0x05
0062 2A00      06490         INCF    r0x00, F
0064 B0D8      06491         BTFSC   STATUS, 0
0066 2A00      06492         INCF    r0x01, F
0068 B0D8      06493         BTFSC   STATUS, 0
006A 2A00      06494         INCF    r0x02, F
006C C000 FFE9 06495         MOVFF   r0x00, FSR0L
0070 C000 FFF3 06496         MOVFF   r0x01, PRODL
0074 5000      06497         MOVF    r0x02, W
0076 EC00 F000 06498         CALL    __gptrget1
007A 6E00      06499         MOVWF   r0x00
               06500 ;       .line   453; /home/mandon/Bureau/validate.c     BOOL piecefound = FALSE;
007C 6A00      06501         CLRF    r0x01
               06502 ;       .line   454; /home/mandon/Bureau/validate.c     while ((col-- > MIN_COL) && (row-- > MIN_ROW) && (!piecefound) && (depth--))
007E C000 F000 06503         MOVFF   r0x05, r0x02
               06504 ; ;multiply lit val:0x08 by variable r0x05 and store in r0x05
               06505 ; ;Unrolled 8 X 8 multiplication
               06506 ; ;FIXME: the function does not support result==WREG
0082 5000      06507         MOVF    r0x05, W
0084 0D08      06508         MULLW   0x08
0086 CFF3 F000 06509         MOVFF   PRODL, r0x05
008A 06510 _00658_DS_:
008A C000 F000 06511         MOVFF   r0x00, r0x06
008E 0600      06512         DECF    r0x00, F
0090 5000      06513         MOVF    r0x06, W
0092 B4D8      06514         BTFSC   STATUS, 2
0094 D000      06515         BRA     _00661_DS_
0096 C000 F000 06516         MOVFF   r0x02, r0x06
009A 0EF8      06517         MOVLW   0xf8
009C 2600      06518         ADDWF   r0x05, F
009E 0600      06519         DECF    r0x02, F
00A0 5000      06520         MOVF    r0x06, W
00A2 B4D8      06521         BTFSC   STATUS, 2
00A4 D000      06522         BRA     _00661_DS_
00A6 5000      06523         MOVF    r0x01, W
00A8 A4D8      06524         BTFSS   STATUS, 2
00AA D000      06525         BRA     _00661_DS_
00AC C000 F000 06526         MOVFF   r0x04, r0x06
00B0 0600      06527         DECF    r0x04, F
00B2 5000      06528         MOVF    r0x06, W
00B4 B4D8      06529         BTFSC   STATUS, 2
00B6 D000      06530         BRA     _00661_DS_
               06531 ;       .line   456; /home/mandon/Bureau/validate.c     if (board[row][col] == EMPTY)
Error [113] : Symbol not previously defined (_board).
gpasm-0.13.7 beta               /home/mandon/pinguino32/copie courante/linux/source/main.asm5-29-2011  20:37:50          PAGE 125


LOC  OBJECT CODE     LINE SOURCE TEXT
  VALUE
 
00B8 0E00      06532         MOVLW   LOW(_board)
00BA 2400      06533         ADDWF   r0x05, W
00BC 6E00      06534         MOVWF   r0x06
00BE 6A00      06535         CLRF    r0x07
Error [113] : Symbol not previously defined (_board).
00C0 0E00      06536         MOVLW   HIGH(_board)
00C2 2200      06537         ADDWFC  r0x07, F
00C4 5000      06538         MOVF    r0x00, W
00C6 2600      06539         ADDWF   r0x06, F
00C8 6AE8      06540         CLRF    WREG
00CA 2200      06541         ADDWFC  r0x07, F
00CC C000 FFE9 06542         MOVFF   r0x06, FSR0L
00D0 C000 FFEA 06543         MOVFF   r0x07, FSR0H
00D4 CFEF F000 06544         MOVFF   INDF0, r0x06
00D8 5000      06545         MOVF    r0x06, W
00DA E100      06546         BNZ     _00653_DS_
               06547 ;       .line   458; /home/mandon/Bureau/validate.c     validmovemask[row] |= (1<<col);
Error [113] : Symbol not previously defined (_validmovemask).
00DC 0E00      06548         MOVLW   LOW(_validmovemask)
00DE 2400      06549         ADDWF   r0x02, W
00E0 6E00      06550         MOVWF   r0x07
00E2 6A00      06551         CLRF    r0x08
Error [113] : Symbol not previously defined (_validmovemask).
00E4 0E00      06552         MOVLW   HIGH(_validmovemask)
00E6 2200      06553         ADDWFC  r0x08, F
00E8 C000 FFE9 06554         MOVFF   r0x07, FSR0L
00EC C000 FFEA 06555         MOVFF   r0x08, FSR0H
00F0 CFEF F000 06556         MOVFF   INDF0, r0x09
00F4 0E01      06557         MOVLW   0x01
00F6 6E00      06558         MOVWF   r0x0a
00F8 5000      06559         MOVF    r0x00, W
00FA E000      06560         BZ      _00672_DS_
00FC 6CE8      06561         NEGF    WREG
00FE 90D8      06562         BCF     STATUS, 0
0100 06563 _00673_DS_:
0100 3600      06564         RLCF    r0x0a, F
0102 0F01      06565         ADDLW   0x01
0104 E300      06566         BNC     _00673_DS_
0106 06567 _00672_DS_:
0106 5000      06568         MOVF    r0x0a, W
0108 1200      06569         IORWF   r0x09, F
010A C000 FFE9 06570         MOVFF   r0x07, FSR0L
010E C000 FFEA 06571         MOVFF   r0x08, FSR0H
0112 C000 FFEF 06572         MOVFF   r0x09, INDF0
0116 D000      06573         BRA     _00658_DS_
0118 06574 _00653_DS_:
               06575 ;       .line   460; /home/mandon/Bureau/validate.c     else if ((board[row][col] & 0x08) ^ piececolour)
0118 0E08      06576         MOVLW   0x08
011A 1600      06577         ANDWF   r0x06, F
011C 5000      06578         MOVF    r0x03, W
011E 1A00      06579         XORWF   r0x06, F
0120 5000      06580         MOVF    r0x06, W
0122 B4D8      06581         BTFSC   STATUS, 2
0124 D000      06582         BRA     _00650_DS_
gpasm-0.13.7 beta               /home/mandon/pinguino32/copie courante/linux/source/main.asm5-29-2011  20:37:50          PAGE 126


LOC  OBJECT CODE     LINE SOURCE TEXT
  VALUE
 
               06583 ;       .line   462; /home/mandon/Bureau/validate.c     validmovemask[row] |= (1<<col);
Error [113] : Symbol not previously defined (_validmovemask).
0126 0E00      06584         MOVLW   LOW(_validmovemask)
0128 2400      06585         ADDWF   r0x02, W
012A 6E00      06586         MOVWF   r0x06
012C 6A00      06587         CLRF    r0x07
Error [113] : Symbol not previously defined (_validmovemask).
012E 0E00      06588         MOVLW   HIGH(_validmovemask)
0130 2200      06589         ADDWFC  r0x07, F
0132 C000 FFE9 06590         MOVFF   r0x06, FSR0L
0136 C000 FFEA 06591         MOVFF   r0x07, FSR0H
013A CFEF F000 06592         MOVFF   INDF0, r0x08
013E 0E01      06593         MOVLW   0x01
0140 6E00      06594         MOVWF   r0x09
0142 5000      06595         MOVF    r0x00, W
0144 E000      06596         BZ      _00676_DS_
0146 6CE8      06597         NEGF    WREG
0148 90D8      06598         BCF     STATUS, 0
014A 06599 _00677_DS_:
014A 3600      06600         RLCF    r0x09, F
014C 0F01      06601         ADDLW   0x01
014E E300      06602         BNC     _00677_DS_
0150 06603 _00676_DS_:
0150 5000      06604         MOVF    r0x09, W
0152 1200      06605         IORWF   r0x08, F
0154 C000 FFE9 06606         MOVFF   r0x06, FSR0L
0158 C000 FFEA 06607         MOVFF   r0x07, FSR0H
015C C000 FFEF 06608         MOVFF   r0x08, INDF0
               06609 ;       .line   463; /home/mandon/Bureau/validate.c     capturemask[row]   |= (1<<col);
Error [113] : Symbol not previously defined (_capturemask).
0160 0E00      06610         MOVLW   LOW(_capturemask)
0162 2400      06611         ADDWF   r0x02, W
0164 6E00      06612         MOVWF   r0x06
0166 6A00      06613         CLRF    r0x07
Error [113] : Symbol not previously defined (_capturemask).
0168 0E00      06614         MOVLW   HIGH(_capturemask)
016A 2200      06615         ADDWFC  r0x07, F
016C C000 FFE9 06616         MOVFF   r0x06, FSR0L
0170 C000 FFEA 06617         MOVFF   r0x07, FSR0H
0174 CFEF F000 06618         MOVFF   INDF0, r0x08
0178 5000      06619         MOVF    r0x08, W
017A 1200      06620         IORWF   r0x09, F
017C C000 FFE9 06621         MOVFF   r0x06, FSR0L
0180 C000 FFEA 06622         MOVFF   r0x07, FSR0H
0184 C000 FFEF 06623         MOVFF   r0x09, INDF0
               06624 ;       .line   464; /home/mandon/Bureau/validate.c     if (capturemask[opp_king_pos[0]]  & (1 << opp_king_pos[1])) kingcapture = TRUE;
Error [113] : Symbol not previously defined (_capturemask).
0188 0E00      06625         MOVLW   LOW(_capturemask)
018A 0000      06626         BANKSEL _opp_king_pos
018C 2500      06627         ADDWF   _opp_king_pos, W, B
018E 6E00      06628         MOVWF   r0x06
0190 6A00      06629         CLRF    r0x07
Error [113] : Symbol not previously defined (_capturemask).
0192 0E00      06630         MOVLW   HIGH(_capturemask)
gpasm-0.13.7 beta               /home/mandon/pinguino32/copie courante/linux/source/main.asm5-29-2011  20:37:50          PAGE 127


LOC  OBJECT CODE     LINE SOURCE TEXT
  VALUE
 
0194 2200      06631         ADDWFC  r0x07, F
0196 C000 FFE9 06632         MOVFF   r0x06, FSR0L
019A C000 FFEA 06633         MOVFF   r0x07, FSR0H
019E CFEF F000 06634         MOVFF   INDF0, r0x06
01A2 0E01      06635         MOVLW   0x01
01A4 6E00      06636         MOVWF   r0x07
01A6 6A00      06637         CLRF    r0x08
               06638 ; removed redundant BANKSEL
01A8 5100      06639         MOVF    (_opp_king_pos + 1), W, B
01AA E000      06640         BZ      _00680_DS_
01AC 6CE8      06641         NEGF    WREG
01AE 90D8      06642         BCF     STATUS, 0
01B0 06643 _00681_DS_:
01B0 3600      06644         RLCF    r0x07, F
01B2 3600      06645         RLCF    r0x08, F
01B4 0F01      06646         ADDLW   0x01
01B6 E300      06647         BNC     _00681_DS_
01B8 06648 _00680_DS_:
01B8 6A00      06649         CLRF    r0x09
01BA 5000      06650         MOVF    r0x06, W
01BC 1600      06651         ANDWF   r0x07, F
01BE 5000      06652         MOVF    r0x09, W
01C0 1600      06653         ANDWF   r0x08, F
01C2 5000      06654         MOVF    r0x07, W
01C4 1000      06655         IORWF   r0x08, W
01C6 E000      06656         BZ      _00648_DS_
01C8 0E01      06657         MOVLW   0x01
Error [113] : Symbol not previously defined (_kingcapture).
01CA 0100      06658         BANKSEL _kingcapture
Error [113] : Symbol not previously defined (_kingcapture).
Error [113] : Symbol not previously defined (_kingcapture).
01CC 6F00      06659         MOVWF   _kingcapture, B
01CE 06660 _00648_DS_:
               06661 ;       .line   465; /home/mandon/Bureau/validate.c     piecefound = TRUE;
01CE 0E01      06662         MOVLW   0x01
01D0 6E00      06663         MOVWF   r0x01
01D2 D000      06664         BRA     _00658_DS_
01D4 06665 _00650_DS_:
               06666 ;       .line   469; /home/mandon/Bureau/validate.c     piecefound = TRUE;
01D4 0E01      06667         MOVLW   0x01
01D6 6E00      06668         MOVWF   r0x01
01D8 D000      06669         BRA     _00658_DS_
01DA 06670 _00661_DS_:
01DA CFE4 F000 06671         MOVFF   PREINC1, r0x0a
01DE CFE4 F000 06672         MOVFF   PREINC1, r0x09
01E2 CFE4 F000 06673         MOVFF   PREINC1, r0x08
01E6 CFE4 F000 06674         MOVFF   PREINC1, r0x07
01EA CFE4 F000 06675         MOVFF   PREINC1, r0x06
01EE CFE4 F000 06676         MOVFF   PREINC1, r0x05
01F2 CFE4 F000 06677         MOVFF   PREINC1, r0x04
01F6 CFE4 F000 06678         MOVFF   PREINC1, r0x03
01FA CFE4 F000 06679         MOVFF   PREINC1, r0x02
01FE CFE4 F000 06680         MOVFF   PREINC1, r0x01
0202 CFE4 F000 06681         MOVFF   PREINC1, r0x00
gpasm-0.13.7 beta               /home/mandon/pinguino32/copie courante/linux/source/main.asm5-29-2011  20:37:50          PAGE 128


LOC  OBJECT CODE     LINE SOURCE TEXT
  VALUE
 
0206 CFE4 FFD9 06682         MOVFF   PREINC1, FSR2L
020A 0012      06683         RETURN  
               06684 
               06685 ; ; Starting pCode block
               06686 S_main__val_southeast   code
0000 06687 _val_southeast:
               06688 ;       .line   424; /home/mandon/Bureau/validate.c     void val_southeast (LOC from,BOOL piececolour,BOOL depth)
0000 CFD9 FFE5 06689         MOVFF   FSR2L, POSTDEC1
0004 CFE1 FFD9 06690         MOVFF   FSR1L, FSR2L
0008 C000 FFE5 06691         MOVFF   r0x00, POSTDEC1
000C C000 FFE5 06692         MOVFF   r0x01, POSTDEC1
0010 C000 FFE5 06693         MOVFF   r0x02, POSTDEC1
0014 C000 FFE5 06694         MOVFF   r0x03, POSTDEC1
0018 C000 FFE5 06695         MOVFF   r0x04, POSTDEC1
001C C000 FFE5 06696         MOVFF   r0x05, POSTDEC1
0020 C000 FFE5 06697         MOVFF   r0x06, POSTDEC1
0024 C000 FFE5 06698         MOVFF   r0x07, POSTDEC1
0028 C000 FFE5 06699         MOVFF   r0x08, POSTDEC1
002C C000 FFE5 06700         MOVFF   r0x09, POSTDEC1
0030 C000 FFE5 06701         MOVFF   r0x0a, POSTDEC1
0034 0E02      06702         MOVLW   0x02
0036 CFDB F000 06703         MOVFF   PLUSW2, r0x00
003A 0E03      06704         MOVLW   0x03
003C CFDB F000 06705         MOVFF   PLUSW2, r0x01
0040 0E04      06706         MOVLW   0x04
0042 CFDB F000 06707         MOVFF   PLUSW2, r0x02
0046 0E05      06708         MOVLW   0x05
0048 CFDB F000 06709         MOVFF   PLUSW2, r0x03
004C 0E06      06710         MOVLW   0x06
004E CFDB F000 06711         MOVFF   PLUSW2, r0x04
               06712 ;       .line   427; /home/mandon/Bureau/validate.c     COORD row = from[0], col = from[1];
0052 C000 FFE9 06713         MOVFF   r0x00, FSR0L
0056 C000 FFF3 06714         MOVFF   r0x01, PRODL
005A 5000      06715         MOVF    r0x02, W
005C EC00 F000 06716         CALL    __gptrget1
0060 6E00      06717         MOVWF   r0x05
0062 2A00      06718         INCF    r0x00, F
0064 B0D8      06719         BTFSC   STATUS, 0
0066 2A00      06720         INCF    r0x01, F
0068 B0D8      06721         BTFSC   STATUS, 0
006A 2A00      06722         INCF    r0x02, F
006C C000 FFE9 06723         MOVFF   r0x00, FSR0L
0070 C000 FFF3 06724         MOVFF   r0x01, PRODL
0074 5000      06725         MOVF    r0x02, W
0076 EC00 F000 06726         CALL    __gptrget1
007A 6E00      06727         MOVWF   r0x00
               06728 ;       .line   428; /home/mandon/Bureau/validate.c     BOOL piecefound = FALSE;
007C 6A00      06729         CLRF    r0x01
               06730 ;       .line   429; /home/mandon/Bureau/validate.c     while ((col++ < MAX_COL) && (row-- > MIN_ROW) && (!piecefound) && (depth--))
007E C000 F000 06731         MOVFF   r0x05, r0x02
               06732 ; ;multiply lit val:0x08 by variable r0x05 and store in r0x05
               06733 ; ;Unrolled 8 X 8 multiplication
               06734 ; ;FIXME: the function does not support result==WREG
0082 5000      06735         MOVF    r0x05, W
gpasm-0.13.7 beta               /home/mandon/pinguino32/copie courante/linux/source/main.asm5-29-2011  20:37:50          PAGE 129


LOC  OBJECT CODE     LINE SOURCE TEXT
  VALUE
 
0084 0D08      06736         MULLW   0x08
0086 CFF3 F000 06737         MOVFF   PRODL, r0x05
008A 06738 _00618_DS_:
008A C000 F000 06739         MOVFF   r0x00, r0x06
008E 2A00      06740         INCF    r0x00, F
0090 0E07      06741         MOVLW   0x07
0092 5C00      06742         SUBWF   r0x06, W
0094 B0D8      06743         BTFSC   STATUS, 0
0096 D000      06744         BRA     _00621_DS_
0098 C000 F000 06745         MOVFF   r0x02, r0x06
009C 0EF8      06746         MOVLW   0xf8
009E 2600      06747         ADDWF   r0x05, F
00A0 0600      06748         DECF    r0x02, F
00A2 5000      06749         MOVF    r0x06, W
00A4 B4D8      06750         BTFSC   STATUS, 2
00A6 D000      06751         BRA     _00621_DS_
00A8 5000      06752         MOVF    r0x01, W
00AA A4D8      06753         BTFSS   STATUS, 2
00AC D000      06754         BRA     _00621_DS_
00AE C000 F000 06755         MOVFF   r0x04, r0x06
00B2 0600      06756         DECF    r0x04, F
00B4 5000      06757         MOVF    r0x06, W
00B6 B4D8      06758         BTFSC   STATUS, 2
00B8 D000      06759         BRA     _00621_DS_
               06760 ;       .line   431; /home/mandon/Bureau/validate.c     if (board[row][col] == EMPTY)
Error [113] : Symbol not previously defined (_board).
00BA 0E00      06761         MOVLW   LOW(_board)
00BC 2400      06762         ADDWF   r0x05, W
00BE 6E00      06763         MOVWF   r0x06
00C0 6A00      06764         CLRF    r0x07
Error [113] : Symbol not previously defined (_board).
00C2 0E00      06765         MOVLW   HIGH(_board)
00C4 2200      06766         ADDWFC  r0x07, F
00C6 5000      06767         MOVF    r0x00, W
00C8 2600      06768         ADDWF   r0x06, F
00CA 6AE8      06769         CLRF    WREG
00CC 2200      06770         ADDWFC  r0x07, F
00CE C000 FFE9 06771         MOVFF   r0x06, FSR0L
00D2 C000 FFEA 06772         MOVFF   r0x07, FSR0H
00D6 CFEF F000 06773         MOVFF   INDF0, r0x06
00DA 5000      06774         MOVF    r0x06, W
00DC E100      06775         BNZ     _00613_DS_
               06776 ;       .line   433; /home/mandon/Bureau/validate.c     validmovemask[row] |= (1<<col);
Error [113] : Symbol not previously defined (_validmovemask).
00DE 0E00      06777         MOVLW   LOW(_validmovemask)
00E0 2400      06778         ADDWF   r0x02, W
00E2 6E00      06779         MOVWF   r0x07
00E4 6A00      06780         CLRF    r0x08
Error [113] : Symbol not previously defined (_validmovemask).
00E6 0E00      06781         MOVLW   HIGH(_validmovemask)
00E8 2200      06782         ADDWFC  r0x08, F
00EA C000 FFE9 06783         MOVFF   r0x07, FSR0L
00EE C000 FFEA 06784         MOVFF   r0x08, FSR0H
00F2 CFEF F000 06785         MOVFF   INDF0, r0x09
gpasm-0.13.7 beta               /home/mandon/pinguino32/copie courante/linux/source/main.asm5-29-2011  20:37:50          PAGE 130


LOC  OBJECT CODE     LINE SOURCE TEXT
  VALUE
 
00F6 0E01      06786         MOVLW   0x01
00F8 6E00      06787         MOVWF   r0x0a
00FA 5000      06788         MOVF    r0x00, W
00FC E000      06789         BZ      _00633_DS_
00FE 6CE8      06790         NEGF    WREG
0100 90D8      06791         BCF     STATUS, 0
0102 06792 _00634_DS_:
0102 3600      06793         RLCF    r0x0a, F
0104 0F01      06794         ADDLW   0x01
0106 E300      06795         BNC     _00634_DS_
0108 06796 _00633_DS_:
0108 5000      06797         MOVF    r0x0a, W
010A 1200      06798         IORWF   r0x09, F
010C C000 FFE9 06799         MOVFF   r0x07, FSR0L
0110 C000 FFEA 06800         MOVFF   r0x08, FSR0H
0114 C000 FFEF 06801         MOVFF   r0x09, INDF0
0118 D000      06802         BRA     _00618_DS_
011A 06803 _00613_DS_:
               06804 ;       .line   435; /home/mandon/Bureau/validate.c     else if ((board[row][col] & 0x08) ^ piececolour)
011A 0E08      06805         MOVLW   0x08
011C 1600      06806         ANDWF   r0x06, F
011E 5000      06807         MOVF    r0x03, W
0120 1A00      06808         XORWF   r0x06, F
0122 5000      06809         MOVF    r0x06, W
0124 B4D8      06810         BTFSC   STATUS, 2
0126 D000      06811         BRA     _00610_DS_
               06812 ;       .line   437; /home/mandon/Bureau/validate.c     validmovemask[row] |= (1<<col);
Error [113] : Symbol not previously defined (_validmovemask).
0128 0E00      06813         MOVLW   LOW(_validmovemask)
012A 2400      06814         ADDWF   r0x02, W
012C 6E00      06815         MOVWF   r0x06
012E 6A00      06816         CLRF    r0x07
Error [113] : Symbol not previously defined (_validmovemask).
0130 0E00      06817         MOVLW   HIGH(_validmovemask)
0132 2200      06818         ADDWFC  r0x07, F
0134 C000 FFE9 06819         MOVFF   r0x06, FSR0L
0138 C000 FFEA 06820         MOVFF   r0x07, FSR0H
013C CFEF F000 06821         MOVFF   INDF0, r0x08
0140 0E01      06822         MOVLW   0x01
0142 6E00      06823         MOVWF   r0x09
0144 5000      06824         MOVF    r0x00, W
0146 E000      06825         BZ      _00637_DS_
0148 6CE8      06826         NEGF    WREG
014A 90D8      06827         BCF     STATUS, 0
014C 06828 _00638_DS_:
014C 3600      06829         RLCF    r0x09, F
014E 0F01      06830         ADDLW   0x01
0150 E300      06831         BNC     _00638_DS_
0152 06832 _00637_DS_:
0152 5000      06833         MOVF    r0x09, W
0154 1200      06834         IORWF   r0x08, F
0156 C000 FFE9 06835         MOVFF   r0x06, FSR0L
015A C000 FFEA 06836         MOVFF   r0x07, FSR0H
015E C000 FFEF 06837         MOVFF   r0x08, INDF0
gpasm-0.13.7 beta               /home/mandon/pinguino32/copie courante/linux/source/main.asm5-29-2011  20:37:50          PAGE 131


LOC  OBJECT CODE     LINE SOURCE TEXT
  VALUE
 
               06838 ;       .line   438; /home/mandon/Bureau/validate.c     capturemask[row]   |= (1<<col);
Error [113] : Symbol not previously defined (_capturemask).
0162 0E00      06839         MOVLW   LOW(_capturemask)
0164 2400      06840         ADDWF   r0x02, W
0166 6E00      06841         MOVWF   r0x06
0168 6A00      06842         CLRF    r0x07
Error [113] : Symbol not previously defined (_capturemask).
016A 0E00      06843         MOVLW   HIGH(_capturemask)
016C 2200      06844         ADDWFC  r0x07, F
016E C000 FFE9 06845         MOVFF   r0x06, FSR0L
0172 C000 FFEA 06846         MOVFF   r0x07, FSR0H
0176 CFEF F000 06847         MOVFF   INDF0, r0x08
017A 5000      06848         MOVF    r0x08, W
017C 1200      06849         IORWF   r0x09, F
017E C000 FFE9 06850         MOVFF   r0x06, FSR0L
0182 C000 FFEA 06851         MOVFF   r0x07, FSR0H
0186 C000 FFEF 06852         MOVFF   r0x09, INDF0
               06853 ;       .line   439; /home/mandon/Bureau/validate.c     if (capturemask[opp_king_pos[0]]  & (1 << opp_king_pos[1])) kingcapture = TRUE;
Error [113] : Symbol not previously defined (_capturemask).
018A 0E00      06854         MOVLW   LOW(_capturemask)
018C 0000      06855         BANKSEL _opp_king_pos
018E 2500      06856         ADDWF   _opp_king_pos, W, B
0190 6E00      06857         MOVWF   r0x06
0192 6A00      06858         CLRF    r0x07
Error [113] : Symbol not previously defined (_capturemask).
0194 0E00      06859         MOVLW   HIGH(_capturemask)
0196 2200      06860         ADDWFC  r0x07, F
0198 C000 FFE9 06861         MOVFF   r0x06, FSR0L
019C C000 FFEA 06862         MOVFF   r0x07, FSR0H
01A0 CFEF F000 06863         MOVFF   INDF0, r0x06
01A4 0E01      06864         MOVLW   0x01
01A6 6E00      06865         MOVWF   r0x07
01A8 6A00      06866         CLRF    r0x08
               06867 ; removed redundant BANKSEL
01AA 5100      06868         MOVF    (_opp_king_pos + 1), W, B
01AC E000      06869         BZ      _00641_DS_
01AE 6CE8      06870         NEGF    WREG
01B0 90D8      06871         BCF     STATUS, 0
01B2 06872 _00642_DS_:
01B2 3600      06873         RLCF    r0x07, F
01B4 3600      06874         RLCF    r0x08, F
01B6 0F01      06875         ADDLW   0x01
01B8 E300      06876         BNC     _00642_DS_
01BA 06877 _00641_DS_:
01BA 6A00      06878         CLRF    r0x09
01BC 5000      06879         MOVF    r0x06, W
01BE 1600      06880         ANDWF   r0x07, F
01C0 5000      06881         MOVF    r0x09, W
01C2 1600      06882         ANDWF   r0x08, F
01C4 5000      06883         MOVF    r0x07, W
01C6 1000      06884         IORWF   r0x08, W
01C8 E000      06885         BZ      _00608_DS_
01CA 0E01      06886         MOVLW   0x01
Error [113] : Symbol not previously defined (_kingcapture).
gpasm-0.13.7 beta               /home/mandon/pinguino32/copie courante/linux/source/main.asm5-29-2011  20:37:50          PAGE 132


LOC  OBJECT CODE     LINE SOURCE TEXT
  VALUE
 
01CC 0100      06887         BANKSEL _kingcapture
Error [113] : Symbol not previously defined (_kingcapture).
Error [113] : Symbol not previously defined (_kingcapture).
01CE 6F00      06888         MOVWF   _kingcapture, B
01D0 06889 _00608_DS_:
               06890 ;       .line   440; /home/mandon/Bureau/validate.c     piecefound = TRUE;
01D0 0E01      06891         MOVLW   0x01
01D2 6E00      06892         MOVWF   r0x01
01D4 D000      06893         BRA     _00618_DS_
01D6 06894 _00610_DS_:
               06895 ;       .line   444; /home/mandon/Bureau/validate.c     piecefound = TRUE;
01D6 0E01      06896         MOVLW   0x01
01D8 6E00      06897         MOVWF   r0x01
01DA D000      06898         BRA     _00618_DS_
01DC 06899 _00621_DS_:
01DC CFE4 F000 06900         MOVFF   PREINC1, r0x0a
01E0 CFE4 F000 06901         MOVFF   PREINC1, r0x09
01E4 CFE4 F000 06902         MOVFF   PREINC1, r0x08
01E8 CFE4 F000 06903         MOVFF   PREINC1, r0x07
01EC CFE4 F000 06904         MOVFF   PREINC1, r0x06
01F0 CFE4 F000 06905         MOVFF   PREINC1, r0x05
01F4 CFE4 F000 06906         MOVFF   PREINC1, r0x04
01F8 CFE4 F000 06907         MOVFF   PREINC1, r0x03
01FC CFE4 F000 06908         MOVFF   PREINC1, r0x02
0200 CFE4 F000 06909         MOVFF   PREINC1, r0x01
0204 CFE4 F000 06910         MOVFF   PREINC1, r0x00
0208 CFE4 FFD9 06911         MOVFF   PREINC1, FSR2L
020C 0012      06912         RETURN  
               06913 
               06914 ; ; Starting pCode block
               06915 S_main__val_northeast   code
0000 06916 _val_northeast:
               06917 ;       .line   399; /home/mandon/Bureau/validate.c     void val_northeast(LOC from,BOOL piececolour,BOOL depth)
0000 CFD9 FFE5 06918         MOVFF   FSR2L, POSTDEC1
0004 CFE1 FFD9 06919         MOVFF   FSR1L, FSR2L
0008 C000 FFE5 06920         MOVFF   r0x00, POSTDEC1
000C C000 FFE5 06921         MOVFF   r0x01, POSTDEC1
0010 C000 FFE5 06922         MOVFF   r0x02, POSTDEC1
0014 C000 FFE5 06923         MOVFF   r0x03, POSTDEC1
0018 C000 FFE5 06924         MOVFF   r0x04, POSTDEC1
001C C000 FFE5 06925         MOVFF   r0x05, POSTDEC1
0020 C000 FFE5 06926         MOVFF   r0x06, POSTDEC1
0024 C000 FFE5 06927         MOVFF   r0x07, POSTDEC1
0028 C000 FFE5 06928         MOVFF   r0x08, POSTDEC1
002C C000 FFE5 06929         MOVFF   r0x09, POSTDEC1
0030 C000 FFE5 06930         MOVFF   r0x0a, POSTDEC1
0034 0E02      06931         MOVLW   0x02
0036 CFDB F000 06932         MOVFF   PLUSW2, r0x00
003A 0E03      06933         MOVLW   0x03
003C CFDB F000 06934         MOVFF   PLUSW2, r0x01
0040 0E04      06935         MOVLW   0x04
0042 CFDB F000 06936         MOVFF   PLUSW2, r0x02
0046 0E05      06937         MOVLW   0x05
0048 CFDB F000 06938         MOVFF   PLUSW2, r0x03
gpasm-0.13.7 beta               /home/mandon/pinguino32/copie courante/linux/source/main.asm5-29-2011  20:37:50          PAGE 133


LOC  OBJECT CODE     LINE SOURCE TEXT
  VALUE
 
004C 0E06      06939         MOVLW   0x06
004E CFDB F000 06940         MOVFF   PLUSW2, r0x04
               06941 ;       .line   402; /home/mandon/Bureau/validate.c     COORD row = from[0], col = from[1];
0052 C000 FFE9 06942         MOVFF   r0x00, FSR0L
0056 C000 FFF3 06943         MOVFF   r0x01, PRODL
005A 5000      06944         MOVF    r0x02, W
005C EC00 F000 06945         CALL    __gptrget1
0060 6E00      06946         MOVWF   r0x05
0062 2A00      06947         INCF    r0x00, F
0064 B0D8      06948         BTFSC   STATUS, 0
0066 2A00      06949         INCF    r0x01, F
0068 B0D8      06950         BTFSC   STATUS, 0
006A 2A00      06951         INCF    r0x02, F
006C C000 FFE9 06952         MOVFF   r0x00, FSR0L
0070 C000 FFF3 06953         MOVFF   r0x01, PRODL
0074 5000      06954         MOVF    r0x02, W
0076 EC00 F000 06955         CALL    __gptrget1
007A 6E00      06956         MOVWF   r0x00
               06957 ;       .line   403; /home/mandon/Bureau/validate.c     BOOL piecefound = FALSE;
007C 6A00      06958         CLRF    r0x01
               06959 ;       .line   404; /home/mandon/Bureau/validate.c     while ((col++ < MAX_COL) && (row++ < MAX_ROW) && (!piecefound) && (depth--))
007E C000 F000 06960         MOVFF   r0x05, r0x02
               06961 ; ;multiply lit val:0x08 by variable r0x05 and store in r0x05
               06962 ; ;Unrolled 8 X 8 multiplication
               06963 ; ;FIXME: the function does not support result==WREG
0082 5000      06964         MOVF    r0x05, W
0084 0D08      06965         MULLW   0x08
0086 CFF3 F000 06966         MOVFF   PRODL, r0x05
008A 06967 _00577_DS_:
008A C000 F000 06968         MOVFF   r0x00, r0x06
008E 2A00      06969         INCF    r0x00, F
0090 0E07      06970         MOVLW   0x07
0092 5C00      06971         SUBWF   r0x06, W
0094 B0D8      06972         BTFSC   STATUS, 0
0096 D000      06973         BRA     _00580_DS_
0098 C000 F000 06974         MOVFF   r0x02, r0x06
009C 0E08      06975         MOVLW   0x08
009E 2600      06976         ADDWF   r0x05, F
00A0 2A00      06977         INCF    r0x02, F
00A2 0E07      06978         MOVLW   0x07
00A4 5C00      06979         SUBWF   r0x06, W
00A6 B0D8      06980         BTFSC   STATUS, 0
00A8 D000      06981         BRA     _00580_DS_
00AA 5000      06982         MOVF    r0x01, W
00AC A4D8      06983         BTFSS   STATUS, 2
00AE D000      06984         BRA     _00580_DS_
00B0 C000 F000 06985         MOVFF   r0x04, r0x06
00B4 0600      06986         DECF    r0x04, F
00B6 5000      06987         MOVF    r0x06, W
00B8 B4D8      06988         BTFSC   STATUS, 2
00BA D000      06989         BRA     _00580_DS_
               06990 ;       .line   406; /home/mandon/Bureau/validate.c     if (board[row][col] == EMPTY)
Error [113] : Symbol not previously defined (_board).
00BC 0E00      06991         MOVLW   LOW(_board)
gpasm-0.13.7 beta               /home/mandon/pinguino32/copie courante/linux/source/main.asm5-29-2011  20:37:50          PAGE 134


LOC  OBJECT CODE     LINE SOURCE TEXT
  VALUE
 
00BE 2400      06992         ADDWF   r0x05, W
00C0 6E00      06993         MOVWF   r0x06
00C2 6A00      06994         CLRF    r0x07
Error [113] : Symbol not previously defined (_board).
00C4 0E00      06995         MOVLW   HIGH(_board)
00C6 2200      06996         ADDWFC  r0x07, F
00C8 5000      06997         MOVF    r0x00, W
00CA 2600      06998         ADDWF   r0x06, F
00CC 6AE8      06999         CLRF    WREG
00CE 2200      07000         ADDWFC  r0x07, F
00D0 C000 FFE9 07001         MOVFF   r0x06, FSR0L
00D4 C000 FFEA 07002         MOVFF   r0x07, FSR0H
00D8 CFEF F000 07003         MOVFF   INDF0, r0x06
00DC 5000      07004         MOVF    r0x06, W
00DE E100      07005         BNZ     _00572_DS_
               07006 ;       .line   408; /home/mandon/Bureau/validate.c     validmovemask[row] |= (1<<col);
Error [113] : Symbol not previously defined (_validmovemask).
00E0 0E00      07007         MOVLW   LOW(_validmovemask)
00E2 2400      07008         ADDWF   r0x02, W
00E4 6E00      07009         MOVWF   r0x07
00E6 6A00      07010         CLRF    r0x08
Error [113] : Symbol not previously defined (_validmovemask).
00E8 0E00      07011         MOVLW   HIGH(_validmovemask)
00EA 2200      07012         ADDWFC  r0x08, F
00EC C000 FFE9 07013         MOVFF   r0x07, FSR0L
00F0 C000 FFEA 07014         MOVFF   r0x08, FSR0H
00F4 CFEF F000 07015         MOVFF   INDF0, r0x09
00F8 0E01      07016         MOVLW   0x01
00FA 6E00      07017         MOVWF   r0x0a
00FC 5000      07018         MOVF    r0x00, W
00FE E000      07019         BZ      _00593_DS_
0100 6CE8      07020         NEGF    WREG
0102 90D8      07021         BCF     STATUS, 0
0104 07022 _00594_DS_:
0104 3600      07023         RLCF    r0x0a, F
0106 0F01      07024         ADDLW   0x01
0108 E300      07025         BNC     _00594_DS_
010A 07026 _00593_DS_:
010A 5000      07027         MOVF    r0x0a, W
010C 1200      07028         IORWF   r0x09, F
010E C000 FFE9 07029         MOVFF   r0x07, FSR0L
0112 C000 FFEA 07030         MOVFF   r0x08, FSR0H
0116 C000 FFEF 07031         MOVFF   r0x09, INDF0
011A D000      07032         BRA     _00577_DS_
011C 07033 _00572_DS_:
               07034 ;       .line   410; /home/mandon/Bureau/validate.c     else if ((board[row][col] & 0x08) ^ piececolour)
011C 0E08      07035         MOVLW   0x08
011E 1600      07036         ANDWF   r0x06, F
0120 5000      07037         MOVF    r0x03, W
0122 1A00      07038         XORWF   r0x06, F
0124 5000      07039         MOVF    r0x06, W
0126 B4D8      07040         BTFSC   STATUS, 2
0128 D000      07041         BRA     _00569_DS_
               07042 ;       .line   412; /home/mandon/Bureau/validate.c     validmovemask[row] |= (1<<col);
gpasm-0.13.7 beta               /home/mandon/pinguino32/copie courante/linux/source/main.asm5-29-2011  20:37:50          PAGE 135


LOC  OBJECT CODE     LINE SOURCE TEXT
  VALUE
 
Error [113] : Symbol not previously defined (_validmovemask).
012A 0E00      07043         MOVLW   LOW(_validmovemask)
012C 2400      07044         ADDWF   r0x02, W
012E 6E00      07045         MOVWF   r0x06
0130 6A00      07046         CLRF    r0x07
Error [113] : Symbol not previously defined (_validmovemask).
0132 0E00      07047         MOVLW   HIGH(_validmovemask)
0134 2200      07048         ADDWFC  r0x07, F
0136 C000 FFE9 07049         MOVFF   r0x06, FSR0L
013A C000 FFEA 07050         MOVFF   r0x07, FSR0H
013E CFEF F000 07051         MOVFF   INDF0, r0x08
0142 0E01      07052         MOVLW   0x01
0144 6E00      07053         MOVWF   r0x09
0146 5000      07054         MOVF    r0x00, W
0148 E000      07055         BZ      _00597_DS_
014A 6CE8      07056         NEGF    WREG
014C 90D8      07057         BCF     STATUS, 0
014E 07058 _00598_DS_:
014E 3600      07059         RLCF    r0x09, F
0150 0F01      07060         ADDLW   0x01
0152 E300      07061         BNC     _00598_DS_
0154 07062 _00597_DS_:
0154 5000      07063         MOVF    r0x09, W
0156 1200      07064         IORWF   r0x08, F
0158 C000 FFE9 07065         MOVFF   r0x06, FSR0L
015C C000 FFEA 07066         MOVFF   r0x07, FSR0H
0160 C000 FFEF 07067         MOVFF   r0x08, INDF0
               07068 ;       .line   413; /home/mandon/Bureau/validate.c     capturemask[row]   |= (1<<col);
Error [113] : Symbol not previously defined (_capturemask).
0164 0E00      07069         MOVLW   LOW(_capturemask)
0166 2400      07070         ADDWF   r0x02, W
0168 6E00      07071         MOVWF   r0x06
016A 6A00      07072         CLRF    r0x07
Error [113] : Symbol not previously defined (_capturemask).
016C 0E00      07073         MOVLW   HIGH(_capturemask)
016E 2200      07074         ADDWFC  r0x07, F
0170 C000 FFE9 07075         MOVFF   r0x06, FSR0L
0174 C000 FFEA 07076         MOVFF   r0x07, FSR0H
0178 CFEF F000 07077         MOVFF   INDF0, r0x08
017C 5000      07078         MOVF    r0x08, W
017E 1200      07079         IORWF   r0x09, F
0180 C000 FFE9 07080         MOVFF   r0x06, FSR0L
0184 C000 FFEA 07081         MOVFF   r0x07, FSR0H
0188 C000 FFEF 07082         MOVFF   r0x09, INDF0
               07083 ;       .line   414; /home/mandon/Bureau/validate.c     if (capturemask[opp_king_pos[0]]  & (1 << opp_king_pos[1])) kingcapture = TRUE;
Error [113] : Symbol not previously defined (_capturemask).
018C 0E00      07084         MOVLW   LOW(_capturemask)
018E 0000      07085         BANKSEL _opp_king_pos
0190 2500      07086         ADDWF   _opp_king_pos, W, B
0192 6E00      07087         MOVWF   r0x06
0194 6A00      07088         CLRF    r0x07
Error [113] : Symbol not previously defined (_capturemask).
0196 0E00      07089         MOVLW   HIGH(_capturemask)
0198 2200      07090         ADDWFC  r0x07, F
gpasm-0.13.7 beta               /home/mandon/pinguino32/copie courante/linux/source/main.asm5-29-2011  20:37:50          PAGE 136


LOC  OBJECT CODE     LINE SOURCE TEXT
  VALUE
 
019A C000 FFE9 07091         MOVFF   r0x06, FSR0L
019E C000 FFEA 07092         MOVFF   r0x07, FSR0H
01A2 CFEF F000 07093         MOVFF   INDF0, r0x06
01A6 0E01      07094         MOVLW   0x01
01A8 6E00      07095         MOVWF   r0x07
01AA 6A00      07096         CLRF    r0x08
               07097 ; removed redundant BANKSEL
01AC 5100      07098         MOVF    (_opp_king_pos + 1), W, B
01AE E000      07099         BZ      _00601_DS_
01B0 6CE8      07100         NEGF    WREG
01B2 90D8      07101         BCF     STATUS, 0
01B4 07102 _00602_DS_:
01B4 3600      07103         RLCF    r0x07, F
01B6 3600      07104         RLCF    r0x08, F
01B8 0F01      07105         ADDLW   0x01
01BA E300      07106         BNC     _00602_DS_
01BC 07107 _00601_DS_:
01BC 6A00      07108         CLRF    r0x09
01BE 5000      07109         MOVF    r0x06, W
01C0 1600      07110         ANDWF   r0x07, F
01C2 5000      07111         MOVF    r0x09, W
01C4 1600      07112         ANDWF   r0x08, F
01C6 5000      07113         MOVF    r0x07, W
01C8 1000      07114         IORWF   r0x08, W
01CA E000      07115         BZ      _00567_DS_
01CC 0E01      07116         MOVLW   0x01
Error [113] : Symbol not previously defined (_kingcapture).
01CE 0100      07117         BANKSEL _kingcapture
Error [113] : Symbol not previously defined (_kingcapture).
Error [113] : Symbol not previously defined (_kingcapture).
01D0 6F00      07118         MOVWF   _kingcapture, B
01D2 07119 _00567_DS_:
               07120 ;       .line   415; /home/mandon/Bureau/validate.c     piecefound = TRUE;
01D2 0E01      07121         MOVLW   0x01
01D4 6E00      07122         MOVWF   r0x01
01D6 D000      07123         BRA     _00577_DS_
01D8 07124 _00569_DS_:
               07125 ;       .line   419; /home/mandon/Bureau/validate.c     piecefound = TRUE;
01D8 0E01      07126         MOVLW   0x01
01DA 6E00      07127         MOVWF   r0x01
01DC D000      07128         BRA     _00577_DS_
01DE 07129 _00580_DS_:
01DE CFE4 F000 07130         MOVFF   PREINC1, r0x0a
01E2 CFE4 F000 07131         MOVFF   PREINC1, r0x09
01E6 CFE4 F000 07132         MOVFF   PREINC1, r0x08
01EA CFE4 F000 07133         MOVFF   PREINC1, r0x07
01EE CFE4 F000 07134         MOVFF   PREINC1, r0x06
01F2 CFE4 F000 07135         MOVFF   PREINC1, r0x05
01F6 CFE4 F000 07136         MOVFF   PREINC1, r0x04
01FA CFE4 F000 07137         MOVFF   PREINC1, r0x03
01FE CFE4 F000 07138         MOVFF   PREINC1, r0x02
0202 CFE4 F000 07139         MOVFF   PREINC1, r0x01
0206 CFE4 F000 07140         MOVFF   PREINC1, r0x00
020A CFE4 FFD9 07141         MOVFF   PREINC1, FSR2L
gpasm-0.13.7 beta               /home/mandon/pinguino32/copie courante/linux/source/main.asm5-29-2011  20:37:50          PAGE 137


LOC  OBJECT CODE     LINE SOURCE TEXT
  VALUE
 
020E 0012      07142         RETURN  
               07143 
               07144 ; ; Starting pCode block
               07145 S_main__val_northwest   code
0000 07146 _val_northwest:
               07147 ;       .line   374; /home/mandon/Bureau/validate.c     void val_northwest (LOC from,BOOL piececolour,BOOL depth)
0000 CFD9 FFE5 07148         MOVFF   FSR2L, POSTDEC1
0004 CFE1 FFD9 07149         MOVFF   FSR1L, FSR2L
0008 C000 FFE5 07150         MOVFF   r0x00, POSTDEC1
000C C000 FFE5 07151         MOVFF   r0x01, POSTDEC1
0010 C000 FFE5 07152         MOVFF   r0x02, POSTDEC1
0014 C000 FFE5 07153         MOVFF   r0x03, POSTDEC1
0018 C000 FFE5 07154         MOVFF   r0x04, POSTDEC1
001C C000 FFE5 07155         MOVFF   r0x05, POSTDEC1
0020 C000 FFE5 07156         MOVFF   r0x06, POSTDEC1
0024 C000 FFE5 07157         MOVFF   r0x07, POSTDEC1
0028 C000 FFE5 07158         MOVFF   r0x08, POSTDEC1
002C C000 FFE5 07159         MOVFF   r0x09, POSTDEC1
0030 C000 FFE5 07160         MOVFF   r0x0a, POSTDEC1
0034 0E02      07161         MOVLW   0x02
0036 CFDB F000 07162         MOVFF   PLUSW2, r0x00
003A 0E03      07163         MOVLW   0x03
003C CFDB F000 07164         MOVFF   PLUSW2, r0x01
0040 0E04      07165         MOVLW   0x04
0042 CFDB F000 07166         MOVFF   PLUSW2, r0x02
0046 0E05      07167         MOVLW   0x05
0048 CFDB F000 07168         MOVFF   PLUSW2, r0x03
004C 0E06      07169         MOVLW   0x06
004E CFDB F000 07170         MOVFF   PLUSW2, r0x04
               07171 ;       .line   377; /home/mandon/Bureau/validate.c     COORD row = from[0], col = from[1];
0052 C000 FFE9 07172         MOVFF   r0x00, FSR0L
0056 C000 FFF3 07173         MOVFF   r0x01, PRODL
005A 5000      07174         MOVF    r0x02, W
005C EC00 F000 07175         CALL    __gptrget1
0060 6E00      07176         MOVWF   r0x05
0062 2A00      07177         INCF    r0x00, F
0064 B0D8      07178         BTFSC   STATUS, 0
0066 2A00      07179         INCF    r0x01, F
0068 B0D8      07180         BTFSC   STATUS, 0
006A 2A00      07181         INCF    r0x02, F
006C C000 FFE9 07182         MOVFF   r0x00, FSR0L
0070 C000 FFF3 07183         MOVFF   r0x01, PRODL
0074 5000      07184         MOVF    r0x02, W
0076 EC00 F000 07185         CALL    __gptrget1
007A 6E00      07186         MOVWF   r0x00
               07187 ;       .line   378; /home/mandon/Bureau/validate.c     BOOL piecefound = FALSE;
007C 6A00      07188         CLRF    r0x01
               07189 ;       .line   379; /home/mandon/Bureau/validate.c     while ((col-- > MIN_COL) && (row++ < MAX_ROW) && (!piecefound) &&  (depth--))
007E C000 F000 07190         MOVFF   r0x05, r0x02
               07191 ; ;multiply lit val:0x08 by variable r0x05 and store in r0x05
               07192 ; ;Unrolled 8 X 8 multiplication
               07193 ; ;FIXME: the function does not support result==WREG
0082 5000      07194         MOVF    r0x05, W
0084 0D08      07195         MULLW   0x08
gpasm-0.13.7 beta               /home/mandon/pinguino32/copie courante/linux/source/main.asm5-29-2011  20:37:50          PAGE 138


LOC  OBJECT CODE     LINE SOURCE TEXT
  VALUE
 
0086 CFF3 F000 07196         MOVFF   PRODL, r0x05
008A 07197 _00537_DS_:
008A C000 F000 07198         MOVFF   r0x00, r0x06
008E 0600      07199         DECF    r0x00, F
0090 5000      07200         MOVF    r0x06, W
0092 B4D8      07201         BTFSC   STATUS, 2
0094 D000      07202         BRA     _00540_DS_
0096 C000 F000 07203         MOVFF   r0x02, r0x06
009A 0E08      07204         MOVLW   0x08
009C 2600      07205         ADDWF   r0x05, F
009E 2A00      07206         INCF    r0x02, F
00A0 0E07      07207         MOVLW   0x07
00A2 5C00      07208         SUBWF   r0x06, W
00A4 B0D8      07209         BTFSC   STATUS, 0
00A6 D000      07210         BRA     _00540_DS_
00A8 5000      07211         MOVF    r0x01, W
00AA A4D8      07212         BTFSS   STATUS, 2
00AC D000      07213         BRA     _00540_DS_
00AE C000 F000 07214         MOVFF   r0x04, r0x06
00B2 0600      07215         DECF    r0x04, F
00B4 5000      07216         MOVF    r0x06, W
00B6 B4D8      07217         BTFSC   STATUS, 2
00B8 D000      07218         BRA     _00540_DS_
               07219 ;       .line   381; /home/mandon/Bureau/validate.c     if (board[row][col] == EMPTY)
Error [113] : Symbol not previously defined (_board).
00BA 0E00      07220         MOVLW   LOW(_board)
00BC 2400      07221         ADDWF   r0x05, W
00BE 6E00      07222         MOVWF   r0x06
00C0 6A00      07223         CLRF    r0x07
Error [113] : Symbol not previously defined (_board).
00C2 0E00      07224         MOVLW   HIGH(_board)
00C4 2200      07225         ADDWFC  r0x07, F
00C6 5000      07226         MOVF    r0x00, W
00C8 2600      07227         ADDWF   r0x06, F
00CA 6AE8      07228         CLRF    WREG
00CC 2200      07229         ADDWFC  r0x07, F
00CE C000 FFE9 07230         MOVFF   r0x06, FSR0L
00D2 C000 FFEA 07231         MOVFF   r0x07, FSR0H
00D6 CFEF F000 07232         MOVFF   INDF0, r0x06
00DA 5000      07233         MOVF    r0x06, W
00DC E100      07234         BNZ     _00532_DS_
               07235 ;       .line   383; /home/mandon/Bureau/validate.c     validmovemask[row] |= (1<<col);
Error [113] : Symbol not previously defined (_validmovemask).
00DE 0E00      07236         MOVLW   LOW(_validmovemask)
00E0 2400      07237         ADDWF   r0x02, W
00E2 6E00      07238         MOVWF   r0x07
00E4 6A00      07239         CLRF    r0x08
Error [113] : Symbol not previously defined (_validmovemask).
00E6 0E00      07240         MOVLW   HIGH(_validmovemask)
00E8 2200      07241         ADDWFC  r0x08, F
00EA C000 FFE9 07242         MOVFF   r0x07, FSR0L
00EE C000 FFEA 07243         MOVFF   r0x08, FSR0H
00F2 CFEF F000 07244         MOVFF   INDF0, r0x09
00F6 0E01      07245         MOVLW   0x01
gpasm-0.13.7 beta               /home/mandon/pinguino32/copie courante/linux/source/main.asm5-29-2011  20:37:50          PAGE 139


LOC  OBJECT CODE     LINE SOURCE TEXT
  VALUE
 
00F8 6E00      07246         MOVWF   r0x0a
00FA 5000      07247         MOVF    r0x00, W
00FC E000      07248         BZ      _00552_DS_
00FE 6CE8      07249         NEGF    WREG
0100 90D8      07250         BCF     STATUS, 0
0102 07251 _00553_DS_:
0102 3600      07252         RLCF    r0x0a, F
0104 0F01      07253         ADDLW   0x01
0106 E300      07254         BNC     _00553_DS_
0108 07255 _00552_DS_:
0108 5000      07256         MOVF    r0x0a, W
010A 1200      07257         IORWF   r0x09, F
010C C000 FFE9 07258         MOVFF   r0x07, FSR0L
0110 C000 FFEA 07259         MOVFF   r0x08, FSR0H
0114 C000 FFEF 07260         MOVFF   r0x09, INDF0
0118 D000      07261         BRA     _00537_DS_
011A 07262 _00532_DS_:
               07263 ;       .line   385; /home/mandon/Bureau/validate.c     else if ((board[row][col] & 0x08) ^ piececolour)
011A 0E08      07264         MOVLW   0x08
011C 1600      07265         ANDWF   r0x06, F
011E 5000      07266         MOVF    r0x03, W
0120 1A00      07267         XORWF   r0x06, F
0122 5000      07268         MOVF    r0x06, W
0124 B4D8      07269         BTFSC   STATUS, 2
0126 D000      07270         BRA     _00529_DS_
               07271 ;       .line   387; /home/mandon/Bureau/validate.c     validmovemask[row] |= (1<<col);
Error [113] : Symbol not previously defined (_validmovemask).
0128 0E00      07272         MOVLW   LOW(_validmovemask)
012A 2400      07273         ADDWF   r0x02, W
012C 6E00      07274         MOVWF   r0x06
012E 6A00      07275         CLRF    r0x07
Error [113] : Symbol not previously defined (_validmovemask).
0130 0E00      07276         MOVLW   HIGH(_validmovemask)
0132 2200      07277         ADDWFC  r0x07, F
0134 C000 FFE9 07278         MOVFF   r0x06, FSR0L
0138 C000 FFEA 07279         MOVFF   r0x07, FSR0H
013C CFEF F000 07280         MOVFF   INDF0, r0x08
0140 0E01      07281         MOVLW   0x01
0142 6E00      07282         MOVWF   r0x09
0144 5000      07283         MOVF    r0x00, W
0146 E000      07284         BZ      _00556_DS_
0148 6CE8      07285         NEGF    WREG
014A 90D8      07286         BCF     STATUS, 0
014C 07287 _00557_DS_:
014C 3600      07288         RLCF    r0x09, F
014E 0F01      07289         ADDLW   0x01
0150 E300      07290         BNC     _00557_DS_
0152 07291 _00556_DS_:
0152 5000      07292         MOVF    r0x09, W
0154 1200      07293         IORWF   r0x08, F
0156 C000 FFE9 07294         MOVFF   r0x06, FSR0L
015A C000 FFEA 07295         MOVFF   r0x07, FSR0H
015E C000 FFEF 07296         MOVFF   r0x08, INDF0
               07297 ;       .line   388; /home/mandon/Bureau/validate.c     capturemask[row]   |= (1<<col);
gpasm-0.13.7 beta               /home/mandon/pinguino32/copie courante/linux/source/main.asm5-29-2011  20:37:50          PAGE 140


LOC  OBJECT CODE     LINE SOURCE TEXT
  VALUE
 
Error [113] : Symbol not previously defined (_capturemask).
0162 0E00      07298         MOVLW   LOW(_capturemask)
0164 2400      07299         ADDWF   r0x02, W
0166 6E00      07300         MOVWF   r0x06
0168 6A00      07301         CLRF    r0x07
Error [113] : Symbol not previously defined (_capturemask).
016A 0E00      07302         MOVLW   HIGH(_capturemask)
016C 2200      07303         ADDWFC  r0x07, F
016E C000 FFE9 07304         MOVFF   r0x06, FSR0L
0172 C000 FFEA 07305         MOVFF   r0x07, FSR0H
0176 CFEF F000 07306         MOVFF   INDF0, r0x08
017A 5000      07307         MOVF    r0x08, W
017C 1200      07308         IORWF   r0x09, F
017E C000 FFE9 07309         MOVFF   r0x06, FSR0L
0182 C000 FFEA 07310         MOVFF   r0x07, FSR0H
0186 C000 FFEF 07311         MOVFF   r0x09, INDF0
               07312 ;       .line   389; /home/mandon/Bureau/validate.c     if (capturemask[opp_king_pos[0]]  & (1 << opp_king_pos[1])) kingcapture = TRUE;
Error [113] : Symbol not previously defined (_capturemask).
018A 0E00      07313         MOVLW   LOW(_capturemask)
018C 0000      07314         BANKSEL _opp_king_pos
018E 2500      07315         ADDWF   _opp_king_pos, W, B
0190 6E00      07316         MOVWF   r0x06
0192 6A00      07317         CLRF    r0x07
Error [113] : Symbol not previously defined (_capturemask).
0194 0E00      07318         MOVLW   HIGH(_capturemask)
0196 2200      07319         ADDWFC  r0x07, F
0198 C000 FFE9 07320         MOVFF   r0x06, FSR0L
019C C000 FFEA 07321         MOVFF   r0x07, FSR0H
01A0 CFEF F000 07322         MOVFF   INDF0, r0x06
01A4 0E01      07323         MOVLW   0x01
01A6 6E00      07324         MOVWF   r0x07
01A8 6A00      07325         CLRF    r0x08
               07326 ; removed redundant BANKSEL
01AA 5100      07327         MOVF    (_opp_king_pos + 1), W, B
01AC E000      07328         BZ      _00560_DS_
01AE 6CE8      07329         NEGF    WREG
01B0 90D8      07330         BCF     STATUS, 0
01B2 07331 _00561_DS_:
01B2 3600      07332         RLCF    r0x07, F
01B4 3600      07333         RLCF    r0x08, F
01B6 0F01      07334         ADDLW   0x01
01B8 E300      07335         BNC     _00561_DS_
01BA 07336 _00560_DS_:
01BA 6A00      07337         CLRF    r0x09
01BC 5000      07338         MOVF    r0x06, W
01BE 1600      07339         ANDWF   r0x07, F
01C0 5000      07340         MOVF    r0x09, W
01C2 1600      07341         ANDWF   r0x08, F
01C4 5000      07342         MOVF    r0x07, W
01C6 1000      07343         IORWF   r0x08, W
01C8 E000      07344         BZ      _00527_DS_
01CA 0E01      07345         MOVLW   0x01
Error [113] : Symbol not previously defined (_kingcapture).
01CC 0100      07346         BANKSEL _kingcapture
gpasm-0.13.7 beta               /home/mandon/pinguino32/copie courante/linux/source/main.asm5-29-2011  20:37:50          PAGE 141


LOC  OBJECT CODE     LINE SOURCE TEXT
  VALUE
 
Error [113] : Symbol not previously defined (_kingcapture).
Error [113] : Symbol not previously defined (_kingcapture).
01CE 6F00      07347         MOVWF   _kingcapture, B
01D0 07348 _00527_DS_:
               07349 ;       .line   390; /home/mandon/Bureau/validate.c     piecefound = TRUE;
01D0 0E01      07350         MOVLW   0x01
01D2 6E00      07351         MOVWF   r0x01
01D4 D000      07352         BRA     _00537_DS_
01D6 07353 _00529_DS_:
               07354 ;       .line   394; /home/mandon/Bureau/validate.c     piecefound = TRUE;
01D6 0E01      07355         MOVLW   0x01
01D8 6E00      07356         MOVWF   r0x01
01DA D000      07357         BRA     _00537_DS_
01DC 07358 _00540_DS_:
01DC CFE4 F000 07359         MOVFF   PREINC1, r0x0a
01E0 CFE4 F000 07360         MOVFF   PREINC1, r0x09
01E4 CFE4 F000 07361         MOVFF   PREINC1, r0x08
01E8 CFE4 F000 07362         MOVFF   PREINC1, r0x07
01EC CFE4 F000 07363         MOVFF   PREINC1, r0x06
01F0 CFE4 F000 07364         MOVFF   PREINC1, r0x05
01F4 CFE4 F000 07365         MOVFF   PREINC1, r0x04
01F8 CFE4 F000 07366         MOVFF   PREINC1, r0x03
01FC CFE4 F000 07367         MOVFF   PREINC1, r0x02
0200 CFE4 F000 07368         MOVFF   PREINC1, r0x01
0204 CFE4 F000 07369         MOVFF   PREINC1, r0x00
0208 CFE4 FFD9 07370         MOVFF   PREINC1, FSR2L
020C 0012      07371         RETURN  
               07372 
               07373 ; ; Starting pCode block
               07374 S_main__val_west        code
0000 07375 _val_west:
               07376 ;       .line   351; /home/mandon/Bureau/validate.c     void val_west (LOC from,BOOL piececolour,BOOL depth)
0000 CFD9 FFE5 07377         MOVFF   FSR2L, POSTDEC1
0004 CFE1 FFD9 07378         MOVFF   FSR1L, FSR2L
0008 C000 FFE5 07379         MOVFF   r0x00, POSTDEC1
000C C000 FFE5 07380         MOVFF   r0x01, POSTDEC1
0010 C000 FFE5 07381         MOVFF   r0x02, POSTDEC1
0014 C000 FFE5 07382         MOVFF   r0x03, POSTDEC1
0018 C000 FFE5 07383         MOVFF   r0x04, POSTDEC1
001C C000 FFE5 07384         MOVFF   r0x05, POSTDEC1
0020 C000 FFE5 07385         MOVFF   r0x06, POSTDEC1
0024 C000 FFE5 07386         MOVFF   r0x07, POSTDEC1
0028 C000 FFE5 07387         MOVFF   r0x08, POSTDEC1
002C C000 FFE5 07388         MOVFF   r0x09, POSTDEC1
0030 C000 FFE5 07389         MOVFF   r0x0a, POSTDEC1
0034 C000 FFE5 07390         MOVFF   r0x0b, POSTDEC1
0038 0E02      07391         MOVLW   0x02
003A CFDB F000 07392         MOVFF   PLUSW2, r0x00
003E 0E03      07393         MOVLW   0x03
0040 CFDB F000 07394         MOVFF   PLUSW2, r0x01
0044 0E04      07395         MOVLW   0x04
0046 CFDB F000 07396         MOVFF   PLUSW2, r0x02
004A 0E05      07397         MOVLW   0x05
004C CFDB F000 07398         MOVFF   PLUSW2, r0x03
gpasm-0.13.7 beta               /home/mandon/pinguino32/copie courante/linux/source/main.asm5-29-2011  20:37:50          PAGE 142


LOC  OBJECT CODE     LINE SOURCE TEXT
  VALUE
 
0050 0E06      07399         MOVLW   0x06
0052 CFDB F000 07400         MOVFF   PLUSW2, r0x04
               07401 ;       .line   353; /home/mandon/Bureau/validate.c     char row = from[0],col = from[1];
0056 C000 FFE9 07402         MOVFF   r0x00, FSR0L
005A C000 FFF3 07403         MOVFF   r0x01, PRODL
005E 5000      07404         MOVF    r0x02, W
0060 EC00 F000 07405         CALL    __gptrget1
0064 6E00      07406         MOVWF   r0x05
0066 2A00      07407         INCF    r0x00, F
0068 B0D8      07408         BTFSC   STATUS, 0
006A 2A00      07409         INCF    r0x01, F
006C B0D8      07410         BTFSC   STATUS, 0
006E 2A00      07411         INCF    r0x02, F
0070 C000 FFE9 07412         MOVFF   r0x00, FSR0L
0074 C000 FFF3 07413         MOVFF   r0x01, PRODL
0078 5000      07414         MOVF    r0x02, W
007A EC00 F000 07415         CALL    __gptrget1
007E 6E00      07416         MOVWF   r0x00
               07417 ;       .line   354; /home/mandon/Bureau/validate.c     BOOL piecefound = FALSE;
0080 6A00      07418         CLRF    r0x01
               07419 ; ;multiply lit val:0x08 by variable r0x05 and store in r0x02
               07420 ; ;Unrolled 8 X 8 multiplication
               07421 ; ;FIXME: the function does not support result==WREG
               07422 ;       .line   355; /home/mandon/Bureau/validate.c     while ((col-- > MIN_COL) && (!piecefound) && (depth--))
0082 5000      07423         MOVF    r0x05, W
0084 0D08      07424         MULLW   0x08
0086 CFF3 F000 07425         MOVFF   PRODL, r0x02
008A 6A00      07426         CLRF    r0x06
008C BE00      07427         BTFSC   r0x02, 7
008E 6800      07428         SETF    r0x06
Error [113] : Symbol not previously defined (_board).
0090 0E00      07429         MOVLW   LOW(_board)
0092 2600      07430         ADDWF   r0x02, F
Error [113] : Symbol not previously defined (_board).
0094 0E00      07431         MOVLW   HIGH(_board)
0096 2200      07432         ADDWFC  r0x06, F
0098 0E08      07433         MOVLW   0x08
009A 1600      07434         ANDWF   r0x03, F
009C 3800      07435         SWAPF   r0x03, W
009E 44E8      07436         RLNCF   WREG, W
00A0 0B1F      07437         ANDLW   0x1f
00A2 6E00      07438         MOVWF   r0x03
00A4 07439 _00492_DS_:
00A4 C000 F000 07440         MOVFF   r0x00, r0x07
00A8 0600      07441         DECF    r0x00, F
00AA 5000      07442         MOVF    r0x07, W
00AC 0F80      07443         ADDLW   0x80
00AE 0F7F      07444         ADDLW   0x7f
00B0 A0D8      07445         BTFSS   STATUS, 0
00B2 D000      07446         BRA     _00495_DS_
00B4 5000      07447         MOVF    r0x01, W
00B6 A4D8      07448         BTFSS   STATUS, 2
00B8 D000      07449         BRA     _00495_DS_
00BA C000 F000 07450         MOVFF   r0x04, r0x07
gpasm-0.13.7 beta               /home/mandon/pinguino32/copie courante/linux/source/main.asm5-29-2011  20:37:50          PAGE 143


LOC  OBJECT CODE     LINE SOURCE TEXT
  VALUE
 
00BE 0600      07451         DECF    r0x04, F
00C0 5000      07452         MOVF    r0x07, W
00C2 B4D8      07453         BTFSC   STATUS, 2
00C4 D000      07454         BRA     _00495_DS_
               07455 ;       .line   356; /home/mandon/Bureau/validate.c     { if (board[row][col] == EMPTY)
00C6 5000      07456         MOVF    r0x00, W
00C8 2400      07457         ADDWF   r0x02, W
00CA 6E00      07458         MOVWF   r0x07
00CC 6AE8      07459         CLRF    WREG
00CE BE00      07460         BTFSC   r0x00, 7
00D0 68E8      07461         SETF    WREG
00D2 2000      07462         ADDWFC  r0x06, W
00D4 6E00      07463         MOVWF   r0x08
00D6 C000 FFE9 07464         MOVFF   r0x07, FSR0L
00DA C000 FFEA 07465         MOVFF   r0x08, FSR0H
00DE CFEF F000 07466         MOVFF   INDF0, r0x07
00E2 5000      07467         MOVF    r0x07, W
00E4 E100      07468         BNZ     _00488_DS_
               07469 ;       .line   358; /home/mandon/Bureau/validate.c     validmovemask[row] |= (1<<col);
Error [113] : Symbol not previously defined (_validmovemask).
00E6 0E00      07470         MOVLW   LOW(_validmovemask)
00E8 2400      07471         ADDWF   r0x05, W
00EA 6E00      07472         MOVWF   r0x08
00EC 6A00      07473         CLRF    r0x09
00EE BE00      07474         BTFSC   r0x05, 7
00F0 6800      07475         SETF    r0x09
Error [113] : Symbol not previously defined (_validmovemask).
00F2 0E00      07476         MOVLW   HIGH(_validmovemask)
00F4 2200      07477         ADDWFC  r0x09, F
00F6 C000 FFE9 07478         MOVFF   r0x08, FSR0L
00FA C000 FFEA 07479         MOVFF   r0x09, FSR0H
00FE CFEF F000 07480         MOVFF   INDF0, r0x0a
0102 0E01      07481         MOVLW   0x01
0104 6E00      07482         MOVWF   r0x0b
0106 5000      07483         MOVF    r0x00, W
0108 E000      07484         BZ      _00508_DS_
010A E600      07485         BN      _00511_DS_
010C 6CE8      07486         NEGF    WREG
010E 90D8      07487         BCF     STATUS, 0
0110 07488 _00509_DS_:
0110 3600      07489         RLCF    r0x0b, F
0112 0F01      07490         ADDLW   0x01
0114 E300      07491         BNC     _00509_DS_
0116 D000      07492         BRA     _00508_DS_
0118 07493 _00511_DS_:
0118 90D8      07494         BCF     STATUS, 0
011A 07495 _00510_DS_:
011A 3200      07496         RRCF    r0x0b, F
011C 0F01      07497         ADDLW   0x01
011E E300      07498         BNC     _00510_DS_
0120 07499 _00508_DS_:
0120 5000      07500         MOVF    r0x0b, W
0122 1200      07501         IORWF   r0x0a, F
0124 C000 FFE9 07502         MOVFF   r0x08, FSR0L
gpasm-0.13.7 beta               /home/mandon/pinguino32/copie courante/linux/source/main.asm5-29-2011  20:37:50          PAGE 144


LOC  OBJECT CODE     LINE SOURCE TEXT
  VALUE
 
0128 C000 FFEA 07503         MOVFF   r0x09, FSR0H
012C C000 FFEF 07504         MOVFF   r0x0a, INDF0
0130 D000      07505         BRA     _00492_DS_
0132 07506 _00488_DS_:
               07507 ;       .line   360; /home/mandon/Bureau/validate.c     else if (is_opp_piece(row,col,piececolour))
0132 0E08      07508         MOVLW   0x08
0134 1400      07509         ANDWF   r0x07, W
0136 6E00      07510         MOVWF   r0x08
0138 3800      07511         SWAPF   r0x08, W
013A 44E8      07512         RLNCF   WREG, W
013C 0B1F      07513         ANDLW   0x1f
013E 6E00      07514         MOVWF   r0x08
0140 5000      07515         MOVF    r0x03, W
0142 1A00      07516         XORWF   r0x08, F
0144 5000      07517         MOVF    r0x08, W
0146 B4D8      07518         BTFSC   STATUS, 2
0148 D000      07519         BRA     _00484_DS_
014A 5000      07520         MOVF    r0x07, W
014C B4D8      07521         BTFSC   STATUS, 2
014E D000      07522         BRA     _00484_DS_
               07523 ;       .line   362; /home/mandon/Bureau/validate.c     validmovemask[row] |= (1<<col);
Error [113] : Symbol not previously defined (_validmovemask).
0150 0E00      07524         MOVLW   LOW(_validmovemask)
0152 2400      07525         ADDWF   r0x05, W
0154 6E00      07526         MOVWF   r0x07
0156 6A00      07527         CLRF    r0x08
0158 BE00      07528         BTFSC   r0x05, 7
015A 6800      07529         SETF    r0x08
Error [113] : Symbol not previously defined (_validmovemask).
015C 0E00      07530         MOVLW   HIGH(_validmovemask)
015E 2200      07531         ADDWFC  r0x08, F
0160 C000 FFE9 07532         MOVFF   r0x07, FSR0L
0164 C000 FFEA 07533         MOVFF   r0x08, FSR0H
0168 CFEF F000 07534         MOVFF   INDF0, r0x09
016C 0E01      07535         MOVLW   0x01
016E 6E00      07536         MOVWF   r0x0a
0170 5000      07537         MOVF    r0x00, W
0172 E000      07538         BZ      _00514_DS_
0174 E600      07539         BN      _00517_DS_
0176 6CE8      07540         NEGF    WREG
0178 90D8      07541         BCF     STATUS, 0
017A 07542 _00515_DS_:
017A 3600      07543         RLCF    r0x0a, F
017C 0F01      07544         ADDLW   0x01
017E E300      07545         BNC     _00515_DS_
0180 D000      07546         BRA     _00514_DS_
0182 07547 _00517_DS_:
0182 90D8      07548         BCF     STATUS, 0
0184 07549 _00516_DS_:
0184 3200      07550         RRCF    r0x0a, F
0186 0F01      07551         ADDLW   0x01
0188 E300      07552         BNC     _00516_DS_
018A 07553 _00514_DS_:
018A 5000      07554         MOVF    r0x0a, W
gpasm-0.13.7 beta               /home/mandon/pinguino32/copie courante/linux/source/main.asm5-29-2011  20:37:50          PAGE 145


LOC  OBJECT CODE     LINE SOURCE TEXT
  VALUE
 
018C 1200      07555         IORWF   r0x09, F
018E C000 FFE9 07556         MOVFF   r0x07, FSR0L
0192 C000 FFEA 07557         MOVFF   r0x08, FSR0H
0196 C000 FFEF 07558         MOVFF   r0x09, INDF0
               07559 ;       .line   363; /home/mandon/Bureau/validate.c     capturemask[row]   |= (1<<col);
Error [113] : Symbol not previously defined (_capturemask).
019A 0E00      07560         MOVLW   LOW(_capturemask)
019C 2400      07561         ADDWF   r0x05, W
019E 6E00      07562         MOVWF   r0x07
01A0 6A00      07563         CLRF    r0x08
01A2 BE00      07564         BTFSC   r0x05, 7
01A4 6800      07565         SETF    r0x08
Error [113] : Symbol not previously defined (_capturemask).
01A6 0E00      07566         MOVLW   HIGH(_capturemask)
01A8 2200      07567         ADDWFC  r0x08, F
01AA C000 FFE9 07568         MOVFF   r0x07, FSR0L
01AE C000 FFEA 07569         MOVFF   r0x08, FSR0H
01B2 CFEF F000 07570         MOVFF   INDF0, r0x09
01B6 5000      07571         MOVF    r0x09, W
01B8 1200      07572         IORWF   r0x0a, F
01BA C000 FFE9 07573         MOVFF   r0x07, FSR0L
01BE C000 FFEA 07574         MOVFF   r0x08, FSR0H
01C2 C000 FFEF 07575         MOVFF   r0x0a, INDF0
               07576 ;       .line   364; /home/mandon/Bureau/validate.c     if (capturemask[opp_king_pos[0]]  & (1 << opp_king_pos[1])) kingcapture = TRUE;
Error [113] : Symbol not previously defined (_capturemask).
01C6 0E00      07577         MOVLW   LOW(_capturemask)
01C8 0000      07578         BANKSEL _opp_king_pos
01CA 2500      07579         ADDWF   _opp_king_pos, W, B
01CC 6E00      07580         MOVWF   r0x07
01CE 6A00      07581         CLRF    r0x08
Error [113] : Symbol not previously defined (_capturemask).
01D0 0E00      07582         MOVLW   HIGH(_capturemask)
01D2 2200      07583         ADDWFC  r0x08, F
01D4 C000 FFE9 07584         MOVFF   r0x07, FSR0L
01D8 C000 FFEA 07585         MOVFF   r0x08, FSR0H
01DC CFEF F000 07586         MOVFF   INDF0, r0x07
01E0 0E01      07587         MOVLW   0x01
01E2 6E00      07588         MOVWF   r0x08
01E4 6A00      07589         CLRF    r0x09
               07590 ; removed redundant BANKSEL
01E6 5100      07591         MOVF    (_opp_king_pos + 1), W, B
01E8 E000      07592         BZ      _00520_DS_
01EA 6CE8      07593         NEGF    WREG
01EC 90D8      07594         BCF     STATUS, 0
01EE 07595 _00521_DS_:
01EE 3600      07596         RLCF    r0x08, F
01F0 3600      07597         RLCF    r0x09, F
01F2 0F01      07598         ADDLW   0x01
01F4 E300      07599         BNC     _00521_DS_
01F6 07600 _00520_DS_:
01F6 6A00      07601         CLRF    r0x0a
01F8 5000      07602         MOVF    r0x07, W
01FA 1600      07603         ANDWF   r0x08, F
01FC 5000      07604         MOVF    r0x0a, W
gpasm-0.13.7 beta               /home/mandon/pinguino32/copie courante/linux/source/main.asm5-29-2011  20:37:50          PAGE 146


LOC  OBJECT CODE     LINE SOURCE TEXT
  VALUE
 
01FE 1600      07605         ANDWF   r0x09, F
0200 5000      07606         MOVF    r0x08, W
0202 1000      07607         IORWF   r0x09, W
0204 E000      07608         BZ      _00482_DS_
0206 0E01      07609         MOVLW   0x01
Error [113] : Symbol not previously defined (_kingcapture).
0208 0100      07610         BANKSEL _kingcapture
Error [113] : Symbol not previously defined (_kingcapture).
Error [113] : Symbol not previously defined (_kingcapture).
020A 6F00      07611         MOVWF   _kingcapture, B
020C 07612 _00482_DS_:
               07613 ;       .line   365; /home/mandon/Bureau/validate.c     piecefound = TRUE;
020C 0E01      07614         MOVLW   0x01
020E 6E00      07615         MOVWF   r0x01
0210 D000      07616         BRA     _00492_DS_
0212 07617 _00484_DS_:
               07618 ;       .line   369; /home/mandon/Bureau/validate.c     piecefound = TRUE;
0212 0E01      07619         MOVLW   0x01
0214 6E00      07620         MOVWF   r0x01
0216 D000      07621         BRA     _00492_DS_
0218 07622 _00495_DS_:
0218 CFE4 F000 07623         MOVFF   PREINC1, r0x0b
021C CFE4 F000 07624         MOVFF   PREINC1, r0x0a
0220 CFE4 F000 07625         MOVFF   PREINC1, r0x09
0224 CFE4 F000 07626         MOVFF   PREINC1, r0x08
0228 CFE4 F000 07627         MOVFF   PREINC1, r0x07
022C CFE4 F000 07628         MOVFF   PREINC1, r0x06
0230 CFE4 F000 07629         MOVFF   PREINC1, r0x05
0234 CFE4 F000 07630         MOVFF   PREINC1, r0x04
0238 CFE4 F000 07631         MOVFF   PREINC1, r0x03
023C CFE4 F000 07632         MOVFF   PREINC1, r0x02
0240 CFE4 F000 07633         MOVFF   PREINC1, r0x01
0244 CFE4 F000 07634         MOVFF   PREINC1, r0x00
0248 CFE4 FFD9 07635         MOVFF   PREINC1, FSR2L
024C 0012      07636         RETURN  
               07637 
               07638 ; ; Starting pCode block
               07639 S_main__val_east        code
0000 07640 _val_east:
               07641 ;       .line   328; /home/mandon/Bureau/validate.c     void val_east (LOC from,BOOL piececolour,BOOL depth)
0000 CFD9 FFE5 07642         MOVFF   FSR2L, POSTDEC1
0004 CFE1 FFD9 07643         MOVFF   FSR1L, FSR2L
0008 C000 FFE5 07644         MOVFF   r0x00, POSTDEC1
000C C000 FFE5 07645         MOVFF   r0x01, POSTDEC1
0010 C000 FFE5 07646         MOVFF   r0x02, POSTDEC1
0014 C000 FFE5 07647         MOVFF   r0x03, POSTDEC1
0018 C000 FFE5 07648         MOVFF   r0x04, POSTDEC1
001C C000 FFE5 07649         MOVFF   r0x05, POSTDEC1
0020 C000 FFE5 07650         MOVFF   r0x06, POSTDEC1
0024 C000 FFE5 07651         MOVFF   r0x07, POSTDEC1
0028 C000 FFE5 07652         MOVFF   r0x08, POSTDEC1
002C C000 FFE5 07653         MOVFF   r0x09, POSTDEC1
0030 C000 FFE5 07654         MOVFF   r0x0a, POSTDEC1
0034 C000 FFE5 07655         MOVFF   r0x0b, POSTDEC1
gpasm-0.13.7 beta               /home/mandon/pinguino32/copie courante/linux/source/main.asm5-29-2011  20:37:50          PAGE 147


LOC  OBJECT CODE     LINE SOURCE TEXT
  VALUE
 
0038 0E02      07656         MOVLW   0x02
003A CFDB F000 07657         MOVFF   PLUSW2, r0x00
003E 0E03      07658         MOVLW   0x03
0040 CFDB F000 07659         MOVFF   PLUSW2, r0x01
0044 0E04      07660         MOVLW   0x04
0046 CFDB F000 07661         MOVFF   PLUSW2, r0x02
004A 0E05      07662         MOVLW   0x05
004C CFDB F000 07663         MOVFF   PLUSW2, r0x03
0050 0E06      07664         MOVLW   0x06
0052 CFDB F000 07665         MOVFF   PLUSW2, r0x04
               07666 ;       .line   330; /home/mandon/Bureau/validate.c     COORD row = from[0],col = from[1];
0056 C000 FFE9 07667         MOVFF   r0x00, FSR0L
005A C000 FFF3 07668         MOVFF   r0x01, PRODL
005E 5000      07669         MOVF    r0x02, W
0060 EC00 F000 07670         CALL    __gptrget1
0064 6E00      07671         MOVWF   r0x05
0066 2A00      07672         INCF    r0x00, F
0068 B0D8      07673         BTFSC   STATUS, 0
006A 2A00      07674         INCF    r0x01, F
006C B0D8      07675         BTFSC   STATUS, 0
006E 2A00      07676         INCF    r0x02, F
0070 C000 FFE9 07677         MOVFF   r0x00, FSR0L
0074 C000 FFF3 07678         MOVFF   r0x01, PRODL
0078 5000      07679         MOVF    r0x02, W
007A EC00 F000 07680         CALL    __gptrget1
007E 6E00      07681         MOVWF   r0x00
               07682 ;       .line   331; /home/mandon/Bureau/validate.c     BOOL piecefound = FALSE;
0080 6A00      07683         CLRF    r0x01
               07684 ; ;multiply lit val:0x08 by variable r0x05 and store in r0x02
               07685 ; ;Unrolled 8 X 8 multiplication
               07686 ; ;FIXME: the function does not support result==WREG
               07687 ;       .line   332; /home/mandon/Bureau/validate.c     while ((col++ < MAX_COL) && (!piecefound) && (depth--))
0082 5000      07688         MOVF    r0x05, W
0084 0D08      07689         MULLW   0x08
0086 CFF3 F000 07690         MOVFF   PRODL, r0x02
008A 6A00      07691         CLRF    r0x06
Error [113] : Symbol not previously defined (_board).
008C 0E00      07692         MOVLW   LOW(_board)
008E 2600      07693         ADDWF   r0x02, F
Error [113] : Symbol not previously defined (_board).
0090 0E00      07694         MOVLW   HIGH(_board)
0092 2200      07695         ADDWFC  r0x06, F
0094 0E08      07696         MOVLW   0x08
0096 1600      07697         ANDWF   r0x03, F
0098 3800      07698         SWAPF   r0x03, W
009A 44E8      07699         RLNCF   WREG, W
009C 0B1F      07700         ANDLW   0x1f
009E 6E00      07701         MOVWF   r0x03
00A0 07702 _00451_DS_:
00A0 C000 F000 07703         MOVFF   r0x00, r0x07
00A4 2A00      07704         INCF    r0x00, F
00A6 0E07      07705         MOVLW   0x07
00A8 5C00      07706         SUBWF   r0x07, W
00AA B0D8      07707         BTFSC   STATUS, 0
gpasm-0.13.7 beta               /home/mandon/pinguino32/copie courante/linux/source/main.asm5-29-2011  20:37:50          PAGE 148


LOC  OBJECT CODE     LINE SOURCE TEXT
  VALUE
 
00AC D000      07708         BRA     _00454_DS_
00AE 5000      07709         MOVF    r0x01, W
00B0 A4D8      07710         BTFSS   STATUS, 2
00B2 D000      07711         BRA     _00454_DS_
00B4 C000 F000 07712         MOVFF   r0x04, r0x07
00B8 0600      07713         DECF    r0x04, F
00BA 5000      07714         MOVF    r0x07, W
00BC B4D8      07715         BTFSC   STATUS, 2
00BE D000      07716         BRA     _00454_DS_
               07717 ;       .line   333; /home/mandon/Bureau/validate.c     { if (board[row][col] == EMPTY)
00C0 5000      07718         MOVF    r0x00, W
00C2 2400      07719         ADDWF   r0x02, W
00C4 6E00      07720         MOVWF   r0x07
00C6 6AE8      07721         CLRF    WREG
00C8 2000      07722         ADDWFC  r0x06, W
00CA 6E00      07723         MOVWF   r0x08
00CC C000 FFE9 07724         MOVFF   r0x07, FSR0L
00D0 C000 FFEA 07725         MOVFF   r0x08, FSR0H
00D4 CFEF F000 07726         MOVFF   INDF0, r0x07
00D8 5000      07727         MOVF    r0x07, W
00DA E100      07728         BNZ     _00447_DS_
               07729 ;       .line   335; /home/mandon/Bureau/validate.c     validmovemask[row] |= (1<<col);
Error [113] : Symbol not previously defined (_validmovemask).
00DC 0E00      07730         MOVLW   LOW(_validmovemask)
00DE 2400      07731         ADDWF   r0x05, W
00E0 6E00      07732         MOVWF   r0x08
00E2 6A00      07733         CLRF    r0x09
Error [113] : Symbol not previously defined (_validmovemask).
00E4 0E00      07734         MOVLW   HIGH(_validmovemask)
00E6 2200      07735         ADDWFC  r0x09, F
00E8 C000 FFE9 07736         MOVFF   r0x08, FSR0L
00EC C000 FFEA 07737         MOVFF   r0x09, FSR0H
00F0 CFEF F000 07738         MOVFF   INDF0, r0x0a
00F4 0E01      07739         MOVLW   0x01
00F6 6E00      07740         MOVWF   r0x0b
00F8 5000      07741         MOVF    r0x00, W
00FA E000      07742         BZ      _00467_DS_
00FC 6CE8      07743         NEGF    WREG
00FE 90D8      07744         BCF     STATUS, 0
0100 07745 _00468_DS_:
0100 3600      07746         RLCF    r0x0b, F
0102 0F01      07747         ADDLW   0x01
0104 E300      07748         BNC     _00468_DS_
0106 07749 _00467_DS_:
0106 5000      07750         MOVF    r0x0b, W
0108 1200      07751         IORWF   r0x0a, F
010A C000 FFE9 07752         MOVFF   r0x08, FSR0L
010E C000 FFEA 07753         MOVFF   r0x09, FSR0H
0112 C000 FFEF 07754         MOVFF   r0x0a, INDF0
0116 D000      07755         BRA     _00451_DS_
0118 07756 _00447_DS_:
               07757 ;       .line   337; /home/mandon/Bureau/validate.c     else if (is_opp_piece(row,col,piececolour))
0118 0E08      07758         MOVLW   0x08
011A 1400      07759         ANDWF   r0x07, W
gpasm-0.13.7 beta               /home/mandon/pinguino32/copie courante/linux/source/main.asm5-29-2011  20:37:50          PAGE 149


LOC  OBJECT CODE     LINE SOURCE TEXT
  VALUE
 
011C 6E00      07760         MOVWF   r0x08
011E 3800      07761         SWAPF   r0x08, W
0120 44E8      07762         RLNCF   WREG, W
0122 0B1F      07763         ANDLW   0x1f
0124 6E00      07764         MOVWF   r0x08
0126 5000      07765         MOVF    r0x03, W
0128 1A00      07766         XORWF   r0x08, F
012A 5000      07767         MOVF    r0x08, W
012C B4D8      07768         BTFSC   STATUS, 2
012E D000      07769         BRA     _00443_DS_
0130 5000      07770         MOVF    r0x07, W
0132 B4D8      07771         BTFSC   STATUS, 2
0134 D000      07772         BRA     _00443_DS_
               07773 ;       .line   339; /home/mandon/Bureau/validate.c     validmovemask[row] |= (1<<col);
Error [113] : Symbol not previously defined (_validmovemask).
0136 0E00      07774         MOVLW   LOW(_validmovemask)
0138 2400      07775         ADDWF   r0x05, W
013A 6E00      07776         MOVWF   r0x07
013C 6A00      07777         CLRF    r0x08
Error [113] : Symbol not previously defined (_validmovemask).
013E 0E00      07778         MOVLW   HIGH(_validmovemask)
0140 2200      07779         ADDWFC  r0x08, F
0142 C000 FFE9 07780         MOVFF   r0x07, FSR0L
0146 C000 FFEA 07781         MOVFF   r0x08, FSR0H
014A CFEF F000 07782         MOVFF   INDF0, r0x09
014E 0E01      07783         MOVLW   0x01
0150 6E00      07784         MOVWF   r0x0a
0152 5000      07785         MOVF    r0x00, W
0154 E000      07786         BZ      _00471_DS_
0156 6CE8      07787         NEGF    WREG
0158 90D8      07788         BCF     STATUS, 0
015A 07789 _00472_DS_:
015A 3600      07790         RLCF    r0x0a, F
015C 0F01      07791         ADDLW   0x01
015E E300      07792         BNC     _00472_DS_
0160 07793 _00471_DS_:
0160 5000      07794         MOVF    r0x0a, W
0162 1200      07795         IORWF   r0x09, F
0164 C000 FFE9 07796         MOVFF   r0x07, FSR0L
0168 C000 FFEA 07797         MOVFF   r0x08, FSR0H
016C C000 FFEF 07798         MOVFF   r0x09, INDF0
               07799 ;       .line   340; /home/mandon/Bureau/validate.c     capturemask[row]   |= (1<<col);
Error [113] : Symbol not previously defined (_capturemask).
0170 0E00      07800         MOVLW   LOW(_capturemask)
0172 2400      07801         ADDWF   r0x05, W
0174 6E00      07802         MOVWF   r0x07
0176 6A00      07803         CLRF    r0x08
Error [113] : Symbol not previously defined (_capturemask).
0178 0E00      07804         MOVLW   HIGH(_capturemask)
017A 2200      07805         ADDWFC  r0x08, F
017C C000 FFE9 07806         MOVFF   r0x07, FSR0L
0180 C000 FFEA 07807         MOVFF   r0x08, FSR0H
0184 CFEF F000 07808         MOVFF   INDF0, r0x09
0188 5000      07809         MOVF    r0x09, W
gpasm-0.13.7 beta               /home/mandon/pinguino32/copie courante/linux/source/main.asm5-29-2011  20:37:50          PAGE 150


LOC  OBJECT CODE     LINE SOURCE TEXT
  VALUE
 
018A 1200      07810         IORWF   r0x0a, F
018C C000 FFE9 07811         MOVFF   r0x07, FSR0L
0190 C000 FFEA 07812         MOVFF   r0x08, FSR0H
0194 C000 FFEF 07813         MOVFF   r0x0a, INDF0
               07814 ;       .line   341; /home/mandon/Bureau/validate.c     if (capturemask[opp_king_pos[0]]  & (1 << opp_king_pos[1])) kingcapture = TRUE;
Error [113] : Symbol not previously defined (_capturemask).
0198 0E00      07815         MOVLW   LOW(_capturemask)
019A 0000      07816         BANKSEL _opp_king_pos
019C 2500      07817         ADDWF   _opp_king_pos, W, B
019E 6E00      07818         MOVWF   r0x07
01A0 6A00      07819         CLRF    r0x08
Error [113] : Symbol not previously defined (_capturemask).
01A2 0E00      07820         MOVLW   HIGH(_capturemask)
01A4 2200      07821         ADDWFC  r0x08, F
01A6 C000 FFE9 07822         MOVFF   r0x07, FSR0L
01AA C000 FFEA 07823         MOVFF   r0x08, FSR0H
01AE CFEF F000 07824         MOVFF   INDF0, r0x07
01B2 0E01      07825         MOVLW   0x01
01B4 6E00      07826         MOVWF   r0x08
01B6 6A00      07827         CLRF    r0x09
               07828 ; removed redundant BANKSEL
01B8 5100      07829         MOVF    (_opp_king_pos + 1), W, B
01BA E000      07830         BZ      _00475_DS_
01BC 6CE8      07831         NEGF    WREG
01BE 90D8      07832         BCF     STATUS, 0
01C0 07833 _00476_DS_:
01C0 3600      07834         RLCF    r0x08, F
01C2 3600      07835         RLCF    r0x09, F
01C4 0F01      07836         ADDLW   0x01
01C6 E300      07837         BNC     _00476_DS_
01C8 07838 _00475_DS_:
01C8 6A00      07839         CLRF    r0x0a
01CA 5000      07840         MOVF    r0x07, W
01CC 1600      07841         ANDWF   r0x08, F
01CE 5000      07842         MOVF    r0x0a, W
01D0 1600      07843         ANDWF   r0x09, F
01D2 5000      07844         MOVF    r0x08, W
01D4 1000      07845         IORWF   r0x09, W
01D6 E000      07846         BZ      _00441_DS_
01D8 0E01      07847         MOVLW   0x01
Error [113] : Symbol not previously defined (_kingcapture).
01DA 0100      07848         BANKSEL _kingcapture
Error [113] : Symbol not previously defined (_kingcapture).
Error [113] : Symbol not previously defined (_kingcapture).
01DC 6F00      07849         MOVWF   _kingcapture, B
01DE 07850 _00441_DS_:
               07851 ;       .line   342; /home/mandon/Bureau/validate.c     piecefound = TRUE;
01DE 0E01      07852         MOVLW   0x01
01E0 6E00      07853         MOVWF   r0x01
01E2 D000      07854         BRA     _00451_DS_
01E4 07855 _00443_DS_:
               07856 ;       .line   346; /home/mandon/Bureau/validate.c     piecefound = TRUE;
01E4 0E01      07857         MOVLW   0x01
01E6 6E00      07858         MOVWF   r0x01
gpasm-0.13.7 beta               /home/mandon/pinguino32/copie courante/linux/source/main.asm5-29-2011  20:37:50          PAGE 151


LOC  OBJECT CODE     LINE SOURCE TEXT
  VALUE
 
01E8 D000      07859         BRA     _00451_DS_
01EA 07860 _00454_DS_:
01EA CFE4 F000 07861         MOVFF   PREINC1, r0x0b
01EE CFE4 F000 07862         MOVFF   PREINC1, r0x0a
01F2 CFE4 F000 07863         MOVFF   PREINC1, r0x09
01F6 CFE4 F000 07864         MOVFF   PREINC1, r0x08
01FA CFE4 F000 07865         MOVFF   PREINC1, r0x07
01FE CFE4 F000 07866         MOVFF   PREINC1, r0x06
0202 CFE4 F000 07867         MOVFF   PREINC1, r0x05
0206 CFE4 F000 07868         MOVFF   PREINC1, r0x04
020A CFE4 F000 07869         MOVFF   PREINC1, r0x03
020E CFE4 F000 07870         MOVFF   PREINC1, r0x02
0212 CFE4 F000 07871         MOVFF   PREINC1, r0x01
0216 CFE4 F000 07872         MOVFF   PREINC1, r0x00
021A CFE4 FFD9 07873         MOVFF   PREINC1, FSR2L
021E 0012      07874         RETURN  
               07875 
               07876 ; ; Starting pCode block
               07877 S_main__val_south       code
0000 07878 _val_south:
               07879 ;       .line   305; /home/mandon/Bureau/validate.c     void val_south (LOC from,BOOL piececolour,BOOL depth)
0000 CFD9 FFE5 07880         MOVFF   FSR2L, POSTDEC1
0004 CFE1 FFD9 07881         MOVFF   FSR1L, FSR2L
0008 C000 FFE5 07882         MOVFF   r0x00, POSTDEC1
000C C000 FFE5 07883         MOVFF   r0x01, POSTDEC1
0010 C000 FFE5 07884         MOVFF   r0x02, POSTDEC1
0014 C000 FFE5 07885         MOVFF   r0x03, POSTDEC1
0018 C000 FFE5 07886         MOVFF   r0x04, POSTDEC1
001C C000 FFE5 07887         MOVFF   r0x05, POSTDEC1
0020 C000 FFE5 07888         MOVFF   r0x06, POSTDEC1
0024 C000 FFE5 07889         MOVFF   r0x07, POSTDEC1
0028 C000 FFE5 07890         MOVFF   r0x08, POSTDEC1
002C C000 FFE5 07891         MOVFF   r0x09, POSTDEC1
0030 C000 FFE5 07892         MOVFF   r0x0a, POSTDEC1
0034 0E02      07893         MOVLW   0x02
0036 CFDB F000 07894         MOVFF   PLUSW2, r0x00
003A 0E03      07895         MOVLW   0x03
003C CFDB F000 07896         MOVFF   PLUSW2, r0x01
0040 0E04      07897         MOVLW   0x04
0042 CFDB F000 07898         MOVFF   PLUSW2, r0x02
0046 0E05      07899         MOVLW   0x05
0048 CFDB F000 07900         MOVFF   PLUSW2, r0x03
004C 0E06      07901         MOVLW   0x06
004E CFDB F000 07902         MOVFF   PLUSW2, r0x04
               07903 ;       .line   307; /home/mandon/Bureau/validate.c     char row = from[0], col = from[1];
0052 C000 FFE9 07904         MOVFF   r0x00, FSR0L
0056 C000 FFF3 07905         MOVFF   r0x01, PRODL
005A 5000      07906         MOVF    r0x02, W
005C EC00 F000 07907         CALL    __gptrget1
0060 6E00      07908         MOVWF   r0x05
0062 2A00      07909         INCF    r0x00, F
0064 B0D8      07910         BTFSC   STATUS, 0
0066 2A00      07911         INCF    r0x01, F
0068 B0D8      07912         BTFSC   STATUS, 0
gpasm-0.13.7 beta               /home/mandon/pinguino32/copie courante/linux/source/main.asm5-29-2011  20:37:50          PAGE 152


LOC  OBJECT CODE     LINE SOURCE TEXT
  VALUE
 
006A 2A00      07913         INCF    r0x02, F
006C C000 FFE9 07914         MOVFF   r0x00, FSR0L
0070 C000 FFF3 07915         MOVFF   r0x01, PRODL
0074 5000      07916         MOVF    r0x02, W
0076 EC00 F000 07917         CALL    __gptrget1
007A 6E00      07918         MOVWF   r0x00
               07919 ;       .line   308; /home/mandon/Bureau/validate.c     BOOL piecefound = FALSE;
007C 6A00      07920         CLRF    r0x01
               07921 ;       .line   309; /home/mandon/Bureau/validate.c     while ((row-- > MIN_ROW) && (!piecefound) && (depth--))
007E 0E01      07922         MOVLW   0x01
0080 6E00      07923         MOVWF   r0x02
0082 5000      07924         MOVF    r0x00, W
0084 E000      07925         BZ      _00424_DS_
0086 E600      07926         BN      _00427_DS_
0088 6CE8      07927         NEGF    WREG
008A 90D8      07928         BCF     STATUS, 0
008C 07929 _00425_DS_:
008C 3600      07930         RLCF    r0x02, F
008E 0F01      07931         ADDLW   0x01
0090 E300      07932         BNC     _00425_DS_
0092 D000      07933         BRA     _00424_DS_
0094 07934 _00427_DS_:
0094 90D8      07935         BCF     STATUS, 0
0096 07936 _00426_DS_:
0096 3200      07937         RRCF    r0x02, F
0098 0F01      07938         ADDLW   0x01
009A E300      07939         BNC     _00426_DS_
009C 07940 _00424_DS_:
009C 0E08      07941         MOVLW   0x08
009E 1600      07942         ANDWF   r0x03, F
00A0 3800      07943         SWAPF   r0x03, W
00A2 44E8      07944         RLNCF   WREG, W
00A4 0B1F      07945         ANDLW   0x1f
00A6 6E00      07946         MOVWF   r0x03
00A8 C000 F000 07947         MOVFF   r0x05, r0x06
               07948 ; ;multiply lit val:0x08 by variable r0x05 and store in r0x05
               07949 ; ;Unrolled 8 X 8 multiplication
               07950 ; ;FIXME: the function does not support result==WREG
00AC 5000      07951         MOVF    r0x05, W
00AE 0D08      07952         MULLW   0x08
00B0 CFF3 F000 07953         MOVFF   PRODL, r0x05
00B4 07954 _00410_DS_:
00B4 C000 F000 07955         MOVFF   r0x06, r0x07
00B8 0EF8      07956         MOVLW   0xf8
00BA 2600      07957         ADDWF   r0x05, F
00BC 0600      07958         DECF    r0x06, F
00BE 5000      07959         MOVF    r0x07, W
00C0 0F80      07960         ADDLW   0x80
00C2 0F7F      07961         ADDLW   0x7f
00C4 A0D8      07962         BTFSS   STATUS, 0
00C6 D000      07963         BRA     _00413_DS_
00C8 5000      07964         MOVF    r0x01, W
00CA A4D8      07965         BTFSS   STATUS, 2
00CC D000      07966         BRA     _00413_DS_
gpasm-0.13.7 beta               /home/mandon/pinguino32/copie courante/linux/source/main.asm5-29-2011  20:37:50          PAGE 153


LOC  OBJECT CODE     LINE SOURCE TEXT
  VALUE
 
00CE C000 F000 07967         MOVFF   r0x04, r0x07
00D2 0600      07968         DECF    r0x04, F
00D4 5000      07969         MOVF    r0x07, W
00D6 B4D8      07970         BTFSC   STATUS, 2
00D8 D000      07971         BRA     _00413_DS_
               07972 ;       .line   310; /home/mandon/Bureau/validate.c     { if (board[row][col] == EMPTY)
Error [113] : Symbol not previously defined (_board).
00DA 0E00      07973         MOVLW   LOW(_board)
00DC 2400      07974         ADDWF   r0x05, W
00DE 6E00      07975         MOVWF   r0x07
00E0 6A00      07976         CLRF    r0x08
00E2 BE00      07977         BTFSC   r0x05, 7
00E4 6800      07978         SETF    r0x08
Error [113] : Symbol not previously defined (_board).
00E6 0E00      07979         MOVLW   HIGH(_board)
00E8 2200      07980         ADDWFC  r0x08, F
00EA 5000      07981         MOVF    r0x00, W
00EC 2600      07982         ADDWF   r0x07, F
00EE 6AE8      07983         CLRF    WREG
00F0 BE00      07984         BTFSC   r0x00, 7
00F2 68E8      07985         SETF    WREG
00F4 2200      07986         ADDWFC  r0x08, F
00F6 C000 FFE9 07987         MOVFF   r0x07, FSR0L
00FA C000 FFEA 07988         MOVFF   r0x08, FSR0H
00FE CFEF F000 07989         MOVFF   INDF0, r0x07
0102 5000      07990         MOVF    r0x07, W
0104 E100      07991         BNZ     _00406_DS_
               07992 ;       .line   312; /home/mandon/Bureau/validate.c     validmovemask[row] |= (1<<col);
Error [113] : Symbol not previously defined (_validmovemask).
0106 0E00      07993         MOVLW   LOW(_validmovemask)
0108 2400      07994         ADDWF   r0x06, W
010A 6E00      07995         MOVWF   r0x08
010C 6A00      07996         CLRF    r0x09
010E BE00      07997         BTFSC   r0x06, 7
0110 6800      07998         SETF    r0x09
Error [113] : Symbol not previously defined (_validmovemask).
0112 0E00      07999         MOVLW   HIGH(_validmovemask)
0114 2200      08000         ADDWFC  r0x09, F
0116 C000 FFE9 08001         MOVFF   r0x08, FSR0L
011A C000 FFEA 08002         MOVFF   r0x09, FSR0H
011E CFEF F000 08003         MOVFF   INDF0, r0x0a
0122 5000      08004         MOVF    r0x02, W
0124 1200      08005         IORWF   r0x0a, F
0126 C000 FFE9 08006         MOVFF   r0x08, FSR0L
012A C000 FFEA 08007         MOVFF   r0x09, FSR0H
012E C000 FFEF 08008         MOVFF   r0x0a, INDF0
0132 D000      08009         BRA     _00410_DS_
0134 08010 _00406_DS_:
               08011 ;       .line   314; /home/mandon/Bureau/validate.c     else if (is_opp_piece(row,col,piececolour))
0134 0E08      08012         MOVLW   0x08
0136 1400      08013         ANDWF   r0x07, W
0138 6E00      08014         MOVWF   r0x08
013A 3800      08015         SWAPF   r0x08, W
013C 44E8      08016         RLNCF   WREG, W
gpasm-0.13.7 beta               /home/mandon/pinguino32/copie courante/linux/source/main.asm5-29-2011  20:37:50          PAGE 154


LOC  OBJECT CODE     LINE SOURCE TEXT
  VALUE
 
013E 0B1F      08017         ANDLW   0x1f
0140 6E00      08018         MOVWF   r0x08
0142 5000      08019         MOVF    r0x03, W
0144 1A00      08020         XORWF   r0x08, F
0146 5000      08021         MOVF    r0x08, W
0148 B4D8      08022         BTFSC   STATUS, 2
014A D000      08023         BRA     _00402_DS_
014C 5000      08024         MOVF    r0x07, W
014E B4D8      08025         BTFSC   STATUS, 2
0150 D000      08026         BRA     _00402_DS_
               08027 ;       .line   316; /home/mandon/Bureau/validate.c     validmovemask[row] |= (1<<col);
Error [113] : Symbol not previously defined (_validmovemask).
0152 0E00      08028         MOVLW   LOW(_validmovemask)
0154 2400      08029         ADDWF   r0x06, W
0156 6E00      08030         MOVWF   r0x07
0158 6A00      08031         CLRF    r0x08
015A BE00      08032         BTFSC   r0x06, 7
015C 6800      08033         SETF    r0x08
Error [113] : Symbol not previously defined (_validmovemask).
015E 0E00      08034         MOVLW   HIGH(_validmovemask)
0160 2200      08035         ADDWFC  r0x08, F
0162 C000 FFE9 08036         MOVFF   r0x07, FSR0L
0166 C000 FFEA 08037         MOVFF   r0x08, FSR0H
016A CFEF F000 08038         MOVFF   INDF0, r0x09
016E 5000      08039         MOVF    r0x02, W
0170 1200      08040         IORWF   r0x09, F
0172 C000 FFE9 08041         MOVFF   r0x07, FSR0L
0176 C000 FFEA 08042         MOVFF   r0x08, FSR0H
017A C000 FFEF 08043         MOVFF   r0x09, INDF0
               08044 ;       .line   317; /home/mandon/Bureau/validate.c     capturemask[row]   |= (1<<col);
Error [113] : Symbol not previously defined (_capturemask).
017E 0E00      08045         MOVLW   LOW(_capturemask)
0180 2400      08046         ADDWF   r0x06, W
0182 6E00      08047         MOVWF   r0x07
0184 6A00      08048         CLRF    r0x08
0186 BE00      08049         BTFSC   r0x06, 7
0188 6800      08050         SETF    r0x08
Error [113] : Symbol not previously defined (_capturemask).
018A 0E00      08051         MOVLW   HIGH(_capturemask)
018C 2200      08052         ADDWFC  r0x08, F
018E C000 FFE9 08053         MOVFF   r0x07, FSR0L
0192 C000 FFEA 08054         MOVFF   r0x08, FSR0H
0196 CFEF F000 08055         MOVFF   INDF0, r0x09
019A 5000      08056         MOVF    r0x02, W
019C 1200      08057         IORWF   r0x09, F
019E C000 FFE9 08058         MOVFF   r0x07, FSR0L
01A2 C000 FFEA 08059         MOVFF   r0x08, FSR0H
01A6 C000 FFEF 08060         MOVFF   r0x09, INDF0
               08061 ;       .line   318; /home/mandon/Bureau/validate.c     if (capturemask[opp_king_pos[0]]  & (1 << opp_king_pos[1])) kingcapture = TRUE;
Error [113] : Symbol not previously defined (_capturemask).
01AA 0E00      08062         MOVLW   LOW(_capturemask)
01AC 0000      08063         BANKSEL _opp_king_pos
01AE 2500      08064         ADDWF   _opp_king_pos, W, B
01B0 6E00      08065         MOVWF   r0x07
gpasm-0.13.7 beta               /home/mandon/pinguino32/copie courante/linux/source/main.asm5-29-2011  20:37:50          PAGE 155


LOC  OBJECT CODE     LINE SOURCE TEXT
  VALUE
 
01B2 6A00      08066         CLRF    r0x08
Error [113] : Symbol not previously defined (_capturemask).
01B4 0E00      08067         MOVLW   HIGH(_capturemask)
01B6 2200      08068         ADDWFC  r0x08, F
01B8 C000 FFE9 08069         MOVFF   r0x07, FSR0L
01BC C000 FFEA 08070         MOVFF   r0x08, FSR0H
01C0 CFEF F000 08071         MOVFF   INDF0, r0x07
01C4 0E01      08072         MOVLW   0x01
01C6 6E00      08073         MOVWF   r0x08
01C8 6A00      08074         CLRF    r0x09
               08075 ; removed redundant BANKSEL
01CA 5100      08076         MOVF    (_opp_king_pos + 1), W, B
01CC E000      08077         BZ      _00434_DS_
01CE 6CE8      08078         NEGF    WREG
01D0 90D8      08079         BCF     STATUS, 0
01D2 08080 _00435_DS_:
01D2 3600      08081         RLCF    r0x08, F
01D4 3600      08082         RLCF    r0x09, F
01D6 0F01      08083         ADDLW   0x01
01D8 E300      08084         BNC     _00435_DS_
01DA 08085 _00434_DS_:
01DA 6A00      08086         CLRF    r0x0a
01DC 5000      08087         MOVF    r0x07, W
01DE 1600      08088         ANDWF   r0x08, F
01E0 5000      08089         MOVF    r0x0a, W
01E2 1600      08090         ANDWF   r0x09, F
01E4 5000      08091         MOVF    r0x08, W
01E6 1000      08092         IORWF   r0x09, W
01E8 E000      08093         BZ      _00400_DS_
01EA 0E01      08094         MOVLW   0x01
Error [113] : Symbol not previously defined (_kingcapture).
01EC 0100      08095         BANKSEL _kingcapture
Error [113] : Symbol not previously defined (_kingcapture).
Error [113] : Symbol not previously defined (_kingcapture).
01EE 6F00      08096         MOVWF   _kingcapture, B
01F0 08097 _00400_DS_:
               08098 ;       .line   319; /home/mandon/Bureau/validate.c     piecefound = TRUE;
01F0 0E01      08099         MOVLW   0x01
01F2 6E00      08100         MOVWF   r0x01
01F4 D000      08101         BRA     _00410_DS_
01F6 08102 _00402_DS_:
               08103 ;       .line   323; /home/mandon/Bureau/validate.c     piecefound = TRUE;
01F6 0E01      08104         MOVLW   0x01
01F8 6E00      08105         MOVWF   r0x01
01FA D000      08106         BRA     _00410_DS_
01FC 08107 _00413_DS_:
01FC CFE4 F000 08108         MOVFF   PREINC1, r0x0a
0200 CFE4 F000 08109         MOVFF   PREINC1, r0x09
0204 CFE4 F000 08110         MOVFF   PREINC1, r0x08
0208 CFE4 F000 08111         MOVFF   PREINC1, r0x07
020C CFE4 F000 08112         MOVFF   PREINC1, r0x06
0210 CFE4 F000 08113         MOVFF   PREINC1, r0x05
0214 CFE4 F000 08114         MOVFF   PREINC1, r0x04
0218 CFE4 F000 08115         MOVFF   PREINC1, r0x03
gpasm-0.13.7 beta               /home/mandon/pinguino32/copie courante/linux/source/main.asm5-29-2011  20:37:50          PAGE 156


LOC  OBJECT CODE     LINE SOURCE TEXT
  VALUE
 
021C CFE4 F000 08116         MOVFF   PREINC1, r0x02
0220 CFE4 F000 08117         MOVFF   PREINC1, r0x01
0224 CFE4 F000 08118         MOVFF   PREINC1, r0x00
0228 CFE4 FFD9 08119         MOVFF   PREINC1, FSR2L
022C 0012      08120         RETURN  
               08121 
               08122 ; ; Starting pCode block
               08123 S_main__val_north       code
0000 08124 _val_north:
               08125 ;       .line   282; /home/mandon/Bureau/validate.c     void val_north (LOC from,BOOL piececolour,BOOL depth)
0000 CFD9 FFE5 08126         MOVFF   FSR2L, POSTDEC1
0004 CFE1 FFD9 08127         MOVFF   FSR1L, FSR2L
0008 C000 FFE5 08128         MOVFF   r0x00, POSTDEC1
000C C000 FFE5 08129         MOVFF   r0x01, POSTDEC1
0010 C000 FFE5 08130         MOVFF   r0x02, POSTDEC1
0014 C000 FFE5 08131         MOVFF   r0x03, POSTDEC1
0018 C000 FFE5 08132         MOVFF   r0x04, POSTDEC1
001C C000 FFE5 08133         MOVFF   r0x05, POSTDEC1
0020 C000 FFE5 08134         MOVFF   r0x06, POSTDEC1
0024 C000 FFE5 08135         MOVFF   r0x07, POSTDEC1
0028 C000 FFE5 08136         MOVFF   r0x08, POSTDEC1
002C C000 FFE5 08137         MOVFF   r0x09, POSTDEC1
0030 C000 FFE5 08138         MOVFF   r0x0a, POSTDEC1
0034 0E02      08139         MOVLW   0x02
0036 CFDB F000 08140         MOVFF   PLUSW2, r0x00
003A 0E03      08141         MOVLW   0x03
003C CFDB F000 08142         MOVFF   PLUSW2, r0x01
0040 0E04      08143         MOVLW   0x04
0042 CFDB F000 08144         MOVFF   PLUSW2, r0x02
0046 0E05      08145         MOVLW   0x05
0048 CFDB F000 08146         MOVFF   PLUSW2, r0x03
004C 0E06      08147         MOVLW   0x06
004E CFDB F000 08148         MOVFF   PLUSW2, r0x04
               08149 ;       .line   284; /home/mandon/Bureau/validate.c     { COORD row = from[0],col = from[1];
0052 C000 FFE9 08150         MOVFF   r0x00, FSR0L
0056 C000 FFF3 08151         MOVFF   r0x01, PRODL
005A 5000      08152         MOVF    r0x02, W
005C EC00 F000 08153         CALL    __gptrget1
0060 6E00      08154         MOVWF   r0x05
0062 2A00      08155         INCF    r0x00, F
0064 B0D8      08156         BTFSC   STATUS, 0
0066 2A00      08157         INCF    r0x01, F
0068 B0D8      08158         BTFSC   STATUS, 0
006A 2A00      08159         INCF    r0x02, F
006C C000 FFE9 08160         MOVFF   r0x00, FSR0L
0070 C000 FFF3 08161         MOVFF   r0x01, PRODL
0074 5000      08162         MOVF    r0x02, W
0076 EC00 F000 08163         CALL    __gptrget1
007A 6E00      08164         MOVWF   r0x00
               08165 ;       .line   285; /home/mandon/Bureau/validate.c     BOOL piecefound = FALSE;
007C 6A00      08166         CLRF    r0x01
               08167 ;       .line   286; /home/mandon/Bureau/validate.c     while ((row++ < MAX_ROW) && (!piecefound) && (depth--))
007E 0E01      08168         MOVLW   0x01
0080 6E00      08169         MOVWF   r0x02
gpasm-0.13.7 beta               /home/mandon/pinguino32/copie courante/linux/source/main.asm5-29-2011  20:37:50          PAGE 157


LOC  OBJECT CODE     LINE SOURCE TEXT
  VALUE
 
0082 5000      08170         MOVF    r0x00, W
0084 E000      08171         BZ      _00385_DS_
0086 6CE8      08172         NEGF    WREG
0088 90D8      08173         BCF     STATUS, 0
008A 08174 _00386_DS_:
008A 3600      08175         RLCF    r0x02, F
008C 0F01      08176         ADDLW   0x01
008E E300      08177         BNC     _00386_DS_
0090 08178 _00385_DS_:
0090 0E08      08179         MOVLW   0x08
0092 1600      08180         ANDWF   r0x03, F
0094 3800      08181         SWAPF   r0x03, W
0096 44E8      08182         RLNCF   WREG, W
0098 0B1F      08183         ANDLW   0x1f
009A 6E00      08184         MOVWF   r0x03
009C C000 F000 08185         MOVFF   r0x05, r0x06
               08186 ; ;multiply lit val:0x08 by variable r0x05 and store in r0x05
               08187 ; ;Unrolled 8 X 8 multiplication
               08188 ; ;FIXME: the function does not support result==WREG
00A0 5000      08189         MOVF    r0x05, W
00A2 0D08      08190         MULLW   0x08
00A4 CFF3 F000 08191         MOVFF   PRODL, r0x05
00A8 08192 _00371_DS_:
00A8 C000 F000 08193         MOVFF   r0x06, r0x07
00AC 0E08      08194         MOVLW   0x08
00AE 2600      08195         ADDWF   r0x05, F
00B0 2A00      08196         INCF    r0x06, F
00B2 0E07      08197         MOVLW   0x07
00B4 5C00      08198         SUBWF   r0x07, W
00B6 B0D8      08199         BTFSC   STATUS, 0
00B8 D000      08200         BRA     _00374_DS_
00BA 5000      08201         MOVF    r0x01, W
00BC A4D8      08202         BTFSS   STATUS, 2
00BE D000      08203         BRA     _00374_DS_
00C0 C000 F000 08204         MOVFF   r0x04, r0x07
00C4 0600      08205         DECF    r0x04, F
00C6 5000      08206         MOVF    r0x07, W
00C8 B4D8      08207         BTFSC   STATUS, 2
00CA D000      08208         BRA     _00374_DS_
               08209 ;       .line   287; /home/mandon/Bureau/validate.c     { if (board[row][col] == EMPTY)
Error [113] : Symbol not previously defined (_board).
00CC 0E00      08210         MOVLW   LOW(_board)
00CE 2400      08211         ADDWF   r0x05, W
00D0 6E00      08212         MOVWF   r0x07
00D2 6A00      08213         CLRF    r0x08
Error [113] : Symbol not previously defined (_board).
00D4 0E00      08214         MOVLW   HIGH(_board)
00D6 2200      08215         ADDWFC  r0x08, F
00D8 5000      08216         MOVF    r0x00, W
00DA 2600      08217         ADDWF   r0x07, F
00DC 6AE8      08218         CLRF    WREG
00DE 2200      08219         ADDWFC  r0x08, F
00E0 C000 FFE9 08220         MOVFF   r0x07, FSR0L
00E4 C000 FFEA 08221         MOVFF   r0x08, FSR0H
gpasm-0.13.7 beta               /home/mandon/pinguino32/copie courante/linux/source/main.asm5-29-2011  20:37:50          PAGE 158


LOC  OBJECT CODE     LINE SOURCE TEXT
  VALUE
 
00E8 CFEF F000 08222         MOVFF   INDF0, r0x07
00EC 5000      08223         MOVF    r0x07, W
00EE E100      08224         BNZ     _00367_DS_
               08225 ;       .line   289; /home/mandon/Bureau/validate.c     validmovemask[row] |= (1<<col);
Error [113] : Symbol not previously defined (_validmovemask).
00F0 0E00      08226         MOVLW   LOW(_validmovemask)
00F2 2400      08227         ADDWF   r0x06, W
00F4 6E00      08228         MOVWF   r0x08
00F6 6A00      08229         CLRF    r0x09
Error [113] : Symbol not previously defined (_validmovemask).
00F8 0E00      08230         MOVLW   HIGH(_validmovemask)
00FA 2200      08231         ADDWFC  r0x09, F
00FC C000 FFE9 08232         MOVFF   r0x08, FSR0L
0100 C000 FFEA 08233         MOVFF   r0x09, FSR0H
0104 CFEF F000 08234         MOVFF   INDF0, r0x0a
0108 5000      08235         MOVF    r0x02, W
010A 1200      08236         IORWF   r0x0a, F
010C C000 FFE9 08237         MOVFF   r0x08, FSR0L
0110 C000 FFEA 08238         MOVFF   r0x09, FSR0H
0114 C000 FFEF 08239         MOVFF   r0x0a, INDF0
0118 D000      08240         BRA     _00371_DS_
011A 08241 _00367_DS_:
               08242 ;       .line   291; /home/mandon/Bureau/validate.c     else if (is_opp_piece(row,col,piececolour))
011A 0E08      08243         MOVLW   0x08
011C 1400      08244         ANDWF   r0x07, W
011E 6E00      08245         MOVWF   r0x08
0120 3800      08246         SWAPF   r0x08, W
0122 44E8      08247         RLNCF   WREG, W
0124 0B1F      08248         ANDLW   0x1f
0126 6E00      08249         MOVWF   r0x08
0128 5000      08250         MOVF    r0x03, W
012A 1A00      08251         XORWF   r0x08, F
012C 5000      08252         MOVF    r0x08, W
012E B4D8      08253         BTFSC   STATUS, 2
0130 D000      08254         BRA     _00363_DS_
0132 5000      08255         MOVF    r0x07, W
0134 B4D8      08256         BTFSC   STATUS, 2
0136 D000      08257         BRA     _00363_DS_
               08258 ;       .line   293; /home/mandon/Bureau/validate.c     validmovemask[row] |= (1<<col);
Error [113] : Symbol not previously defined (_validmovemask).
0138 0E00      08259         MOVLW   LOW(_validmovemask)
013A 2400      08260         ADDWF   r0x06, W
013C 6E00      08261         MOVWF   r0x07
013E 6A00      08262         CLRF    r0x08
Error [113] : Symbol not previously defined (_validmovemask).
0140 0E00      08263         MOVLW   HIGH(_validmovemask)
0142 2200      08264         ADDWFC  r0x08, F
0144 C000 FFE9 08265         MOVFF   r0x07, FSR0L
0148 C000 FFEA 08266         MOVFF   r0x08, FSR0H
014C CFEF F000 08267         MOVFF   INDF0, r0x09
0150 5000      08268         MOVF    r0x02, W
0152 1200      08269         IORWF   r0x09, F
0154 C000 FFE9 08270         MOVFF   r0x07, FSR0L
0158 C000 FFEA 08271         MOVFF   r0x08, FSR0H
gpasm-0.13.7 beta               /home/mandon/pinguino32/copie courante/linux/source/main.asm5-29-2011  20:37:50          PAGE 159


LOC  OBJECT CODE     LINE SOURCE TEXT
  VALUE
 
015C C000 FFEF 08272         MOVFF   r0x09, INDF0
               08273 ;       .line   294; /home/mandon/Bureau/validate.c     capturemask[row]   |= (1<<col);
Error [113] : Symbol not previously defined (_capturemask).
0160 0E00      08274         MOVLW   LOW(_capturemask)
0162 2400      08275         ADDWF   r0x06, W
0164 6E00      08276         MOVWF   r0x07
0166 6A00      08277         CLRF    r0x08
Error [113] : Symbol not previously defined (_capturemask).
0168 0E00      08278         MOVLW   HIGH(_capturemask)
016A 2200      08279         ADDWFC  r0x08, F
016C C000 FFE9 08280         MOVFF   r0x07, FSR0L
0170 C000 FFEA 08281         MOVFF   r0x08, FSR0H
0174 CFEF F000 08282         MOVFF   INDF0, r0x09
0178 5000      08283         MOVF    r0x02, W
017A 1200      08284         IORWF   r0x09, F
017C C000 FFE9 08285         MOVFF   r0x07, FSR0L
0180 C000 FFEA 08286         MOVFF   r0x08, FSR0H
0184 C000 FFEF 08287         MOVFF   r0x09, INDF0
               08288 ;       .line   295; /home/mandon/Bureau/validate.c     if (capturemask[opp_king_pos[0]]  & (1 << opp_king_pos[1])) kingcapture = TRUE;
Error [113] : Symbol not previously defined (_capturemask).
0188 0E00      08289         MOVLW   LOW(_capturemask)
018A 0000      08290         BANKSEL _opp_king_pos
018C 2500      08291         ADDWF   _opp_king_pos, W, B
018E 6E00      08292         MOVWF   r0x07
0190 6A00      08293         CLRF    r0x08
Error [113] : Symbol not previously defined (_capturemask).
0192 0E00      08294         MOVLW   HIGH(_capturemask)
0194 2200      08295         ADDWFC  r0x08, F
0196 C000 FFE9 08296         MOVFF   r0x07, FSR0L
019A C000 FFEA 08297         MOVFF   r0x08, FSR0H
019E CFEF F000 08298         MOVFF   INDF0, r0x07
01A2 0E01      08299         MOVLW   0x01
01A4 6E00      08300         MOVWF   r0x08
01A6 6A00      08301         CLRF    r0x09
               08302 ; removed redundant BANKSEL
01A8 5100      08303         MOVF    (_opp_king_pos + 1), W, B
01AA E000      08304         BZ      _00393_DS_
01AC 6CE8      08305         NEGF    WREG
01AE 90D8      08306         BCF     STATUS, 0
01B0 08307 _00394_DS_:
01B0 3600      08308         RLCF    r0x08, F
01B2 3600      08309         RLCF    r0x09, F
01B4 0F01      08310         ADDLW   0x01
01B6 E300      08311         BNC     _00394_DS_
01B8 08312 _00393_DS_:
01B8 6A00      08313         CLRF    r0x0a
01BA 5000      08314         MOVF    r0x07, W
01BC 1600      08315         ANDWF   r0x08, F
01BE 5000      08316         MOVF    r0x0a, W
01C0 1600      08317         ANDWF   r0x09, F
01C2 5000      08318         MOVF    r0x08, W
01C4 1000      08319         IORWF   r0x09, W
01C6 E000      08320         BZ      _00361_DS_
01C8 0E01      08321         MOVLW   0x01
gpasm-0.13.7 beta               /home/mandon/pinguino32/copie courante/linux/source/main.asm5-29-2011  20:37:50          PAGE 160


LOC  OBJECT CODE     LINE SOURCE TEXT
  VALUE
 
Error [113] : Symbol not previously defined (_kingcapture).
01CA 0100      08322         BANKSEL _kingcapture
Error [113] : Symbol not previously defined (_kingcapture).
Error [113] : Symbol not previously defined (_kingcapture).
01CC 6F00      08323         MOVWF   _kingcapture, B
01CE 08324 _00361_DS_:
               08325 ;       .line   296; /home/mandon/Bureau/validate.c     piecefound = TRUE;
01CE 0E01      08326         MOVLW   0x01
01D0 6E00      08327         MOVWF   r0x01
01D2 D000      08328         BRA     _00371_DS_
01D4 08329 _00363_DS_:
               08330 ;       .line   300; /home/mandon/Bureau/validate.c     piecefound = TRUE;
01D4 0E01      08331         MOVLW   0x01
01D6 6E00      08332         MOVWF   r0x01
01D8 D000      08333         BRA     _00371_DS_
01DA 08334 _00374_DS_:
01DA CFE4 F000 08335         MOVFF   PREINC1, r0x0a
01DE CFE4 F000 08336         MOVFF   PREINC1, r0x09
01E2 CFE4 F000 08337         MOVFF   PREINC1, r0x08
01E6 CFE4 F000 08338         MOVFF   PREINC1, r0x07
01EA CFE4 F000 08339         MOVFF   PREINC1, r0x06
01EE CFE4 F000 08340         MOVFF   PREINC1, r0x05
01F2 CFE4 F000 08341         MOVFF   PREINC1, r0x04
01F6 CFE4 F000 08342         MOVFF   PREINC1, r0x03
01FA CFE4 F000 08343         MOVFF   PREINC1, r0x02
01FE CFE4 F000 08344         MOVFF   PREINC1, r0x01
0202 CFE4 F000 08345         MOVFF   PREINC1, r0x00
0206 CFE4 FFD9 08346         MOVFF   PREINC1, FSR2L
020A 0012      08347         RETURN  
               08348 
               08349 ; ; Starting pCode block
               08350 S_main__val_king        code
0000 08351 _val_king:
               08352 ;       .line   231; /home/mandon/Bureau/validate.c     void val_king(LOC from,BOOL piececolour)
0000 CFD9 FFE5 08353         MOVFF   FSR2L, POSTDEC1
0004 CFE1 FFD9 08354         MOVFF   FSR1L, FSR2L
0008 C000 FFE5 08355         MOVFF   r0x00, POSTDEC1
000C C000 FFE5 08356         MOVFF   r0x01, POSTDEC1
0010 C000 FFE5 08357         MOVFF   r0x02, POSTDEC1
0014 C000 FFE5 08358         MOVFF   r0x03, POSTDEC1
0018 C000 FFE5 08359         MOVFF   r0x04, POSTDEC1
001C 0E02      08360         MOVLW   0x02
001E CFDB F000 08361         MOVFF   PLUSW2, r0x00
0022 0E03      08362         MOVLW   0x03
0024 CFDB F000 08363         MOVFF   PLUSW2, r0x01
0028 0E04      08364         MOVLW   0x04
002A CFDB F000 08365         MOVFF   PLUSW2, r0x02
002E 0E05      08366         MOVLW   0x05
0030 CFDB F000 08367         MOVFF   PLUSW2, r0x03
               08368 ;       .line   236; /home/mandon/Bureau/validate.c     if (piececolour == WHITE)
0034 5000      08369         MOVF    r0x03, W
0036 E100      08370         BNZ     _00333_DS_
Error [113] : Symbol not previously defined (_bl_king_pos).
0038 0100      08371         BANKSEL _bl_king_pos
gpasm-0.13.7 beta               /home/mandon/pinguino32/copie courante/linux/source/main.asm5-29-2011  20:37:50          PAGE 161


LOC  OBJECT CODE     LINE SOURCE TEXT
  VALUE
 
               08372 ;       .line   237; /home/mandon/Bureau/validate.c     { opp_king_pos[0] = bl_king_pos[0];
Error [113] : Symbol not previously defined (_bl_king_pos).
Error [113] : Symbol not previously defined (_bl_king_pos).
003A 5100      08373         MOVF    _bl_king_pos, W, B
003C 0000      08374         BANKSEL _opp_king_pos
003E 6F00      08375         MOVWF   _opp_king_pos, B
Error [113] : Symbol not previously defined (_bl_king_pos).
0040 0100      08376         BANKSEL (_bl_king_pos + 1)
               08377 ;       .line   238; /home/mandon/Bureau/validate.c     opp_king_pos[1] = bl_king_pos[1];
Error [113] : Symbol not previously defined (_bl_king_pos).
Error [113] : Symbol not previously defined (_bl_king_pos).
0042 5100      08378         MOVF    (_bl_king_pos + 1), W, B
0044 0000      08379         BANKSEL (_opp_king_pos + 1)
0046 6F00      08380         MOVWF   (_opp_king_pos + 1), B
0048 D000      08381         BRA     _00334_DS_
004A 08382 _00333_DS_:
Error [113] : Symbol not previously defined (_wh_king_pos).
004A 0100      08383         BANKSEL _wh_king_pos
               08384 ;       .line   241; /home/mandon/Bureau/validate.c     { opp_king_pos[0] = wh_king_pos[0];
Error [113] : Symbol not previously defined (_wh_king_pos).
Error [113] : Symbol not previously defined (_wh_king_pos).
004C 5100      08385         MOVF    _wh_king_pos, W, B
004E 0000      08386         BANKSEL _opp_king_pos
0050 6F00      08387         MOVWF   _opp_king_pos, B
Error [113] : Symbol not previously defined (_wh_king_pos).
0052 0100      08388         BANKSEL (_wh_king_pos + 1)
               08389 ;       .line   242; /home/mandon/Bureau/validate.c     opp_king_pos[1] = wh_king_pos[1];
Error [113] : Symbol not previously defined (_wh_king_pos).
Error [113] : Symbol not previously defined (_wh_king_pos).
0054 5100      08390         MOVF    (_wh_king_pos + 1), W, B
0056 0000      08391         BANKSEL (_opp_king_pos + 1)
0058 6F00      08392         MOVWF   (_opp_king_pos + 1), B
005A 08393 _00334_DS_:
               08394 ;       .line   247; /home/mandon/Bureau/validate.c     val_north      (from,piececolour,1);
005A 0E01      08395         MOVLW   0x01
005C 6EE5      08396         MOVWF   POSTDEC1
005E 5000      08397         MOVF    r0x03, W
0060 6EE5      08398         MOVWF   POSTDEC1
0062 5000      08399         MOVF    r0x02, W
0064 6EE5      08400         MOVWF   POSTDEC1
0066 5000      08401         MOVF    r0x01, W
0068 6EE5      08402         MOVWF   POSTDEC1
006A 5000      08403         MOVF    r0x00, W
006C 6EE5      08404         MOVWF   POSTDEC1
006E EC00 F000 08405         CALL    _val_north
0072 0E05      08406         MOVLW   0x05
0074 26E1      08407         ADDWF   FSR1L, F
               08408 ;       .line   248; /home/mandon/Bureau/validate.c     val_south      (from,piececolour,1);
0076 0E01      08409         MOVLW   0x01
0078 6EE5      08410         MOVWF   POSTDEC1
007A 5000      08411         MOVF    r0x03, W
007C 6EE5      08412         MOVWF   POSTDEC1
007E 5000      08413         MOVF    r0x02, W
0080 6EE5      08414         MOVWF   POSTDEC1
gpasm-0.13.7 beta               /home/mandon/pinguino32/copie courante/linux/source/main.asm5-29-2011  20:37:50          PAGE 162


LOC  OBJECT CODE     LINE SOURCE TEXT
  VALUE
 
0082 5000      08415         MOVF    r0x01, W
0084 6EE5      08416         MOVWF   POSTDEC1
0086 5000      08417         MOVF    r0x00, W
0088 6EE5      08418         MOVWF   POSTDEC1
008A EC00 F000 08419         CALL    _val_south
008E 0E05      08420         MOVLW   0x05
0090 26E1      08421         ADDWF   FSR1L, F
               08422 ;       .line   249; /home/mandon/Bureau/validate.c     val_east       (from,piececolour,1);
0092 0E01      08423         MOVLW   0x01
0094 6EE5      08424         MOVWF   POSTDEC1
0096 5000      08425         MOVF    r0x03, W
0098 6EE5      08426         MOVWF   POSTDEC1
009A 5000      08427         MOVF    r0x02, W
009C 6EE5      08428         MOVWF   POSTDEC1
009E 5000      08429         MOVF    r0x01, W
00A0 6EE5      08430         MOVWF   POSTDEC1
00A2 5000      08431         MOVF    r0x00, W
00A4 6EE5      08432         MOVWF   POSTDEC1
00A6 EC00 F000 08433         CALL    _val_east
00AA 0E05      08434         MOVLW   0x05
00AC 26E1      08435         ADDWF   FSR1L, F
               08436 ;       .line   250; /home/mandon/Bureau/validate.c     val_west       (from,piececolour,1);
00AE 0E01      08437         MOVLW   0x01
00B0 6EE5      08438         MOVWF   POSTDEC1
00B2 5000      08439         MOVF    r0x03, W
00B4 6EE5      08440         MOVWF   POSTDEC1
00B6 5000      08441         MOVF    r0x02, W
00B8 6EE5      08442         MOVWF   POSTDEC1
00BA 5000      08443         MOVF    r0x01, W
00BC 6EE5      08444         MOVWF   POSTDEC1
00BE 5000      08445         MOVF    r0x00, W
00C0 6EE5      08446         MOVWF   POSTDEC1
00C2 EC00 F000 08447         CALL    _val_west
00C6 0E05      08448         MOVLW   0x05
00C8 26E1      08449         ADDWF   FSR1L, F
               08450 ;       .line   251; /home/mandon/Bureau/validate.c     val_northeast  (from,piececolour,1);
00CA 0E01      08451         MOVLW   0x01
00CC 6EE5      08452         MOVWF   POSTDEC1
00CE 5000      08453         MOVF    r0x03, W
00D0 6EE5      08454         MOVWF   POSTDEC1
00D2 5000      08455         MOVF    r0x02, W
00D4 6EE5      08456         MOVWF   POSTDEC1
00D6 5000      08457         MOVF    r0x01, W
00D8 6EE5      08458         MOVWF   POSTDEC1
00DA 5000      08459         MOVF    r0x00, W
00DC 6EE5      08460         MOVWF   POSTDEC1
00DE EC00 F000 08461         CALL    _val_northeast
00E2 0E05      08462         MOVLW   0x05
00E4 26E1      08463         ADDWF   FSR1L, F
               08464 ;       .line   252; /home/mandon/Bureau/validate.c     val_northwest  (from,piececolour,1);
00E6 0E01      08465         MOVLW   0x01
00E8 6EE5      08466         MOVWF   POSTDEC1
00EA 5000      08467         MOVF    r0x03, W
00EC 6EE5      08468         MOVWF   POSTDEC1
gpasm-0.13.7 beta               /home/mandon/pinguino32/copie courante/linux/source/main.asm5-29-2011  20:37:50          PAGE 163


LOC  OBJECT CODE     LINE SOURCE TEXT
  VALUE
 
00EE 5000      08469         MOVF    r0x02, W
00F0 6EE5      08470         MOVWF   POSTDEC1
00F2 5000      08471         MOVF    r0x01, W
00F4 6EE5      08472         MOVWF   POSTDEC1
00F6 5000      08473         MOVF    r0x00, W
00F8 6EE5      08474         MOVWF   POSTDEC1
00FA EC00 F000 08475         CALL    _val_northwest
00FE 0E05      08476         MOVLW   0x05
0100 26E1      08477         ADDWF   FSR1L, F
               08478 ;       .line   253; /home/mandon/Bureau/validate.c     val_southeast  (from,piececolour,1);
0102 0E01      08479         MOVLW   0x01
0104 6EE5      08480         MOVWF   POSTDEC1
0106 5000      08481         MOVF    r0x03, W
0108 6EE5      08482         MOVWF   POSTDEC1
010A 5000      08483         MOVF    r0x02, W
010C 6EE5      08484         MOVWF   POSTDEC1
010E 5000      08485         MOVF    r0x01, W
0110 6EE5      08486         MOVWF   POSTDEC1
0112 5000      08487         MOVF    r0x00, W
0114 6EE5      08488         MOVWF   POSTDEC1
0116 EC00 F000 08489         CALL    _val_southeast
011A 0E05      08490         MOVLW   0x05
011C 26E1      08491         ADDWF   FSR1L, F
               08492 ;       .line   254; /home/mandon/Bureau/validate.c     val_southwest  (from,piececolour,1);
011E 0E01      08493         MOVLW   0x01
0120 6EE5      08494         MOVWF   POSTDEC1
0122 5000      08495         MOVF    r0x03, W
0124 6EE5      08496         MOVWF   POSTDEC1
0126 5000      08497         MOVF    r0x02, W
0128 6EE5      08498         MOVWF   POSTDEC1
012A 5000      08499         MOVF    r0x01, W
012C 6EE5      08500         MOVWF   POSTDEC1
012E 5000      08501         MOVF    r0x00, W
0130 6EE5      08502         MOVWF   POSTDEC1
0132 EC00 F000 08503         CALL    _val_southwest
0136 0E05      08504         MOVLW   0x05
0138 26E1      08505         ADDWF   FSR1L, F
               08506 ;       .line   257; /home/mandon/Bureau/validate.c     if (piececolour & 0x08) 
013A A600      08507         BTFSS   r0x03, 3
013C D000      08508         BRA     _00336_DS_
               08509 ;       .line   258; /home/mandon/Bureau/validate.c     { tmp = bl_base_cont;
Error [113] : Symbol not previously defined (_bl_base_cont).
013E C000 F000 08510         MOVFF   _bl_base_cont, r0x00
               08511 ;       .line   259; /home/mandon/Bureau/validate.c     row = MAX_ROW;
0142 0E07      08512         MOVLW   0x07
0144 6E00      08513         MOVWF   r0x01
0146 D000      08514         BRA     _00337_DS_
0148 08515 _00336_DS_:
               08516 ;       .line   262; /home/mandon/Bureau/validate.c     { tmp = wh_base_cont;
Error [113] : Symbol not previously defined (_wh_base_cont).
0148 C000 F000 08517         MOVFF   _wh_base_cont, r0x00
               08518 ;       .line   263; /home/mandon/Bureau/validate.c     row = MIN_ROW;
014C 6A00      08519         CLRF    r0x01
014E 08520 _00337_DS_:
gpasm-0.13.7 beta               /home/mandon/pinguino32/copie courante/linux/source/main.asm5-29-2011  20:37:50          PAGE 164


LOC  OBJECT CODE     LINE SOURCE TEXT
  VALUE
 
               08521 ;       .line   266; /home/mandon/Bureau/validate.c     if ((tmp & 0x1F)== 0x11)
014E 0E1F      08522         MOVLW   0x1f
0150 1400      08523         ANDWF   r0x00, W
               08524 ; #     MOVWF   r0x02
               08525 ; #     MOVF    r0x02, W
0152 0A11      08526         XORLW   0x11
0154 E100      08527         BNZ     _00339_DS_
               08528 ;       .line   268; /home/mandon/Bureau/validate.c     validmovemask[row] |= 0x04;
Error [113] : Symbol not previously defined (_validmovemask).
0156 0E00      08529         MOVLW   LOW(_validmovemask)
0158 2400      08530         ADDWF   r0x01, W
015A 6E00      08531         MOVWF   r0x02
015C 6A00      08532         CLRF    r0x03
Error [113] : Symbol not previously defined (_validmovemask).
015E 0E00      08533         MOVLW   HIGH(_validmovemask)
0160 2200      08534         ADDWFC  r0x03, F
0162 C000 FFE9 08535         MOVFF   r0x02, FSR0L
0166 C000 FFEA 08536         MOVFF   r0x03, FSR0H
016A CFEF F000 08537         MOVFF   INDF0, r0x04
016E 8400      08538         BSF     r0x04, 2
0170 C000 FFE9 08539         MOVFF   r0x02, FSR0L
0174 C000 FFEA 08540         MOVFF   r0x03, FSR0H
0178 C000 FFEF 08541         MOVFF   r0x04, INDF0
017C 08542 _00339_DS_:
               08543 ;       .line   271; /home/mandon/Bureau/validate.c     if ((tmp & 0xF0)==0x90) 
017C 0EF0      08544         MOVLW   0xf0
017E 1600      08545         ANDWF   r0x00, F
0180 5000      08546         MOVF    r0x00, W
0182 0A90      08547         XORLW   0x90
0184 E100      08548         BNZ     _00342_DS_
               08549 ;       .line   273; /home/mandon/Bureau/validate.c     validmovemask[row] |= 0x40;
0186 6A00      08550         CLRF    r0x00
Error [113] : Symbol not previously defined (_validmovemask).
0188 0E00      08551         MOVLW   LOW(_validmovemask)
018A 2600      08552         ADDWF   r0x01, F
Error [113] : Symbol not previously defined (_validmovemask).
018C 0E00      08553         MOVLW   HIGH(_validmovemask)
018E 2200      08554         ADDWFC  r0x00, F
0190 C000 FFE9 08555         MOVFF   r0x01, FSR0L
0194 C000 FFEA 08556         MOVFF   r0x00, FSR0H
0198 CFEF F000 08557         MOVFF   INDF0, r0x02
019C 8C00      08558         BSF     r0x02, 6
019E C000 FFE9 08559         MOVFF   r0x01, FSR0L
01A2 C000 FFEA 08560         MOVFF   r0x00, FSR0H
01A6 C000 FFEF 08561         MOVFF   r0x02, INDF0
01AA 08562 _00342_DS_:
01AA CFE4 F000 08563         MOVFF   PREINC1, r0x04
01AE CFE4 F000 08564         MOVFF   PREINC1, r0x03
01B2 CFE4 F000 08565         MOVFF   PREINC1, r0x02
01B6 CFE4 F000 08566         MOVFF   PREINC1, r0x01
01BA CFE4 F000 08567         MOVFF   PREINC1, r0x00
01BE CFE4 FFD9 08568         MOVFF   PREINC1, FSR2L
01C2 0012      08569         RETURN  
               08570 
gpasm-0.13.7 beta               /home/mandon/pinguino32/copie courante/linux/source/main.asm5-29-2011  20:37:50          PAGE 165


LOC  OBJECT CODE     LINE SOURCE TEXT
  VALUE
 
               08571 ; ; Starting pCode block
               08572 S_main__val_queen       code
0000 08573 _val_queen:
               08574 ;       .line   204; /home/mandon/Bureau/validate.c     void val_queen(LOC from,BOOL piececolour)
0000 CFD9 FFE5 08575         MOVFF   FSR2L, POSTDEC1
0004 CFE1 FFD9 08576         MOVFF   FSR1L, FSR2L
0008 C000 FFE5 08577         MOVFF   r0x00, POSTDEC1
000C C000 FFE5 08578         MOVFF   r0x01, POSTDEC1
0010 C000 FFE5 08579         MOVFF   r0x02, POSTDEC1
0014 C000 FFE5 08580         MOVFF   r0x03, POSTDEC1
0018 0E02      08581         MOVLW   0x02
001A CFDB F000 08582         MOVFF   PLUSW2, r0x00
001E 0E03      08583         MOVLW   0x03
0020 CFDB F000 08584         MOVFF   PLUSW2, r0x01
0024 0E04      08585         MOVLW   0x04
0026 CFDB F000 08586         MOVFF   PLUSW2, r0x02
002A 0E05      08587         MOVLW   0x05
002C CFDB F000 08588         MOVFF   PLUSW2, r0x03
               08589 ;       .line   211; /home/mandon/Bureau/validate.c     if (piececolour == WHITE)
0030 5000      08590         MOVF    r0x03, W
0032 E100      08591         BNZ     _00325_DS_
Error [113] : Symbol not previously defined (_bl_king_pos).
0034 0100      08592         BANKSEL _bl_king_pos
               08593 ;       .line   212; /home/mandon/Bureau/validate.c     { opp_king_pos[0] = bl_king_pos[0];
Error [113] : Symbol not previously defined (_bl_king_pos).
Error [113] : Symbol not previously defined (_bl_king_pos).
0036 5100      08594         MOVF    _bl_king_pos, W, B
0038 0000      08595         BANKSEL _opp_king_pos
003A 6F00      08596         MOVWF   _opp_king_pos, B
Error [113] : Symbol not previously defined (_bl_king_pos).
003C 0100      08597         BANKSEL (_bl_king_pos + 1)
               08598 ;       .line   213; /home/mandon/Bureau/validate.c     opp_king_pos[1] = bl_king_pos[1];
Error [113] : Symbol not previously defined (_bl_king_pos).
Error [113] : Symbol not previously defined (_bl_king_pos).
003E 5100      08599         MOVF    (_bl_king_pos + 1), W, B
0040 0000      08600         BANKSEL (_opp_king_pos + 1)
0042 6F00      08601         MOVWF   (_opp_king_pos + 1), B
0044 D000      08602         BRA     _00326_DS_
0046 08603 _00325_DS_:
Error [113] : Symbol not previously defined (_wh_king_pos).
0046 0100      08604         BANKSEL _wh_king_pos
               08605 ;       .line   216; /home/mandon/Bureau/validate.c     { opp_king_pos[0] = wh_king_pos[0];
Error [113] : Symbol not previously defined (_wh_king_pos).
Error [113] : Symbol not previously defined (_wh_king_pos).
0048 5100      08606         MOVF    _wh_king_pos, W, B
004A 0000      08607         BANKSEL _opp_king_pos
004C 6F00      08608         MOVWF   _opp_king_pos, B
Error [113] : Symbol not previously defined (_wh_king_pos).
004E 0100      08609         BANKSEL (_wh_king_pos + 1)
               08610 ;       .line   217; /home/mandon/Bureau/validate.c     opp_king_pos[1] = wh_king_pos[1];
Error [113] : Symbol not previously defined (_wh_king_pos).
Error [113] : Symbol not previously defined (_wh_king_pos).
0050 5100      08611         MOVF    (_wh_king_pos + 1), W, B
0052 0000      08612         BANKSEL (_opp_king_pos + 1)
gpasm-0.13.7 beta               /home/mandon/pinguino32/copie courante/linux/source/main.asm5-29-2011  20:37:50          PAGE 166


LOC  OBJECT CODE     LINE SOURCE TEXT
  VALUE
 
0054 6F00      08613         MOVWF   (_opp_king_pos + 1), B
0056 08614 _00326_DS_:
               08615 ;       .line   221; /home/mandon/Bureau/validate.c     val_north      (from,piececolour,-1);
0056 68E5      08616         SETF    POSTDEC1
0058 5000      08617         MOVF    r0x03, W
005A 6EE5      08618         MOVWF   POSTDEC1
005C 5000      08619         MOVF    r0x02, W
005E 6EE5      08620         MOVWF   POSTDEC1
0060 5000      08621         MOVF    r0x01, W
0062 6EE5      08622         MOVWF   POSTDEC1
0064 5000      08623         MOVF    r0x00, W
0066 6EE5      08624         MOVWF   POSTDEC1
0068 EC00 F000 08625         CALL    _val_north
006C 0E05      08626         MOVLW   0x05
006E 26E1      08627         ADDWF   FSR1L, F
               08628 ;       .line   222; /home/mandon/Bureau/validate.c     val_south      (from,piececolour,-1);
0070 68E5      08629         SETF    POSTDEC1
0072 5000      08630         MOVF    r0x03, W
0074 6EE5      08631         MOVWF   POSTDEC1
0076 5000      08632         MOVF    r0x02, W
0078 6EE5      08633         MOVWF   POSTDEC1
007A 5000      08634         MOVF    r0x01, W
007C 6EE5      08635         MOVWF   POSTDEC1
007E 5000      08636         MOVF    r0x00, W
0080 6EE5      08637         MOVWF   POSTDEC1
0082 EC00 F000 08638         CALL    _val_south
0086 0E05      08639         MOVLW   0x05
0088 26E1      08640         ADDWF   FSR1L, F
               08641 ;       .line   223; /home/mandon/Bureau/validate.c     val_east       (from,piececolour,-1);
008A 68E5      08642         SETF    POSTDEC1
008C 5000      08643         MOVF    r0x03, W
008E 6EE5      08644         MOVWF   POSTDEC1
0090 5000      08645         MOVF    r0x02, W
0092 6EE5      08646         MOVWF   POSTDEC1
0094 5000      08647         MOVF    r0x01, W
0096 6EE5      08648         MOVWF   POSTDEC1
0098 5000      08649         MOVF    r0x00, W
009A 6EE5      08650         MOVWF   POSTDEC1
009C EC00 F000 08651         CALL    _val_east
00A0 0E05      08652         MOVLW   0x05
00A2 26E1      08653         ADDWF   FSR1L, F
               08654 ;       .line   224; /home/mandon/Bureau/validate.c     val_west       (from,piececolour,-1);
00A4 68E5      08655         SETF    POSTDEC1
00A6 5000      08656         MOVF    r0x03, W
00A8 6EE5      08657         MOVWF   POSTDEC1
00AA 5000      08658         MOVF    r0x02, W
00AC 6EE5      08659         MOVWF   POSTDEC1
00AE 5000      08660         MOVF    r0x01, W
00B0 6EE5      08661         MOVWF   POSTDEC1
00B2 5000      08662         MOVF    r0x00, W
00B4 6EE5      08663         MOVWF   POSTDEC1
00B6 EC00 F000 08664         CALL    _val_west
00BA 0E05      08665         MOVLW   0x05
00BC 26E1      08666         ADDWF   FSR1L, F
gpasm-0.13.7 beta               /home/mandon/pinguino32/copie courante/linux/source/main.asm5-29-2011  20:37:50          PAGE 167


LOC  OBJECT CODE     LINE SOURCE TEXT
  VALUE
 
               08667 ;       .line   225; /home/mandon/Bureau/validate.c     val_northeast  (from,piececolour,-1);
00BE 68E5      08668         SETF    POSTDEC1
00C0 5000      08669         MOVF    r0x03, W
00C2 6EE5      08670         MOVWF   POSTDEC1
00C4 5000      08671         MOVF    r0x02, W
00C6 6EE5      08672         MOVWF   POSTDEC1
00C8 5000      08673         MOVF    r0x01, W
00CA 6EE5      08674         MOVWF   POSTDEC1
00CC 5000      08675         MOVF    r0x00, W
00CE 6EE5      08676         MOVWF   POSTDEC1
00D0 EC00 F000 08677         CALL    _val_northeast
00D4 0E05      08678         MOVLW   0x05
00D6 26E1      08679         ADDWF   FSR1L, F
               08680 ;       .line   226; /home/mandon/Bureau/validate.c     val_northwest  (from,piececolour,-1);
00D8 68E5      08681         SETF    POSTDEC1
00DA 5000      08682         MOVF    r0x03, W
00DC 6EE5      08683         MOVWF   POSTDEC1
00DE 5000      08684         MOVF    r0x02, W
00E0 6EE5      08685         MOVWF   POSTDEC1
00E2 5000      08686         MOVF    r0x01, W
00E4 6EE5      08687         MOVWF   POSTDEC1
00E6 5000      08688         MOVF    r0x00, W
00E8 6EE5      08689         MOVWF   POSTDEC1
00EA EC00 F000 08690         CALL    _val_northwest
00EE 0E05      08691         MOVLW   0x05
00F0 26E1      08692         ADDWF   FSR1L, F
               08693 ;       .line   227; /home/mandon/Bureau/validate.c     val_southeast  (from,piececolour,-1);
00F2 68E5      08694         SETF    POSTDEC1
00F4 5000      08695         MOVF    r0x03, W
00F6 6EE5      08696         MOVWF   POSTDEC1
00F8 5000      08697         MOVF    r0x02, W
00FA 6EE5      08698         MOVWF   POSTDEC1
00FC 5000      08699         MOVF    r0x01, W
00FE 6EE5      08700         MOVWF   POSTDEC1
0100 5000      08701         MOVF    r0x00, W
0102 6EE5      08702         MOVWF   POSTDEC1
0104 EC00 F000 08703         CALL    _val_southeast
0108 0E05      08704         MOVLW   0x05
010A 26E1      08705         ADDWF   FSR1L, F
               08706 ;       .line   228; /home/mandon/Bureau/validate.c     val_southwest  (from,piececolour,-1);
010C 68E5      08707         SETF    POSTDEC1
010E 5000      08708         MOVF    r0x03, W
0110 6EE5      08709         MOVWF   POSTDEC1
0112 5000      08710         MOVF    r0x02, W
0114 6EE5      08711         MOVWF   POSTDEC1
0116 5000      08712         MOVF    r0x01, W
0118 6EE5      08713         MOVWF   POSTDEC1
011A 5000      08714         MOVF    r0x00, W
011C 6EE5      08715         MOVWF   POSTDEC1
011E EC00 F000 08716         CALL    _val_southwest
0122 0E05      08717         MOVLW   0x05
0124 26E1      08718         ADDWF   FSR1L, F
0126 CFE4 F000 08719         MOVFF   PREINC1, r0x03
012A CFE4 F000 08720         MOVFF   PREINC1, r0x02
gpasm-0.13.7 beta               /home/mandon/pinguino32/copie courante/linux/source/main.asm5-29-2011  20:37:50          PAGE 168


LOC  OBJECT CODE     LINE SOURCE TEXT
  VALUE
 
012E CFE4 F000 08721         MOVFF   PREINC1, r0x01
0132 CFE4 F000 08722         MOVFF   PREINC1, r0x00
0136 CFE4 FFD9 08723         MOVFF   PREINC1, FSR2L
013A 0012      08724         RETURN  
               08725 
               08726 ; ; Starting pCode block
               08727 S_main__val_rook        code
0000 08728 _val_rook:
               08729 ;       .line   183; /home/mandon/Bureau/validate.c     void val_rook(LOC from,BOOL piececolour)
0000 CFD9 FFE5 08730         MOVFF   FSR2L, POSTDEC1
0004 CFE1 FFD9 08731         MOVFF   FSR1L, FSR2L
0008 C000 FFE5 08732         MOVFF   r0x00, POSTDEC1
000C C000 FFE5 08733         MOVFF   r0x01, POSTDEC1
0010 C000 FFE5 08734         MOVFF   r0x02, POSTDEC1
0014 C000 FFE5 08735         MOVFF   r0x03, POSTDEC1
0018 0E02      08736         MOVLW   0x02
001A CFDB F000 08737         MOVFF   PLUSW2, r0x00
001E 0E03      08738         MOVLW   0x03
0020 CFDB F000 08739         MOVFF   PLUSW2, r0x01
0024 0E04      08740         MOVLW   0x04
0026 CFDB F000 08741         MOVFF   PLUSW2, r0x02
002A 0E05      08742         MOVLW   0x05
002C CFDB F000 08743         MOVFF   PLUSW2, r0x03
               08744 ;       .line   188; /home/mandon/Bureau/validate.c     if (piececolour == WHITE)
0030 5000      08745         MOVF    r0x03, W
0032 E100      08746         BNZ     _00317_DS_
Error [113] : Symbol not previously defined (_bl_king_pos).
0034 0100      08747         BANKSEL _bl_king_pos
               08748 ;       .line   189; /home/mandon/Bureau/validate.c     { opp_king_pos[0] = bl_king_pos[0];
Error [113] : Symbol not previously defined (_bl_king_pos).
Error [113] : Symbol not previously defined (_bl_king_pos).
0036 5100      08749         MOVF    _bl_king_pos, W, B
0038 0000      08750         BANKSEL _opp_king_pos
003A 6F00      08751         MOVWF   _opp_king_pos, B
Error [113] : Symbol not previously defined (_bl_king_pos).
003C 0100      08752         BANKSEL (_bl_king_pos + 1)
               08753 ;       .line   190; /home/mandon/Bureau/validate.c     opp_king_pos[1] = bl_king_pos[1];
Error [113] : Symbol not previously defined (_bl_king_pos).
Error [113] : Symbol not previously defined (_bl_king_pos).
003E 5100      08754         MOVF    (_bl_king_pos + 1), W, B
0040 0000      08755         BANKSEL (_opp_king_pos + 1)
0042 6F00      08756         MOVWF   (_opp_king_pos + 1), B
0044 D000      08757         BRA     _00318_DS_
0046 08758 _00317_DS_:
Error [113] : Symbol not previously defined (_wh_king_pos).
0046 0100      08759         BANKSEL _wh_king_pos
               08760 ;       .line   193; /home/mandon/Bureau/validate.c     { opp_king_pos[0] = wh_king_pos[0];
Error [113] : Symbol not previously defined (_wh_king_pos).
Error [113] : Symbol not previously defined (_wh_king_pos).
0048 5100      08761         MOVF    _wh_king_pos, W, B
004A 0000      08762         BANKSEL _opp_king_pos
004C 6F00      08763         MOVWF   _opp_king_pos, B
Error [113] : Symbol not previously defined (_wh_king_pos).
004E 0100      08764         BANKSEL (_wh_king_pos + 1)
gpasm-0.13.7 beta               /home/mandon/pinguino32/copie courante/linux/source/main.asm5-29-2011  20:37:50          PAGE 169


LOC  OBJECT CODE     LINE SOURCE TEXT
  VALUE
 
               08765 ;       .line   194; /home/mandon/Bureau/validate.c     opp_king_pos[1] = wh_king_pos[1];
Error [113] : Symbol not previously defined (_wh_king_pos).
Error [113] : Symbol not previously defined (_wh_king_pos).
0050 5100      08766         MOVF    (_wh_king_pos + 1), W, B
0052 0000      08767         BANKSEL (_opp_king_pos + 1)
0054 6F00      08768         MOVWF   (_opp_king_pos + 1), B
0056 08769 _00318_DS_:
               08770 ;       .line   198; /home/mandon/Bureau/validate.c     val_north (from,piececolour,-1);
0056 68E5      08771         SETF    POSTDEC1
0058 5000      08772         MOVF    r0x03, W
005A 6EE5      08773         MOVWF   POSTDEC1
005C 5000      08774         MOVF    r0x02, W
005E 6EE5      08775         MOVWF   POSTDEC1
0060 5000      08776         MOVF    r0x01, W
0062 6EE5      08777         MOVWF   POSTDEC1
0064 5000      08778         MOVF    r0x00, W
0066 6EE5      08779         MOVWF   POSTDEC1
0068 EC00 F000 08780         CALL    _val_north
006C 0E05      08781         MOVLW   0x05
006E 26E1      08782         ADDWF   FSR1L, F
               08783 ;       .line   199; /home/mandon/Bureau/validate.c     val_south (from,piececolour,-1);
0070 68E5      08784         SETF    POSTDEC1
0072 5000      08785         MOVF    r0x03, W
0074 6EE5      08786         MOVWF   POSTDEC1
0076 5000      08787         MOVF    r0x02, W
0078 6EE5      08788         MOVWF   POSTDEC1
007A 5000      08789         MOVF    r0x01, W
007C 6EE5      08790         MOVWF   POSTDEC1
007E 5000      08791         MOVF    r0x00, W
0080 6EE5      08792         MOVWF   POSTDEC1
0082 EC00 F000 08793         CALL    _val_south
0086 0E05      08794         MOVLW   0x05
0088 26E1      08795         ADDWF   FSR1L, F
               08796 ;       .line   200; /home/mandon/Bureau/validate.c     val_east  (from,piececolour,-1);
008A 68E5      08797         SETF    POSTDEC1
008C 5000      08798         MOVF    r0x03, W
008E 6EE5      08799         MOVWF   POSTDEC1
0090 5000      08800         MOVF    r0x02, W
0092 6EE5      08801         MOVWF   POSTDEC1
0094 5000      08802         MOVF    r0x01, W
0096 6EE5      08803         MOVWF   POSTDEC1
0098 5000      08804         MOVF    r0x00, W
009A 6EE5      08805         MOVWF   POSTDEC1
009C EC00 F000 08806         CALL    _val_east
00A0 0E05      08807         MOVLW   0x05
00A2 26E1      08808         ADDWF   FSR1L, F
               08809 ;       .line   201; /home/mandon/Bureau/validate.c     val_west  (from,piececolour,-1);
00A4 68E5      08810         SETF    POSTDEC1
00A6 5000      08811         MOVF    r0x03, W
00A8 6EE5      08812         MOVWF   POSTDEC1
00AA 5000      08813         MOVF    r0x02, W
00AC 6EE5      08814         MOVWF   POSTDEC1
00AE 5000      08815         MOVF    r0x01, W
00B0 6EE5      08816         MOVWF   POSTDEC1
gpasm-0.13.7 beta               /home/mandon/pinguino32/copie courante/linux/source/main.asm5-29-2011  20:37:50          PAGE 170


LOC  OBJECT CODE     LINE SOURCE TEXT
  VALUE
 
00B2 5000      08817         MOVF    r0x00, W
00B4 6EE5      08818         MOVWF   POSTDEC1
00B6 EC00 F000 08819         CALL    _val_west
00BA 0E05      08820         MOVLW   0x05
00BC 26E1      08821         ADDWF   FSR1L, F
00BE CFE4 F000 08822         MOVFF   PREINC1, r0x03
00C2 CFE4 F000 08823         MOVFF   PREINC1, r0x02
00C6 CFE4 F000 08824         MOVFF   PREINC1, r0x01
00CA CFE4 F000 08825         MOVFF   PREINC1, r0x00
00CE CFE4 FFD9 08826         MOVFF   PREINC1, FSR2L
00D2 0012      08827         RETURN  
               08828 
               08829 ; ; Starting pCode block
               08830 S_main__val_knight      code
0000 08831 _val_knight:
               08832 ;       .line   98; /home/mandon/Bureau/validate.c      void val_knight(LOC from,BOOL piececolour)
0000 CFD9 FFE5 08833         MOVFF   FSR2L, POSTDEC1
0004 CFE1 FFD9 08834         MOVFF   FSR1L, FSR2L
0008 C000 FFE5 08835         MOVFF   r0x00, POSTDEC1
000C C000 FFE5 08836         MOVFF   r0x01, POSTDEC1
0010 C000 FFE5 08837         MOVFF   r0x02, POSTDEC1
0014 C000 FFE5 08838         MOVFF   r0x03, POSTDEC1
0018 C000 FFE5 08839         MOVFF   r0x04, POSTDEC1
001C C000 FFE5 08840         MOVFF   r0x05, POSTDEC1
0020 C000 FFE5 08841         MOVFF   r0x06, POSTDEC1
0024 C000 FFE5 08842         MOVFF   r0x07, POSTDEC1
0028 C000 FFE5 08843         MOVFF   r0x08, POSTDEC1
002C C000 FFE5 08844         MOVFF   r0x09, POSTDEC1
0030 C000 FFE5 08845         MOVFF   r0x0a, POSTDEC1
0034 C000 FFE5 08846         MOVFF   r0x0b, POSTDEC1
0038 0E02      08847         MOVLW   0x02
003A CFDB F000 08848         MOVFF   PLUSW2, r0x00
003E 0E03      08849         MOVLW   0x03
0040 CFDB F000 08850         MOVFF   PLUSW2, r0x01
0044 0E04      08851         MOVLW   0x04
0046 CFDB F000 08852         MOVFF   PLUSW2, r0x02
004A 0E05      08853         MOVLW   0x05
004C CFDB F000 08854         MOVFF   PLUSW2, r0x03
               08855 ;       .line   103; /home/mandon/Bureau/validate.c     { unsigned char mask = 0,i = 0;
0050 6A00      08856         CLRF    r0x04
0052 0000      08857         BANKSEL _val_knight_move_1_1
               08858 ;       .line   107; /home/mandon/Bureau/validate.c     int move[] = {0, 2, 1, 0, 2, -1, 0, 1, 2, 0, 1, -2, 0, -1, 2, 0, -1, -2, 0, -2, -1, 0, -2, 1};
0054 6B00      08859         CLRF    _val_knight_move_1_1, B
               08860 ; removed redundant BANKSEL
0056 6B00      08861         CLRF    (_val_knight_move_1_1 + 1), B
0058 0E02      08862         MOVLW   0x02
               08863 ; removed redundant BANKSEL
005A 6F00      08864         MOVWF   (_val_knight_move_1_1 + 2), B
               08865 ; removed redundant BANKSEL
005C 6B00      08866         CLRF    (_val_knight_move_1_1 + 3), B
005E 0E01      08867         MOVLW   0x01
               08868 ; removed redundant BANKSEL
0060 6F00      08869         MOVWF   (_val_knight_move_1_1 + 4), B
               08870 ; removed redundant BANKSEL
gpasm-0.13.7 beta               /home/mandon/pinguino32/copie courante/linux/source/main.asm5-29-2011  20:37:50          PAGE 171


LOC  OBJECT CODE     LINE SOURCE TEXT
  VALUE
 
0062 6B00      08871         CLRF    (_val_knight_move_1_1 + 5), B
               08872 ; removed redundant BANKSEL
0064 6B00      08873         CLRF    (_val_knight_move_1_1 + 6), B
               08874 ; removed redundant BANKSEL
0066 6B00      08875         CLRF    (_val_knight_move_1_1 + 7), B
0068 0E02      08876         MOVLW   0x02
               08877 ; removed redundant BANKSEL
006A 6F00      08878         MOVWF   (_val_knight_move_1_1 + 8), B
               08879 ; removed redundant BANKSEL
006C 6B00      08880         CLRF    (_val_knight_move_1_1 + 9), B
               08881 ; removed redundant BANKSEL
006E 6900      08882         SETF    (_val_knight_move_1_1 + 10), B
               08883 ; removed redundant BANKSEL
0070 6900      08884         SETF    (_val_knight_move_1_1 + 11), B
               08885 ; removed redundant BANKSEL
0072 6B00      08886         CLRF    (_val_knight_move_1_1 + 12), B
               08887 ; removed redundant BANKSEL
0074 6B00      08888         CLRF    (_val_knight_move_1_1 + 13), B
0076 0E01      08889         MOVLW   0x01
               08890 ; removed redundant BANKSEL
0078 6F00      08891         MOVWF   (_val_knight_move_1_1 + 14), B
               08892 ; removed redundant BANKSEL
007A 6B00      08893         CLRF    (_val_knight_move_1_1 + 15), B
007C 0E02      08894         MOVLW   0x02
               08895 ; removed redundant BANKSEL
007E 6F00      08896         MOVWF   (_val_knight_move_1_1 + 16), B
               08897 ; removed redundant BANKSEL
0080 6B00      08898         CLRF    (_val_knight_move_1_1 + 17), B
               08899 ; removed redundant BANKSEL
0082 6B00      08900         CLRF    (_val_knight_move_1_1 + 18), B
               08901 ; removed redundant BANKSEL
0084 6B00      08902         CLRF    (_val_knight_move_1_1 + 19), B
0086 0E01      08903         MOVLW   0x01
               08904 ; removed redundant BANKSEL
0088 6F00      08905         MOVWF   (_val_knight_move_1_1 + 20), B
               08906 ; removed redundant BANKSEL
008A 6B00      08907         CLRF    (_val_knight_move_1_1 + 21), B
008C 0EFE      08908         MOVLW   0xfe
               08909 ; removed redundant BANKSEL
008E 6F00      08910         MOVWF   (_val_knight_move_1_1 + 22), B
               08911 ; removed redundant BANKSEL
0090 6900      08912         SETF    (_val_knight_move_1_1 + 23), B
               08913 ; removed redundant BANKSEL
0092 6B00      08914         CLRF    (_val_knight_move_1_1 + 24), B
               08915 ; removed redundant BANKSEL
0094 6B00      08916         CLRF    (_val_knight_move_1_1 + 25), B
               08917 ; removed redundant BANKSEL
0096 6900      08918         SETF    (_val_knight_move_1_1 + 26), B
               08919 ; removed redundant BANKSEL
0098 6900      08920         SETF    (_val_knight_move_1_1 + 27), B
009A 0E02      08921         MOVLW   0x02
               08922 ; removed redundant BANKSEL
009C 6F00      08923         MOVWF   (_val_knight_move_1_1 + 28), B
               08924 ; removed redundant BANKSEL
gpasm-0.13.7 beta               /home/mandon/pinguino32/copie courante/linux/source/main.asm5-29-2011  20:37:50          PAGE 172


LOC  OBJECT CODE     LINE SOURCE TEXT
  VALUE
 
009E 6B00      08925         CLRF    (_val_knight_move_1_1 + 29), B
               08926 ; removed redundant BANKSEL
00A0 6B00      08927         CLRF    (_val_knight_move_1_1 + 30), B
               08928 ; removed redundant BANKSEL
00A2 6B00      08929         CLRF    (_val_knight_move_1_1 + 31), B
               08930 ; removed redundant BANKSEL
00A4 6900      08931         SETF    (_val_knight_move_1_1 + 32), B
               08932 ; removed redundant BANKSEL
00A6 6900      08933         SETF    (_val_knight_move_1_1 + 33), B
00A8 0EFE      08934         MOVLW   0xfe
               08935 ; removed redundant BANKSEL
00AA 6F00      08936         MOVWF   (_val_knight_move_1_1 + 34), B
               08937 ; removed redundant BANKSEL
00AC 6900      08938         SETF    (_val_knight_move_1_1 + 35), B
               08939 ; removed redundant BANKSEL
00AE 6B00      08940         CLRF    (_val_knight_move_1_1 + 36), B
               08941 ; removed redundant BANKSEL
00B0 6B00      08942         CLRF    (_val_knight_move_1_1 + 37), B
               08943 ; removed redundant BANKSEL
00B2 6F00      08944         MOVWF   (_val_knight_move_1_1 + 38), B
               08945 ; removed redundant BANKSEL
00B4 6900      08946         SETF    (_val_knight_move_1_1 + 39), B
               08947 ; removed redundant BANKSEL
00B6 6900      08948         SETF    (_val_knight_move_1_1 + 40), B
               08949 ; removed redundant BANKSEL
00B8 6900      08950         SETF    (_val_knight_move_1_1 + 41), B
               08951 ; removed redundant BANKSEL
00BA 6B00      08952         CLRF    (_val_knight_move_1_1 + 42), B
               08953 ; removed redundant BANKSEL
00BC 6B00      08954         CLRF    (_val_knight_move_1_1 + 43), B
               08955 ; removed redundant BANKSEL
00BE 6F00      08956         MOVWF   (_val_knight_move_1_1 + 44), B
               08957 ; removed redundant BANKSEL
00C0 6900      08958         SETF    (_val_knight_move_1_1 + 45), B
00C2 0E01      08959         MOVLW   0x01
               08960 ; removed redundant BANKSEL
00C4 6F00      08961         MOVWF   (_val_knight_move_1_1 + 46), B
               08962 ; removed redundant BANKSEL
00C6 6B00      08963         CLRF    (_val_knight_move_1_1 + 47), B
               08964 ;       .line   110; /home/mandon/Bureau/validate.c     if (piececolour == WHITE)
00C8 5000      08965         MOVF    r0x03, W
00CA E100      08966         BNZ     _00200_DS_
Error [113] : Symbol not previously defined (_bl_king_pos).
00CC 0100      08967         BANKSEL _bl_king_pos
               08968 ;       .line   111; /home/mandon/Bureau/validate.c     { opp_king_pos[0] = bl_king_pos[0];
Error [113] : Symbol not previously defined (_bl_king_pos).
Error [113] : Symbol not previously defined (_bl_king_pos).
00CE 5100      08969         MOVF    _bl_king_pos, W, B
00D0 0000      08970         BANKSEL _opp_king_pos
00D2 6F00      08971         MOVWF   _opp_king_pos, B
Error [113] : Symbol not previously defined (_bl_king_pos).
00D4 0100      08972         BANKSEL (_bl_king_pos + 1)
               08973 ;       .line   112; /home/mandon/Bureau/validate.c     opp_king_pos[1] = bl_king_pos[1];
Error [113] : Symbol not previously defined (_bl_king_pos).
gpasm-0.13.7 beta               /home/mandon/pinguino32/copie courante/linux/source/main.asm5-29-2011  20:37:50          PAGE 173


LOC  OBJECT CODE     LINE SOURCE TEXT
  VALUE
 
Error [113] : Symbol not previously defined (_bl_king_pos).
00D6 5100      08974         MOVF    (_bl_king_pos + 1), W, B
00D8 0000      08975         BANKSEL (_opp_king_pos + 1)
00DA 6F00      08976         MOVWF   (_opp_king_pos + 1), B
00DC D000      08977         BRA     _00201_DS_
00DE 08978 _00200_DS_:
Error [113] : Symbol not previously defined (_wh_king_pos).
00DE 0100      08979         BANKSEL _wh_king_pos
               08980 ;       .line   115; /home/mandon/Bureau/validate.c     { opp_king_pos[0] = wh_king_pos[0];
Error [113] : Symbol not previously defined (_wh_king_pos).
Error [113] : Symbol not previously defined (_wh_king_pos).
00E0 5100      08981         MOVF    _wh_king_pos, W, B
00E2 0000      08982         BANKSEL _opp_king_pos
00E4 6F00      08983         MOVWF   _opp_king_pos, B
Error [113] : Symbol not previously defined (_wh_king_pos).
00E6 0100      08984         BANKSEL (_wh_king_pos + 1)
               08985 ;       .line   116; /home/mandon/Bureau/validate.c     opp_king_pos[1] = wh_king_pos[1];
Error [113] : Symbol not previously defined (_wh_king_pos).
Error [113] : Symbol not previously defined (_wh_king_pos).
00E8 5100      08986         MOVF    (_wh_king_pos + 1), W, B
00EA 0000      08987         BANKSEL (_opp_king_pos + 1)
00EC 6F00      08988         MOVWF   (_opp_king_pos + 1), B
00EE 08989 _00201_DS_:
               08990 ;       .line   120; /home/mandon/Bureau/validate.c     switch (from[0])
00EE C000 FFE9 08991         MOVFF   r0x00, FSR0L
00F2 C000 FFF3 08992         MOVFF   r0x01, PRODL
00F6 5000      08993         MOVF    r0x02, W
00F8 EC00 F000 08994         CALL    __gptrget1
00FC 6E00      08995         MOVWF   r0x05
00FE 0E08      08996         MOVLW   0x08
0100 5C00      08997         SUBWF   r0x05, W
0102 E200      08998         BC      _00210_DS_
0104 C000 FFE5 08999         MOVFF   r0x0c, POSTDEC1
0108 C000 FFE5 09000         MOVFF   r0x0d, POSTDEC1
010C 6A00      09001         CLRF    r0x0d
010E 3400      09002         RLCF    r0x05, W
0110 3600      09003         RLCF    r0x0d, F
0112 34E8      09004         RLCF    WREG, W
0114 3600      09005         RLCF    r0x0d, F
0116 0BFC      09006         ANDLW   0xfc
0118 6E00      09007         MOVWF   r0x0c
011A 0E00      09008         MOVLW   UPPER(_00280_DS_)
011C 6EFB      09009         MOVWF   PCLATU
011E 0E00      09010         MOVLW   HIGH(_00280_DS_)
0120 6EFA      09011         MOVWF   PCLATH
0122 0E00      09012         MOVLW   LOW(_00280_DS_)
0124 2600      09013         ADDWF   r0x0c, F
0126 5000      09014         MOVF    r0x0d, W
0128 22FA      09015         ADDWFC  PCLATH, F
012A B0D8      09016         BTFSC   STATUS, 0
012C 2AFB      09017         INCF    PCLATU, F
012E 5000      09018         MOVF    r0x0c, W
0130 CFE4 F000 09019         MOVFF   PREINC1, r0x0d
0134 CFE4 F000 09020         MOVFF   PREINC1, r0x0c
gpasm-0.13.7 beta               /home/mandon/pinguino32/copie courante/linux/source/main.asm5-29-2011  20:37:50          PAGE 174


LOC  OBJECT CODE     LINE SOURCE TEXT
  VALUE
 
0138 6EF9      09021         MOVWF   PCL
013A 09022 _00280_DS_:
013A EF00 F000 09023         GOTO    _00202_DS_
013E EF00 F000 09024         GOTO    _00203_DS_
0142 EF00 F000 09025         GOTO    _00209_DS_
0146 EF00 F000 09026         GOTO    _00209_DS_
014A EF00 F000 09027         GOTO    _00209_DS_
014E EF00 F000 09028         GOTO    _00209_DS_
0152 EF00 F000 09029         GOTO    _00204_DS_
0156 EF00 F000 09030         GOTO    _00205_DS_
015A 09031 _00202_DS_:
               09032 ;       .line   121; /home/mandon/Bureau/validate.c     { case 0 : mask |=  0x03;   break; // Two up  - None down.
015A 0E03      09033         MOVLW   0x03
015C 6E00      09034         MOVWF   r0x04
015E D000      09035         BRA     _00210_DS_
0160 09036 _00203_DS_:
               09037 ;       .line   122; /home/mandon/Bureau/validate.c     case 1 : mask |=  0x07;   break; // Two up  - One down.
0160 0E07      09038         MOVLW   0x07
0162 6E00      09039         MOVWF   r0x04
0164 D000      09040         BRA     _00210_DS_
0166 09041 _00204_DS_:
               09042 ;       .line   123; /home/mandon/Bureau/validate.c     case 6 : mask |=  0x0D;   break; // One up  - Two down.
0166 0E0D      09043         MOVLW   0x0d
0168 6E00      09044         MOVWF   r0x04
016A D000      09045         BRA     _00210_DS_
016C 09046 _00205_DS_:
               09047 ;       .line   124; /home/mandon/Bureau/validate.c     case 7 : mask |=  0x0C;   break; // None up - Two down.
016C 0E0C      09048         MOVLW   0x0c
016E 6E00      09049         MOVWF   r0x04
0170 D000      09050         BRA     _00210_DS_
0172 09051 _00209_DS_:
               09052 ;       .line   128; /home/mandon/Bureau/validate.c     case 5 : mask |=  0x0F;   break; // Two up  - Two down.
0172 0E0F      09053         MOVLW   0x0f
0174 6E00      09054         MOVWF   r0x04
0176 09055 _00210_DS_:
               09056 ;       .line   132; /home/mandon/Bureau/validate.c     switch (from[1])
0176 2A00      09057         INCF    r0x00, F
0178 B0D8      09058         BTFSC   STATUS, 0
017A 2A00      09059         INCF    r0x01, F
017C B0D8      09060         BTFSC   STATUS, 0
017E 2A00      09061         INCF    r0x02, F
0180 C000 FFE9 09062         MOVFF   r0x00, FSR0L
0184 C000 FFF3 09063         MOVFF   r0x01, PRODL
0188 5000      09064         MOVF    r0x02, W
018A EC00 F000 09065         CALL    __gptrget1
018E 6E00      09066         MOVWF   r0x00
0190 0E08      09067         MOVLW   0x08
0192 5C00      09068         SUBWF   r0x00, W
0194 E200      09069         BC      _00219_DS_
0196 C000 FFE5 09070         MOVFF   r0x0c, POSTDEC1
019A C000 FFE5 09071         MOVFF   r0x0d, POSTDEC1
019E 6A00      09072         CLRF    r0x0d
01A0 3400      09073         RLCF    r0x00, W
01A2 3600      09074         RLCF    r0x0d, F
gpasm-0.13.7 beta               /home/mandon/pinguino32/copie courante/linux/source/main.asm5-29-2011  20:37:50          PAGE 175


LOC  OBJECT CODE     LINE SOURCE TEXT
  VALUE
 
01A4 34E8      09075         RLCF    WREG, W
01A6 3600      09076         RLCF    r0x0d, F
01A8 0BFC      09077         ANDLW   0xfc
01AA 6E00      09078         MOVWF   r0x0c
01AC 0E00      09079         MOVLW   UPPER(_00282_DS_)
01AE 6EFB      09080         MOVWF   PCLATU
01B0 0E00      09081         MOVLW   HIGH(_00282_DS_)
01B2 6EFA      09082         MOVWF   PCLATH
01B4 0E00      09083         MOVLW   LOW(_00282_DS_)
01B6 2600      09084         ADDWF   r0x0c, F
01B8 5000      09085         MOVF    r0x0d, W
01BA 22FA      09086         ADDWFC  PCLATH, F
01BC B0D8      09087         BTFSC   STATUS, 0
01BE 2AFB      09088         INCF    PCLATU, F
01C0 5000      09089         MOVF    r0x0c, W
01C2 CFE4 F000 09090         MOVFF   PREINC1, r0x0d
01C6 CFE4 F000 09091         MOVFF   PREINC1, r0x0c
01CA 6EF9      09092         MOVWF   PCL
01CC 09093 _00282_DS_:
01CC EF00 F000 09094         GOTO    _00211_DS_
01D0 EF00 F000 09095         GOTO    _00212_DS_
01D4 EF00 F000 09096         GOTO    _00218_DS_
01D8 EF00 F000 09097         GOTO    _00218_DS_
01DC EF00 F000 09098         GOTO    _00218_DS_
01E0 EF00 F000 09099         GOTO    _00218_DS_
01E4 EF00 F000 09100         GOTO    _00213_DS_
01E8 EF00 F000 09101         GOTO    _00214_DS_
01EC 09102 _00211_DS_:
               09103 ;       .line   133; /home/mandon/Bureau/validate.c     { case 0 : mask |=  0xC0;   break; // None left - Two right.
01EC 0EC0      09104         MOVLW   0xc0
01EE 1200      09105         IORWF   r0x04, F
01F0 D000      09106         BRA     _00219_DS_
01F2 09107 _00212_DS_:
               09108 ;       .line   134; /home/mandon/Bureau/validate.c     case 1 : mask |=  0xD0;   break; // One left  - Two right.
01F2 0ED0      09109         MOVLW   0xd0
01F4 1200      09110         IORWF   r0x04, F
01F6 D000      09111         BRA     _00219_DS_
01F8 09112 _00213_DS_:
               09113 ;       .line   135; /home/mandon/Bureau/validate.c     case 6 : mask |=  0x70;   break; // Two left  - One right.
01F8 0E70      09114         MOVLW   0x70
01FA 1200      09115         IORWF   r0x04, F
01FC D000      09116         BRA     _00219_DS_
01FE 09117 _00214_DS_:
               09118 ;       .line   136; /home/mandon/Bureau/validate.c     case 7 : mask |=  0x30;   break; // Two left  - None right.
01FE 0E30      09119         MOVLW   0x30
0200 1200      09120         IORWF   r0x04, F
0202 D000      09121         BRA     _00219_DS_
0204 09122 _00218_DS_:
               09123 ;       .line   140; /home/mandon/Bureau/validate.c     case 5 : mask |=  0xF0;   break; // Two left  - Two right.
0204 0EF0      09124         MOVLW   0xf0
0206 1200      09125         IORWF   r0x04, F
0208 09126 _00219_DS_:
               09127 ;       .line   154; /home/mandon/Bureau/validate.c     move[0]  = up2_rgt1;
0208 0E40      09128         MOVLW   0x40
gpasm-0.13.7 beta               /home/mandon/pinguino32/copie courante/linux/source/main.asm5-29-2011  20:37:50          PAGE 176


LOC  OBJECT CODE     LINE SOURCE TEXT
  VALUE
 
020A 1400      09129         ANDWF   r0x04, W
020C 6E00      09130         MOVWF   r0x01
020E 5000      09131         MOVF    r0x01, W
0210 E000      09132         BZ      _00236_DS_
0212 B200      09133         BTFSC   r0x04, 1
0214 D000      09134         BRA     _00237_DS_
0216 09135 _00236_DS_:
0216 6A00      09136         CLRF    r0x02
0218 D000      09137         BRA     _00238_DS_
021A 09138 _00237_DS_:
021A 0E01      09139         MOVLW   0x01
021C 6E00      09140         MOVWF   r0x02
021E 09141 _00238_DS_:
021E 6A00      09142         CLRF    r0x06
0220 BE00      09143         BTFSC   r0x02, 7
0222 6800      09144         SETF    r0x06
0224 5000      09145         MOVF    r0x02, W
0226 0000      09146         BANKSEL _val_knight_move_1_1
0228 6F00      09147         MOVWF   _val_knight_move_1_1, B
022A 5000      09148         MOVF    r0x06, W
               09149 ; removed redundant BANKSEL
022C 6F00      09150         MOVWF   (_val_knight_move_1_1 + 1), B
               09151 ;       .line   155; /home/mandon/Bureau/validate.c     move[3]  = up2_lft1;
022E 0E10      09152         MOVLW   0x10
0230 1400      09153         ANDWF   r0x04, W
0232 6E00      09154         MOVWF   r0x02
0234 5000      09155         MOVF    r0x02, W
0236 E000      09156         BZ      _00239_DS_
0238 B200      09157         BTFSC   r0x04, 1
023A D000      09158         BRA     _00240_DS_
023C 09159 _00239_DS_:
023C 6A00      09160         CLRF    r0x06
023E D000      09161         BRA     _00241_DS_
0240 09162 _00240_DS_:
0240 0E01      09163         MOVLW   0x01
0242 6E00      09164         MOVWF   r0x06
0244 09165 _00241_DS_:
0244 6A00      09166         CLRF    r0x07
0246 BE00      09167         BTFSC   r0x06, 7
0248 6800      09168         SETF    r0x07
024A 5000      09169         MOVF    r0x06, W
024C 0000      09170         BANKSEL (_val_knight_move_1_1 + 6)
024E 6F00      09171         MOVWF   (_val_knight_move_1_1 + 6), B
0250 5000      09172         MOVF    r0x07, W
               09173 ; removed redundant BANKSEL
0252 6F00      09174         MOVWF   (_val_knight_move_1_1 + 7), B
               09175 ;       .line   156; /home/mandon/Bureau/validate.c     move[6]  = up1_rgt2;
0254 0E80      09176         MOVLW   0x80
0256 1400      09177         ANDWF   r0x04, W
0258 6E00      09178         MOVWF   r0x06
025A 5000      09179         MOVF    r0x06, W
025C E000      09180         BZ      _00242_DS_
025E B000      09181         BTFSC   r0x04, 0
0260 D000      09182         BRA     _00243_DS_
gpasm-0.13.7 beta               /home/mandon/pinguino32/copie courante/linux/source/main.asm5-29-2011  20:37:50          PAGE 177


LOC  OBJECT CODE     LINE SOURCE TEXT
  VALUE
 
0262 09183 _00242_DS_:
0262 6A00      09184         CLRF    r0x07
0264 D000      09185         BRA     _00244_DS_
0266 09186 _00243_DS_:
0266 0E01      09187         MOVLW   0x01
0268 6E00      09188         MOVWF   r0x07
026A 09189 _00244_DS_:
026A 6A00      09190         CLRF    r0x08
026C BE00      09191         BTFSC   r0x07, 7
026E 6800      09192         SETF    r0x08
0270 5000      09193         MOVF    r0x07, W
0272 0000      09194         BANKSEL (_val_knight_move_1_1 + 12)
0274 6F00      09195         MOVWF   (_val_knight_move_1_1 + 12), B
0276 5000      09196         MOVF    r0x08, W
               09197 ; removed redundant BANKSEL
0278 6F00      09198         MOVWF   (_val_knight_move_1_1 + 13), B
               09199 ;       .line   157; /home/mandon/Bureau/validate.c     move[9]  = up1_lft2;
027A 0E20      09200         MOVLW   0x20
027C 1400      09201         ANDWF   r0x04, W
027E 6E00      09202         MOVWF   r0x07
0280 5000      09203         MOVF    r0x07, W
0282 E000      09204         BZ      _00245_DS_
0284 B000      09205         BTFSC   r0x04, 0
0286 D000      09206         BRA     _00246_DS_
0288 09207 _00245_DS_:
0288 6A00      09208         CLRF    r0x08
028A D000      09209         BRA     _00247_DS_
028C 09210 _00246_DS_:
028C 0E01      09211         MOVLW   0x01
028E 6E00      09212         MOVWF   r0x08
0290 09213 _00247_DS_:
0290 6A00      09214         CLRF    r0x09
0292 BE00      09215         BTFSC   r0x08, 7
0294 6800      09216         SETF    r0x09
0296 5000      09217         MOVF    r0x08, W
0298 0000      09218         BANKSEL (_val_knight_move_1_1 + 18)
029A 6F00      09219         MOVWF   (_val_knight_move_1_1 + 18), B
029C 5000      09220         MOVF    r0x09, W
               09221 ; removed redundant BANKSEL
029E 6F00      09222         MOVWF   (_val_knight_move_1_1 + 19), B
               09223 ;       .line   158; /home/mandon/Bureau/validate.c     move[12] = dwn1_rgt2;
02A0 5000      09224         MOVF    r0x06, W
02A2 E000      09225         BZ      _00248_DS_
02A4 B400      09226         BTFSC   r0x04, 2
02A6 D000      09227         BRA     _00249_DS_
02A8 09228 _00248_DS_:
02A8 6A00      09229         CLRF    r0x06
02AA D000      09230         BRA     _00250_DS_
02AC 09231 _00249_DS_:
02AC 0E01      09232         MOVLW   0x01
02AE 6E00      09233         MOVWF   r0x06
02B0 09234 _00250_DS_:
02B0 6A00      09235         CLRF    r0x08
02B2 BE00      09236         BTFSC   r0x06, 7
gpasm-0.13.7 beta               /home/mandon/pinguino32/copie courante/linux/source/main.asm5-29-2011  20:37:50          PAGE 178


LOC  OBJECT CODE     LINE SOURCE TEXT
  VALUE
 
02B4 6800      09237         SETF    r0x08
02B6 5000      09238         MOVF    r0x06, W
02B8 0000      09239         BANKSEL (_val_knight_move_1_1 + 24)
02BA 6F00      09240         MOVWF   (_val_knight_move_1_1 + 24), B
02BC 5000      09241         MOVF    r0x08, W
               09242 ; removed redundant BANKSEL
02BE 6F00      09243         MOVWF   (_val_knight_move_1_1 + 25), B
               09244 ;       .line   159; /home/mandon/Bureau/validate.c     move[15] = dwn1_lft2;
02C0 5000      09245         MOVF    r0x07, W
02C2 E000      09246         BZ      _00251_DS_
02C4 B400      09247         BTFSC   r0x04, 2
02C6 D000      09248         BRA     _00252_DS_
02C8 09249 _00251_DS_:
02C8 6A00      09250         CLRF    r0x06
02CA D000      09251         BRA     _00253_DS_
02CC 09252 _00252_DS_:
02CC 0E01      09253         MOVLW   0x01
02CE 6E00      09254         MOVWF   r0x06
02D0 09255 _00253_DS_:
02D0 6A00      09256         CLRF    r0x07
02D2 BE00      09257         BTFSC   r0x06, 7
02D4 6800      09258         SETF    r0x07
02D6 5000      09259         MOVF    r0x06, W
02D8 0000      09260         BANKSEL (_val_knight_move_1_1 + 30)
02DA 6F00      09261         MOVWF   (_val_knight_move_1_1 + 30), B
02DC 5000      09262         MOVF    r0x07, W
               09263 ; removed redundant BANKSEL
02DE 6F00      09264         MOVWF   (_val_knight_move_1_1 + 31), B
               09265 ;       .line   160; /home/mandon/Bureau/validate.c     move[18] = dwn2_lft1;
02E0 5000      09266         MOVF    r0x02, W
02E2 E000      09267         BZ      _00254_DS_
02E4 B600      09268         BTFSC   r0x04, 3
02E6 D000      09269         BRA     _00255_DS_
02E8 09270 _00254_DS_:
02E8 6A00      09271         CLRF    r0x02
02EA D000      09272         BRA     _00256_DS_
02EC 09273 _00255_DS_:
02EC 0E01      09274         MOVLW   0x01
02EE 6E00      09275         MOVWF   r0x02
02F0 09276 _00256_DS_:
02F0 6A00      09277         CLRF    r0x06
02F2 BE00      09278         BTFSC   r0x02, 7
02F4 6800      09279         SETF    r0x06
02F6 5000      09280         MOVF    r0x02, W
02F8 0000      09281         BANKSEL (_val_knight_move_1_1 + 36)
02FA 6F00      09282         MOVWF   (_val_knight_move_1_1 + 36), B
02FC 5000      09283         MOVF    r0x06, W
               09284 ; removed redundant BANKSEL
02FE 6F00      09285         MOVWF   (_val_knight_move_1_1 + 37), B
               09286 ;       .line   161; /home/mandon/Bureau/validate.c     move[21] = dwn2_rgt1;
0300 5000      09287         MOVF    r0x01, W
0302 E000      09288         BZ      _00257_DS_
0304 B600      09289         BTFSC   r0x04, 3
0306 D000      09290         BRA     _00258_DS_
gpasm-0.13.7 beta               /home/mandon/pinguino32/copie courante/linux/source/main.asm5-29-2011  20:37:50          PAGE 179


LOC  OBJECT CODE     LINE SOURCE TEXT
  VALUE
 
0308 09291 _00257_DS_:
0308 6A00      09292         CLRF    r0x01
030A D000      09293         BRA     _00259_DS_
030C 09294 _00258_DS_:
030C 0E01      09295         MOVLW   0x01
030E 6E00      09296         MOVWF   r0x01
0310 09297 _00259_DS_:
0310 6A00      09298         CLRF    r0x02
0312 BE00      09299         BTFSC   r0x01, 7
0314 6800      09300         SETF    r0x02
0316 5000      09301         MOVF    r0x01, W
0318 0000      09302         BANKSEL (_val_knight_move_1_1 + 42)
031A 6F00      09303         MOVWF   (_val_knight_move_1_1 + 42), B
031C 5000      09304         MOVF    r0x02, W
               09305 ; removed redundant BANKSEL
031E 6F00      09306         MOVWF   (_val_knight_move_1_1 + 43), B
               09307 ;       .line   164; /home/mandon/Bureau/validate.c     for (i = 0; i <= 21; i += 3)
0320 0E08      09308         MOVLW   0x08
0322 1600      09309         ANDWF   r0x03, F
0324 3800      09310         SWAPF   r0x03, W
0326 44E8      09311         RLNCF   WREG, W
0328 0B1F      09312         ANDLW   0x1f
032A 6E00      09313         MOVWF   r0x01
032C 6A00      09314         CLRF    r0x02
032E 6A00      09315         CLRF    r0x03
0330 09316 _00230_DS_:
0330 0E16      09317         MOVLW   0x16
0332 5C00      09318         SUBWF   r0x02, W
0334 B0D8      09319         BTFSC   STATUS, 0
0336 D000      09320         BRA     _00234_DS_
               09321 ;       .line   165; /home/mandon/Bureau/validate.c     { if (move[i])
0338 0E00      09322         MOVLW   LOW(_val_knight_move_1_1)
033A 2400      09323         ADDWF   r0x03, W
033C 6E00      09324         MOVWF   r0x04
033E 6A00      09325         CLRF    r0x06
0340 0E00      09326         MOVLW   HIGH(_val_knight_move_1_1)
0342 2200      09327         ADDWFC  r0x06, F
0344 C000 FFE9 09328         MOVFF   r0x04, FSR0L
0348 C000 FFEA 09329         MOVFF   r0x06, FSR0H
034C CFEE F000 09330         MOVFF   POSTINC0, r0x04
0350 CFEF F000 09331         MOVFF   INDF0, r0x06
0354 5000      09332         MOVF    r0x04, W
0356 1000      09333         IORWF   r0x06, W
0358 B4D8      09334         BTFSC   STATUS, 2
035A D000      09335         BRA     _00232_DS_
               09336 ;       .line   167; /home/mandon/Bureau/validate.c     row = (from[0] + move[i+1]);
035C 2800      09337         INCF    r0x02, W
035E 6E00      09338         MOVWF   r0x04
               09339 ; ;multiply lit val:0x02 by variable r0x04 and store in r0x04
               09340 ; ;Unrolled 8 X 8 multiplication
               09341 ; ;FIXME: the function does not support result==WREG
0360 90D8      09342         BCF     STATUS, 0
0362 3600      09343         RLCF    r0x04, F
0364 6A00      09344         CLRF    r0x06
gpasm-0.13.7 beta               /home/mandon/pinguino32/copie courante/linux/source/main.asm5-29-2011  20:37:50          PAGE 180


LOC  OBJECT CODE     LINE SOURCE TEXT
  VALUE
 
0366 0E00      09345         MOVLW   LOW(_val_knight_move_1_1)
0368 2600      09346         ADDWF   r0x04, F
036A 0E00      09347         MOVLW   HIGH(_val_knight_move_1_1)
036C 2200      09348         ADDWFC  r0x06, F
036E C000 FFE9 09349         MOVFF   r0x04, FSR0L
0372 C000 FFEA 09350         MOVFF   r0x06, FSR0H
0376 CFEE F000 09351         MOVFF   POSTINC0, r0x04
037A CFEF F000 09352         MOVFF   INDF0, r0x06
037E 5000      09353         MOVF    r0x05, W
0380 2600      09354         ADDWF   r0x04, F
               09355 ;       .line   168; /home/mandon/Bureau/validate.c     col = (from[1] + move[i+2]);
0382 0E02      09356         MOVLW   0x02
0384 2400      09357         ADDWF   r0x02, W
0386 6E00      09358         MOVWF   r0x06
               09359 ; ;multiply lit val:0x02 by variable r0x06 and store in r0x06
               09360 ; ;Unrolled 8 X 8 multiplication
               09361 ; ;FIXME: the function does not support result==WREG
0388 90D8      09362         BCF     STATUS, 0
038A 3600      09363         RLCF    r0x06, F
038C 6A00      09364         CLRF    r0x07
038E 0E00      09365         MOVLW   LOW(_val_knight_move_1_1)
0390 2600      09366         ADDWF   r0x06, F
0392 0E00      09367         MOVLW   HIGH(_val_knight_move_1_1)
0394 2200      09368         ADDWFC  r0x07, F
0396 C000 FFE9 09369         MOVFF   r0x06, FSR0L
039A C000 FFEA 09370         MOVFF   r0x07, FSR0H
039E CFEE F000 09371         MOVFF   POSTINC0, r0x06
03A2 CFEF F000 09372         MOVFF   INDF0, r0x07
03A6 5000      09373         MOVF    r0x00, W
03A8 2600      09374         ADDWF   r0x06, F
               09375 ; ;multiply lit val:0x08 by variable r0x04 and store in r0x07
               09376 ; ;Unrolled 8 X 8 multiplication
               09377 ; ;FIXME: the function does not support result==WREG
               09378 ;       .line   169; /home/mandon/Bureau/validate.c     if (board[row][col] == EMPTY)
03AA 5000      09379         MOVF    r0x04, W
03AC 0D08      09380         MULLW   0x08
03AE CFF3 F000 09381         MOVFF   PRODL, r0x07
03B2 6A00      09382         CLRF    r0x08
Error [113] : Symbol not previously defined (_board).
03B4 0E00      09383         MOVLW   LOW(_board)
03B6 2600      09384         ADDWF   r0x07, F
Error [113] : Symbol not previously defined (_board).
03B8 0E00      09385         MOVLW   HIGH(_board)
03BA 2200      09386         ADDWFC  r0x08, F
03BC 5000      09387         MOVF    r0x06, W
03BE 2600      09388         ADDWF   r0x07, F
03C0 6AE8      09389         CLRF    WREG
03C2 2200      09390         ADDWFC  r0x08, F
03C4 C000 FFE9 09391         MOVFF   r0x07, FSR0L
03C8 C000 FFEA 09392         MOVFF   r0x08, FSR0H
03CC CFEF F000 09393         MOVFF   INDF0, r0x07
03D0 5000      09394         MOVF    r0x07, W
03D2 E100      09395         BNZ     _00226_DS_
               09396 ;       .line   171; /home/mandon/Bureau/validate.c     validmovemask[row] |= (1<<col);
gpasm-0.13.7 beta               /home/mandon/pinguino32/copie courante/linux/source/main.asm5-29-2011  20:37:50          PAGE 181


LOC  OBJECT CODE     LINE SOURCE TEXT
  VALUE
 
Error [113] : Symbol not previously defined (_validmovemask).
03D4 0E00      09397         MOVLW   LOW(_validmovemask)
03D6 2400      09398         ADDWF   r0x04, W
03D8 6E00      09399         MOVWF   r0x08
03DA 6A00      09400         CLRF    r0x09
Error [113] : Symbol not previously defined (_validmovemask).
03DC 0E00      09401         MOVLW   HIGH(_validmovemask)
03DE 2200      09402         ADDWFC  r0x09, F
03E0 C000 FFE9 09403         MOVFF   r0x08, FSR0L
03E4 C000 FFEA 09404         MOVFF   r0x09, FSR0H
03E8 CFEF F000 09405         MOVFF   INDF0, r0x0a
03EC 0E01      09406         MOVLW   0x01
03EE 6E00      09407         MOVWF   r0x0b
03F0 5000      09408         MOVF    r0x06, W
03F2 E000      09409         BZ      _00302_DS_
03F4 6CE8      09410         NEGF    WREG
03F6 90D8      09411         BCF     STATUS, 0
03F8 09412 _00303_DS_:
03F8 3600      09413         RLCF    r0x0b, F
03FA 0F01      09414         ADDLW   0x01
03FC E300      09415         BNC     _00303_DS_
03FE 09416 _00302_DS_:
03FE 5000      09417         MOVF    r0x0b, W
0400 1200      09418         IORWF   r0x0a, F
0402 C000 FFE9 09419         MOVFF   r0x08, FSR0L
0406 C000 FFEA 09420         MOVFF   r0x09, FSR0H
040A C000 FFEF 09421         MOVFF   r0x0a, INDF0
040E D000      09422         BRA     _00232_DS_
0410 09423 _00226_DS_:
               09424 ;       .line   173; /home/mandon/Bureau/validate.c     else if (is_opp_piece(row,col,piececolour))
0410 0E08      09425         MOVLW   0x08
0412 1400      09426         ANDWF   r0x07, W
0414 6E00      09427         MOVWF   r0x08
0416 3800      09428         SWAPF   r0x08, W
0418 44E8      09429         RLNCF   WREG, W
041A 0B1F      09430         ANDLW   0x1f
041C 6E00      09431         MOVWF   r0x08
041E 5000      09432         MOVF    r0x01, W
0420 1A00      09433         XORWF   r0x08, F
0422 5000      09434         MOVF    r0x08, W
0424 B4D8      09435         BTFSC   STATUS, 2
0426 D000      09436         BRA     _00232_DS_
0428 5000      09437         MOVF    r0x07, W
042A B4D8      09438         BTFSC   STATUS, 2
042C D000      09439         BRA     _00232_DS_
               09440 ;       .line   175; /home/mandon/Bureau/validate.c     validmovemask[row] |= (1<<col);
Error [113] : Symbol not previously defined (_validmovemask).
042E 0E00      09441         MOVLW   LOW(_validmovemask)
0430 2400      09442         ADDWF   r0x04, W
0432 6E00      09443         MOVWF   r0x07
0434 6A00      09444         CLRF    r0x08
Error [113] : Symbol not previously defined (_validmovemask).
0436 0E00      09445         MOVLW   HIGH(_validmovemask)
0438 2200      09446         ADDWFC  r0x08, F
gpasm-0.13.7 beta               /home/mandon/pinguino32/copie courante/linux/source/main.asm5-29-2011  20:37:50          PAGE 182


LOC  OBJECT CODE     LINE SOURCE TEXT
  VALUE
 
043A C000 FFE9 09447         MOVFF   r0x07, FSR0L
043E C000 FFEA 09448         MOVFF   r0x08, FSR0H
0442 CFEF F000 09449         MOVFF   INDF0, r0x09
0446 0E01      09450         MOVLW   0x01
0448 6E00      09451         MOVWF   r0x0a
044A 5000      09452         MOVF    r0x06, W
044C E000      09453         BZ      _00306_DS_
044E 6CE8      09454         NEGF    WREG
0450 90D8      09455         BCF     STATUS, 0
0452 09456 _00307_DS_:
0452 3600      09457         RLCF    r0x0a, F
0454 0F01      09458         ADDLW   0x01
0456 E300      09459         BNC     _00307_DS_
0458 09460 _00306_DS_:
0458 5000      09461         MOVF    r0x0a, W
045A 1000      09462         IORWF   r0x09, W
045C 6E00      09463         MOVWF   r0x06
045E C000 FFE9 09464         MOVFF   r0x07, FSR0L
0462 C000 FFEA 09465         MOVFF   r0x08, FSR0H
0466 C000 FFEF 09466         MOVFF   r0x06, INDF0
               09467 ;       .line   176; /home/mandon/Bureau/validate.c     capturemask[row]   |= (1<<col);
046A 6A00      09468         CLRF    r0x06
Error [113] : Symbol not previously defined (_capturemask).
046C 0E00      09469         MOVLW   LOW(_capturemask)
046E 2600      09470         ADDWF   r0x04, F
Error [113] : Symbol not previously defined (_capturemask).
0470 0E00      09471         MOVLW   HIGH(_capturemask)
0472 2200      09472         ADDWFC  r0x06, F
0474 C000 FFE9 09473         MOVFF   r0x04, FSR0L
0478 C000 FFEA 09474         MOVFF   r0x06, FSR0H
047C CFEF F000 09475         MOVFF   INDF0, r0x07
0480 5000      09476         MOVF    r0x07, W
0482 1200      09477         IORWF   r0x0a, F
0484 C000 FFE9 09478         MOVFF   r0x04, FSR0L
0488 C000 FFEA 09479         MOVFF   r0x06, FSR0H
048C C000 FFEF 09480         MOVFF   r0x0a, INDF0
               09481 ;       .line   177; /home/mandon/Bureau/validate.c     if (capturemask[opp_king_pos[0]] & (1 << opp_king_pos[1])) kingcapture = TRUE;
Error [113] : Symbol not previously defined (_capturemask).
0490 0E00      09482         MOVLW   LOW(_capturemask)
0492 0000      09483         BANKSEL _opp_king_pos
0494 2500      09484         ADDWF   _opp_king_pos, W, B
0496 6E00      09485         MOVWF   r0x04
0498 6A00      09486         CLRF    r0x06
Error [113] : Symbol not previously defined (_capturemask).
049A 0E00      09487         MOVLW   HIGH(_capturemask)
049C 2200      09488         ADDWFC  r0x06, F
049E C000 FFE9 09489         MOVFF   r0x04, FSR0L
04A2 C000 FFEA 09490         MOVFF   r0x06, FSR0H
04A6 CFEF F000 09491         MOVFF   INDF0, r0x04
04AA 0E01      09492         MOVLW   0x01
04AC 6E00      09493         MOVWF   r0x06
04AE 6A00      09494         CLRF    r0x07
               09495 ; removed redundant BANKSEL
04B0 5100      09496         MOVF    (_opp_king_pos + 1), W, B
gpasm-0.13.7 beta               /home/mandon/pinguino32/copie courante/linux/source/main.asm5-29-2011  20:37:50          PAGE 183


LOC  OBJECT CODE     LINE SOURCE TEXT
  VALUE
 
04B2 E000      09497         BZ      _00310_DS_
04B4 6CE8      09498         NEGF    WREG
04B6 90D8      09499         BCF     STATUS, 0
04B8 09500 _00311_DS_:
04B8 3600      09501         RLCF    r0x06, F
04BA 3600      09502         RLCF    r0x07, F
04BC 0F01      09503         ADDLW   0x01
04BE E300      09504         BNC     _00311_DS_
04C0 09505 _00310_DS_:
04C0 6A00      09506         CLRF    r0x08
04C2 5000      09507         MOVF    r0x04, W
04C4 1600      09508         ANDWF   r0x06, F
04C6 5000      09509         MOVF    r0x08, W
04C8 1600      09510         ANDWF   r0x07, F
04CA 5000      09511         MOVF    r0x06, W
04CC 1000      09512         IORWF   r0x07, W
04CE E000      09513         BZ      _00232_DS_
04D0 0E01      09514         MOVLW   0x01
Error [113] : Symbol not previously defined (_kingcapture).
04D2 0100      09515         BANKSEL _kingcapture
Error [113] : Symbol not previously defined (_kingcapture).
Error [113] : Symbol not previously defined (_kingcapture).
04D4 6F00      09516         MOVWF   _kingcapture, B
04D6 09517 _00232_DS_:
               09518 ;       .line   164; /home/mandon/Bureau/validate.c     for (i = 0; i <= 21; i += 3)
04D6 0E06      09519         MOVLW   0x06
04D8 2600      09520         ADDWF   r0x03, F
04DA 0E03      09521         MOVLW   0x03
04DC 2600      09522         ADDWF   r0x02, F
04DE D000      09523         BRA     _00230_DS_
04E0 09524 _00234_DS_:
04E0 CFE4 F000 09525         MOVFF   PREINC1, r0x0b
04E4 CFE4 F000 09526         MOVFF   PREINC1, r0x0a
04E8 CFE4 F000 09527         MOVFF   PREINC1, r0x09
04EC CFE4 F000 09528         MOVFF   PREINC1, r0x08
04F0 CFE4 F000 09529         MOVFF   PREINC1, r0x07
04F4 CFE4 F000 09530         MOVFF   PREINC1, r0x06
04F8 CFE4 F000 09531         MOVFF   PREINC1, r0x05
04FC CFE4 F000 09532         MOVFF   PREINC1, r0x04
0500 CFE4 F000 09533         MOVFF   PREINC1, r0x03
0504 CFE4 F000 09534         MOVFF   PREINC1, r0x02
0508 CFE4 F000 09535         MOVFF   PREINC1, r0x01
050C CFE4 F000 09536         MOVFF   PREINC1, r0x00
0510 CFE4 FFD9 09537         MOVFF   PREINC1, FSR2L
0514 0012      09538         RETURN  
               09539 
               09540 ; ; Starting pCode block
               09541 S_main__val_bishop      code
0000 09542 _val_bishop:
               09543 ;       .line   76; /home/mandon/Bureau/validate.c      void val_bishop(LOC from,BOOL piececolour)
0000 CFD9 FFE5 09544         MOVFF   FSR2L, POSTDEC1
0004 CFE1 FFD9 09545         MOVFF   FSR1L, FSR2L
0008 C000 FFE5 09546         MOVFF   r0x00, POSTDEC1
000C C000 FFE5 09547         MOVFF   r0x01, POSTDEC1
gpasm-0.13.7 beta               /home/mandon/pinguino32/copie courante/linux/source/main.asm5-29-2011  20:37:50          PAGE 184


LOC  OBJECT CODE     LINE SOURCE TEXT
  VALUE
 
0010 C000 FFE5 09548         MOVFF   r0x02, POSTDEC1
0014 C000 FFE5 09549         MOVFF   r0x03, POSTDEC1
0018 0E02      09550         MOVLW   0x02
001A CFDB F000 09551         MOVFF   PLUSW2, r0x00
001E 0E03      09552         MOVLW   0x03
0020 CFDB F000 09553         MOVFF   PLUSW2, r0x01
0024 0E04      09554         MOVLW   0x04
0026 CFDB F000 09555         MOVFF   PLUSW2, r0x02
002A 0E05      09556         MOVLW   0x05
002C CFDB F000 09557         MOVFF   PLUSW2, r0x03
               09558 ;       .line   82; /home/mandon/Bureau/validate.c      if (piececolour == WHITE)
0030 5000      09559         MOVF    r0x03, W
0032 E100      09560         BNZ     _00192_DS_
Error [113] : Symbol not previously defined (_bl_king_pos).
0034 0100      09561         BANKSEL _bl_king_pos
               09562 ;       .line   83; /home/mandon/Bureau/validate.c      { opp_king_pos[0] = bl_king_pos[0];
Error [113] : Symbol not previously defined (_bl_king_pos).
Error [113] : Symbol not previously defined (_bl_king_pos).
0036 5100      09563         MOVF    _bl_king_pos, W, B
0038 0000      09564         BANKSEL _opp_king_pos
003A 6F00      09565         MOVWF   _opp_king_pos, B
Error [113] : Symbol not previously defined (_bl_king_pos).
003C 0100      09566         BANKSEL (_bl_king_pos + 1)
               09567 ;       .line   84; /home/mandon/Bureau/validate.c      opp_king_pos[1] = bl_king_pos[1];
Error [113] : Symbol not previously defined (_bl_king_pos).
Error [113] : Symbol not previously defined (_bl_king_pos).
003E 5100      09568         MOVF    (_bl_king_pos + 1), W, B
0040 0000      09569         BANKSEL (_opp_king_pos + 1)
0042 6F00      09570         MOVWF   (_opp_king_pos + 1), B
0044 D000      09571         BRA     _00193_DS_
0046 09572 _00192_DS_:
Error [113] : Symbol not previously defined (_wh_king_pos).
0046 0100      09573         BANKSEL _wh_king_pos
               09574 ;       .line   87; /home/mandon/Bureau/validate.c      { opp_king_pos[0] = wh_king_pos[0];
Error [113] : Symbol not previously defined (_wh_king_pos).
Error [113] : Symbol not previously defined (_wh_king_pos).
0048 5100      09575         MOVF    _wh_king_pos, W, B
004A 0000      09576         BANKSEL _opp_king_pos
004C 6F00      09577         MOVWF   _opp_king_pos, B
Error [113] : Symbol not previously defined (_wh_king_pos).
004E 0100      09578         BANKSEL (_wh_king_pos + 1)
               09579 ;       .line   88; /home/mandon/Bureau/validate.c      opp_king_pos[1] = wh_king_pos[1];
Error [113] : Symbol not previously defined (_wh_king_pos).
Error [113] : Symbol not previously defined (_wh_king_pos).
0050 5100      09580         MOVF    (_wh_king_pos + 1), W, B
0052 0000      09581         BANKSEL (_opp_king_pos + 1)
0054 6F00      09582         MOVWF   (_opp_king_pos + 1), B
0056 09583 _00193_DS_:
               09584 ;       .line   92; /home/mandon/Bureau/validate.c      val_northeast (from,piececolour,-1);
0056 68E5      09585         SETF    POSTDEC1
0058 5000      09586         MOVF    r0x03, W
005A 6EE5      09587         MOVWF   POSTDEC1
005C 5000      09588         MOVF    r0x02, W
005E 6EE5      09589         MOVWF   POSTDEC1
gpasm-0.13.7 beta               /home/mandon/pinguino32/copie courante/linux/source/main.asm5-29-2011  20:37:50          PAGE 185


LOC  OBJECT CODE     LINE SOURCE TEXT
  VALUE
 
0060 5000      09590         MOVF    r0x01, W
0062 6EE5      09591         MOVWF   POSTDEC1
0064 5000      09592         MOVF    r0x00, W
0066 6EE5      09593         MOVWF   POSTDEC1
0068 EC00 F000 09594         CALL    _val_northeast
006C 0E05      09595         MOVLW   0x05
006E 26E1      09596         ADDWF   FSR1L, F
               09597 ;       .line   93; /home/mandon/Bureau/validate.c      val_northwest (from,piececolour,-1);
0070 68E5      09598         SETF    POSTDEC1
0072 5000      09599         MOVF    r0x03, W
0074 6EE5      09600         MOVWF   POSTDEC1
0076 5000      09601         MOVF    r0x02, W
0078 6EE5      09602         MOVWF   POSTDEC1
007A 5000      09603         MOVF    r0x01, W
007C 6EE5      09604         MOVWF   POSTDEC1
007E 5000      09605         MOVF    r0x00, W
0080 6EE5      09606         MOVWF   POSTDEC1
0082 EC00 F000 09607         CALL    _val_northwest
0086 0E05      09608         MOVLW   0x05
0088 26E1      09609         ADDWF   FSR1L, F
               09610 ;       .line   94; /home/mandon/Bureau/validate.c      val_southeast (from,piececolour,-1);
008A 68E5      09611         SETF    POSTDEC1
008C 5000      09612         MOVF    r0x03, W
008E 6EE5      09613         MOVWF   POSTDEC1
0090 5000      09614         MOVF    r0x02, W
0092 6EE5      09615         MOVWF   POSTDEC1
0094 5000      09616         MOVF    r0x01, W
0096 6EE5      09617         MOVWF   POSTDEC1
0098 5000      09618         MOVF    r0x00, W
009A 6EE5      09619         MOVWF   POSTDEC1
009C EC00 F000 09620         CALL    _val_southeast
00A0 0E05      09621         MOVLW   0x05
00A2 26E1      09622         ADDWF   FSR1L, F
               09623 ;       .line   95; /home/mandon/Bureau/validate.c      val_southwest (from,piececolour,-1);
00A4 68E5      09624         SETF    POSTDEC1
00A6 5000      09625         MOVF    r0x03, W
00A8 6EE5      09626         MOVWF   POSTDEC1
00AA 5000      09627         MOVF    r0x02, W
00AC 6EE5      09628         MOVWF   POSTDEC1
00AE 5000      09629         MOVF    r0x01, W
00B0 6EE5      09630         MOVWF   POSTDEC1
00B2 5000      09631         MOVF    r0x00, W
00B4 6EE5      09632         MOVWF   POSTDEC1
00B6 EC00 F000 09633         CALL    _val_southwest
00BA 0E05      09634         MOVLW   0x05
00BC 26E1      09635         ADDWF   FSR1L, F
00BE CFE4 F000 09636         MOVFF   PREINC1, r0x03
00C2 CFE4 F000 09637         MOVFF   PREINC1, r0x02
00C6 CFE4 F000 09638         MOVFF   PREINC1, r0x01
00CA CFE4 F000 09639         MOVFF   PREINC1, r0x00
00CE CFE4 FFD9 09640         MOVFF   PREINC1, FSR2L
00D2 0012      09641         RETURN  
               09642 
               09643 ; ; Starting pCode block
gpasm-0.13.7 beta               /home/mandon/pinguino32/copie courante/linux/source/main.asm5-29-2011  20:37:50          PAGE 186


LOC  OBJECT CODE     LINE SOURCE TEXT
  VALUE
 
               09644 S_main__val_pawn        code
0000 09645 _val_pawn:
               09646 ;       .line   18; /home/mandon/Bureau/validate.c      void val_pawn(LOC from,BOOL piececolour)
0000 CFD9 FFE5 09647         MOVFF   FSR2L, POSTDEC1
0004 CFE1 FFD9 09648         MOVFF   FSR1L, FSR2L
0008 C000 FFE5 09649         MOVFF   r0x00, POSTDEC1
000C C000 FFE5 09650         MOVFF   r0x01, POSTDEC1
0010 C000 FFE5 09651         MOVFF   r0x02, POSTDEC1
0014 C000 FFE5 09652         MOVFF   r0x03, POSTDEC1
0018 C000 FFE5 09653         MOVFF   r0x04, POSTDEC1
001C C000 FFE5 09654         MOVFF   r0x05, POSTDEC1
0020 C000 FFE5 09655         MOVFF   r0x06, POSTDEC1
0024 C000 FFE5 09656         MOVFF   r0x07, POSTDEC1
0028 C000 FFE5 09657         MOVFF   r0x08, POSTDEC1
002C C000 FFE5 09658         MOVFF   r0x09, POSTDEC1
0030 C000 FFE5 09659         MOVFF   r0x0a, POSTDEC1
0034 C000 FFE5 09660         MOVFF   r0x0b, POSTDEC1
0038 C000 FFE5 09661         MOVFF   r0x0c, POSTDEC1
003C 0E02      09662         MOVLW   0x02
003E CFDB F000 09663         MOVFF   PLUSW2, r0x00
0042 0E03      09664         MOVLW   0x03
0044 CFDB F000 09665         MOVFF   PLUSW2, r0x01
0048 0E04      09666         MOVLW   0x04
004A CFDB F000 09667         MOVFF   PLUSW2, r0x02
004E 0E05      09668         MOVLW   0x05
0050 CFDB F000 09669         MOVFF   PLUSW2, r0x03
               09670 ;       .line   20; /home/mandon/Bureau/validate.c      { COORD row = from[0],col = from[1];
0054 C000 FFE9 09671         MOVFF   r0x00, FSR0L
0058 C000 FFF3 09672         MOVFF   r0x01, PRODL
005C 5000      09673         MOVF    r0x02, W
005E EC00 F000 09674         CALL    __gptrget1
0062 6E00      09675         MOVWF   r0x04
0064 C000 F000 09676         MOVFF   r0x04, r0x05
0068 2A00      09677         INCF    r0x00, F
006A B0D8      09678         BTFSC   STATUS, 0
006C 2A00      09679         INCF    r0x01, F
006E B0D8      09680         BTFSC   STATUS, 0
0070 2A00      09681         INCF    r0x02, F
0072 C000 FFE9 09682         MOVFF   r0x00, FSR0L
0076 C000 FFF3 09683         MOVFF   r0x01, PRODL
007A 5000      09684         MOVF    r0x02, W
007C EC00 F000 09685         CALL    __gptrget1
0080 6E00      09686         MOVWF   r0x00
               09687 ;       .line   21; /home/mandon/Bureau/validate.c      BOOL piecefound = FALSE;
0082 6A00      09688         CLRF    r0x01
               09689 ;       .line   24; /home/mandon/Bureau/validate.c      if (piececolour == WHITE)
0084 5000      09690         MOVF    r0x03, W
0086 E100      09691         BNZ     _00111_DS_
Error [113] : Symbol not previously defined (_bl_king_pos).
0088 0100      09692         BANKSEL _bl_king_pos
               09693 ;       .line   25; /home/mandon/Bureau/validate.c      { opp_king_pos[0] = bl_king_pos[0];
Error [113] : Symbol not previously defined (_bl_king_pos).
Error [113] : Symbol not previously defined (_bl_king_pos).
008A 5100      09694         MOVF    _bl_king_pos, W, B
gpasm-0.13.7 beta               /home/mandon/pinguino32/copie courante/linux/source/main.asm5-29-2011  20:37:50          PAGE 187


LOC  OBJECT CODE     LINE SOURCE TEXT
  VALUE
 
008C 0000      09695         BANKSEL _opp_king_pos
008E 6F00      09696         MOVWF   _opp_king_pos, B
Error [113] : Symbol not previously defined (_bl_king_pos).
0090 0100      09697         BANKSEL (_bl_king_pos + 1)
               09698 ;       .line   26; /home/mandon/Bureau/validate.c      opp_king_pos[1] = bl_king_pos[1];
Error [113] : Symbol not previously defined (_bl_king_pos).
Error [113] : Symbol not previously defined (_bl_king_pos).
0092 5100      09699         MOVF    (_bl_king_pos + 1), W, B
0094 0000      09700         BANKSEL (_opp_king_pos + 1)
0096 6F00      09701         MOVWF   (_opp_king_pos + 1), B
0098 D000      09702         BRA     _00112_DS_
009A 09703 _00111_DS_:
Error [113] : Symbol not previously defined (_wh_king_pos).
009A 0100      09704         BANKSEL _wh_king_pos
               09705 ;       .line   29; /home/mandon/Bureau/validate.c      { opp_king_pos[0] = wh_king_pos[0];
Error [113] : Symbol not previously defined (_wh_king_pos).
Error [113] : Symbol not previously defined (_wh_king_pos).
009C 5100      09706         MOVF    _wh_king_pos, W, B
009E 0000      09707         BANKSEL _opp_king_pos
00A0 6F00      09708         MOVWF   _opp_king_pos, B
Error [113] : Symbol not previously defined (_wh_king_pos).
00A2 0100      09709         BANKSEL (_wh_king_pos + 1)
               09710 ;       .line   30; /home/mandon/Bureau/validate.c      opp_king_pos[1] = wh_king_pos[1];
Error [113] : Symbol not previously defined (_wh_king_pos).
Error [113] : Symbol not previously defined (_wh_king_pos).
00A4 5100      09711         MOVF    (_wh_king_pos + 1), W, B
00A6 0000      09712         BANKSEL (_opp_king_pos + 1)
00A8 6F00      09713         MOVWF   (_opp_king_pos + 1), B
00AA 09714 _00112_DS_:
               09715 ;       .line   34; /home/mandon/Bureau/validate.c      if (piececolour == WHITE)
00AA 5000      09716         MOVF    r0x03, W
00AC E100      09717         BNZ     _00114_DS_
               09718 ;       .line   35; /home/mandon/Bureau/validate.c      row++;
00AE 2A00      09719         INCF    r0x05, F
00B0 D000      09720         BRA     _00115_DS_
00B2 09721 _00114_DS_:
               09722 ;       .line   37; /home/mandon/Bureau/validate.c      row--;
00B2 0600      09723         DECF    r0x05, F
               09724 ; ;multiply lit val:0x08 by variable r0x05 and store in r0x02
               09725 ; ;Unrolled 8 X 8 multiplication
               09726 ; ;FIXME: the function does not support result==WREG
00B4 09727 _00115_DS_:
               09728 ;       .line   40; /home/mandon/Bureau/validate.c      if (board[row][col] == EMPTY)
00B4 5000      09729         MOVF    r0x05, W
00B6 0D08      09730         MULLW   0x08
00B8 CFF3 F000 09731         MOVFF   PRODL, r0x02
00BC 6A00      09732         CLRF    r0x06
Error [113] : Symbol not previously defined (_board).
00BE 0E00      09733         MOVLW   LOW(_board)
00C0 2600      09734         ADDWF   r0x02, F
Error [113] : Symbol not previously defined (_board).
00C2 0E00      09735         MOVLW   HIGH(_board)
00C4 2200      09736         ADDWFC  r0x06, F
00C6 5000      09737         MOVF    r0x00, W
gpasm-0.13.7 beta               /home/mandon/pinguino32/copie courante/linux/source/main.asm5-29-2011  20:37:50          PAGE 188


LOC  OBJECT CODE     LINE SOURCE TEXT
  VALUE
 
00C8 2400      09738         ADDWF   r0x02, W
00CA 6E00      09739         MOVWF   r0x07
00CC 6AE8      09740         CLRF    WREG
00CE 2000      09741         ADDWFC  r0x06, W
00D0 6E00      09742         MOVWF   r0x08
00D2 C000 FFE9 09743         MOVFF   r0x07, FSR0L
00D6 C000 FFEA 09744         MOVFF   r0x08, FSR0H
00DA CFEF F000 09745         MOVFF   INDF0, r0x07
00DE 5000      09746         MOVF    r0x07, W
00E0 E100      09747         BNZ     _00117_DS_
               09748 ;       .line   41; /home/mandon/Bureau/validate.c      { validmovemask[row] |= (1<<col);
Error [113] : Symbol not previously defined (_validmovemask).
00E2 0E00      09749         MOVLW   LOW(_validmovemask)
00E4 2400      09750         ADDWF   r0x05, W
00E6 6E00      09751         MOVWF   r0x07
00E8 6A00      09752         CLRF    r0x08
Error [113] : Symbol not previously defined (_validmovemask).
00EA 0E00      09753         MOVLW   HIGH(_validmovemask)
00EC 2200      09754         ADDWFC  r0x08, F
00EE C000 FFE9 09755         MOVFF   r0x07, FSR0L
00F2 C000 FFEA 09756         MOVFF   r0x08, FSR0H
00F6 CFEF F000 09757         MOVFF   INDF0, r0x09
00FA 0E01      09758         MOVLW   0x01
00FC 6E00      09759         MOVWF   r0x0a
00FE 5000      09760         MOVF    r0x00, W
0100 E000      09761         BZ      _00160_DS_
0102 6CE8      09762         NEGF    WREG
0104 90D8      09763         BCF     STATUS, 0
0106 09764 _00161_DS_:
0106 3600      09765         RLCF    r0x0a, F
0108 0F01      09766         ADDLW   0x01
010A E300      09767         BNC     _00161_DS_
010C 09768 _00160_DS_:
010C 5000      09769         MOVF    r0x0a, W
010E 1200      09770         IORWF   r0x09, F
0110 C000 FFE9 09771         MOVFF   r0x07, FSR0L
0114 C000 FFEA 09772         MOVFF   r0x08, FSR0H
0118 C000 FFEF 09773         MOVFF   r0x09, INDF0
011C D000      09774         BRA     _00118_DS_
011E 09775 _00117_DS_:
               09776 ;       .line   44; /home/mandon/Bureau/validate.c      piecefound = TRUE;
011E 0E01      09777         MOVLW   0x01
0120 6E00      09778         MOVWF   r0x01
0122 09779 _00118_DS_:
               09780 ;       .line   48; /home/mandon/Bureau/validate.c      if ((is_opp_piece(row,col-1,piececolour)) && (col > MIN_COL))
0122 0400      09781         DECF    r0x00, W
               09782 ; #     MOVWF   r0x07
               09783 ; #     MOVF    r0x07, W
0124 6E00      09784         MOVWF   r0x07
0126 2400      09785         ADDWF   r0x02, W
0128 6E00      09786         MOVWF   r0x08
012A 6AE8      09787         CLRF    WREG
012C 2000      09788         ADDWFC  r0x06, W
012E 6E00      09789         MOVWF   r0x09
gpasm-0.13.7 beta               /home/mandon/pinguino32/copie courante/linux/source/main.asm5-29-2011  20:37:50          PAGE 189


LOC  OBJECT CODE     LINE SOURCE TEXT
  VALUE
 
0130 C000 FFE9 09790         MOVFF   r0x08, FSR0L
0134 C000 FFEA 09791         MOVFF   r0x09, FSR0H
0138 CFEF F000 09792         MOVFF   INDF0, r0x08
013C 0E08      09793         MOVLW   0x08
013E 1400      09794         ANDWF   r0x08, W
0140 6E00      09795         MOVWF   r0x09
0142 3800      09796         SWAPF   r0x09, W
0144 44E8      09797         RLNCF   WREG, W
0146 0B1F      09798         ANDLW   0x1f
0148 6E00      09799         MOVWF   r0x09
014A 0E08      09800         MOVLW   0x08
014C 1400      09801         ANDWF   r0x03, W
014E 6E00      09802         MOVWF   r0x0a
0150 3800      09803         SWAPF   r0x0a, W
0152 44E8      09804         RLNCF   WREG, W
0154 0B1F      09805         ANDLW   0x1f
               09806 ; #     MOVWF   r0x0a
               09807 ; #     MOVF    r0x0a, W
0156 6E00      09808         MOVWF   r0x0a
0158 1A00      09809         XORWF   r0x09, F
015A 5000      09810         MOVF    r0x09, W
015C B4D8      09811         BTFSC   STATUS, 2
015E D000      09812         BRA     _00122_DS_
0160 5000      09813         MOVF    r0x08, W
0162 B4D8      09814         BTFSC   STATUS, 2
0164 D000      09815         BRA     _00122_DS_
0166 5000      09816         MOVF    r0x00, W
0168 B4D8      09817         BTFSC   STATUS, 2
016A D000      09818         BRA     _00122_DS_
               09819 ;       .line   50; /home/mandon/Bureau/validate.c      validmovemask[row] |= (1<<(col - 1));
Error [113] : Symbol not previously defined (_validmovemask).
016C 0E00      09820         MOVLW   LOW(_validmovemask)
016E 2400      09821         ADDWF   r0x05, W
0170 6E00      09822         MOVWF   r0x08
0172 6A00      09823         CLRF    r0x09
Error [113] : Symbol not previously defined (_validmovemask).
0174 0E00      09824         MOVLW   HIGH(_validmovemask)
0176 2200      09825         ADDWFC  r0x09, F
0178 C000 FFE9 09826         MOVFF   r0x08, FSR0L
017C C000 FFEA 09827         MOVFF   r0x09, FSR0H
0180 CFEF F000 09828         MOVFF   INDF0, r0x0b
0184 0E01      09829         MOVLW   0x01
0186 6E00      09830         MOVWF   r0x0c
0188 5000      09831         MOVF    r0x07, W
018A E000      09832         BZ      _00165_DS_
018C 6CE8      09833         NEGF    WREG
018E 90D8      09834         BCF     STATUS, 0
0190 09835 _00166_DS_:
0190 3600      09836         RLCF    r0x0c, F
0192 0F01      09837         ADDLW   0x01
0194 E300      09838         BNC     _00166_DS_
0196 09839 _00165_DS_:
0196 5000      09840         MOVF    r0x0c, W
0198 1000      09841         IORWF   r0x0b, W
gpasm-0.13.7 beta               /home/mandon/pinguino32/copie courante/linux/source/main.asm5-29-2011  20:37:50          PAGE 190


LOC  OBJECT CODE     LINE SOURCE TEXT
  VALUE
 
019A 6E00      09842         MOVWF   r0x07
019C C000 FFE9 09843         MOVFF   r0x08, FSR0L
01A0 C000 FFEA 09844         MOVFF   r0x09, FSR0H
01A4 C000 FFEF 09845         MOVFF   r0x07, INDF0
               09846 ;       .line   51; /home/mandon/Bureau/validate.c      capturemask[row]   |= (1<<(col - 1));
Error [113] : Symbol not previously defined (_capturemask).
01A8 0E00      09847         MOVLW   LOW(_capturemask)
01AA 2400      09848         ADDWF   r0x05, W
01AC 6E00      09849         MOVWF   r0x07
01AE 6A00      09850         CLRF    r0x08
Error [113] : Symbol not previously defined (_capturemask).
01B0 0E00      09851         MOVLW   HIGH(_capturemask)
01B2 2200      09852         ADDWFC  r0x08, F
01B4 C000 FFE9 09853         MOVFF   r0x07, FSR0L
01B8 C000 FFEA 09854         MOVFF   r0x08, FSR0H
01BC CFEF F000 09855         MOVFF   INDF0, r0x09
01C0 5000      09856         MOVF    r0x09, W
01C2 1200      09857         IORWF   r0x0c, F
01C4 C000 FFE9 09858         MOVFF   r0x07, FSR0L
01C8 C000 FFEA 09859         MOVFF   r0x08, FSR0H
01CC C000 FFEF 09860         MOVFF   r0x0c, INDF0
               09861 ;       .line   52; /home/mandon/Bureau/validate.c      if (capturemask[opp_king_pos[0]]  & (1 << opp_king_pos[1])) kingcapture = TRUE;
Error [113] : Symbol not previously defined (_capturemask).
01D0 0E00      09862         MOVLW   LOW(_capturemask)
01D2 0000      09863         BANKSEL _opp_king_pos
01D4 2500      09864         ADDWF   _opp_king_pos, W, B
01D6 6E00      09865         MOVWF   r0x07
01D8 6A00      09866         CLRF    r0x08
Error [113] : Symbol not previously defined (_capturemask).
01DA 0E00      09867         MOVLW   HIGH(_capturemask)
01DC 2200      09868         ADDWFC  r0x08, F
01DE C000 FFE9 09869         MOVFF   r0x07, FSR0L
01E2 C000 FFEA 09870         MOVFF   r0x08, FSR0H
01E6 CFEF F000 09871         MOVFF   INDF0, r0x07
01EA 0E01      09872         MOVLW   0x01
01EC 6E00      09873         MOVWF   r0x08
01EE 6A00      09874         CLRF    r0x09
               09875 ; removed redundant BANKSEL
01F0 5100      09876         MOVF    (_opp_king_pos + 1), W, B
01F2 E000      09877         BZ      _00169_DS_
01F4 6CE8      09878         NEGF    WREG
01F6 90D8      09879         BCF     STATUS, 0
01F8 09880 _00170_DS_:
01F8 3600      09881         RLCF    r0x08, F
01FA 3600      09882         RLCF    r0x09, F
01FC 0F01      09883         ADDLW   0x01
01FE E300      09884         BNC     _00170_DS_
0200 09885 _00169_DS_:
0200 6A00      09886         CLRF    r0x0b
0202 5000      09887         MOVF    r0x07, W
0204 1600      09888         ANDWF   r0x08, F
0206 5000      09889         MOVF    r0x0b, W
0208 1600      09890         ANDWF   r0x09, F
020A 5000      09891         MOVF    r0x08, W
gpasm-0.13.7 beta               /home/mandon/pinguino32/copie courante/linux/source/main.asm5-29-2011  20:37:50          PAGE 191


LOC  OBJECT CODE     LINE SOURCE TEXT
  VALUE
 
020C 1000      09892         IORWF   r0x09, W
020E E000      09893         BZ      _00122_DS_
0210 0E01      09894         MOVLW   0x01
Error [113] : Symbol not previously defined (_kingcapture).
0212 0100      09895         BANKSEL _kingcapture
Error [113] : Symbol not previously defined (_kingcapture).
Error [113] : Symbol not previously defined (_kingcapture).
0214 6F00      09896         MOVWF   _kingcapture, B
0216 09897 _00122_DS_:
               09898 ;       .line   55; /home/mandon/Bureau/validate.c      if ((is_opp_piece(row,col+1,piececolour)) && (col < MAX_COL))
0216 2800      09899         INCF    r0x00, W
               09900 ; #     MOVWF   r0x07
               09901 ; #     MOVF    r0x07, W
0218 6E00      09902         MOVWF   r0x07
021A 2600      09903         ADDWF   r0x02, F
021C 6AE8      09904         CLRF    WREG
021E 2200      09905         ADDWFC  r0x06, F
0220 C000 FFE9 09906         MOVFF   r0x02, FSR0L
0224 C000 FFEA 09907         MOVFF   r0x06, FSR0H
0228 CFEF F000 09908         MOVFF   INDF0, r0x02
022C 0E08      09909         MOVLW   0x08
022E 1400      09910         ANDWF   r0x02, W
0230 6E00      09911         MOVWF   r0x06
0232 3800      09912         SWAPF   r0x06, W
0234 44E8      09913         RLNCF   WREG, W
0236 0B1F      09914         ANDLW   0x1f
               09915 ; #     MOVWF   r0x06
               09916 ; #     MOVF    r0x06, W
0238 1A00      09917         XORWF   r0x0a, F
023A 5000      09918         MOVF    r0x0a, W
023C B4D8      09919         BTFSC   STATUS, 2
023E D000      09920         BRA     _00128_DS_
0240 5000      09921         MOVF    r0x02, W
0242 B4D8      09922         BTFSC   STATUS, 2
0244 D000      09923         BRA     _00128_DS_
0246 0E07      09924         MOVLW   0x07
0248 5C00      09925         SUBWF   r0x00, W
024A B0D8      09926         BTFSC   STATUS, 0
024C D000      09927         BRA     _00128_DS_
               09928 ;       .line   57; /home/mandon/Bureau/validate.c      validmovemask[row] |= (1<<(col + 1));
Error [113] : Symbol not previously defined (_validmovemask).
024E 0E00      09929         MOVLW   LOW(_validmovemask)
0250 2400      09930         ADDWF   r0x05, W
0252 6E00      09931         MOVWF   r0x02
0254 6A00      09932         CLRF    r0x06
Error [113] : Symbol not previously defined (_validmovemask).
0256 0E00      09933         MOVLW   HIGH(_validmovemask)
0258 2200      09934         ADDWFC  r0x06, F
025A C000 FFE9 09935         MOVFF   r0x02, FSR0L
025E C000 FFEA 09936         MOVFF   r0x06, FSR0H
0262 CFEF F000 09937         MOVFF   INDF0, r0x08
0266 0E01      09938         MOVLW   0x01
0268 6E00      09939         MOVWF   r0x09
026A 5000      09940         MOVF    r0x07, W
gpasm-0.13.7 beta               /home/mandon/pinguino32/copie courante/linux/source/main.asm5-29-2011  20:37:50          PAGE 192


LOC  OBJECT CODE     LINE SOURCE TEXT
  VALUE
 
026C E000      09941         BZ      _00173_DS_
026E 6CE8      09942         NEGF    WREG
0270 90D8      09943         BCF     STATUS, 0
0272 09944 _00174_DS_:
0272 3600      09945         RLCF    r0x09, F
0274 0F01      09946         ADDLW   0x01
0276 E300      09947         BNC     _00174_DS_
0278 09948 _00173_DS_:
0278 5000      09949         MOVF    r0x09, W
027A 1000      09950         IORWF   r0x08, W
027C 6E00      09951         MOVWF   r0x07
027E C000 FFE9 09952         MOVFF   r0x02, FSR0L
0282 C000 FFEA 09953         MOVFF   r0x06, FSR0H
0286 C000 FFEF 09954         MOVFF   r0x07, INDF0
               09955 ;       .line   58; /home/mandon/Bureau/validate.c      capturemask[row]   |= (1<<(col + 1));
Error [113] : Symbol not previously defined (_capturemask).
028A 0E00      09956         MOVLW   LOW(_capturemask)
028C 2400      09957         ADDWF   r0x05, W
028E 6E00      09958         MOVWF   r0x02
0290 6A00      09959         CLRF    r0x06
Error [113] : Symbol not previously defined (_capturemask).
0292 0E00      09960         MOVLW   HIGH(_capturemask)
0294 2200      09961         ADDWFC  r0x06, F
0296 C000 FFE9 09962         MOVFF   r0x02, FSR0L
029A C000 FFEA 09963         MOVFF   r0x06, FSR0H
029E CFEF F000 09964         MOVFF   INDF0, r0x07
02A2 5000      09965         MOVF    r0x07, W
02A4 1200      09966         IORWF   r0x09, F
02A6 C000 FFE9 09967         MOVFF   r0x02, FSR0L
02AA C000 FFEA 09968         MOVFF   r0x06, FSR0H
02AE C000 FFEF 09969         MOVFF   r0x09, INDF0
               09970 ;       .line   59; /home/mandon/Bureau/validate.c      if (capturemask[opp_king_pos[0]]  & (1 << opp_king_pos[1])) kingcapture = TRUE;
Error [113] : Symbol not previously defined (_capturemask).
02B2 0E00      09971         MOVLW   LOW(_capturemask)
02B4 0000      09972         BANKSEL _opp_king_pos
02B6 2500      09973         ADDWF   _opp_king_pos, W, B
02B8 6E00      09974         MOVWF   r0x02
02BA 6A00      09975         CLRF    r0x06
Error [113] : Symbol not previously defined (_capturemask).
02BC 0E00      09976         MOVLW   HIGH(_capturemask)
02BE 2200      09977         ADDWFC  r0x06, F
02C0 C000 FFE9 09978         MOVFF   r0x02, FSR0L
02C4 C000 FFEA 09979         MOVFF   r0x06, FSR0H
02C8 CFEF F000 09980         MOVFF   INDF0, r0x02
02CC 0E01      09981         MOVLW   0x01
02CE 6E00      09982         MOVWF   r0x06
02D0 6A00      09983         CLRF    r0x07
               09984 ; removed redundant BANKSEL
02D2 5100      09985         MOVF    (_opp_king_pos + 1), W, B
02D4 E000      09986         BZ      _00177_DS_
02D6 6CE8      09987         NEGF    WREG
02D8 90D8      09988         BCF     STATUS, 0
02DA 09989 _00178_DS_:
02DA 3600      09990         RLCF    r0x06, F
gpasm-0.13.7 beta               /home/mandon/pinguino32/copie courante/linux/source/main.asm5-29-2011  20:37:50          PAGE 193


LOC  OBJECT CODE     LINE SOURCE TEXT
  VALUE
 
02DC 3600      09991         RLCF    r0x07, F
02DE 0F01      09992         ADDLW   0x01
02E0 E300      09993         BNC     _00178_DS_
02E2 09994 _00177_DS_:
02E2 6A00      09995         CLRF    r0x08
02E4 5000      09996         MOVF    r0x02, W
02E6 1600      09997         ANDWF   r0x06, F
02E8 5000      09998         MOVF    r0x08, W
02EA 1600      09999         ANDWF   r0x07, F
02EC 5000      10000         MOVF    r0x06, W
02EE 1000      10001         IORWF   r0x07, W
02F0 E000      10002         BZ      _00128_DS_
02F2 0E01      10003         MOVLW   0x01
Error [113] : Symbol not previously defined (_kingcapture).
02F4 0100      10004         BANKSEL _kingcapture
Error [113] : Symbol not previously defined (_kingcapture).
Error [113] : Symbol not previously defined (_kingcapture).
02F6 6F00      10005         MOVWF   _kingcapture, B
02F8 10006 _00128_DS_:
               10007 ;       .line   63; /home/mandon/Bureau/validate.c      if ((piececolour == BLACK  && from[0] == BL_PAWN_BASEROW) || (piececolour == WHITE && from[0] == WH_PAWN_BASEROW))
02F8 5000      10008         MOVF    r0x03, W
02FA 0A08      10009         XORLW   0x08
02FC E100      10010         BNZ     _00141_DS_
02FE 5000      10011         MOVF    r0x04, W
0300 0A06      10012         XORLW   0x06
0302 E000      10013         BZ      _00137_DS_
0304 10014 _00141_DS_:
0304 5000      10015         MOVF    r0x03, W
0306 A4D8      10016         BTFSS   STATUS, 2
0308 D000      10017         BRA     _00142_DS_
030A 5000      10018         MOVF    r0x04, W
030C 0A01      10019         XORLW   0x01
030E E100      10020         BNZ     _00142_DS_
0310 10021 _00137_DS_:
               10022 ;       .line   64; /home/mandon/Bureau/validate.c      {  if (piececolour == WHITE)
0310 5000      10023         MOVF    r0x03, W
0312 E100      10024         BNZ     _00132_DS_
               10025 ;       .line   65; /home/mandon/Bureau/validate.c      row++;
0314 2A00      10026         INCF    r0x05, F
0316 D000      10027         BRA     _00133_DS_
0318 10028 _00132_DS_:
               10029 ;       .line   67; /home/mandon/Bureau/validate.c      row--;
0318 0600      10030         DECF    r0x05, F
               10031 ; ;multiply lit val:0x08 by variable r0x05 and store in r0x02
               10032 ; ;Unrolled 8 X 8 multiplication
               10033 ; ;FIXME: the function does not support result==WREG
031A 10034 _00133_DS_:
               10035 ;       .line   68; /home/mandon/Bureau/validate.c      if ((board[row][col] == EMPTY) && (piecefound ==FALSE))
031A 5000      10036         MOVF    r0x05, W
031C 0D08      10037         MULLW   0x08
031E CFF3 F000 10038         MOVFF   PRODL, r0x02
0322 6A00      10039         CLRF    r0x03
Error [113] : Symbol not previously defined (_board).
0324 0E00      10040         MOVLW   LOW(_board)
gpasm-0.13.7 beta               /home/mandon/pinguino32/copie courante/linux/source/main.asm5-29-2011  20:37:50          PAGE 194


LOC  OBJECT CODE     LINE SOURCE TEXT
  VALUE
 
0326 2600      10041         ADDWF   r0x02, F
Error [113] : Symbol not previously defined (_board).
0328 0E00      10042         MOVLW   HIGH(_board)
032A 2200      10043         ADDWFC  r0x03, F
032C 5000      10044         MOVF    r0x00, W
032E 2600      10045         ADDWF   r0x02, F
0330 6AE8      10046         CLRF    WREG
0332 2200      10047         ADDWFC  r0x03, F
0334 C000 FFE9 10048         MOVFF   r0x02, FSR0L
0338 C000 FFEA 10049         MOVFF   r0x03, FSR0H
033C CFEF F000 10050         MOVFF   INDF0, r0x02
0340 5000      10051         MOVF    r0x02, W
0342 E100      10052         BNZ     _00142_DS_
0344 5000      10053         MOVF    r0x01, W
0346 E100      10054         BNZ     _00142_DS_
               10055 ;       .line   69; /home/mandon/Bureau/validate.c      { validmovemask[row] |= (1<<col);
0348 6A00      10056         CLRF    r0x01
Error [113] : Symbol not previously defined (_validmovemask).
034A 0E00      10057         MOVLW   LOW(_validmovemask)
034C 2600      10058         ADDWF   r0x05, F
Error [113] : Symbol not previously defined (_validmovemask).
034E 0E00      10059         MOVLW   HIGH(_validmovemask)
0350 2200      10060         ADDWFC  r0x01, F
0352 C000 FFE9 10061         MOVFF   r0x05, FSR0L
0356 C000 FFEA 10062         MOVFF   r0x01, FSR0H
035A CFEF F000 10063         MOVFF   INDF0, r0x02
035E 0E01      10064         MOVLW   0x01
0360 6E00      10065         MOVWF   r0x03
0362 5000      10066         MOVF    r0x00, W
0364 E000      10067         BZ      _00185_DS_
0366 6CE8      10068         NEGF    WREG
0368 90D8      10069         BCF     STATUS, 0
036A 10070 _00186_DS_:
036A 3600      10071         RLCF    r0x03, F
036C 0F01      10072         ADDLW   0x01
036E E300      10073         BNC     _00186_DS_
0370 10074 _00185_DS_:
0370 5000      10075         MOVF    r0x03, W
0372 1000      10076         IORWF   r0x02, W
0374 6E00      10077         MOVWF   r0x00
0376 C000 FFE9 10078         MOVFF   r0x05, FSR0L
037A C000 FFEA 10079         MOVFF   r0x01, FSR0H
037E C000 FFEF 10080         MOVFF   r0x00, INDF0
0382 10081 _00142_DS_:
0382 CFE4 F000 10082         MOVFF   PREINC1, r0x0c
0386 CFE4 F000 10083         MOVFF   PREINC1, r0x0b
038A CFE4 F000 10084         MOVFF   PREINC1, r0x0a
038E CFE4 F000 10085         MOVFF   PREINC1, r0x09
0392 CFE4 F000 10086         MOVFF   PREINC1, r0x08
0396 CFE4 F000 10087         MOVFF   PREINC1, r0x07
039A CFE4 F000 10088         MOVFF   PREINC1, r0x06
039E CFE4 F000 10089         MOVFF   PREINC1, r0x05
03A2 CFE4 F000 10090         MOVFF   PREINC1, r0x04
03A6 CFE4 F000 10091         MOVFF   PREINC1, r0x03
gpasm-0.13.7 beta               /home/mandon/pinguino32/copie courante/linux/source/main.asm5-29-2011  20:37:50          PAGE 195


LOC  OBJECT CODE     LINE SOURCE TEXT
  VALUE
 
03AA CFE4 F000 10092         MOVFF   PREINC1, r0x02
03AE CFE4 F000 10093         MOVFF   PREINC1, r0x01
03B2 CFE4 F000 10094         MOVFF   PREINC1, r0x00
03B6 CFE4 FFD9 10095         MOVFF   PREINC1, FSR2L
03BA 0012      10096         RETURN  
               10097 
               10098 ; ; Starting pCode block
               10099 S_main__val_empty       code
0000 10100 _val_empty:
               10101 ;       .line   14; /home/mandon/Bureau/validate.c      piececolour = piececolour;
0000 0012      10102         RETURN  
               10103 
               10104 ; ; Starting pCode block
0002 10105 __str_0:
0002 6E28 6C75 10106         DB      0x28, 0x6e, 0x75, 0x6c, 0x6c, 0x29, 0x00
     296C 0000 
               10107 ; ; Starting pCode block
000A 10108 __str_1:
000A 6F6E 2074 10109         DB      0x6e, 0x6f, 0x74, 0x20, 0x79, 0x65, 0x74, 0x20, 0x69, 0x6d, 0x70, 0x6c
     6579 2074 
     6D69 6C70 
0016 6D65 6E65 10110         DB      0x65, 0x6d, 0x65, 0x6e, 0x74, 0x65, 0x64, 0x00, 0x00
     6574 0064 
     0000      
               10111 ; ; Starting pCode block
0020 10112 __str_2:
0020 6325 0000 10113         DB      0x25, 0x63, 0x00
               10114 ; ; Starting pCode block
0024 10115 __str_3:
0024 6425 0000 10116         DB      0x25, 0x64, 0x00
               10117 ; ; Starting pCode block
0028 10118 __str_4:
0028 7825 0000 10119         DB      0x25, 0x78, 0x00
               10120 ; ; Starting pCode block
002C 10121 __str_5:
002C 0A0D 0000 10122         DB      0x0d, 0x0a, 0x00
               10123 ; ; Starting pCode block
0030 10124 __str_6:
0030 2D2D 2D2D 10125         DB      0x2d, 0x2d, 0x2d, 0x2d, 0x2d, 0x2d, 0x2d, 0x2d, 0x2d, 0x2d, 0x2d, 0x2d
     2D2D 2D2D 
     2D2D 2D2D 
003C 2D2D 2D2D 10126         DB      0x2d, 0x2d, 0x2d, 0x2d, 0x2d, 0x2d, 0x2d, 0x2d, 0x2d, 0x2d, 0x2d, 0x2d
     2D2D 2D2D 
     2D2D 2D2D 
0048 2D2D 2D2D 10127         DB      0x2d, 0x2d, 0x2d, 0x2d, 0x2d, 0x2d, 0x2d, 0x2d, 0x2d, 0x0d, 0x0a, 0x00
     2D2D 2D2D 
     0D2D 000A 
               10128 ; ; Starting pCode block
0054 10129 __str_7:
0054 202D 4C50 10130         DB      0x2d, 0x20, 0x50, 0x4c, 0x41, 0x59, 0x20, 0x43, 0x48, 0x45, 0x53, 0x53
     5941 4320 
     4548 5353 
0060 5720 5449 10131         DB      0x20, 0x57, 0x49, 0x54, 0x48, 0x20, 0x59, 0x4f, 0x55, 0x52, 0x20, 0x50
     2048 4F59 
gpasm-0.13.7 beta               /home/mandon/pinguino32/copie courante/linux/source/main.asm5-29-2011  20:37:50          PAGE 196


LOC  OBJECT CODE     LINE SOURCE TEXT
  VALUE
 
     5255 5020 
006C 4E49 5547 10132         DB      0x49, 0x4e, 0x47, 0x55, 0x49, 0x4e, 0x4f, 0x20, 0x2d, 0x0d, 0x0a, 0x00
     4E49 204F 
     0D2D 000A 
               10133 ; ; Starting pCode block
0078 10134 __str_8:
0078 202D 6E69 10135         DB      0x2d, 0x20, 0x69, 0x6e, 0x70, 0x75, 0x74, 0x20, 0x65, 0x78, 0x61, 0x6d
     7570 2074 
     7865 6D61 
0084 6C70 2065 10136         DB      0x70, 0x6c, 0x65, 0x20, 0x3a, 0x20, 0x65, 0x32, 0x65, 0x34, 0x20, 0x20
     203A 3265 
     3465 2020 
0090 2020 2020 10137         DB      0x20, 0x20, 0x20, 0x20, 0x20, 0x20, 0x20, 0x20, 0x2d, 0x0d, 0x0a, 0x00
     2020 2020 
     0D2D 000A 
               10138 ; ; Starting pCode block
009C 10139 __str_9:
009C 6F4A 6575 10140         DB      0x4a, 0x6f, 0x75, 0x65, 0x7a, 0x20, 0x3a, 0x20, 0x00
     207A 203A 
     0000      
               10141 ; ; Starting pCode block
00A6 10142 __str_10:
00A6 6F56 7375 10143         DB      0x56, 0x6f, 0x75, 0x73, 0x20, 0x6a, 0x6f, 0x75, 0x65, 0x7a, 0x20, 0x3a
     6A20 756F 
     7A65 3A20 
00B2 0020      10144         DB      0x20, 0x00
               10145 ; ; Starting pCode block
00B4 10146 __str_11:
00B4 2D20 203E 10147         DB      0x20, 0x2d, 0x3e, 0x20, 0x00
     0000      
               10148 ; ; Starting pCode block
00BA 10149 __str_12:
00BA 0A0D 6C49 10150         DB      0x0d, 0x0a, 0x49, 0x6c, 0x6c, 0x65, 0x67, 0x61, 0x6c, 0x20, 0x6d, 0x6f
     656C 6167 
     206C 6F6D 
00C6 6576 6620 10151         DB      0x76, 0x65, 0x20, 0x66, 0x72, 0x6f, 0x6d, 0x20, 0x74, 0x68, 0x69, 0x73
     6F72 206D 
     6874 7369 
00D2 7020 6569 10152         DB      0x20, 0x70, 0x69, 0x65, 0x63, 0x65, 0x0d, 0x0a, 0x00
     6563 0A0D 
     0000      
               10153 ; ; Starting pCode block
00DC 10154 __str_13:
00DC 2749 206D 10155         DB      0x49, 0x27, 0x6d, 0x20, 0x74, 0x68, 0x69, 0x6e, 0x6b, 0x69, 0x6e, 0x67
     6874 6E69 
     696B 676E 
00E8 2E20 2E2E 10156         DB      0x20, 0x2e, 0x2e, 0x2e, 0x00
     0000      
               10157 ; ; Starting pCode block
00EE 10158 __str_14:
00EE 654A 6A20 10159         DB      0x4a, 0x65, 0x20, 0x6a, 0x6f, 0x75, 0x65, 0x20, 0x3a, 0x20, 0x00
     756F 2065 
     203A 0000 
               10160 ; ; Starting pCode block
gpasm-0.13.7 beta               /home/mandon/pinguino32/copie courante/linux/source/main.asm5-29-2011  20:37:50          PAGE 197


LOC  OBJECT CODE     LINE SOURCE TEXT
  VALUE
 
00FA 10161 __str_15:
00FA 6950 676E 10162         DB      0x50, 0x69, 0x6e, 0x67, 0x75, 0x69, 0x6e, 0x6f, 0x20, 0x6c, 0x6f, 0x73
     6975 6F6E 
     6C20 736F 
0106 2074 202D 10163         DB      0x74, 0x20, 0x2d, 0x20, 0x59, 0x6f, 0x75, 0x20, 0x77, 0x69, 0x6e, 0x21
     6F59 2075 
     6977 216E 
0112 0A0D 0000 10164         DB      0x0d, 0x0a, 0x00
               10165 ; ; Starting pCode block
0116 10166 __str_16:
0116 6557 6C6C 10167         DB      0x57, 0x65, 0x6c, 0x6c, 0x20, 0x64, 0x6f, 0x6e, 0x65, 0x20, 0x6d, 0x79
     6420 6E6F 
     2065 796D 
0122 6620 6972 10168         DB      0x20, 0x66, 0x72, 0x69, 0x65, 0x6e, 0x64, 0x21, 0x0d, 0x0a, 0x00
     6E65 2164 
     0A0D 0000 
               10169 ; ; Starting pCode block
012E 10170 __str_17:
012E 7551 6565 10171         DB      0x51, 0x75, 0x65, 0x65, 0x6e, 0x73, 0x69, 0x64, 0x65, 0x20, 0x43, 0x61
     736E 6469 
     2065 6143 
013A 7473 656C 10172         DB      0x73, 0x74, 0x6c, 0x65, 0x0a, 0x00
     000A      
               10173 ; ; Starting pCode block
0140 10174 __str_18:
0140 694B 676E 10175         DB      0x4b, 0x69, 0x6e, 0x67, 0x73, 0x69, 0x64, 0x65, 0x20, 0x43, 0x61, 0x73
     6973 6564 
     4320 7361 
014C 6C74 0A65 10176         DB      0x74, 0x6c, 0x65, 0x0a, 0x00
     0000      
               10177 ; ; Starting pCode block for Ival
               10178         code
0000 10179 _ligne:
0000 2B20 2B2D 10180         DB      0x20, 0x2b, 0x2d, 0x2b, 0x2d, 0x2b, 0x2d, 0x2b, 0x2d, 0x2b, 0x2d, 0x2b
     2B2D 2B2D 
     2B2D 2B2D 
000C 2B2D 2B2D 10181         DB      0x2d, 0x2b, 0x2d, 0x2b, 0x2d, 0x2b, 0x00
     2B2D 0000 
               10182 ; ; Starting pCode block
0014 10183 __str_19:
0014 0A0D 7325 10184         DB      0x0d, 0x0a, 0x25, 0x73, 0x0d, 0x0a, 0x00
     0A0D 0000 
               10185 ; ; Starting pCode block
001C 10186 __str_20:
001C 2020 2061 10187         DB      0x20, 0x20, 0x61, 0x20, 0x62, 0x20, 0x63, 0x20, 0x64, 0x20, 0x65, 0x20
     2062 2063 
     2064 2065 
0028 2066 2067 10188         DB      0x66, 0x20, 0x67, 0x20, 0x68, 0x0d, 0x0a, 0x0d, 0x0a, 0x00
     0D68 0D0A 
     000A      
               10189 ; ; Starting pCode block
0032 10190 __str_21:
0032 0A0D 6C69 10191         DB      0x0d, 0x0a, 0x69, 0x6c, 0x6c, 0x65, 0x67, 0x61, 0x6c, 0x20, 0x6d, 0x6f
     656C 6167 
gpasm-0.13.7 beta               /home/mandon/pinguino32/copie courante/linux/source/main.asm5-29-2011  20:37:50          PAGE 198


LOC  OBJECT CODE     LINE SOURCE TEXT
  VALUE
 
     206C 6F6D 
003E 6576 0D21 10192         DB      0x76, 0x65, 0x21, 0x0d, 0x0a, 0x00
     000A      
               10193 
               10194 
               10195 ; Statistics:
               10196 ; code size:    20448 (0x4fe0) bytes (15.60%)
               10197 ;               10224 (0x27f0) words
               10198 ; udata size:     314 (0x013a) bytes (17.52%)
               10199 ; access size:     31 (0x001f) bytes
               10200 
               10201 
gpasm-0.13.7 beta               /home/mandon/pinguino32/copie courante/linux/source/main.asm5-29-2011  20:37:50          PAGE 199


SYMBOL TABLE
  LABEL                             VALUE 

BSR                               00000FE0
FSR0H                             00000FEA
FSR0L                             00000FE9
FSR1H                             00000FE2
FSR1L                             00000FE1
FSR2H                             00000FDA
FSR2L                             00000FD9
INDF0                             00000FEF
INTCON                            00000FF2
PCL                               00000FF9
PCLATH                            00000FFA
PCLATU                            00000FFB
PLUSW1                            00000FE3
PLUSW2                            00000FDB
POSTDEC1                          00000FE5
POSTINC0                          00000FEE
POSTINC1                          00000FE6
PREINC1                           00000FE4
PRODH                             00000FF4
PRODL                             00000FF3
STATUS                            00000FD8
TBLPTRL                           00000FF6
TOSH                              00000FFE
TOSL                              00000FFD
TOSU                              00000FFF
WREG                              00000FE8
_00111_DS_                        0000009A
_00112_DS_                        000000AA
_00114_DS_                        000000B2
_00115_DS_                        000000B4
_00117_DS_                        0000011E
_00118_DS_                        00000122
_00122_DS_                        00000216
_00128_DS_                        000002F8
_00132_DS_                        00000318
_00133_DS_                        0000031A
_00137_DS_                        00000310
_00141_DS_                        00000304
_00142_DS_                        00000382
_00160_DS_                        0000010C
_00161_DS_                        00000106
_00165_DS_                        00000196
_00166_DS_                        00000190
_00169_DS_                        00000200
_00170_DS_                        000001F8
_00173_DS_                        00000278
_00174_DS_                        00000272
_00177_DS_                        000002E2
_00178_DS_                        000002DA
_00185_DS_                        00000370
_00186_DS_                        0000036A
_00192_DS_                        00000046
_00193_DS_                        00000056
gpasm-0.13.7 beta               /home/mandon/pinguino32/copie courante/linux/source/main.asm5-29-2011  20:37:50          PAGE 200


LOC  OBJECT CODE     LINE SOURCE TEXT
  VALUE
 
_00200_DS_                        000000DE
_00201_DS_                        000000EE
_00202_DS_                        0000015A
_00203_DS_                        00000160
_00204_DS_                        00000166
_00205_DS_                        0000016C
_00209_DS_                        00000172
_00210_DS_                        00000176
_00211_DS_                        000001EC
_00212_DS_                        000001F2
_00213_DS_                        000001F8
_00214_DS_                        000001FE
_00218_DS_                        00000204
_00219_DS_                        00000208
_00226_DS_                        00000410
_00230_DS_                        00000330
_00232_DS_                        000004D6
_00234_DS_                        000004E0
_00236_DS_                        00000216
_00237_DS_                        0000021A
_00238_DS_                        0000021E
_00239_DS_                        0000023C
_00240_DS_                        00000240
_00241_DS_                        00000244
_00242_DS_                        00000262
_00243_DS_                        00000266
_00244_DS_                        0000026A
_00245_DS_                        00000288
_00246_DS_                        0000028C
_00247_DS_                        00000290
_00248_DS_                        000002A8
_00249_DS_                        000002AC
_00250_DS_                        000002B0
_00251_DS_                        000002C8
_00252_DS_                        000002CC
_00253_DS_                        000002D0
_00254_DS_                        000002E8
_00255_DS_                        000002EC
_00256_DS_                        000002F0
_00257_DS_                        00000308
_00258_DS_                        0000030C
_00259_DS_                        00000310
_00280_DS_                        0000013A
_00282_DS_                        000001CC
_00302_DS_                        000003FE
_00303_DS_                        000003F8
_00306_DS_                        00000458
_00307_DS_                        00000452
_00310_DS_                        000004C0
_00311_DS_                        000004B8
_00317_DS_                        00000046
_00318_DS_                        00000056
_00325_DS_                        00000046
_00326_DS_                        00000056
gpasm-0.13.7 beta               /home/mandon/pinguino32/copie courante/linux/source/main.asm5-29-2011  20:37:50          PAGE 201


LOC  OBJECT CODE     LINE SOURCE TEXT
  VALUE
 
_00333_DS_                        0000004A
_00334_DS_                        0000005A
_00336_DS_                        00000148
_00337_DS_                        0000014E
_00339_DS_                        0000017C
_00342_DS_                        000001AA
_00361_DS_                        000001CE
_00363_DS_                        000001D4
_00367_DS_                        0000011A
_00371_DS_                        000000A8
_00374_DS_                        000001DA
_00385_DS_                        00000090
_00386_DS_                        0000008A
_00393_DS_                        000001B8
_00394_DS_                        000001B0
_00400_DS_                        000001F0
_00402_DS_                        000001F6
_00406_DS_                        00000134
_00410_DS_                        000000B4
_00413_DS_                        000001FC
_00424_DS_                        0000009C
_00425_DS_                        0000008C
_00426_DS_                        00000096
_00427_DS_                        00000094
_00434_DS_                        000001DA
_00435_DS_                        000001D2
_00441_DS_                        000001DE
_00443_DS_                        000001E4
_00447_DS_                        00000118
_00451_DS_                        000000A0
_00454_DS_                        000001EA
_00467_DS_                        00000106
_00468_DS_                        00000100
_00471_DS_                        00000160
_00472_DS_                        0000015A
_00475_DS_                        000001C8
_00476_DS_                        000001C0
_00482_DS_                        0000020C
_00484_DS_                        00000212
_00488_DS_                        00000132
_00492_DS_                        000000A4
_00495_DS_                        00000218
_00508_DS_                        00000120
_00509_DS_                        00000110
_00510_DS_                        0000011A
_00511_DS_                        00000118
_00514_DS_                        0000018A
_00515_DS_                        0000017A
_00516_DS_                        00000184
_00517_DS_                        00000182
_00520_DS_                        000001F6
_00521_DS_                        000001EE
_00527_DS_                        000001D0
_00529_DS_                        000001D6
gpasm-0.13.7 beta               /home/mandon/pinguino32/copie courante/linux/source/main.asm5-29-2011  20:37:50          PAGE 202


LOC  OBJECT CODE     LINE SOURCE TEXT
  VALUE
 
_00532_DS_                        0000011A
_00537_DS_                        0000008A
_00540_DS_                        000001DC
_00552_DS_                        00000108
_00553_DS_                        00000102
_00556_DS_                        00000152
_00557_DS_                        0000014C
_00560_DS_                        000001BA
_00561_DS_                        000001B2
_00567_DS_                        000001D2
_00569_DS_                        000001D8
_00572_DS_                        0000011C
_00577_DS_                        0000008A
_00580_DS_                        000001DE
_00593_DS_                        0000010A
_00594_DS_                        00000104
_00597_DS_                        00000154
_00598_DS_                        0000014E
_00601_DS_                        000001BC
_00602_DS_                        000001B4
_00608_DS_                        000001D0
_00610_DS_                        000001D6
_00613_DS_                        0000011A
_00618_DS_                        0000008A
_00621_DS_                        000001DC
_00633_DS_                        00000108
_00634_DS_                        00000102
_00637_DS_                        00000152
_00638_DS_                        0000014C
_00641_DS_                        000001BA
_00642_DS_                        000001B2
_00648_DS_                        000001CE
_00650_DS_                        000001D4
_00653_DS_                        00000118
_00658_DS_                        0000008A
_00661_DS_                        000001DA
_00672_DS_                        00000106
_00673_DS_                        00000100
_00676_DS_                        00000150
_00677_DS_                        0000014A
_00680_DS_                        000001B8
_00681_DS_                        000001B0
_00687_DS_                        000000A6
_00689_DS_                        000000D8
_00692_DS_                        000000D4
_00698_DS_                        000000FC
_00699_DS_                        00000104
_00703_DS_                        0000010E
_00706_DS_                        000000BC
_00709_DS_                        000000E2
_00710_DS_                        0000011E
_00714_DS_                        00000170
_00718_DS_                        000001C8
_00721_DS_                        00000202
gpasm-0.13.7 beta               /home/mandon/pinguino32/copie courante/linux/source/main.asm5-29-2011  20:37:50          PAGE 203


LOC  OBJECT CODE     LINE SOURCE TEXT
  VALUE
 
_00732_DS_                        00000168
_00734_DS_                        000001B8
_00736_DS_                        00000158
_00739_DS_                        000000AA
_00740_DS_                        000000F4
_00743_DS_                        0000012A
_00744_DS_                        000001D4
_00750_DS_                        0000012A
_00752_DS_                        00000156
_00756_DS_                        000001C0
_00757_DS_                        0000018A
_00761_DS_                        00000244
_00765_DS_                        0000025E
_00766_DS_                        000002A2
_00778_DS_                        000001FE
_00779_DS_                        0000013A
_00780_DS_                        0000013C
_00782_DS_                        000001BA
_00794_DS_                        0000010A
_00798_DS_                        0000023C
_00800_DS_                        000002CE
_00802_DS_                        0000035E
_00804_DS_                        000003EE
_00806_DS_                        0000047E
_00808_DS_                        0000050E
_00810_DS_                        0000059E
_00812_DS_                        00000622
_00815_DS_                        0000066A
_00819_DS_                        00000092
_00821_DS_                        000006A2
_00822_DS_                        000006B0
_00824_DS_                        000006E0
_00826_DS_                        0000012A
_00833_DS_                        000001FA
_00840_DS_                        000000FE
_00857_DS_                        00000186
_00859_DS_                        000000B4
_00861_DS_                        000000E8
_00870_DS_                        000001A8
_00872_DS_                        00000244
_00874_DS_                        000002D6
_00876_DS_                        00000366
_00878_DS_                        000003F6
_00880_DS_                        00000486
_00882_DS_                        00000516
_00884_DS_                        000005A6
_00886_DS_                        0000062A
_00909_DS_                        00000012
_00914_DS_                        00000012
_00923_DS_                        00000022
_00924_DS_                        00000026
_00926_DS_                        0000004C
_00929_DS_                        0000005A
_00935_DS_                        0000001A
gpasm-0.13.7 beta               /home/mandon/pinguino32/copie courante/linux/source/main.asm5-29-2011  20:37:50          PAGE 204


LOC  OBJECT CODE     LINE SOURCE TEXT
  VALUE
 
_00947_DS_                        00000042
_00968_DS_                        00000004
_00976_DS_                        00000012
_00990_DS_                        00000068
_00991_DS_                        000000B4
_00992_DS_                        00000100
_00993_DS_                        00000144
_00994_DS_                        000001C0
_00995_DS_                        0000023C
_00997_DS_                        000002A4
_01005_DS_                        0000004A
_01007_DS_                        00000052
_01009_DS_                        0000005A
_01046_DS_                        0000007A
_01050_DS_                        00000272
_01054_DS_                        000003FC
_01059_DS_                        00000412
_01061_DS_                        00000590
_01064_DS_                        00000578
_01067_DS_                        000005A2
_01070_DS_                        00000592
_01073_DS_                        000002C0
_01075_DS_                        00000288
_01079_DS_                        00000306
_01083_DS_                        000002F0
_01085_DS_                        0000041A
_01086_DS_                        00000422
_01087_DS_                        000005A4
_01090_DS_                        000004E2
_01091_DS_                        000004D4
_01092_DS_                        000004D8
_01093_DS_                        000004DC
_01101_DS_                        00000286
_01120_DS_                        00000122
_01121_DS_                        00000156
_01122_DS_                        0000014E
_01124_DS_                        000002CA
_01125_DS_                        000002CC
_01130_DS_                        00000394
_01140_DS_                        000004AA
_01142_DS_                        000004C4
_01148_DS_                        000002AA
_01152_DS_                        00000314
_01155_DS_                        000002EE
_01156_DS_                        00000338
_01159_DS_                        000003DC
_01163_DS_                        00000416
_01164_DS_                        00000090
_01167_DS_                        00000110
_01168_DS_                        000003E0
_01172_DS_                        0000016A
_01176_DS_                        00000124
_01178_DS_                        00000444
_01179_DS_                        00000448
gpasm-0.13.7 beta               /home/mandon/pinguino32/copie courante/linux/source/main.asm5-29-2011  20:37:50          PAGE 205


LOC  OBJECT CODE     LINE SOURCE TEXT
  VALUE
 
_01182_DS_                        00000348
_01183_DS_                        00000350
_01184_DS_                        00000360
_01185_DS_                        00000368
_01201_DS_                        000003DE
_01212_DS_                        00000268
_01213_DS_                        00000262
_01216_DS_                        000002C4
_01217_DS_                        000002BE
_01219_DS_                        000002E2
_01220_DS_                        000002DC
_01222_DS_                        00000308
_01223_DS_                        00000302
_01225_DS_                        0000032E
_01226_DS_                        00000328
_01237_DS_                        000000DC
_01239_DS_                        00000284
_01242_DS_                        000001CC
_01244_DS_                        0000028C
_01246_DS_                        000001A0
_01248_DS_                        000002A0
_01250_DS_                        00000338
_01253_DS_                        00000342
_01254_DS_                        00000346
_01268_DS_                        000000BC
_01269_DS_                        000000BE
_01272_DS_                        000001AC
_01273_DS_                        000001D8
_01277_DS_                        00000280
_01282_DS_                        000000B4
_01283_DS_                        000000C2
_01284_DS_                        000000CC
_01285_DS_                        000000D2
_01286_DS_                        0000013A
_01287_DS_                        0000013C
_01290_DS_                        00000050
_01291_DS_                        00000054
_01292_DS_                        00000130
_01293_DS_                        00000134
_01303_DS_                        000000A4
_01313_DS_                        00000218
_01318_DS_                        000002BE
_01319_DS_                        0000035A
_01323_DS_                        000002A2
_01325_DS_                        00000288
_01326_DS_                        000003EC
_01330_DS_                        0000047C
_01332_DS_                        0000008C
_01333_DS_                        00000094
_01334_DS_                        000000A6
_01335_DS_                        000000A8
_01350_DS_                        000000B2
_01352_DS_                        00000184
_01354_DS_                        0000019C
gpasm-0.13.7 beta               /home/mandon/pinguino32/copie courante/linux/source/main.asm5-29-2011  20:37:50          PAGE 206


LOC  OBJECT CODE     LINE SOURCE TEXT
  VALUE
 
_01361_DS_                        00000224
_01366_DS_                        000002AA
_01371_DS_                        00000400
_01372_DS_                        00000440
_01373_DS_                        00000438
_01374_DS_                        00000466
_01375_DS_                        00000460
_01381_DS_                        0000006C
_01383_DS_                        0000009A
_01388_DS_                        0000006E
_01392_DS_                        0000005A
_01394_DS_                        0000008E
_01395_DS_                        00000096
_01396_DS_                        00000098
_01399_DS_                        000000D2
_01418_DS_                        00000114
_01419_DS_                        00000120
_01420_DS_                        0000012C
_01421_DS_                        00000138
_01422_DS_                        00000144
_01423_DS_                        00000150
_01424_DS_                        0000015C
_01425_DS_                        00000168
_01426_DS_                        00000174
_01427_DS_                        00000180
_01428_DS_                        0000018C
_01429_DS_                        00000198
_01430_DS_                        000001A4
_01431_DS_                        000001AE
_01432_DS_                        00000074
_01435_DS_                        000001BC
_01436_DS_                        00000044
_01439_DS_                        000001FA
_01451_DS_                        000000D8
_01456_DS_                        00000130
_01457_DS_                        00000148
_01459_DS_                        0000023C
_01462_DS_                        00000236
_01463_DS_                        0000023A
_01468_DS_                        000001E6
_01469_DS_                        000001E8
_01470_DS_                        00000220
_01471_DS_                        00000222
_01477_DS_                        00000010
_11491_DS_                        00000270
_21492_DS_                        00000576
_31493_DS_                        00000590
_ADCON0                           00000000
_ADCON0bits                       00000000
_ADCON1                           00000000
_ADCON1bits                       00000000
_ADCON2                           00000000
_ADCON2bits                       00000000
_ADRESH                           00000000
gpasm-0.13.7 beta               /home/mandon/pinguino32/copie courante/linux/source/main.asm5-29-2011  20:37:50          PAGE 207


LOC  OBJECT CODE     LINE SOURCE TEXT
  VALUE
 
_ADRESL                           00000000
_BAUDCON                          00000000
_BAUDCONbits                      00000000
_BSR                              00000000
_BSRbits                          00000000
_CCP1CON                          00000000
_CCP1CONbits                      00000000
_CCP2CON                          00000000
_CCP2CONbits                      00000000
_CCPR1H                           00000000
_CCPR1L                           00000000
_CCPR2H                           00000000
_CCPR2L                           00000000
_CMCON                            00000000
_CMCONbits                        00000000
_CVRCON                           00000000
_CVRCONbits                       00000000
_ECCP1AS                          00000000
_ECCP1ASbits                      00000000
_ECCP1DEL                         00000000
_ECCP1DELbits                     00000000
_EEADR                            00000000
_EECON1                           00000000
_EECON1bits                       00000000
_EECON2                           00000000
_EEDATA                           00000000
_FSR0H                            00000000
_FSR0Hbits                        00000000
_FSR0L                            00000000
_FSR1H                            00000000
_FSR1Hbits                        00000000
_FSR1L                            00000000
_FSR2H                            00000000
_FSR2Hbits                        00000000
_FSR2L                            00000000
_HLVDCON                          00000000
_HLVDCONbits                      00000000
_INDF0                            00000000
_INDF1                            00000000
_INDF2                            00000000
_INTCON                           00000000
_INTCON2                          00000000
_INTCON2bits                      00000000
_INTCON3                          00000000
_INTCON3bits                      00000000
_INTCONbits                       00000000
_IPR1                             00000000
_IPR1bits                         00000000
_IPR2                             00000000
_IPR2bits                         00000000
_LATA                             00000000
_LATAbits                         00000000
_LATB                             00000000
_LATBbits                         00000000
gpasm-0.13.7 beta               /home/mandon/pinguino32/copie courante/linux/source/main.asm5-29-2011  20:37:50          PAGE 208


LOC  OBJECT CODE     LINE SOURCE TEXT
  VALUE
 
_LATC                             00000000
_LATCbits                         00000000
_LATD                             00000000
_LATDbits                         00000000
_LATE                             00000000
_LATEbits                         00000000
_OSCCON                           00000000
_OSCCONbits                       00000000
_OSCTUNE                          00000000
_OSCTUNEbits                      00000000
_PCL                              00000000
_PCLATH                           00000000
_PCLATHbits                       00000000
_PCLATU                           00000000
_PCLATUbits                       00000000
_PIE1                             00000000
_PIE1bits                         00000000
_PIE2                             00000000
_PIE2bits                         00000000
_PIR1                             00000000
_PIR1bits                         00000000
_PIR2                             00000000
_PIR2bits                         00000000
_PLUSW0                           00000000
_PLUSW1                           00000000
_PLUSW2                           00000000
_PORTA                            00000000
_PORTAbits                        00000000
_PORTB                            00000000
_PORTBbits                        00000000
_PORTC                            00000000
_PORTCbits                        00000000
_PORTD                            00000000
_PORTDbits                        00000000
_PORTE                            00000000
_PORTEbits                        00000000
_POSTDEC0                         00000000
_POSTDEC1                         00000000
_POSTDEC2                         00000000
_POSTINC0                         00000000
_POSTINC1                         00000000
_POSTINC2                         00000000
_PR2                              00000000
_PREINC0                          00000000
_PREINC1                          00000000
_PREINC2                          00000000
_PRODH                            00000000
_PRODL                            00000000
_RCON                             00000000
_RCONbits                         00000000
_RCREG                            00000000
_RCSTA                            00000000
_RCSTAbits                        00000000
_SPBRG                            00000000
gpasm-0.13.7 beta               /home/mandon/pinguino32/copie courante/linux/source/main.asm5-29-2011  20:37:50          PAGE 209


LOC  OBJECT CODE     LINE SOURCE TEXT
  VALUE
 
_SPBRGH                           00000000
_SPPCFG                           00000000
_SPPCFGbits                       00000000
_SPPCON                           00000000
_SPPCONbits                       00000000
_SPPDATA                          00000000
_SPPDATAbits                      00000000
_SPPEPS                           00000000
_SPPEPSbits                       00000000
_SSPADD                           00000000
_SSPBUF                           00000000
_SSPCON1                          00000000
_SSPCON1bits                      00000000
_SSPCON2                          00000000
_SSPCON2bits                      00000000
_SSPSTAT                          00000000
_SSPSTATbits                      00000000
_STATUS                           00000000
_STATUSbits                       00000000
_STKPTR                           00000000
_STKPTRbits                       00000000
_T0CON                            00000000
_T0CONbits                        00000000
_T1CON                            00000000
_T1CONbits                        00000000
_T2CON                            00000000
_T2CONbits                        00000000
_T3CON                            00000000
_T3CONbits                        00000000
_TABLAT                           00000000
_TBLPTRH                          00000000
_TBLPTRL                          00000000
_TBLPTRU                          00000000
_TBLPTRUbits                      00000000
_TMR0H                            00000000
_TMR0L                            00000000
_TMR1H                            00000000
_TMR1L                            00000000
_TMR2                             00000000
_TMR3H                            00000000
_TMR3L                            00000000
_TOSH                             00000000
_TOSL                             00000000
_TOSU                             00000000
_TOSUbits                         00000000
_TRISA                            00000000
_TRISAbits                        00000000
_TRISB                            00000000
_TRISBbits                        00000000
_TRISC                            00000000
_TRISCbits                        00000000
_TRISD                            00000000
_TRISDbits                        00000000
_TRISE                            00000000
gpasm-0.13.7 beta               /home/mandon/pinguino32/copie courante/linux/source/main.asm5-29-2011  20:37:50          PAGE 210


LOC  OBJECT CODE     LINE SOURCE TEXT
  VALUE
 
_TRISEbits                        00000000
_TXREG                            00000000
_TXSTA                            00000000
_TXSTAbits                        00000000
_UADDR                            00000000
_UADDRbits                        00000000
_UCFG                             00000000
_UCFGbits                         00000000
_UCON                             00000000
_UCONbits                         00000000
_UEIE                             00000000
_UEIEbits                         00000000
_UEIR                             00000000
_UEIRbits                         00000000
_UEP0                             00000000
_UEP0bits                         00000000
_UEP1                             00000000
_UEP10                            00000000
_UEP10bits                        00000000
_UEP11                            00000000
_UEP11bits                        00000000
_UEP12                            00000000
_UEP12bits                        00000000
_UEP13                            00000000
_UEP13bits                        00000000
_UEP14                            00000000
_UEP14bits                        00000000
_UEP15                            00000000
_UEP15bits                        00000000
_UEP1bits                         00000000
_UEP2                             00000000
_UEP2bits                         00000000
_UEP3                             00000000
_UEP3bits                         00000000
_UEP4                             00000000
_UEP4bits                         00000000
_UEP5                             00000000
_UEP5bits                         00000000
_UEP6                             00000000
_UEP6bits                         00000000
_UEP7                             00000000
_UEP7bits                         00000000
_UEP8                             00000000
_UEP8bits                         00000000
_UEP9                             00000000
_UEP9bits                         00000000
_UFRMH                            00000000
_UFRMHbits                        00000000
_UFRML                            00000000
_UFRMLbits                        00000000
_UIE                              00000000
_UIEbits                          00000000
_UIR                              00000000
_UIRbits                          00000000
gpasm-0.13.7 beta               /home/mandon/pinguino32/copie courante/linux/source/main.asm5-29-2011  20:37:50          PAGE 211


LOC  OBJECT CODE     LINE SOURCE TEXT
  VALUE
 
_USTAT                            00000000
_USTATbits                        00000000
_WDTCON                           00000000
_WDTCONbits                       00000000
_WREG                             00000000
__18F2550                         00000001
__divuint                         00000000
__divulong                        00000000
__gptrget1                        00000000
__gptrget2                        00000000
__gptrget3                        00000000
__gptrput1                        00000000
__gptrput3                        00000000
__modsint                         00000000
__moduint                         00000000
__mulint                          00000000
__mullong                         00000000
__str_0                           00000002
__str_1                           0000000A
__str_10                          000000A6
__str_11                          000000B4
__str_12                          000000BA
__str_13                          000000DC
__str_14                          000000EE
__str_15                          000000FA
__str_16                          00000116
__str_17                          0000012E
__str_18                          00000140
__str_19                          00000014
__str_2                           00000020
__str_20                          0000001C
__str_21                          00000032
__str_3                           00000024
__str_4                           00000028
__str_5                           0000002C
__str_6                           00000030
__str_7                           00000054
__str_8                           00000078
__str_9                           0000009C
_currcapturemask                  00000000
_currmovemask                     00000000
_draw_chessboard                  00000000
_draw_move                        00000000
_epap_in                          00000000
_epap_out                         00000000
_epapin_init                      00000000
_epapout_init                     00000000
_getbestpiecemove                 00000000
_getbestpiecemove_to_1_1          00000000
_high_priority_isr                00002020
_init_board                       00000000
_lastmove                         00000000
_ligne                            00000000
_loop                             00000000
gpasm-0.13.7 beta               /home/mandon/pinguino32/copie courante/linux/source/main.asm5-29-2011  20:37:50          PAGE 212


LOC  OBJECT CODE     LINE SOURCE TEXT
  VALUE
 
_loop_cpufrom_1_1                 00000000
_loop_cputo_1_1                   00000000
_loop_from_1_1                    00000000
_loop_to_1_1                      00000000
_low_priority_isr                 00004000
_movecount                        00000000
_movetype                         00000000
_opp_king_pos                     00000000
_piecerate                        00000000
_pinguino_main                    00000000
_pprint                           00000000
_pprint_scr_1_1                   00000000
_pprintchar                       00000000
_pprintf                          00000000
_pprinti                          00000000
_pprinti_print_buf_1_1            00000000
_pprints                          00000000
_pputchar                         00000000
_psprintf                         00000000
_psprintf_out_1_1                 00000000
_rate                             00000000
_rate_move                        00000000
_read_movement                    00000000
_rpointer                         00000000
_rx                               00000000
_serial_available                 00000000
_serial_begin                     00000000
_serial_flush                     00000000
_serial_getkey                    00000000
_serial_getstring                 00000000
_serial_getstring_buffer_1_1      00000000
_serial_interrupt                 00000000
_serial_printf                    00000000
_serial_putchar                   00000000
_serial_read                      00000000
_serial_write                     00000000
_setup                            00000000
_test_singlemove                  00000000
_test_singlemove_opp_pos_1_1      00000000
_uitoa                            00000000
_updatekingpos                    00000000
_usb_active_alt_setting           00000000
_usb_active_cfg                   00000000
_usb_device_state                 00000000
_val_bishop                       00000000
_val_east                         00000000
_val_empty                        00000000
_val_king                         00000000
_val_knight                       00000000
_val_knight_move_1_1              00000000
_val_north                        00000000
_val_northeast                    00000000
_val_northwest                    00000000
_val_pawn                         00000000
gpasm-0.13.7 beta               /home/mandon/pinguino32/copie courante/linux/source/main.asm5-29-2011  20:37:50          PAGE 213


LOC  OBJECT CODE     LINE SOURCE TEXT
  VALUE
 
_val_queen                        00000000
_val_rook                         00000000
_val_south                        00000000
_val_southeast                    00000000
_val_southwest                    00000000
_val_west                         00000000
_validate                         00000000
_wpointer                         00000000
r0x00                             00000000
r0x01                             00000001
r0x02                             00000002
r0x03                             00000003
r0x04                             00000004
r0x05                             00000005
r0x06                             00000006
r0x07                             00000007
r0x08                             00000008
r0x09                             00000009
r0x0a                             0000000A
r0x0b                             0000000B
r0x0c                             0000000C
r0x0d                             0000000D
r0x0e                             0000000E
r0x0f                             0000000F
r0x10                             00000010
r0x11                             00000011
r0x12                             00000012
r0x13                             00000013
r0x14                             00000014
r0x15                             00000015
r0x16                             00000016
r0x17                             00000017
r0x18                             00000018
r0x19                             00000019
r0x1a                             0000001A
r0x1b                             0000001B
r0x1c                             0000001C
r0x1d                             0000001D
r0x1e                             0000001E


Errors   :     385
Warnings :       0 reported,       0 suppressed
Messages :       0 reported,       0 suppressed

