gpasm-0.14.2 #774 (Oct 23 2012)  obj/main.asm   12-18-2012  18:50:51        PAGE  1


LOC  OBJECT CODE     LINE SOURCE TEXT
  VALUE

                      00001 ;--------------------------------------------------------
                      00002 ; File Created by SDCC : free open source ANSI-C Compiler
                      00003 ; Version 3.2.1 #8163 (Oct 23 2012) (Linux)
                      00004 ; This file was generated Tue Dec 18 18:50:51 2012
                      00005 ;--------------------------------------------------------
                      00006 ; PIC16 port for the Microchip 16-bit core micros
                      00007 ;--------------------------------------------------------
                      00008         list    p=18f25k50
                      00009         radix   dec
                      00010         CONFIG  PLLSEL=PLL3X
                      00011         CONFIG  CFGPLLEN=ON
                      00012         CONFIG  CPUDIV=NOCLKDIV
                      00013         CONFIG  LS48MHZ=SYS24X4
300000 0000           00014         CONFIG  FOSC=INTOSCIO
300000 0000           00015         CONFIG  PCLKEN=ON
300000 0000           00016         CONFIG  FCMEN=OFF
300000 0000           00017         CONFIG  IESO=OFF
                      00018         CONFIG  nPWRTEN=OFF
                      00019         CONFIG  BOREN=SBORDIS
                      00020         CONFIG  BORV=190
                      00021         CONFIG  nLPBOR=OFF
300002 0000           00022         CONFIG  WDTEN=SWON
300002 0000           00023         CONFIG  WDTPS=32768
300004 0000           00024         CONFIG  CCP2MX=RC1
300004 0000           00025         CONFIG  PBADEN=OFF
300004 0000           00026         CONFIG  T3CMX=RC0
300004 0000           00027         CONFIG  SDOMX=RC7
300004 0000           00028         CONFIG  MCLRE=ON
300006 0000           00029         CONFIG  STVREN=ON
300006 0000           00030         CONFIG  LVP=ON
300006 0000           00031         CONFIG  XINST=OFF
                      00032         CONFIG  CP0=OFF
                      00033         CONFIG  CP1=OFF
                      00034         CONFIG  CP2=OFF
                      00035         CONFIG  CP3=OFF
300008 0000           00036         CONFIG  CPB=OFF
300008 0000           00037         CONFIG  CPD=OFF
                      00038         CONFIG  WRT0=OFF
                      00039         CONFIG  WRT1=OFF
                      00040         CONFIG  WRT2=OFF
                      00041         CONFIG  WRT3=OFF
30000A 0000           00042         CONFIG  WRTC=OFF
30000A 0000           00043         CONFIG  WRTB=OFF
30000A 0000           00044         CONFIG  WRTD=OFF
                      00045         CONFIG  EBTR0=OFF
                      00046         CONFIG  EBTR1=OFF
                      00047         CONFIG  EBTR2=OFF
                      00048         CONFIG  EBTR3=OFF
30000C 0000           00049         CONFIG  EBTRB=OFF
                      00050 
                      00051 
                      00052 ;--------------------------------------------------------
                      00053 ; public variables in this module
gpasm-0.14.2 #774 (Oct 23 2012)  obj/main.asm   12-18-2012  18:50:51        PAGE  2


LOC  OBJECT CODE     LINE SOURCE TEXT
  VALUE

                      00054 ;--------------------------------------------------------
                      00055         global  _delay
                      00056         global  _start_write
                      00057         global  _disable_boot
                      00058         global  _usb_configure_endpoints
                      00059         global  _usb_ep_data_out_callback
                      00060         global  _main
                      00061         global  _device_descriptor
                      00062         global  _configuration_descriptor
                      00063 
                      00064 ;--------------------------------------------------------
                      00065 ; extern variables in this module
                      00066 ;--------------------------------------------------------
                      00067         extern  _SRCON1bits
                      00068         extern  _SRCON0bits
                      00069         extern  _CCPTMRSbits
                      00070         extern  _ANSELAbits
                      00071         extern  _ANSELBbits
                      00072         extern  _ANSELCbits
                      00073         extern  _UCONbits
                      00074         extern  _USTATbits
                      00075         extern  _UCFGbits
                      00076         extern  _UADDRbits
                      00077         extern  _UIEbits
                      00078         extern  _UIRbits
                      00079         extern  _UEIEbits
                      00080         extern  _UEIRbits
                      00081         extern  _UFRMLbits
                      00082         extern  _UFRMHbits
                      00083         extern  _UEP0bits
                      00084         extern  _UEP1bits
                      00085         extern  _UEP2bits
                      00086         extern  _UEP3bits
                      00087         extern  _UEP4bits
                      00088         extern  _UEP5bits
                      00089         extern  _UEP6bits
                      00090         extern  _UEP7bits
                      00091         extern  _UEP8bits
                      00092         extern  _UEP9bits
                      00093         extern  _UEP10bits
                      00094         extern  _UEP11bits
                      00095         extern  _UEP12bits
                      00096         extern  _UEP13bits
                      00097         extern  _UEP14bits
                      00098         extern  _UEP15bits
                      00099         extern  _SLRCONbits
                      00100         extern  _VREFCON2bits
                      00101         extern  _VREFCON1bits
                      00102         extern  _VREFCON0bits
                      00103         extern  _PMD0bits
                      00104         extern  _PMD1bits
                      00105         extern  _PORTAbits
                      00106         extern  _PORTBbits
gpasm-0.14.2 #774 (Oct 23 2012)  obj/main.asm   12-18-2012  18:50:51        PAGE  3


LOC  OBJECT CODE     LINE SOURCE TEXT
  VALUE

                      00107         extern  _PORTCbits
                      00108         extern  _PORTEbits
                      00109         extern  _WPUBbits
                      00110         extern  _IOCBbits
                      00111         extern  _IOCCbits
                      00112         extern  _CTMUICONbits
                      00113         extern  _LATAbits
                      00114         extern  _LATBbits
                      00115         extern  _LATCbits
                      00116         extern  _CTMUCON1bits
                      00117         extern  _CTMUCONLbits
                      00118         extern  _CTMUCON0bits
                      00119         extern  _CTMUCONHbits
                      00120         extern  _DDRAbits
                      00121         extern  _TRISAbits
                      00122         extern  _DDRBbits
                      00123         extern  _TRISBbits
                      00124         extern  _DDRCbits
                      00125         extern  _TRISCbits
                      00126         extern  _CCP2CONbits
                      00127         extern  _ECCP2CONbits
                      00128         extern  _CM1CON0bits
                      00129         extern  _CM2CON0bits
                      00130         extern  _CM2CON1bits
                      00131         extern  _OSCTUNEbits
                      00132         extern  _HLVDCONbits
                      00133         extern  _PIE1bits
                      00134         extern  _PIR1bits
                      00135         extern  _IPR1bits
                      00136         extern  _PIE2bits
                      00137         extern  _PIR2bits
                      00138         extern  _IPR2bits
                      00139         extern  _PIE3bits
                      00140         extern  _PIR3bits
                      00141         extern  _IPR3bits
                      00142         extern  _EECON1bits
                      00143         extern  _RCSTA1bits
                      00144         extern  _TXSTA1bits
                      00145         extern  _SPBRG1bits
                      00146         extern  _SPBRGH1bits
                      00147         extern  _T3CONbits
                      00148         extern  _T3GCONbits
                      00149         extern  _ACTCONbits
                      00150         extern  _STCONbits
                      00151         extern  _ECCP1ASbits
                      00152         extern  _ECCP1DELbits
                      00153         extern  _PWM1CONbits
                      00154         extern  _BAUDCON1bits
                      00155         extern  _PSTR1CONbits
                      00156         extern  _T2CONbits
                      00157         extern  _CCP1CONbits
                      00158         extern  _ECCP1CONbits
                      00159         extern  _ADCON2bits
gpasm-0.14.2 #774 (Oct 23 2012)  obj/main.asm   12-18-2012  18:50:51        PAGE  4


LOC  OBJECT CODE     LINE SOURCE TEXT
  VALUE

                      00160         extern  _ADCON1bits
                      00161         extern  _ADCON0bits
                      00162         extern  _SSP1CON2bits
                      00163         extern  _SSPCON2bits
                      00164         extern  _SSP1CONbits
                      00165         extern  _SSP1CON1bits
                      00166         extern  _SSPCONbits
                      00167         extern  _SSP1STATbits
                      00168         extern  _SSPSTATbits
                      00169         extern  _SSP1ADDbits
                      00170         extern  _SSPADDbits
                      00171         extern  _SSP1MSKbits
                      00172         extern  _SSPMSKbits
                      00173         extern  _SSP1CON3bits
                      00174         extern  _SSPCON3bits
                      00175         extern  _T1GCONbits
                      00176         extern  _T1CONbits
                      00177         extern  _RCONbits
                      00178         extern  _WDTCONbits
                      00179         extern  _OSCCON2bits
                      00180         extern  _OSCCONbits
                      00181         extern  _T0CONbits
                      00182         extern  _STATUSbits
                      00183         extern  _INTCON3bits
                      00184         extern  _INTCON2bits
                      00185         extern  _INTCONbits
                      00186         extern  _STKPTRbits
                      00187         extern  _SetupPacket
                      00188         extern  _controlTransferBuffer
                      00189         extern  _bootCmd
                      00190         extern  _outPtr
                      00191         extern  _inPtr
                      00192         extern  _wCount
                      00193         extern  _deviceState
                      00194         extern  _selfPowered
                      00195         extern  _currentConfiguration
                      00196         extern  _ep_bdt
                      00197         extern  _SRCON1
                      00198         extern  _SRCON0
                      00199         extern  _CCPTMRS
                      00200         extern  _VREGCON
                      00201         extern  _ANSELA
                      00202         extern  _ANSELB
                      00203         extern  _ANSELC
                      00204         extern  _UCON
                      00205         extern  _USTAT
                      00206         extern  _UCFG
                      00207         extern  _UADDR
                      00208         extern  _UIE
                      00209         extern  _UIR
                      00210         extern  _UEIE
                      00211         extern  _UEIR
                      00212         extern  _UFRM
gpasm-0.14.2 #774 (Oct 23 2012)  obj/main.asm   12-18-2012  18:50:51        PAGE  5


LOC  OBJECT CODE     LINE SOURCE TEXT
  VALUE

                      00213         extern  _UFRML
                      00214         extern  _UFRMH
                      00215         extern  _UEP0
                      00216         extern  _UEP1
                      00217         extern  _UEP2
                      00218         extern  _UEP3
                      00219         extern  _UEP4
                      00220         extern  _UEP5
                      00221         extern  _UEP6
                      00222         extern  _UEP7
                      00223         extern  _UEP8
                      00224         extern  _UEP9
                      00225         extern  _UEP10
                      00226         extern  _UEP11
                      00227         extern  _UEP12
                      00228         extern  _UEP13
                      00229         extern  _UEP14
                      00230         extern  _UEP15
                      00231         extern  _SLRCON
                      00232         extern  _VREFCON2
                      00233         extern  _VREFCON1
                      00234         extern  _VREFCON0
                      00235         extern  _PMD0
                      00236         extern  _PMD1
                      00237         extern  _PORTA
                      00238         extern  _PORTB
                      00239         extern  _PORTC
                      00240         extern  _PORTE
                      00241         extern  _WPUB
                      00242         extern  _IOCB
                      00243         extern  _IOCC
                      00244         extern  _CTMUICON
                      00245         extern  _LATA
                      00246         extern  _LATB
                      00247         extern  _LATC
                      00248         extern  _CTMUCON1
                      00249         extern  _CTMUCONL
                      00250         extern  _CTMUCON0
                      00251         extern  _CTMUCONH
                      00252         extern  _CCPR2
                      00253         extern  _CCPR2L
                      00254         extern  _CCPR2H
                      00255         extern  _DDRA
                      00256         extern  _TRISA
                      00257         extern  _DDRB
                      00258         extern  _TRISB
                      00259         extern  _DDRC
                      00260         extern  _TRISC
                      00261         extern  _CCP2CON
                      00262         extern  _ECCP2CON
                      00263         extern  _CM1CON0
                      00264         extern  _CM2CON0
                      00265         extern  _CM2CON1
gpasm-0.14.2 #774 (Oct 23 2012)  obj/main.asm   12-18-2012  18:50:51        PAGE  6


LOC  OBJECT CODE     LINE SOURCE TEXT
  VALUE

                      00266         extern  _OSCTUNE
                      00267         extern  _HLVDCON
                      00268         extern  _PIE1
                      00269         extern  _PIR1
                      00270         extern  _IPR1
                      00271         extern  _PIE2
                      00272         extern  _PIR2
                      00273         extern  _IPR2
                      00274         extern  _PIE3
                      00275         extern  _PIR3
                      00276         extern  _IPR3
                      00277         extern  _EECON1
                      00278         extern  _EECON2
                      00279         extern  _EEDATA
                      00280         extern  _EEADR
                      00281         extern  _RCSTA1
                      00282         extern  _TXSTA1
                      00283         extern  _TXREG1
                      00284         extern  _RCREG1
                      00285         extern  _SPBRG1
                      00286         extern  _SPBRGH1
                      00287         extern  _T3CON
                      00288         extern  _TMR3
                      00289         extern  _TMR3L
                      00290         extern  _TMR3H
                      00291         extern  _T3GCON
                      00292         extern  _ACTCON
                      00293         extern  _STCON
                      00294         extern  _ECCP1AS
                      00295         extern  _ECCP1DEL
                      00296         extern  _PWM1CON
                      00297         extern  _BAUDCON1
                      00298         extern  _PSTR1CON
                      00299         extern  _T2CON
                      00300         extern  _PR2
                      00301         extern  _TMR2
                      00302         extern  _CCP1CON
                      00303         extern  _ECCP1CON
                      00304         extern  _CCPR1
                      00305         extern  _CCPR1L
                      00306         extern  _CCPR1H
                      00307         extern  _ADCON2
                      00308         extern  _ADCON1
                      00309         extern  _ADCON0
                      00310         extern  _ADRESL
                      00311         extern  _ADRESH
                      00312         extern  _SSP1CON2
                      00313         extern  _SSPCON2
                      00314         extern  _SSP1CON
                      00315         extern  _SSP1CON1
                      00316         extern  _SSPCON
                      00317         extern  _SSP1STAT
                      00318         extern  _SSPSTAT
gpasm-0.14.2 #774 (Oct 23 2012)  obj/main.asm   12-18-2012  18:50:51        PAGE  7


LOC  OBJECT CODE     LINE SOURCE TEXT
  VALUE

                      00319         extern  _SSP1ADD
                      00320         extern  _SSPADD
                      00321         extern  _SSP1BUF
                      00322         extern  _SSPBUF
                      00323         extern  _SSP1MSK
                      00324         extern  _SSPMSK
                      00325         extern  _SSP1CON3
                      00326         extern  _SSPCON3
                      00327         extern  _T1GCON
                      00328         extern  _T1CON
                      00329         extern  _TMR1
                      00330         extern  _TMR1L
                      00331         extern  _TMR1H
                      00332         extern  _RCON
                      00333         extern  _WDTCON
                      00334         extern  _OSCCON2
                      00335         extern  _OSCCON
                      00336         extern  _T0CON
                      00337         extern  _TMR0
                      00338         extern  _TMR0L
                      00339         extern  _TMR0H
                      00340         extern  _STATUS
                      00341         extern  _FSR2L
                      00342         extern  _FSR2H
                      00343         extern  _PLUSW2
                      00344         extern  _PREINC2
                      00345         extern  _POSTDEC2
                      00346         extern  _POSTINC2
                      00347         extern  _INDF2
                      00348         extern  _BSR
                      00349         extern  _FSR1L
                      00350         extern  _FSR1H
                      00351         extern  _PLUSW1
                      00352         extern  _PREINC1
                      00353         extern  _POSTDEC1
                      00354         extern  _POSTINC1
                      00355         extern  _INDF1
                      00356         extern  _WREG
                      00357         extern  _FSR0L
                      00358         extern  _FSR0H
                      00359         extern  _PLUSW0
                      00360         extern  _PREINC0
                      00361         extern  _POSTDEC0
                      00362         extern  _POSTINC0
                      00363         extern  _INDF0
                      00364         extern  _INTCON3
                      00365         extern  _INTCON2
                      00366         extern  _INTCON
                      00367         extern  _PROD
                      00368         extern  _PRODL
                      00369         extern  _PRODH
                      00370         extern  _TABLAT
                      00371         extern  _TBLPTR
gpasm-0.14.2 #774 (Oct 23 2012)  obj/main.asm   12-18-2012  18:50:51        PAGE  8


LOC  OBJECT CODE     LINE SOURCE TEXT
  VALUE

                      00372         extern  _TBLPTRL
                      00373         extern  _TBLPTRH
                      00374         extern  _TBLPTRU
                      00375         extern  _PC
                      00376         extern  _PCL
                      00377         extern  _PCLATH
                      00378         extern  _PCLATU
                      00379         extern  _STKPTR
                      00380         extern  _TOS
                      00381         extern  _TOSL
                      00382         extern  _TOSH
                      00383         extern  _TOSU
                      00384         extern  _EnableUSBModule
                      00385         extern  _ProcessUSBTransactions
                      00386 
                      00387 ;--------------------------------------------------------
                      00388 ;       Equates to used internal registers
                      00389 ;--------------------------------------------------------
  00000FD8            00390 STATUS  equ     0xfd8
  00000FE9            00391 FSR0L   equ     0xfe9
  00000FEA            00392 FSR0H   equ     0xfea
  00000FE1            00393 FSR1L   equ     0xfe1
  00000FD9            00394 FSR2L   equ     0xfd9
  00000FEF            00395 INDF0   equ     0xfef
  00000FE5            00396 POSTDEC1        equ     0xfe5
  00000FE4            00397 PREINC1 equ     0xfe4
  00000FDB            00398 PLUSW2  equ     0xfdb
  00000FF3            00399 PRODL   equ     0xff3
  00000FF4            00400 PRODH   equ     0xff4
                      00401 
                      00402 
                      00403 ; Internal registers
                      00404 .registers      udata_ovr       0x0000
000000                00405 r0x00   res     1
000001                00406 r0x01   res     1
000002                00407 r0x02   res     1
000003                00408 r0x03   res     1
000004                00409 r0x04   res     1
000005                00410 r0x05   res     1
                      00411 
                      00412 udata_main_0    udata
000000                00413 _delay_i_1_6    res     2
                      00414 
                      00415 ;--------------------------------------------------------
                      00416 ; interrupt vector
                      00417 ;--------------------------------------------------------
                      00418 
                      00419 ;--------------------------------------------------------
                      00420 ; global & static initialisations
                      00421 ;--------------------------------------------------------
                      00422 ; I code from now on!
                      00423 ; ; Starting pCode block
                      00424 S_main__main    code
gpasm-0.14.2 #774 (Oct 23 2012)  obj/main.asm   12-18-2012  18:50:51        PAGE  9


LOC  OBJECT CODE     LINE SOURCE TEXT
  VALUE

000000                00425 _main:
                      00426 ;       .line   386; src/main.c byte t1_count = 0;
000000 6A??           00427         CLRF    r0x00
000002 0E70           00428         movlw 0x70 ; 0b01110000 : 111 = HFINTOSC (16 MHz)
000004 6E??           00429         movwf _OSCCON ; enable the 16MHz internal clock
000006                00430 wait_hfintosc:
000006 A4??           00431         btfss _OSCCON, 2 ; HFIOFS: HFINTOSC Frequency Stable bit
000008 D???           00432         bra wait_hfintosc ; wait HFINTOSC frequency is stable (HFIOFS=1)
00000A 6A??           00433         clrf _ANSELA ; all I/O to Digital mode
00000C 6A??           00434         clrf _ANSELB ; all I/O to Digital mode
00000E 6A??           00435         clrf _ANSELC ; all I/O to Digital mode
000010 98??           00436         bcf _TRISA, 4 ; led output
000012 88??           00437         bsf _LATA, 4 ; led on
                      00438         ;bcf _PIR1, 0 ; PIR1bits.TMR1IF = 0;
000014 0E31           00439         movlw b'00110001' ; prescaler 8 (0b11)
000016 6E??           00440         movwf _T1CON ; timer 1 on,
                      00441         ;bsf _INTCON, 6 ; Enable Peripheral interrupt (PEIE=bit6)
                      00442         ;bsf _INTCON, 7 ; Enable General interrupt (GIE=bit7)
000018 6A??           00443         clrf _EECON1 ; EECON1=0
00001A 0E14           00444         movlw b'00010100' ; (0x14) Enable pullup resistors and full speed mode
00001C ????           00445         banksel _UCFG
00001E 6F??           00446         movwf _UCFG, b
                      00447         
                      00448 ;       .line   466; src/main.c EP_IN_BD(1).ADDR = PTR16(&bootCmd);
000020 0E??           00449         MOVLW   LOW(_bootCmd)
000022 6E??           00450         MOVWF   r0x01
000024 0E??           00451         MOVLW   HIGH(_bootCmd)
000026 6E??           00452         MOVWF   r0x02
000028 6A??           00453         CLRF    r0x03
00002A 6A??           00454         CLRF    r0x04
00002C 6A??           00455         CLRF    r0x03
00002E 6A??           00456         CLRF    r0x04
000030 50??           00457         MOVF    r0x01, W
000032 ????           00458         BANKSEL (_ep_bdt + 14)
000034 6F??           00459         MOVWF   (_ep_bdt + 14), B
000036 50??           00460         MOVF    r0x02, W
                      00461 ; removed redundant BANKSEL
000038 6F??           00462         MOVWF   (_ep_bdt + 15), B
00003A ????           00463         BANKSEL _currentConfiguration
                      00464 ;       .line   467; src/main.c currentConfiguration = 0x00;
00003C 6B??           00465         CLRF    _currentConfiguration, B
00003E ????           00466         BANKSEL _deviceState
                      00467 ;       .line   468; src/main.c deviceState = DETACHED;
000040 6B??           00468         CLRF    _deviceState, B
                      00469 ;       .line   471; src/main.c do {
000042 6A??           00470         CLRF    r0x01
000044 6A??           00471         CLRF    r0x02
000046 6A??           00472         CLRF    r0x03
000048 6A??           00473         CLRF    r0x04
00004A                00474 _00220_DS_:
                      00475 ;       .line   472; src/main.c EnableUSBModule();
00004A EC?? F???      00476         CALL    _EnableUSBModule
                      00477 ;       .line   473; src/main.c ProcessUSBTransactions();
gpasm-0.14.2 #774 (Oct 23 2012)  obj/main.asm   12-18-2012  18:50:51        PAGE 10


LOC  OBJECT CODE     LINE SOURCE TEXT
  VALUE

00004E EC?? F???      00478         CALL    _ProcessUSBTransactions
                      00479 ;       .line   474; src/main.c i = i + 1;
000052 2A??           00480         INCF    r0x01, F
000054 E3??           00481         BNC     _00259_DS_
000056 2A??           00482         INCF    r0x02, F
000058 E3??           00483         BNC     _00259_DS_
00005A 4A??           00484         INFSNZ  r0x03, F
00005C 2A??           00485         INCF    r0x04, F
00005E                00486 _00259_DS_:
                      00487 ;       .line   475; src/main.c if (i == 0xFFFFF) break; 
00005E 50??           00488         MOVF    r0x01, W
000060 0AFF           00489         XORLW   0xff
000062 E1??           00490         BNZ     _00261_DS_
000064 50??           00491         MOVF    r0x02, W
000066 0AFF           00492         XORLW   0xff
000068 E1??           00493         BNZ     _00261_DS_
00006A 50??           00494         MOVF    r0x03, W
00006C 0A0F           00495         XORLW   0x0f
00006E E1??           00496         BNZ     _00261_DS_
000070 50??           00497         MOVF    r0x04, W
000072 E0??           00498         BZ      _00222_DS_
000074                00499 _00261_DS_:
000074 ????           00500         BANKSEL _deviceState
                      00501 ;       .line   476; src/main.c } while (deviceState != CONFIGURED);
000076 51??           00502         MOVF    _deviceState, W, B
000078 0A05           00503         XORLW   0x05
00007A E1??           00504         BNZ     _00220_DS_
00007C                00505 _00222_DS_:
00007C ????           00506         BANKSEL _deviceState
                      00507 ;       .line   479; src/main.c if (deviceState != CONFIGURED)
00007E 51??           00508         MOVF    _deviceState, W, B
000080 0A05           00509         XORLW   0x05
000082 E0??           00510         BZ      _00240_DS_
                      00511 ;       .line   481; src/main.c t1_count = BOOT_TIMER_TICS;
000084 0EE5           00512         MOVLW   0xe5
000086 6E??           00513         MOVWF   r0x00
000088 98??           00514         bcf _LATA, 4 ; led on
                      00515         
00008A                00516 _00240_DS_:
                      00517 ;       .line   487; src/main.c while (1)
00008A 6A??           00518         CLRF    r0x01
00008C 6A??           00519         CLRF    r0x02
00008E                00520 _00232_DS_:
                      00521 ;       .line   490; src/main.c ProcessUSBTransactions();
00008E EC?? F???      00522         CALL    _ProcessUSBTransactions
                      00523 ;       .line   493; src/main.c if (led_counter == 0)
000092 50??           00524         MOVF    r0x01, W
000094 10??           00525         IORWF   r0x02, W
000096 E1??           00526         BNZ     _00226_DS_
000098 0E10           00527         movlw 1 << 4 ; toggle
00009A 1A??           00528         xorwf _LATA, f ; the led
                      00529         
00009C                00530 _00226_DS_:
gpasm-0.14.2 #774 (Oct 23 2012)  obj/main.asm   12-18-2012  18:50:51        PAGE 11


LOC  OBJECT CODE     LINE SOURCE TEXT
  VALUE

                      00531 ;       .line   500; src/main.c led_counter++;
00009C 4A??           00532         INFSNZ  r0x01, F
00009E 2A??           00533         INCF    r0x02, F
                      00534 ;       .line   503; src/main.c if (PIR1bits.TMR1IF == 1)
0000A0 6A??           00535         CLRF    r0x03
0000A2 B0??           00536         BTFSC   _PIR1bits, 0
0000A4 2A??           00537         INCF    r0x03, F
0000A6 50??           00538         MOVF    r0x03, W
0000A8 0A01           00539         XORLW   0x01
0000AA E1??           00540         BNZ     _00232_DS_
                      00541 ;       .line   505; src/main.c t1_count++;
0000AC 2A??           00542         INCF    r0x00, F
                      00543 ;       .line   506; src/main.c PIR1bits.TMR1IF = 0;
0000AE 90??           00544         BCF     _PIR1bits, 0
                      00545 ;       .line   509; src/main.c if (t1_count > BOOT_TIMER_TICS)
0000B0 0EE6           00546         MOVLW   0xe6
0000B2 5C??           00547         SUBWF   r0x00, W
0000B4 E3??           00548         BNC     _00232_DS_
                      00549 ;       .line   511; src/main.c disable_boot();
0000B6 EC?? F???      00550         CALL    _disable_boot
0000BA EF00 F006      00551         goto 0x0C00 ; start user app
                      00552         
0000BE D???           00553         BRA     _00232_DS_
0000C0 0012           00554         RETURN  
                      00555 
                      00556 ; ; Starting pCode block
                      00557 S_main__usb_ep_data_out_callback        code
000000                00558 _usb_ep_data_out_callback:
                      00559 ;       .line   193; src/main.c void usb_ep_data_out_callback(char end_point)
000000 CFD9 FFE5      00560         MOVFF   FSR2L, POSTDEC1
000004 CFE1 FFD9      00561         MOVFF   FSR1L, FSR2L
000008 C??? FFE5      00562         MOVFF   r0x00, POSTDEC1
00000C C??? FFE5      00563         MOVFF   r0x01, POSTDEC1
000010 C??? FFE5      00564         MOVFF   r0x02, POSTDEC1
000014 C??? FFE5      00565         MOVFF   r0x03, POSTDEC1
000018 C??? FFE5      00566         MOVFF   r0x04, POSTDEC1
00001C C??? FFE5      00567         MOVFF   r0x05, POSTDEC1
000020 0E02           00568         MOVLW   0x02
000022 CFDB F???      00569         MOVFF   PLUSW2, r0x00
000026 88??           00570         bsf _LATA, 4 ; led on
                      00571         
                      00572 ;       .line   203; src/main.c EP_IN_BD(end_point).Cnt = 0;
000028 44??           00573         RLNCF   r0x00, W
00002A 0BFE           00574         ANDLW   0xfe
00002C 6E??           00575         MOVWF   r0x01
00002E 28??           00576         INCF    r0x01, W
                      00577 ; #     MOVWF   r0x00
                      00578 ; #;;multiply lit val:0x04 by variable r0x00 and store in r0x00
                      00579 ; #     MOVF    r0x00, W
000030 6E??           00580         MOVWF   r0x00
000032 0D04           00581         MULLW   0x04
000034 50F4           00582         MOVF    PRODH, W
000036 BE??           00583         BTFSC   r0x00, 7
gpasm-0.14.2 #774 (Oct 23 2012)  obj/main.asm   12-18-2012  18:50:51        PAGE 12


LOC  OBJECT CODE     LINE SOURCE TEXT
  VALUE

000038 0804           00584         SUBLW   0x04
00003A 6E??           00585         MOVWF   r0x02
00003C CFF3 F???      00586         MOVFF   PRODL, r0x00
000040 0E??           00587         MOVLW   LOW(_ep_bdt)
000042 24??           00588         ADDWF   r0x00, W
000044 6E??           00589         MOVWF   r0x03
000046 0E??           00590         MOVLW   HIGH(_ep_bdt)
000048 20??           00591         ADDWFC  r0x02, W
00004A 6E??           00592         MOVWF   r0x04
00004C 4A??           00593         INFSNZ  r0x03, F
00004E 2A??           00594         INCF    r0x04, F
000050 C??? FFE9      00595         MOVFF   r0x03, FSR0L
000054 C??? FFEA      00596         MOVFF   r0x04, FSR0H
000058 0E00           00597         MOVLW   0x00
00005A 6EEF           00598         MOVWF   INDF0
                      00599 ;       .line   206; src/main.c TBLPTRU = bootCmd.addru;
00005C C??? F???      00600         MOVFF   (_bootCmd + 4), _TBLPTRU
                      00601 ;       .line   207; src/main.c TBLPTRH = bootCmd.addrh;
000060 C??? F???      00602         MOVFF   (_bootCmd + 3), _TBLPTRH
                      00603 ;       .line   208; src/main.c TBLPTRL = bootCmd.addrl;
000064 C??? F???      00604         MOVFF   (_bootCmd + 2), _TBLPTRL
000068 ????           00605         BANKSEL _bootCmd
                      00606 ;       .line   211; src/main.c if (bootCmd.cmd ==  RESET)
00006A 51??           00607         MOVF    _bootCmd, W, B
00006C 0AFF           00608         XORLW   0xff
00006E E1??           00609         BNZ     _00140_DS_
                      00610 ;       .line   214; src/main.c disable_boot();
000070 EC?? F???      00611         CALL    _disable_boot
000074 EF00 F006      00612         goto 0x0C00 ; start user app
                      00613         
000078 D???           00614         BRA     _00141_DS_
00007A                00615 _00140_DS_:
00007A ????           00616         BANKSEL _bootCmd
                      00617 ;       .line   220; src/main.c else if (bootCmd.cmd == READ_VERSION)
00007C 51??           00618         MOVF    _bootCmd, W, B
00007E E1??           00619         BNZ     _00137_DS_
                      00620 ;       .line   223; src/main.c bootCmd.buffer[2] = MINOR_VERSION;
000080 0E07           00621         MOVLW   0x07
                      00622 ; removed redundant BANKSEL
000082 6F??           00623         MOVWF   (_bootCmd + 2), B
                      00624 ;       .line   224; src/main.c bootCmd.buffer[3] = MAJOR_VERSION;
000084 0E04           00625         MOVLW   0x04
                      00626 ; removed redundant BANKSEL
000086 6F??           00627         MOVWF   (_bootCmd + 3), B
                      00628 ;       .line   226; src/main.c EP_IN_BD(end_point).Cnt = 4;
000088 0E??           00629         MOVLW   LOW(_ep_bdt)
00008A 24??           00630         ADDWF   r0x00, W
00008C 6E??           00631         MOVWF   r0x03
00008E 0E??           00632         MOVLW   HIGH(_ep_bdt)
000090 20??           00633         ADDWFC  r0x02, W
000092 6E??           00634         MOVWF   r0x04
000094 4A??           00635         INFSNZ  r0x03, F
000096 2A??           00636         INCF    r0x04, F
gpasm-0.14.2 #774 (Oct 23 2012)  obj/main.asm   12-18-2012  18:50:51        PAGE 13


LOC  OBJECT CODE     LINE SOURCE TEXT
  VALUE

000098 C??? FFE9      00637         MOVFF   r0x03, FSR0L
00009C C??? FFEA      00638         MOVFF   r0x04, FSR0H
0000A0 0E04           00639         MOVLW   0x04
0000A2 6EEF           00640         MOVWF   INDF0
0000A4 D???           00641         BRA     _00141_DS_
0000A6                00642 _00137_DS_:
0000A6 ????           00643         BANKSEL _bootCmd
                      00644 ;       .line   231; src/main.c else if (bootCmd.cmd == READ_FLASH)
0000A8 51??           00645         MOVF    _bootCmd, W, B
0000AA 0A01           00646         XORLW   0x01
0000AC E1??           00647         BNZ     _00134_DS_
                      00648 ;       .line   234; src/main.c for (counter=0; counter < bootCmd.len; counter++)
0000AE 6A??           00649         CLRF    r0x03
0000B0                00650 _00147_DS_:
0000B0 ????           00651         BANKSEL (_bootCmd + 1)
0000B2 51??           00652         MOVF    (_bootCmd + 1), W, B
0000B4 5C??           00653         SUBWF   r0x03, W
0000B6 E2??           00654         BC      _00150_DS_
0000B8 0009           00655         TBLRD*+ 
                      00656 ;       .line   237; src/main.c bootCmd.xdat[counter] = TABLAT;
0000BA 0E??           00657         MOVLW   LOW(_bootCmd + 5)
0000BC 24??           00658         ADDWF   r0x03, W
0000BE 6E??           00659         MOVWF   r0x04
0000C0 6A??           00660         CLRF    r0x05
0000C2 0E??           00661         MOVLW   HIGH(_bootCmd + 5)
0000C4 22??           00662         ADDWFC  r0x05, F
0000C6 C??? FFE9      00663         MOVFF   r0x04, FSR0L
0000CA C??? FFEA      00664         MOVFF   r0x05, FSR0H
0000CE C??? FFEF      00665         MOVFF   _TABLAT, INDF0
                      00666 ;       .line   234; src/main.c for (counter=0; counter < bootCmd.len; counter++)
0000D2 2A??           00667         INCF    r0x03, F
0000D4 D???           00668         BRA     _00147_DS_
0000D6                00669 _00150_DS_:
                      00670 ;       .line   241; src/main.c EP_IN_BD(end_point).Cnt = 5 + bootCmd.len;
0000D6 0E??           00671         MOVLW   LOW(_ep_bdt)
0000D8 24??           00672         ADDWF   r0x00, W
0000DA 6E??           00673         MOVWF   r0x03
0000DC 0E??           00674         MOVLW   HIGH(_ep_bdt)
0000DE 20??           00675         ADDWFC  r0x02, W
0000E0 6E??           00676         MOVWF   r0x04
0000E2 4A??           00677         INFSNZ  r0x03, F
0000E4 2A??           00678         INCF    r0x04, F
0000E6 0E05           00679         MOVLW   0x05
0000E8 ????           00680         BANKSEL (_bootCmd + 1)
0000EA 25??           00681         ADDWF   (_bootCmd + 1), W, B
0000EC 6E??           00682         MOVWF   r0x05
0000EE C??? FFE9      00683         MOVFF   r0x03, FSR0L
0000F2 C??? FFEA      00684         MOVFF   r0x04, FSR0H
0000F6 C??? FFEF      00685         MOVFF   r0x05, INDF0
0000FA D???           00686         BRA     _00141_DS_
0000FC                00687 _00134_DS_:
0000FC ????           00688         BANKSEL _bootCmd
                      00689 ;       .line   245; src/main.c else if (bootCmd.cmd == WRITE_FLASH)
gpasm-0.14.2 #774 (Oct 23 2012)  obj/main.asm   12-18-2012  18:50:51        PAGE 14


LOC  OBJECT CODE     LINE SOURCE TEXT
  VALUE

0000FE 51??           00690         MOVF    _bootCmd, W, B
000100 0A02           00691         XORLW   0x02
000102 E1??           00692         BNZ     _00131_DS_
                      00693 ;       .line   264; src/main.c for (counter=0; counter < bootCmd.len; counter++)
000104 6A??           00694         CLRF    r0x03
000106                00695 _00151_DS_:
000106 ????           00696         BANKSEL (_bootCmd + 1)
000108 51??           00697         MOVF    (_bootCmd + 1), W, B
00010A 5C??           00698         SUBWF   r0x03, W
00010C E2??           00699         BC      _00154_DS_
                      00700 ;       .line   266; src/main.c TABLAT = bootCmd.xdat[counter];     // present data to table latch
00010E 0E??           00701         MOVLW   LOW(_bootCmd + 5)
000110 24??           00702         ADDWF   r0x03, W
000112 6E??           00703         MOVWF   r0x04
000114 6A??           00704         CLRF    r0x05
000116 0E??           00705         MOVLW   HIGH(_bootCmd + 5)
000118 22??           00706         ADDWFC  r0x05, F
00011A C??? FFE9      00707         MOVFF   r0x04, FSR0L
00011E C??? FFEA      00708         MOVFF   r0x05, FSR0H
000122 CFEF F???      00709         MOVFF   INDF0, _TABLAT
000126 000D           00710         TBLWT*+ 
                      00711 ;       .line   264; src/main.c for (counter=0; counter < bootCmd.len; counter++)
000128 2A??           00712         INCF    r0x03, F
00012A D???           00713         BRA     _00151_DS_
00012C                00714 _00154_DS_:
00012C 000A           00715         TBLRD*- 
                      00716 ;       .line   271; src/main.c EECON1 = 0b10000100; // allows write (WREN=1) in flash (EEPGD=1)
00012E 0E84           00717         MOVLW   0x84
000130 6E??           00718         MOVWF   _EECON1
                      00719 ;       .line   272; src/main.c start_write();
000132 EC?? F???      00720         CALL    _start_write
                      00721 ;       .line   301; src/main.c EP_IN_BD(end_point).Cnt = 1;
000136 0E??           00722         MOVLW   LOW(_ep_bdt)
000138 24??           00723         ADDWF   r0x00, W
00013A 6E??           00724         MOVWF   r0x03
00013C 0E??           00725         MOVLW   HIGH(_ep_bdt)
00013E 20??           00726         ADDWFC  r0x02, W
000140 6E??           00727         MOVWF   r0x04
000142 4A??           00728         INFSNZ  r0x03, F
000144 2A??           00729         INCF    r0x04, F
000146 C??? FFE9      00730         MOVFF   r0x03, FSR0L
00014A C??? FFEA      00731         MOVFF   r0x04, FSR0H
00014E 0E01           00732         MOVLW   0x01
000150 6EEF           00733         MOVWF   INDF0
000152 D???           00734         BRA     _00141_DS_
000154                00735 _00131_DS_:
000154 ????           00736         BANKSEL _bootCmd
                      00737 ;       .line   305; src/main.c else if (bootCmd.cmd ==  ERASE_FLASH)
000156 51??           00738         MOVF    _bootCmd, W, B
000158 0A03           00739         XORLW   0x03
00015A E1??           00740         BNZ     _00141_DS_
                      00741 ;       .line   317; src/main.c EECON1 = 0b10010100; // allows erase (WREN=1, FREE=1) in flash (EEPGD=1)
00015C 0E94           00742         MOVLW   0x94
gpasm-0.14.2 #774 (Oct 23 2012)  obj/main.asm   12-18-2012  18:50:51        PAGE 15


LOC  OBJECT CODE     LINE SOURCE TEXT
  VALUE

00015E 6E??           00743         MOVWF   _EECON1
                      00744 ;       .line   318; src/main.c for (counter=0; counter < bootCmd.len; counter++)
000160 6A??           00745         CLRF    r0x03
000162                00746 _00155_DS_:
000162 ????           00747         BANKSEL (_bootCmd + 1)
000164 51??           00748         MOVF    (_bootCmd + 1), W, B
000166 5C??           00749         SUBWF   r0x03, W
000168 E2??           00750         BC      _00158_DS_
                      00751 ;       .line   320; src/main.c EECON1bits.FREE = 1;    // allow a program memory erase operation
00016A 88??           00752         BSF     _EECON1bits, 4
                      00753 ;       .line   321; src/main.c start_write();
00016C EC?? F???      00754         CALL    _start_write
                      00755 ;       .line   322; src/main.c EECON1bits.FREE = 0;    // inhibit program memory erase operation
000170 98??           00756         BCF     _EECON1bits, 4
000172 0E40           00757         movlw 0x40 ; 0x40 + (TBLPTRL) -> TBLPTRL
000174 26??           00758         addwf _TBLPTRL, 1 ; (W) + (TBLPTRL) -> TBLPTRL
                      00759         ; (C) is affected
000176 0E00           00760         movlw 0x00 ; 0x00 + (TBLPTRH) + (C) -> TBLPTRH
000178 22??           00761         addwfc _TBLPTRH, 1 ; (W) + (TBLPTRH) + (C) -> TBLPTRH
                      00762         
                      00763 ;       .line   318; src/main.c for (counter=0; counter < bootCmd.len; counter++)
00017A 2A??           00764         INCF    r0x03, F
00017C D???           00765         BRA     _00155_DS_
00017E                00766 _00158_DS_:
                      00767 ;       .line   359; src/main.c EP_IN_BD(end_point).Cnt = 1;
00017E 0E??           00768         MOVLW   LOW(_ep_bdt)
000180 24??           00769         ADDWF   r0x00, W
000182 6E??           00770         MOVWF   r0x03
000184 0E??           00771         MOVLW   HIGH(_ep_bdt)
000186 20??           00772         ADDWFC  r0x02, W
000188 6E??           00773         MOVWF   r0x04
00018A 4A??           00774         INFSNZ  r0x03, F
00018C 2A??           00775         INCF    r0x04, F
00018E C??? FFE9      00776         MOVFF   r0x03, FSR0L
000192 C??? FFEA      00777         MOVFF   r0x04, FSR0H
000196 0E01           00778         MOVLW   0x01
000198 6EEF           00779         MOVWF   INDF0
00019A                00780 _00141_DS_:
                      00781 ;       .line   364; src/main.c if (EP_IN_BD(end_point).Cnt > 0)
00019A 0E??           00782         MOVLW   LOW(_ep_bdt)
00019C 26??           00783         ADDWF   r0x00, F
00019E 0E??           00784         MOVLW   HIGH(_ep_bdt)
0001A0 22??           00785         ADDWFC  r0x02, F
0001A2 4A??           00786         INFSNZ  r0x00, F
0001A4 2A??           00787         INCF    r0x02, F
0001A6 C??? FFE9      00788         MOVFF   r0x00, FSR0L
0001AA C??? FFEA      00789         MOVFF   r0x02, FSR0H
0001AE CFEF F???      00790         MOVFF   INDF0, r0x00
0001B2 50??           00791         MOVF    r0x00, W
0001B4 E0??           00792         BZ      _00146_DS_
0001B6 ????           00793         BANKSEL (_ep_bdt + 12)
                      00794 ;       .line   367; src/main.c if (EP_IN_BD(1).Stat.DTS)
0001B8 AD??           00795         BTFSS   (_ep_bdt + 12), 6, B
gpasm-0.14.2 #774 (Oct 23 2012)  obj/main.asm   12-18-2012  18:50:51        PAGE 16


LOC  OBJECT CODE     LINE SOURCE TEXT
  VALUE

0001BA D???           00796         BRA     _00143_DS_
                      00797 ;       .line   368; src/main.c EP_IN_BD(1).Stat.uc = 0b10001000; // UOWN 1 DTS 0 DTSEN 1
0001BC 0E88           00798         MOVLW   0x88
                      00799 ; removed redundant BANKSEL
0001BE 6F??           00800         MOVWF   (_ep_bdt + 12), B
0001C0 D???           00801         BRA     _00146_DS_
0001C2                00802 _00143_DS_:
                      00803 ;       .line   370; src/main.c EP_IN_BD(1).Stat.uc = 0b11001000; // UOWN 1 DTS 1 DTSEN 1
0001C2 0EC8           00804         MOVLW   0xc8
0001C4 ????           00805         BANKSEL (_ep_bdt + 12)
0001C6 6F??           00806         MOVWF   (_ep_bdt + 12), B
                      00807 ; ;multiply lit val:0x04 by variable r0x01 and store in r0x01
0001C8                00808 _00146_DS_:
                      00809 ;       .line   374; src/main.c EP_OUT_BD(end_point).Cnt = EP1_BUFFER_SIZE;
0001C8 50??           00810         MOVF    r0x01, W
0001CA 0D04           00811         MULLW   0x04
0001CC 50F4           00812         MOVF    PRODH, W
0001CE BE??           00813         BTFSC   r0x01, 7
0001D0 0804           00814         SUBLW   0x04
0001D2 6E??           00815         MOVWF   r0x00
0001D4 CFF3 F???      00816         MOVFF   PRODL, r0x01
0001D8 0E??           00817         MOVLW   LOW(_ep_bdt)
0001DA 24??           00818         ADDWF   r0x01, W
0001DC 6E??           00819         MOVWF   r0x02
0001DE 0E??           00820         MOVLW   HIGH(_ep_bdt)
0001E0 20??           00821         ADDWFC  r0x00, W
0001E2 6E??           00822         MOVWF   r0x03
0001E4 4A??           00823         INFSNZ  r0x02, F
0001E6 2A??           00824         INCF    r0x03, F
0001E8 C??? FFE9      00825         MOVFF   r0x02, FSR0L
0001EC C??? FFEA      00826         MOVFF   r0x03, FSR0H
0001F0 0E40           00827         MOVLW   0x40
0001F2 6EEF           00828         MOVWF   INDF0
                      00829 ;       .line   376; src/main.c EP_OUT_BD(end_point).Stat.uc = 0x80;      // UOWN 1
0001F4 0E??           00830         MOVLW   LOW(_ep_bdt)
0001F6 26??           00831         ADDWF   r0x01, F
0001F8 0E??           00832         MOVLW   HIGH(_ep_bdt)
0001FA 22??           00833         ADDWFC  r0x00, F
0001FC C??? FFE9      00834         MOVFF   r0x01, FSR0L
000200 C??? FFEA      00835         MOVFF   r0x00, FSR0H
000204 0E80           00836         MOVLW   0x80
000206 6EEF           00837         MOVWF   INDF0
000208 CFE4 F???      00838         MOVFF   PREINC1, r0x05
00020C CFE4 F???      00839         MOVFF   PREINC1, r0x04
000210 CFE4 F???      00840         MOVFF   PREINC1, r0x03
000214 CFE4 F???      00841         MOVFF   PREINC1, r0x02
000218 CFE4 F???      00842         MOVFF   PREINC1, r0x01
00021C CFE4 F???      00843         MOVFF   PREINC1, r0x00
000220 CFE4 FFD9      00844         MOVFF   PREINC1, FSR2L
000224 0012           00845         RETURN  
                      00846 
                      00847 ; ; Starting pCode block
                      00848 S_main__usb_configure_endpoints code
gpasm-0.14.2 #774 (Oct 23 2012)  obj/main.asm   12-18-2012  18:50:51        PAGE 17


LOC  OBJECT CODE     LINE SOURCE TEXT
  VALUE

000000                00849 _usb_configure_endpoints:
                      00850 ;       .line   177; src/main.c UEP1 = 0b00011110;
000000 0E1E           00851         MOVLW   0x1e
000002 6E??           00852         MOVWF   _UEP1
                      00853 ; #     MOVLW   0x40
                      00854 ; #     MOVWF   (_ep_bdt + 12), B
                      00855 ; #     MOVLW   0x40
                      00856 ;       .line   181; src/main.c EP_IN_BD(1).Stat.uc  = 0b01000000;
000004 0E40           00857         MOVLW   0x40
000006 ????           00858         BANKSEL (_ep_bdt + 12)
                      00859 ;       .line   184; src/main.c EP_OUT_BD(1).Cnt  = EP1_BUFFER_SIZE;
000008 6F??           00860         MOVWF   (_ep_bdt + 12), B
                      00861 ; removed redundant BANKSEL
00000A 6F??           00862         MOVWF   (_ep_bdt + 9), B
                      00863 ;       .line   185; src/main.c EP_OUT_BD(1).ADDR = PTR16(&bootCmd);
00000C 0E??           00864         MOVLW   LOW(_bootCmd)
                      00865 ; removed redundant BANKSEL
00000E 6F??           00866         MOVWF   (_ep_bdt + 10), B
000010 0E??           00867         MOVLW   HIGH(_bootCmd)
                      00868 ; removed redundant BANKSEL
000012 6F??           00869         MOVWF   (_ep_bdt + 11), B
                      00870 ;       .line   187; src/main.c EP_OUT_BD(1).Stat.uc = 0b10000000;
000014 0E80           00871         MOVLW   0x80
                      00872 ; removed redundant BANKSEL
000016 6F??           00873         MOVWF   (_ep_bdt + 8), B
000018 0012           00874         RETURN  
                      00875 
                      00876 ; ; Starting pCode block
                      00877 S_main__disable_boot    code
000000                00878 _disable_boot:
                      00879 ;       .line   156; src/main.c T1CON = 0x00;
000000 6A??           00880         CLRF    _T1CON
                      00881 ;       .line   157; src/main.c UCON = 0x00;
000002 6A??           00882         CLRF    _UCON
                      00883         ;clrf _T1CON ; disable timer 1
                      00884         ;clrf _UCON ; disable USB
000004 88??           00885         bsf _TRISA, 4 ; led input
000006 98??           00886         bcf _LATA, 4 ; led off
                      00887         ;call _delay ; force timeout on USB
                      00888         
                      00889 ;       .line   165; src/main.c delay();
000008 EC?? F???      00890         CALL    _delay
                      00891 ; ; Starting pCode block
                      00892 S_main__start_write     code
000000                00893 _start_write:
                      00894         ;bcf _INTCON, 7 ; INTCONbits.GIE = 0 ; disable interrupts (activated in startup sequence)
000000 0E55           00895         movlw 0x55
000002 6E??           00896         movwf _EECON2 ; EECON2 = 0x55;
000004 0EAA           00897         movlw 0xAA
000006 6E??           00898         movwf _EECON2 ; EECON2 = 0xAA;
000008 82??           00899         bsf _EECON1, 1 ; EECON1bits.WR = 1; start flash/eeprom writing
                      00900         ; CPU stall here for 2ms
                      00901         ;bsf _INTCON, 7 ; INTCONbits.GIE = 1 ; re-enable interrupts
gpasm-0.14.2 #774 (Oct 23 2012)  obj/main.asm   12-18-2012  18:50:51        PAGE 18


LOC  OBJECT CODE     LINE SOURCE TEXT
  VALUE

                      00902         ;nop ; proc. can forget to execute the first operation
                      00903         
00000A 0012           00904         RETURN  
                      00905 
                      00906 ; ; Starting pCode block
                      00907 S_main__delay   code
000000                00908 _delay:
                      00909 ;       .line   92; src/main.c  void delay(void) //__naked
000000 C??? FFE5      00910         MOVFF   r0x00, POSTDEC1
000004 C??? FFE5      00911         MOVFF   r0x01, POSTDEC1
000008 C??? FFE5      00912         MOVFF   r0x02, POSTDEC1
00000C C??? FFE5      00913         MOVFF   r0x03, POSTDEC1
                      00914 ;       .line   95; src/main.c  while(i--);
000010 C??? F???      00915         MOVFF   _delay_i_1_6, r0x00
000014 C??? F???      00916         MOVFF   (_delay_i_1_6 + 1), r0x01
000018                00917 _00105_DS_:
000018 C??? F???      00918         MOVFF   r0x00, r0x02
00001C C??? F???      00919         MOVFF   r0x01, r0x03
000020 0EFF           00920         MOVLW   0xff
000022 26??           00921         ADDWF   r0x00, F
000024 22??           00922         ADDWFC  r0x01, F
000026 50??           00923         MOVF    r0x02, W
000028 10??           00924         IORWF   r0x03, W
00002A E1??           00925         BNZ     _00105_DS_
00002C CFE4 F???      00926         MOVFF   PREINC1, r0x03
000030 CFE4 F???      00927         MOVFF   PREINC1, r0x02
000034 CFE4 F???      00928         MOVFF   PREINC1, r0x01
000038 CFE4 F???      00929         MOVFF   PREINC1, r0x00
00003C 0012           00930         RETURN  
                      00931 
                      00932 ; ; Starting pCode block for Ival
                      00933         code
000000                00934 _device_descriptor:
000000 0112 0200 00FF 00935         DB      0x12, 0x01, 0x00, 0x02, 0xff, 0x00, 0xff, 0x40, 0xd8, 0x04, 0xaa, 0xfe
       40FF 04D8 FEAA 
00000C 0407 0201 0100 00936         DB      0x07, 0x04, 0x01, 0x02, 0x00, 0x01
                      00937 ; ; Starting pCode block for Ival
000012                00938 _configuration_descriptor:
000012 0209 0020 0101 00939         DB      0x09, 0x02, 0x20, 0x00, 0x01, 0x01, 0x00, 0xc0, 0x14, 0x09, 0x04, 0x00
       C000 0914 0004 
00001E 0200 FFFF 00FF 00940         DB      0x00, 0x02, 0xff, 0xff, 0xff, 0x00, 0x07, 0x05, 0x01, 0x02, 0x40, 0x00
       0507 0201 0040 
00002A 0700 8105 4002 00941         DB      0x00, 0x07, 0x05, 0x81, 0x02, 0x40, 0x00, 0x00
       0000           
                      00942 
                      00943 
                      00944 ; Statistics:
                      00945 ; code size:      906 (0x038a) bytes ( 0.69%)
                      00946 ;                 453 (0x01c5) words
                      00947 ; udata size:       2 (0x0002) bytes ( 0.11%)
                      00948 ; access size:      6 (0x0006) bytes
                      00949 
                      00950 
gpasm-0.14.2 #774 (Oct 23 2012)  obj/main.asm   12-18-2012  18:50:51        PAGE 19


LOC  OBJECT CODE     LINE SOURCE TEXT
  VALUE

                      00951         end
gpasm-0.14.2 #774 (Oct 23 2012)  obj/main.asm   12-18-2012  18:50:51        PAGE 20


SYMBOL TABLE
  LABEL                             VALUE

FSR0H                             00000FEA
FSR0L                             00000FE9
FSR1L                             00000FE1
FSR2L                             00000FD9
INDF0                             00000FEF
PLUSW2                            00000FDB
POSTDEC1                          00000FE5
PREINC1                           00000FE4
PRODH                             00000FF4
PRODL                             00000FF3
STATUS                            00000FD8
_00105_DS_                        00000018
_00131_DS_                        00000154
_00134_DS_                        000000FC
_00137_DS_                        000000A6
_00140_DS_                        0000007A
_00141_DS_                        0000019A
_00143_DS_                        000001C2
_00146_DS_                        000001C8
_00147_DS_                        000000B0
_00150_DS_                        000000D6
_00151_DS_                        00000106
_00154_DS_                        0000012C
_00155_DS_                        00000162
_00158_DS_                        0000017E
_00220_DS_                        0000004A
_00222_DS_                        0000007C
_00226_DS_                        0000009C
_00232_DS_                        0000008E
_00240_DS_                        0000008A
_00259_DS_                        0000005E
_00261_DS_                        00000074
_ACTCON                           00000000
_ACTCONbits                       00000000
_ADCON0                           00000000
_ADCON0bits                       00000000
_ADCON1                           00000000
_ADCON1bits                       00000000
_ADCON2                           00000000
_ADCON2bits                       00000000
_ADRESH                           00000000
_ADRESL                           00000000
_ANSELA                           00000000
_ANSELAbits                       00000000
_ANSELB                           00000000
_ANSELBbits                       00000000
_ANSELC                           00000000
_ANSELCbits                       00000000
_BAUDCON1                         00000000
_BAUDCON1bits                     00000000
_BSR                              00000000
_CCP1CON                          00000000
_CCP1CONbits                      00000000
gpasm-0.14.2 #774 (Oct 23 2012)  obj/main.asm   12-18-2012  18:50:51        PAGE 21


SYMBOL TABLE
  LABEL                             VALUE 

_CCP2CON                          00000000
_CCP2CONbits                      00000000
_CCPR1                            00000000
_CCPR1H                           00000000
_CCPR1L                           00000000
_CCPR2                            00000000
_CCPR2H                           00000000
_CCPR2L                           00000000
_CCPTMRS                          00000000
_CCPTMRSbits                      00000000
_CM1CON0                          00000000
_CM1CON0bits                      00000000
_CM2CON0                          00000000
_CM2CON0bits                      00000000
_CM2CON1                          00000000
_CM2CON1bits                      00000000
_CTMUCON0                         00000000
_CTMUCON0bits                     00000000
_CTMUCON1                         00000000
_CTMUCON1bits                     00000000
_CTMUCONH                         00000000
_CTMUCONHbits                     00000000
_CTMUCONL                         00000000
_CTMUCONLbits                     00000000
_CTMUICON                         00000000
_CTMUICONbits                     00000000
_DDRA                             00000000
_DDRAbits                         00000000
_DDRB                             00000000
_DDRBbits                         00000000
_DDRC                             00000000
_DDRCbits                         00000000
_ECCP1AS                          00000000
_ECCP1ASbits                      00000000
_ECCP1CON                         00000000
_ECCP1CONbits                     00000000
_ECCP1DEL                         00000000
_ECCP1DELbits                     00000000
_ECCP2CON                         00000000
_ECCP2CONbits                     00000000
_EEADR                            00000000
_EECON1                           00000000
_EECON1bits                       00000000
_EECON2                           00000000
_EEDATA                           00000000
_EnableUSBModule                  00000000
_FSR0H                            00000000
_FSR0L                            00000000
_FSR1H                            00000000
_FSR1L                            00000000
_FSR2H                            00000000
_FSR2L                            00000000
_HLVDCON                          00000000
gpasm-0.14.2 #774 (Oct 23 2012)  obj/main.asm   12-18-2012  18:50:51        PAGE 22


SYMBOL TABLE
  LABEL                             VALUE 

_HLVDCONbits                      00000000
_INDF0                            00000000
_INDF1                            00000000
_INDF2                            00000000
_INTCON                           00000000
_INTCON2                          00000000
_INTCON2bits                      00000000
_INTCON3                          00000000
_INTCON3bits                      00000000
_INTCONbits                       00000000
_IOCB                             00000000
_IOCBbits                         00000000
_IOCC                             00000000
_IOCCbits                         00000000
_IPR1                             00000000
_IPR1bits                         00000000
_IPR2                             00000000
_IPR2bits                         00000000
_IPR3                             00000000
_IPR3bits                         00000000
_LATA                             00000000
_LATAbits                         00000000
_LATB                             00000000
_LATBbits                         00000000
_LATC                             00000000
_LATCbits                         00000000
_OSCCON                           00000000
_OSCCON2                          00000000
_OSCCON2bits                      00000000
_OSCCONbits                       00000000
_OSCTUNE                          00000000
_OSCTUNEbits                      00000000
_PC                               00000000
_PCL                              00000000
_PCLATH                           00000000
_PCLATU                           00000000
_PIE1                             00000000
_PIE1bits                         00000000
_PIE2                             00000000
_PIE2bits                         00000000
_PIE3                             00000000
_PIE3bits                         00000000
_PIR1                             00000000
_PIR1bits                         00000000
_PIR2                             00000000
_PIR2bits                         00000000
_PIR3                             00000000
_PIR3bits                         00000000
_PLUSW0                           00000000
_PLUSW1                           00000000
_PLUSW2                           00000000
_PMD0                             00000000
_PMD0bits                         00000000
gpasm-0.14.2 #774 (Oct 23 2012)  obj/main.asm   12-18-2012  18:50:51        PAGE 23


SYMBOL TABLE
  LABEL                             VALUE 

_PMD1                             00000000
_PMD1bits                         00000000
_PORTA                            00000000
_PORTAbits                        00000000
_PORTB                            00000000
_PORTBbits                        00000000
_PORTC                            00000000
_PORTCbits                        00000000
_PORTE                            00000000
_PORTEbits                        00000000
_POSTDEC0                         00000000
_POSTDEC1                         00000000
_POSTDEC2                         00000000
_POSTINC0                         00000000
_POSTINC1                         00000000
_POSTINC2                         00000000
_PR2                              00000000
_PREINC0                          00000000
_PREINC1                          00000000
_PREINC2                          00000000
_PROD                             00000000
_PRODH                            00000000
_PRODL                            00000000
_PSTR1CON                         00000000
_PSTR1CONbits                     00000000
_PWM1CON                          00000000
_PWM1CONbits                      00000000
_ProcessUSBTransactions           00000000
_RCON                             00000000
_RCONbits                         00000000
_RCREG1                           00000000
_RCSTA1                           00000000
_RCSTA1bits                       00000000
_SLRCON                           00000000
_SLRCONbits                       00000000
_SPBRG1                           00000000
_SPBRG1bits                       00000000
_SPBRGH1                          00000000
_SPBRGH1bits                      00000000
_SRCON0                           00000000
_SRCON0bits                       00000000
_SRCON1                           00000000
_SRCON1bits                       00000000
_SSP1ADD                          00000000
_SSP1ADDbits                      00000000
_SSP1BUF                          00000000
_SSP1CON                          00000000
_SSP1CON1                         00000000
_SSP1CON1bits                     00000000
_SSP1CON2                         00000000
_SSP1CON2bits                     00000000
_SSP1CON3                         00000000
_SSP1CON3bits                     00000000
gpasm-0.14.2 #774 (Oct 23 2012)  obj/main.asm   12-18-2012  18:50:51        PAGE 24


SYMBOL TABLE
  LABEL                             VALUE 

_SSP1CONbits                      00000000
_SSP1MSK                          00000000
_SSP1MSKbits                      00000000
_SSP1STAT                         00000000
_SSP1STATbits                     00000000
_SSPADD                           00000000
_SSPADDbits                       00000000
_SSPBUF                           00000000
_SSPCON                           00000000
_SSPCON2                          00000000
_SSPCON2bits                      00000000
_SSPCON3                          00000000
_SSPCON3bits                      00000000
_SSPCONbits                       00000000
_SSPMSK                           00000000
_SSPMSKbits                       00000000
_SSPSTAT                          00000000
_SSPSTATbits                      00000000
_STATUS                           00000000
_STATUSbits                       00000000
_STCON                            00000000
_STCONbits                        00000000
_STKPTR                           00000000
_STKPTRbits                       00000000
_SetupPacket                      00000000
_T0CON                            00000000
_T0CONbits                        00000000
_T1CON                            00000000
_T1CONbits                        00000000
_T1GCON                           00000000
_T1GCONbits                       00000000
_T2CON                            00000000
_T2CONbits                        00000000
_T3CON                            00000000
_T3CONbits                        00000000
_T3GCON                           00000000
_T3GCONbits                       00000000
_TABLAT                           00000000
_TBLPTR                           00000000
_TBLPTRH                          00000000
_TBLPTRL                          00000000
_TBLPTRU                          00000000
_TMR0                             00000000
_TMR0H                            00000000
_TMR0L                            00000000
_TMR1                             00000000
_TMR1H                            00000000
_TMR1L                            00000000
_TMR2                             00000000
_TMR3                             00000000
_TMR3H                            00000000
_TMR3L                            00000000
_TOS                              00000000
gpasm-0.14.2 #774 (Oct 23 2012)  obj/main.asm   12-18-2012  18:50:51        PAGE 25


SYMBOL TABLE
  LABEL                             VALUE 

_TOSH                             00000000
_TOSL                             00000000
_TOSU                             00000000
_TRISA                            00000000
_TRISAbits                        00000000
_TRISB                            00000000
_TRISBbits                        00000000
_TRISC                            00000000
_TRISCbits                        00000000
_TXREG1                           00000000
_TXSTA1                           00000000
_TXSTA1bits                       00000000
_UADDR                            00000000
_UADDRbits                        00000000
_UCFG                             00000000
_UCFGbits                         00000000
_UCON                             00000000
_UCONbits                         00000000
_UEIE                             00000000
_UEIEbits                         00000000
_UEIR                             00000000
_UEIRbits                         00000000
_UEP0                             00000000
_UEP0bits                         00000000
_UEP1                             00000000
_UEP10                            00000000
_UEP10bits                        00000000
_UEP11                            00000000
_UEP11bits                        00000000
_UEP12                            00000000
_UEP12bits                        00000000
_UEP13                            00000000
_UEP13bits                        00000000
_UEP14                            00000000
_UEP14bits                        00000000
_UEP15                            00000000
_UEP15bits                        00000000
_UEP1bits                         00000000
_UEP2                             00000000
_UEP2bits                         00000000
_UEP3                             00000000
_UEP3bits                         00000000
_UEP4                             00000000
_UEP4bits                         00000000
_UEP5                             00000000
_UEP5bits                         00000000
_UEP6                             00000000
_UEP6bits                         00000000
_UEP7                             00000000
_UEP7bits                         00000000
_UEP8                             00000000
_UEP8bits                         00000000
_UEP9                             00000000
gpasm-0.14.2 #774 (Oct 23 2012)  obj/main.asm   12-18-2012  18:50:51        PAGE 26


SYMBOL TABLE
  LABEL                             VALUE 

_UEP9bits                         00000000
_UFRM                             00000000
_UFRMH                            00000000
_UFRMHbits                        00000000
_UFRML                            00000000
_UFRMLbits                        00000000
_UIE                              00000000
_UIEbits                          00000000
_UIR                              00000000
_UIRbits                          00000000
_USTAT                            00000000
_USTATbits                        00000000
_VREFCON0                         00000000
_VREFCON0bits                     00000000
_VREFCON1                         00000000
_VREFCON1bits                     00000000
_VREFCON2                         00000000
_VREFCON2bits                     00000000
_VREGCON                          00000000
_WDTCON                           00000000
_WDTCONbits                       00000000
_WPUB                             00000000
_WPUBbits                         00000000
_WREG                             00000000
__18F25K50                        00000001
_bootCmd                          00000000
_configuration_descriptor         00000012
_controlTransferBuffer            00000000
_currentConfiguration             00000000
_delay                            00000000
_delay_i_1_6                      00000000
_deviceState                      00000000
_device_descriptor                00000000
_disable_boot                     00000000
_ep_bdt                           00000000
_inPtr                            00000000
_main                             00000000
_outPtr                           00000000
_selfPowered                      00000000
_start_write                      00000000
_usb_configure_endpoints          00000000
_usb_ep_data_out_callback         00000000
_wCount                           00000000
r0x00                             00000000
r0x01                             00000001
r0x02                             00000002
r0x03                             00000003
r0x04                             00000004
r0x05                             00000005
wait_hfintosc                     00000006

Errors   :     0
Warnings :     0 reported,     0 suppressed
gpasm-0.14.2 #774 (Oct 23 2012)  obj/main.asm   12-18-2012  18:50:51        PAGE 27




Messages :     0 reported,     0 suppressed

